
../build/myb-stm32mp257x-2GB-ca35tdcid-ostl/ta/remoteproc/80a4c275-0a47-4905-8285-1486a9771a08.elf:     file format elf64-littleaarch64
../build/myb-stm32mp257x-2GB-ca35tdcid-ostl/ta/remoteproc/80a4c275-0a47-4905-8285-1486a9771a08.elf
architecture: aarch64, flags 0x00000150:
HAS_SYMS, DYNAMIC, D_PAGED
start address 0x0000000000001350

Program Header:
    LOAD off    0x0000000000001000 vaddr 0x0000000000000000 paddr 0x0000000000000000 align 2**12
         filesz 0x0000000000014670 memsz 0x0000000000014670 flags r-x
    LOAD off    0x0000000000016000 vaddr 0x0000000000015000 paddr 0x0000000000015000 align 2**12
         filesz 0x000000000000058c memsz 0x0000000000004638 flags rw-
 DYNAMIC off    0x0000000000016000 vaddr 0x0000000000015000 paddr 0x0000000000015000 align 2**3
         filesz 0x0000000000000110 memsz 0x0000000000000110 flags rw-
   STACK off    0x0000000000000000 vaddr 0x0000000000000000 paddr 0x0000000000000000 align 2**4
         filesz 0x0000000000000000 memsz 0x0000000000000000 flags rw-

Dynamic Section:
  HASH                 0x0000000000014340
  GNU_HASH             0x0000000000014250
  STRTAB               0x0000000000014310
  SYMTAB               0x0000000000014280
  STRSZ                0x000000000000002e
  SYMENT               0x0000000000000018
  DEBUG                0x0000000000000000
  RELA                 0x0000000000014370
  RELASZ               0x00000000000004b0
  RELAENT              0x0000000000000018
  FLAGS_1              0x0000000008000000
  RELACOUNT            0x0000000000000020
private flags = 0x0:

Sections:
Idx Name          Size      VMA               LMA               File off  Algn
  0 .ta_head      00000020  0000000000000000  0000000000000000  00001000  2**3
                  CONTENTS, ALLOC, LOAD, READONLY, DATA
  1 .text         0000fb4c  0000000000000020  0000000000000020  00001020  2**4
                  CONTENTS, ALLOC, LOAD, READONLY, CODE
  2 .eh_frame     000030ec  000000000000fb70  000000000000fb70  00010b70  2**3
                  CONTENTS, ALLOC, LOAD, READONLY, DATA
  3 .rodata       000015ec  0000000000012c60  0000000000012c60  00013c60  2**3
                  CONTENTS, ALLOC, LOAD, READONLY, DATA
  4 .gnu.hash     00000030  0000000000014250  0000000000014250  00015250  2**3
                  CONTENTS, ALLOC, LOAD, READONLY, DATA
  5 .dynsym       00000090  0000000000014280  0000000000014280  00015280  2**3
                  CONTENTS, ALLOC, LOAD, READONLY, DATA
  6 .dynstr       0000002e  0000000000014310  0000000000014310  00015310  2**0
                  CONTENTS, ALLOC, LOAD, READONLY, DATA
  7 .hash         0000002c  0000000000014340  0000000000014340  00015340  2**3
                  CONTENTS, ALLOC, LOAD, READONLY, DATA
  8 .rela.dyn     00000300  0000000000014370  0000000000014370  00015370  2**3
                  CONTENTS, ALLOC, LOAD, READONLY, DATA
  9 .dynamic      00000110  0000000000015000  0000000000015000  00016000  2**3
                  CONTENTS, ALLOC, LOAD, DATA
 10 .got          000000b0  0000000000015110  0000000000015110  00016110  2**3
                  CONTENTS, ALLOC, LOAD, DATA
 11 .rela.got     000001b0  00000000000151c0  00000000000151c0  000161c0  2**3
                  CONTENTS, ALLOC, LOAD, READONLY, DATA
 12 .data         0000021c  0000000000015370  0000000000015370  00016370  2**3
                  CONTENTS, ALLOC, LOAD, DATA
 13 .bss          000040a8  0000000000015590  0000000000015590  0001658c  2**3
                  ALLOC
 14 .debug_info   0001f89f  0000000000000000  0000000000000000  0001658c  2**0
                  CONTENTS, READONLY, DEBUGGING, OCTETS
 15 .debug_abbrev 00004c5d  0000000000000000  0000000000000000  00035e2b  2**0
                  CONTENTS, READONLY, DEBUGGING, OCTETS
 16 .debug_loclists 00013b54  0000000000000000  0000000000000000  0003aa88  2**0
                  CONTENTS, READONLY, DEBUGGING, OCTETS
 17 .debug_aranges 000009b0  0000000000000000  0000000000000000  0004e5e0  2**4
                  CONTENTS, READONLY, DEBUGGING, OCTETS
 18 .debug_rnglists 00000b49  0000000000000000  0000000000000000  0004ef90  2**0
                  CONTENTS, READONLY, DEBUGGING, OCTETS
 19 .debug_macro  00019ca8  0000000000000000  0000000000000000  0004fad9  2**0
                  CONTENTS, READONLY, DEBUGGING, OCTETS
 20 .debug_line   0000edc7  0000000000000000  0000000000000000  00069781  2**0
                  CONTENTS, READONLY, DEBUGGING, OCTETS
 21 .debug_str    0001ba99  0000000000000000  0000000000000000  00078548  2**0
                  CONTENTS, READONLY, DEBUGGING, OCTETS
 22 .debug_line_str 00000b12  0000000000000000  0000000000000000  00093fe1  2**0
                  CONTENTS, READONLY, DEBUGGING, OCTETS
 23 .comment      00000012  0000000000000000  0000000000000000  00094af3  2**0
                  CONTENTS, READONLY
SYMBOL TABLE:
0000000000000000 l    d  .ta_head	0000000000000000 .ta_head
0000000000000020 l    d  .text	0000000000000000 .text
000000000000fb70 l    d  .eh_frame	0000000000000000 .eh_frame
0000000000012c60 l    d  .rodata	0000000000000000 .rodata
0000000000014250 l    d  .gnu.hash	0000000000000000 .gnu.hash
0000000000014280 l    d  .dynsym	0000000000000000 .dynsym
0000000000014310 l    d  .dynstr	0000000000000000 .dynstr
0000000000014340 l    d  .hash	0000000000000000 .hash
0000000000014370 l    d  .rela.dyn	0000000000000000 .rela.dyn
0000000000015000 l    d  .dynamic	0000000000000000 .dynamic
0000000000015110 l    d  .got	0000000000000000 .got
00000000000151c0 l    d  .rela.got	0000000000000000 .rela.got
0000000000015370 l    d  .data	0000000000000000 .data
0000000000015590 l    d  .bss	0000000000000000 .bss
0000000000000000 l    d  .debug_info	0000000000000000 .debug_info
0000000000000000 l    d  .debug_abbrev	0000000000000000 .debug_abbrev
0000000000000000 l    d  .debug_loclists	0000000000000000 .debug_loclists
0000000000000000 l    d  .debug_aranges	0000000000000000 .debug_aranges
0000000000000000 l    d  .debug_rnglists	0000000000000000 .debug_rnglists
0000000000000000 l    d  .debug_macro	0000000000000000 .debug_macro
0000000000000000 l    d  .debug_line	0000000000000000 .debug_line
0000000000000000 l    d  .debug_str	0000000000000000 .debug_str
0000000000000000 l    d  .debug_line_str	0000000000000000 .debug_line_str
0000000000000000 l    d  .comment	0000000000000000 .comment
0000000000000000 l    df *ABS*	0000000000000000 user_ta_header.c
0000000000012d40 l     O .rodata	0000000000000004 __compound_literal.4
0000000000012d44 l     O .rodata	0000000000000004 __compound_literal.3
0000000000012d48 l     O .rodata	0000000000000001 __compound_literal.2
0000000000012d49 l     O .rodata	0000000000000001 __compound_literal.1
0000000000012d4a l     O .rodata	0000000000000001 __compound_literal.0
0000000000000000 l    df *ABS*	0000000000000000 memcpy.c
0000000000000000 l    df *ABS*	0000000000000000 remoteproc_core.c
00000000000000f8 l     F .text	0000000000000028 remoteproc_find_firmware
0000000000000120 l     F .text	00000000000000b0 remoteproc_get_tlv
00000000000001d0 l     F .text	000000000000019c remoteproc_load_segment
000000000000036c l     F .text	000000000000007c remoteproc_clean_resources.isra.0
0000000000012c60 l     O .rodata	0000000000000018 __func__.2
0000000000012c78 l     O .rodata	000000000000001b __func__.0
0000000000012c94 l     O .rodata	0000000000000010 uuid.7
0000000000012ca4 l     O .rodata	0000000000000013 __func__.6
0000000000012cb7 l     O .rodata	000000000000001c __func__.5
0000000000012cd8 l     O .rodata	0000000000000020 rproc_ta_sign_algo
0000000000012cf8 l     O .rodata	0000000000000016 __func__.4
0000000000012d0e l     O .rodata	0000000000000014 __func__.3
0000000000012d22 l     O .rodata	0000000000000014 __func__.1
0000000000015590 l     O .bss	0000000000000008 pta_session
0000000000015598 l     O .bss	0000000000000008 session_refcount
0000000000015370 l     O .data	0000000000000010 firmware_head
0000000000000000 l    df *ABS*	0000000000000000 elf_parser.c
0000000000013379 l     O .rodata	000000000000000f __func__.1
0000000000013388 l     O .rodata	000000000000001a __func__.0
0000000000000000 l    df *ABS*	0000000000000000 memset.c
0000000000000000 l    df *ABS*	0000000000000000 strcmp.c
0000000000000000 l    df *ABS*	0000000000000000 trace.c
000000000001346b l     O .rodata	0000000000000005 lvl_strs.0
0000000000000000 l    df *ABS*	0000000000000000 snprintk.c
0000000000001798 l     F .text	0000000000000be4 kprintf.constprop.0
0000000000012dfe l     O .rodata	0000000000000011 hexdigits
0000000000012e0f l     O .rodata	0000000000000011 HEXDIGITS
0000000000000000 l    df *ABS*	0000000000000000 memchr.c
0000000000000000 l    df *ABS*	0000000000000000 strlen.c
0000000000000000 l    df *ABS*	0000000000000000 assert.c
0000000000000000 l    df *ABS*	0000000000000000 trace_ext.c
0000000000000000 l    df *ABS*	0000000000000000 tee_api.c
00000000000025dc l     F .text	00000000000000a8 update_out_param
0000000000002744 l     F .text	00000000000001c0 copy_param
00000000000134e0 l     O .rodata	000000000000000b __func__.0
00000000000155a0 l     O .bss	0000000000000008 tee_api_instance_data
0000000000000000 l    df *ABS*	0000000000000000 tee_api_operations.c
0000000000002d3c l     F .text	0000000000000068 __tee_alg_get_main_alg
0000000000002da4 l     F .text	000000000000021c tee_buffer_update
0000000000000000 l    df *ABS*	0000000000000000 tee_api_panic.c
0000000000005b2c l     F .text	000000000000001c check_access
0000000000005b50 l     F .text	0000000000000008 check_res.part.0
0000000000005b58 l     F .text	000000000000005c __utee_check_outbuf_annotation.localalias
0000000000000000 l    df *ABS*	0000000000000000 tee_system_pta.c
0000000000005c80 l     F .text	0000000000000084 invoke_system_pta
0000000000012e20 l     O .rodata	0000000000000010 uuid.2
0000000000012e30 l     O .rodata	000000000000000a __func__.1
0000000000012e3a l     O .rodata	0000000000000017 __func__.0
00000000000155a8 l     O .bss	0000000000000008 sess.3
0000000000000000 l    df *ABS*	0000000000000000 utee_syscalls_a64.o
0000000000000000 l    df *ABS*	0000000000000000 user_ta_entry.c
000000000000616c l     F .text	00000000000000b0 _get_fn_array
000000000000621c l     F .text	000000000000005c _fini_iterate_phdr_cb
0000000000006278 l     F .text	0000000000000028 ta_header_get_session
00000000000062a0 l     F .text	0000000000000070 to_utee_params
0000000000006310 l     F .text	0000000000000060 from_utee_params
0000000000006370 l     F .text	0000000000000094 _init_iterate_phdr_cb
0000000000006534 l     F .text	0000000000000094 ta_header_remove_session
000000000001358f l     O .rodata	0000000000000016 __func__.0
00000000000155b0 l     O .bss	0000000000000008 _num_mod_init
00000000000155b8 l     O .bss	0000000000000001 init_done
0000000000015428 l     O .data	0000000000000010 ta_sessions
0000000000015438 l     O .data	0000000000000010 __phdr_info_head
0000000000000000 l    df *ABS*	0000000000000000 abort.c
0000000000000000 l    df *ABS*	0000000000000000 tee_api_arith_mpi.c
0000000000006814 l     F .text	0000000000000030 api_panic
0000000000006844 l     F .text	0000000000000030 mpi_panic
0000000000006874 l     F .text	0000000000000098 get_mpi
000000000000690c l     F .text	0000000000000068 copy_mpi_to_bigint
0000000000006974 l     F .text	0000000000000120 bigint_binary
0000000000006a94 l     F .text	0000000000000020 mpi_is_odd
0000000000006ab4 l     F .text	0000000000000028 rng_read
0000000000006adc l     F .text	0000000000000540 mpi_egcd
0000000000015618 l     O .bss	0000000000003000 data.17
00000000000073b4 l     F .text	00000000000001a4 bigint_binary_mod
0000000000013663 l     O .rodata	0000000000000008 __func__.14
000000000001366b l     O .rodata	000000000000000e __func__.10
0000000000013679 l     O .rodata	0000000000000009 __func__.2
0000000000013682 l     O .rodata	0000000000000012 __func__.16
0000000000013694 l     O .rodata	000000000000000f __func__.15
00000000000136a3 l     O .rodata	000000000000001f __func__.13
00000000000136c2 l     O .rodata	0000000000000019 __func__.12
00000000000136db l     O .rodata	0000000000000012 __func__.6
00000000000136ed l     O .rodata	0000000000000015 __func__.11
0000000000013702 l     O .rodata	000000000000000e __func__.9
0000000000013710 l     O .rodata	000000000000000e __func__.8
000000000001371e l     O .rodata	000000000000000e __func__.7
000000000001372c l     O .rodata	0000000000000011 __func__.5
000000000001373d l     O .rodata	0000000000000018 __func__.4
0000000000013755 l     O .rodata	000000000000001d __func__.3
0000000000013772 l     O .rodata	0000000000000019 __func__.1
000000000001378b l     O .rodata	0000000000000015 __func__.0
0000000000000000 l    df *ABS*	0000000000000000 tee_api_objects.c
0000000000000000 l    df *ABS*	0000000000000000 tee_api_property.c
0000000000008f80 l     F .text	000000000000006c propset_get
0000000000008fec l     F .text	000000000000002c is_propset_pseudo_handle
0000000000009018 l     F .text	0000000000000114 propget_get_ext_prop
000000000000912c l     F .text	0000000000000194 propget_get_property
0000000000012e54 l     O .rodata	0000000000000004 __compound_literal.3
0000000000012e58 l     O .rodata	0000000000000004 __compound_literal.2
0000000000012e5c l     O .rodata	0000000000000004 __compound_literal.1
0000000000012e60 l     O .rodata	0000000000000004 __compound_literal.0
0000000000000000 l    df *ABS*	0000000000000000 tcb.c
00000000000138cd l     O .rodata	0000000000000010 __func__.1
00000000000138dd l     O .rodata	0000000000000010 __func__.0
0000000000018618 l     O .bss	0000000000000008 _tls_size
0000000000018620 l     O .bss	0000000000000008 _tcb
0000000000000000 l    df *ABS*	0000000000000000 base64.c
00000000000138ed l     O .rodata	0000000000000041 base64_table
0000000000000000 l    df *ABS*	0000000000000000 bignum.c
000000000000a030 l     F .text	0000000000000058 mpi_get_digit
000000000000a088 l     F .text	000000000000040c mpi_mul_hlp
000000000000a494 l     F .text	0000000000000148 mpi_montmul
000000000000a5dc l     F .text	0000000000000040 mpi_montred
000000000000a61c l     F .text	0000000000000038 mpi_montg_init.isra.0
000000000000a654 l     F .text	0000000000000074 mpi_bigendian_to_host.part.0
000000000000a6c8 l     F .text	00000000000000c0 mpi_fill_random_internal
000000000000a918 l     F .text	000000000000006c mbedtls_mpi_resize_clear
000000000000c458 l     F .text	0000000000000094 mpi_check_small_factors
000000000000cd64 l     F .text	0000000000000270 mpi_miller_rabin
0000000000012e64 l     O .rodata	00000000000002a0 small_prime
0000000000013104 l     O .rodata	0000000000000024 gcd_pairs
0000000000000000 l    df *ABS*	0000000000000000 constant_time.c
000000000000dd5c l     F .text	0000000000000020 mbedtls_ct_uchar_mask_of_range
0000000000000000 l    df *ABS*	0000000000000000 platform_util.c
00000000000154c0 l     O .data	0000000000000008 memset_func
0000000000000000 l    df *ABS*	0000000000000000 bget_malloc.c
000000000000e534 l     F .text	0000000000000024 myrand
000000000000e558 l     F .text	0000000000000010 _assert_trap
000000000000e568 l     F .text	0000000000000028 bget_buf_size.part.0
000000000000ee08 l     F .text	0000000000000058 stats.constprop.0
000000000000f460 l     F .text	00000000000000d4 gen_malloc_add_pool
000000000001412d l     O .rodata	000000000000000e __func__.2
000000000001413b l     O .rodata	0000000000000005 __func__.9
0000000000014140 l     O .rodata	0000000000000006 __func__.8
0000000000014146 l     O .rodata	0000000000000005 __func__.6
000000000001414b l     O .rodata	0000000000000006 __func__.7
0000000000014151 l     O .rodata	0000000000000006 __func__.5
0000000000014157 l     O .rodata	0000000000000007 __func__.4
000000000001415e l     O .rodata	000000000000000f __func__.3
000000000001416d l     O .rodata	0000000000000003 CSWTCH.112
0000000000014170 l     O .rodata	0000000000000014 __func__.1
0000000000014184 l     O .rodata	0000000000000013 __func__.0
00000000000154c8 l     O .data	0000000000000008 next
0000000000018630 l     O .bss	0000000000000008 bchain
00000000000154d0 l     O .data	0000000000000038 mypoolset
0000000000015508 l     O .data	0000000000000080 malloc_ctx
0000000000000000 l    df *ABS*	0000000000000000 snprintf.c
0000000000000000 l    df *ABS*	0000000000000000 memmove.c
0000000000000000 l    df *ABS*	0000000000000000 strlcpy.c
0000000000000000 l    df *ABS*	0000000000000000 mempool.c
0000000000014220 l     O .rodata	0000000000000013 __func__.2
0000000000014233 l     O .rodata	000000000000000b __func__.1
000000000001423e l     O .rodata	000000000000000e __func__.0
0000000000000000 l    df *ABS*	0000000000000000 consttime_memcmp.c
0000000000000000 l    df *ABS*	0000000000000000 
0000000000015000 l     O *ABS*	0000000000000000 _DYNAMIC
0000000000015128 l     O *ABS*	0000000000000000 _GLOBAL_OFFSET_TABLE_
00000000000025a0 g     F .text	000000000000003c putchar
000000000000861c g     F .text	00000000000000d0 TEE_PopulateTransientObject
0000000000007fc4 g     F .text	0000000000000004 TEE_BigIntConvertToFMM
0000000000007b24 g     F .text	000000000000000c TEE_BigIntSquareMod
0000000000007558 g     F .text	000000000000016c TEE_BigIntShiftRight
000000000000f620 g     F .text	0000000000000004 raw_malloc_add_pool
0000000000005e08 g     F .text	00000000000000b8 tee_invoke_supp_plugin
000000000000a82c g     F .text	00000000000000ec mbedtls_mpi_grow
00000000000041e8 g     F .text	0000000000000070 TEE_DigestUpdate
0000000000002cf4 g     F .text	0000000000000030 TEE_Realloc
0000000000003eec g     F .text	00000000000001bc TEE_SetOperationKey2
0000000000005c54 g     F .text	000000000000002c __utee_check_inout_annotation
000000000000f24c g     F .text	0000000000000010 raw_free
0000000000002498 g     F .text	00000000000000c8 printf
00000000000086ec g     F .text	0000000000000050 TEE_InitRefAttribute
0000000000005ed8 g     F .text	000000000000000c _utee_log
00000000000029f8 g     F .text	0000000000000124 TEE_InvokeTACommand
0000000000005b58 g     F .text	000000000000005c __utee_check_outbuf_annotation
000000000000a798 g     F .text	0000000000000028 mbedtls_mpi_init_mempool
0000000000006058 g     F .text	000000000000000c _utee_cryp_random_number_generate
000000000000af7c g     F .text	00000000000000c4 mbedtls_mpi_write_binary
0000000000004d48 g     F .text	00000000000001bc TEE_AEEncryptFinal
000000000000114c g     F .text	0000000000000204 e32_parser_find_rsc_table
0000000000001054 g     F .text	00000000000000f8 e32_parser_load_elf_image
00000000000016cc g     F .text	0000000000000058 vsnprintk
000000000000b7a4 g     F .text	0000000000000044 mbedtls_mpi_sub_int
000000000000f8e0 g     F .text	0000000000000058 memmove
000000000000f810 g     F .text	0000000000000078 snprintf
000000000000736c g     F .text	0000000000000048 TEE_BigIntCmpS32
000000000000e2a8 g     F .text	000000000000026c mbedtls_ct_rsaes_pkcs1_v15_unpadding
000000000000873c g     F .text	000000000000004c TEE_InitValueAttribute
000000000000a984 g     F .text	0000000000000118 mbedtls_mpi_shrink
0000000000007750 g     F .text	000000000000000c TEE_BigIntAdd
0000000000005ff8 g     F .text	000000000000000c _utee_cryp_obj_restrict_usage
0000000000012d50 g     O .rodata	0000000000000008 ta_heap_size
00000000000085c8 g     F .text	0000000000000054 TEE_ResetTransientObject
00000000000060a0 g     F .text	000000000000000c _utee_asymm_operate
0000000000009dcc g     F .text	0000000000000018 _base64_enc_len
000000000000ba04 g     F .text	00000000000001d8 mbedtls_mpi_read_string
000000000000433c g     F .text	00000000000000e0 TEE_CipherInit
0000000000000f70 g     F .text	00000000000000e4 e32_parse_ehdr
0000000000007768 g     F .text	00000000000000b0 TEE_BigIntNeg
00000000000060f4 g     F .text	000000000000000c _utee_storage_free_enum
0000000000000020 g       .text	0000000000000000 __text_start
00000000000099d4 g     F .text	00000000000000ac TEE_GetNextProperty
0000000000008c30 g     F .text	0000000000000050 TEE_StartPersistentObjectEnumerator
000000000000b150 g     F .text	00000000000000c0 mbedtls_mpi_shift_r
000000000000f7ac g     F .text	0000000000000064 malloc_buffer_overlaps_heap
0000000000005fa4 g     F .text	000000000000000c _utee_hash_init
0000000000007b0c g     F .text	000000000000000c TEE_BigIntSubMod
000000000000d630 g     F .text	0000000000000310 mbedtls_mpi_gen_prime
0000000000009654 g     F .text	00000000000000b4 TEE_GetPropertyAsBinaryBlock
000000000000ac34 g     F .text	000000000000002c mbedtls_mpi_get_bit
000000000000ae40 g     F .text	0000000000000084 mbedtls_mpi_read_binary
0000000000004a80 g     F .text	00000000000000d0 TEE_AEInit
00000000000015c8 g     F .text	0000000000000070 trace_printf
000000000000c4f4 g     F .text	0000000000000004 mbedtls_mpi_montmul
0000000000006160 g     F .text	000000000000000c _utee_cache_operation
0000000000000020 g     F .text	00000000000000d8 memcpy
0000000000007fc8 g     F .text	000000000000009c TEE_BigIntConvertFromFMM
0000000000005b48 g     F .text	0000000000000008 TEE_Panic
00000000000040a8 g     F .text	0000000000000140 TEE_CopyOperation
0000000000002560 g     F .text	0000000000000040 puts
0000000000008064 g     F .text	0000000000000114 TEE_BigIntComputeFMM
000000000000f14c g     F .text	000000000000003c malloc_get_stats
0000000000002c54 g     F .text	0000000000000028 TEE_GetREETime
000000000000f624 g     F .text	000000000000003c raw_malloc_get_stats
0000000000008b84 g     F .text	000000000000005c TEE_AllocatePersistentObjectEnumerator
0000000000015380 g     O .data	00000000000000a8 ta_props
000000000000509c g     F .text	0000000000000140 TEE_AsymmetricEncrypt
0000000000005bb4 g     F .text	0000000000000040 __utee_check_instring_annotation
000000000000f534 g     F .text	000000000000001c malloc
00000000000098c4 g     F .text	0000000000000004 TEE_FreePropertyEnumerator
000000000000ddd4 g     F .text	0000000000000010 mbedtls_ct_mpi_uint_mask
0000000000008888 g     F .text	00000000000000a0 TEE_GenerateKey
000000000000f888 g     F .text	0000000000000058 vsnprintf
0000000000015588 g     O .data	0000000000000004 trace_level
0000000000007304 g     F .text	0000000000000068 TEE_BigIntCmp
0000000000012d38 g     O .rodata	0000000000000008 ta_num_props
000000000000ebc8 g     F .text	00000000000000dc bgetr
00000000000060b8 g     F .text	000000000000000c _utee_storage_obj_open
000000000000fae8 g     F .text	0000000000000014 mempool_free
000000000000441c g     F .text	0000000000000168 TEE_CipherUpdate
0000000000005fb0 g     F .text	000000000000000c _utee_hash_update
0000000000007164 g     F .text	0000000000000094 TEE_BigIntConvertToOctetString
0000000000003bec g     F .text	0000000000000180 TEE_GetOperationInfoMultiple
000000000000ad4c g     F .text	0000000000000060 mbedtls_mpi_bitlen
00000000000076c4 g     F .text	000000000000004c TEE_BigIntGetBit
0000000000012d58 g     O .rodata	0000000000000003 trace_ext_prefix
0000000000006118 g     F .text	000000000000000c _utee_storage_next_enum
000000000000f23c g     F .text	0000000000000010 raw_malloc
000000000000e888 g     F .text	0000000000000088 bgetz
000000000000dde4 g     F .text	0000000000000018 mbedtls_ct_size_bool_eq
0000000000002b28 g     F .text	000000000000000c TEE_GetInstanceData
0000000000002b74 g     F .text	000000000000003c TEE_Wait
000000000000b7e8 g     F .text	0000000000000174 mbedtls_mpi_mul_mpi
0000000000002d2c g     F .text	0000000000000008 TEE_CacheFlush
00000000000013d8 g     F .text	00000000000001f0 trace_vprintf
00000000000003f0 g     F .text	0000000000000004 TA_DestroyEntryPoint
000000000000a788 g     F .text	0000000000000010 mbedtls_mpi_init
00000000000060d0 g     F .text	000000000000000c _utee_storage_obj_del
000000000000acec g     F .text	0000000000000060 mbedtls_mpi_lsb
0000000000002410 g     F .text	0000000000000044 _assert_log
0000000000005f8c g     F .text	000000000000000c _utee_cryp_state_copy
0000000000007fbc g     F .text	0000000000000008 TEE_BigIntFMMContextSizeInU32
0000000000005d7c g     F .text	000000000000008c tee_unmap
00000000000049ac g     F .text	00000000000000d4 TEE_MACCompareFinal
000000000000de18 g     F .text	0000000000000030 mbedtls_ct_uint_if
0000000000008b24 g     F .text	0000000000000060 TEE_RenamePersistentObject
0000000000004258 g     F .text	00000000000000e4 TEE_DigestDoFinal
000000000000701c g     F .text	0000000000000050 _TEE_MathAPI_Init
0000000000009a80 g     F .text	0000000000000240 __utee_tcb_init
000000000000b63c g     F .text	0000000000000090 mbedtls_mpi_add_mpi
00000000000067f4 g     F .text	0000000000000020 abort
000000000000cfd4 g     F .text	000000000000017c mbedtls_mpi_random
0000000000005bf8 g     F .text	000000000000002c __utee_check_out_annotation
0000000000018638 g     O .bss	0000000000001000 ta_heap
0000000000007b30 g     F .text	000000000000011c TEE_BigIntInvMod
0000000000006404 g     F .text	0000000000000120 __utee_call_elf_init_fn
0000000000000468 g     F .text	0000000000000024 TA_CloseSessionEntryPoint
0000000000005f14 g     F .text	000000000000000c _utee_close_ta_session
00000000000051dc g     F .text	0000000000000144 TEE_AsymmetricDecrypt
0000000000008928 g     F .text	00000000000000b0 TEE_OpenPersistentObject
000000000000b6cc g     F .text	0000000000000094 mbedtls_mpi_sub_mpi
000000000000fafc g     F .text	0000000000000070 consttime_memcmp
0000000000005ecc g     F .text	000000000000000c _utee_return
0000000000005ee4 g     F .text	000000000000000c __utee_panic
000000000000dd7c g     F .text	0000000000000048 mbedtls_ct_memcmp
0000000000009cc0 g     F .text	000000000000001c __tls_get_addr
000000000000048c g     F .text	0000000000000ae4 TA_InvokeCommandEntryPoint
0000000000006524 g     F .text	0000000000000010 __utee_call_elf_fini_fn
000000000000f5d8 g     F .text	0000000000000014 free_wipe
000000000000fa38 g     F .text	0000000000000064 mempool_alloc
0000000000005ec0 g     F .text	000000000000000c _utee_panic
000000000000f5f4 g     F .text	000000000000002c raw_malloc_init_ctx
000000000000fa9c g     F .text	000000000000004c mempool_calloc
0000000000006154 g     F .text	000000000000000c _utee_cryp_obj_generate_key
0000000000008834 g     F .text	0000000000000054 TEE_CopyObjectAttributes
000000000000613c g     F .text	000000000000000c _utee_storage_obj_trunc
0000000000015448 g     O .data	0000000000000078 tee_props
0000000000005f44 g     F .text	000000000000000c _utee_unmask_cancellation
0000000000009870 g     F .text	000000000000000c TEE_ResetPropertyEnumerator
000000000000f550 g     F .text	0000000000000020 calloc
0000000000002c7c g     F .text	0000000000000068 TEE_Malloc
0000000000002730 g     F .text	0000000000000014 TEE_CheckMemoryAccessRights
0000000000009708 g     F .text	00000000000000b4 TEE_GetPropertyAsUUID
0000000000005ef0 g     F .text	000000000000000c _utee_get_property
000000000000abc8 g     F .text	000000000000006c mbedtls_mpi_lset
0000000000008d44 g     F .text	0000000000000094 TEE_ReadObjectData
00000000000082e4 g     F .text	00000000000000d0 TEE_GetObjectBufferAttribute
00000000000003f4 g     F .text	0000000000000074 TA_OpenSessionEntryPoint
0000000000002fc0 g     F .text	0000000000000044 TEE_FreeOperation
0000000000009cdc g     F .text	00000000000000f0 dl_iterate_phdr
0000000000019638 g       .bss	0000000000000000 __ftrace_buf_end
0000000000015610 g     O .bss	0000000000000004 ta_param_types
000000000000c08c g     F .text	0000000000000044 mbedtls_mpi_div_int
0000000000008178 g     F .text	0000000000000050 __utee_from_attr
000000000000d574 g     F .text	00000000000000ac mbedtls_mpi_is_prime_ext
0000000000007f54 g     F .text	0000000000000050 TEE_BigIntIsProbablePrime
000000000000b95c g     F .text	00000000000000a8 mbedtls_mpi_mul_int
0000000000008ab0 g     F .text	0000000000000048 TEE_CloseAndDeletePersistentObject1
000000000000c4fc g     F .text	000000000000065c mbedtls_mpi_exp_mod
000000000000dff4 g     F .text	00000000000000bc mbedtls_mpi_safe_cond_assign
00000000000092c0 g     F .text	0000000000000234 TEE_GetPropertyAsString
000000000000e1ac g     F .text	00000000000000fc mbedtls_mpi_lt_mpi_ct
0000000000004f04 g     F .text	0000000000000198 TEE_AEDecryptFinal
000000000000706c g     F .text	0000000000000064 TEE_BigIntInit
0000000000005bf4 g     F .text	0000000000000004 __utee_check_outstring_annotation
0000000000002b34 g     F .text	0000000000000008 TEE_MemMove
000000000000e514 g     F .text	0000000000000020 mbedtls_platform_zeroize
00000000000070d0 g     F .text	0000000000000094 TEE_BigIntConvertFromOctetString
0000000000006094 g     F .text	000000000000000c _utee_authenc_dec_final
000000000000b210 g     F .text	000000000000009c mbedtls_mpi_cmp_abs
0000000000006124 g     F .text	000000000000000c _utee_storage_obj_read
000000000000478c g     F .text	00000000000000a4 TEE_MACInit
0000000000005320 g     F .text	0000000000000138 TEE_AsymmetricSignDigest
00000000000023c8 g     F .text	000000000000002c memchr
00000000000026d8 g     F .text	000000000000002c TEE_UnmaskCancellation
00000000000081c8 g     F .text	0000000000000048 TEE_GetObjectInfo
000000000000d940 g     F .text	000000000000041c mbedtls_mpi_self_test
0000000000006148 g     F .text	000000000000000c _utee_storage_obj_seek
0000000000004be4 g     F .text	0000000000000164 TEE_AEUpdate
0000000000008574 g     F .text	0000000000000054 TEE_FreeTransientObject
0000000000005f38 g     F .text	000000000000000c _utee_check_access_rights
000000000000b37c g     F .text	0000000000000044 mbedtls_mpi_cmp_int
0000000000009ef8 g     F .text	0000000000000138 _base64_dec
0000000000006100 g     F .text	000000000000000c _utee_storage_reset_enum
000000000000df38 g     F .text	00000000000000bc mbedtls_ct_base64_dec_value
000000000000ee60 g     F .text	00000000000002d4 bget_main_test
0000000000005718 g     F .text	0000000000000024 rand
0000000000005c24 g     F .text	0000000000000030 __utee_check_attr_in_annotation
000000000000607c g     F .text	000000000000000c _utee_authenc_update_payload
0000000000003b98 g     F .text	0000000000000054 TEE_GetOperationInfo
0000000000007a94 g     F .text	000000000000006c TEE_BigIntMod
000000000000c184 g     F .text	0000000000000098 mbedtls_mpi_mod_int
000000000000adc8 g     F .text	0000000000000078 mbedtls_mpi_read_binary_le
0000000000007908 g     F .text	000000000000018c TEE_BigIntDiv
0000000000006010 g     F .text	000000000000000c _utee_cryp_obj_alloc
0000000000019638 g       .bss	0000000000000000 __ftrace_buf_start
000000000000f938 g     F .text	0000000000000038 strlcpy
000000000000de84 g     F .text	00000000000000b4 mbedtls_ct_base64_enc_char
000000000000aa9c g     F .text	00000000000000cc mbedtls_mpi_copy
000000000000573c g     F .text	00000000000003f0 TEE_IsAlgorithmSupported
000000000000f134 g     F .text	0000000000000018 malloc_reset_stats
00000000000097bc g     F .text	00000000000000b4 TEE_GetPropertyAsIdentity
000000000000237c g     F .text	000000000000004c __vsprintf
0000000000005f74 g     F .text	000000000000000c _utee_set_ta_time
0000000000005f20 g     F .text	000000000000000c _utee_invoke_ta_command
0000000000008250 g     F .text	0000000000000044 TEE_RestrictObjectUsage1
000000000000f570 g     F .text	000000000000001c realloc
000000000000ab68 g     F .text	0000000000000060 mbedtls_mpi_swap
000000000000f970 g     F .text	00000000000000c8 mempool_alloc_pool
0000000000007818 g     F .text	00000000000000e8 TEE_BigIntMul
0000000000003d6c g     F .text	0000000000000078 TEE_ResetOperation
000000000000f5ec g     F .text	0000000000000008 raw_malloc_get_ctx_size
000000000000b040 g     F .text	0000000000000110 mbedtls_mpi_shift_l
000000000000b2ac g     F .text	00000000000000d0 mbedtls_mpi_cmp_mpi
0000000000002b44 g     F .text	0000000000000008 TEE_MemFill
000000000000f660 g     F .text	0000000000000018 malloc_add_pool
0000000000004830 g     F .text	00000000000000a0 TEE_MACUpdate
00000000000013c8 g     F .text	0000000000000010 trace_get_level
000000000000b3c0 g     F .text	0000000000000120 mbedtls_mpi_add_abs
0000000000008294 g     F .text	0000000000000050 TEE_RestrictObjectUsage
0000000000007fac g     F .text	0000000000000010 TEE_BigIntFMMSizeInU32
00000000000094f4 g     F .text	00000000000000ac TEE_GetPropertyAsBool
000000000000f310 g     F .text	0000000000000150 raw_realloc
0000000000007fa4 g     F .text	0000000000000004 TEE_BigIntInitFMM
00000000000084cc g     F .text	0000000000000028 TEE_CloseObject
0000000000005fc8 g     F .text	000000000000000c _utee_cipher_init
00000000000065c8 g     F .text	000000000000022c __utee_entry
00000000000095a0 g     F .text	00000000000000b4 TEE_GetPropertyAsU32
000000000000fb6c g       .text	0000000000000000 __text_end
0000000000007c4c g     F .text	00000000000000d4 TEE_BigIntRelativePrime
000000000000c0d0 g     F .text	00000000000000b4 mbedtls_mpi_mod_mpi
0000000000005fec g     F .text	000000000000000c _utee_cryp_obj_get_info
000000000000eca4 g     F .text	00000000000000d0 bpool
000000000000987c g     F .text	0000000000000048 TEE_AllocatePropertyEnumerator
0000000000005f80 g     F .text	000000000000000c _utee_cryp_state_alloc
00000000000026ac g     F .text	000000000000002c TEE_GetCancellationFlag
000000000000cb58 g     F .text	00000000000001a4 mbedtls_mpi_gcd
0000000000002c10 g     F .text	0000000000000044 TEE_SetTAPersistentTime
000000000000aec4 g     F .text	00000000000000b8 mbedtls_mpi_write_binary_le
000000000000136c g     F .text	000000000000001c memset
000000000000f188 g     F .text	00000000000000b4 raw_memalign
0000000000002bb0 g     F .text	0000000000000060 TEE_GetTAPersistentTime
0000000000001638 g     F .text	0000000000000004 dhex_dump
00000000000089d8 g     F .text	00000000000000d8 TEE_CreatePersistentObject
0000000000002704 g     F .text	000000000000002c TEE_MaskCancellation
0000000000004b50 g     F .text	0000000000000094 TEE_AEUpdateAAD
0000000000008e48 g     F .text	0000000000000060 TEE_TruncateObjectData
0000000000006004 g     F .text	000000000000000c _utee_cryp_obj_get_attr
0000000000008210 g     F .text	0000000000000040 TEE_GetObjectInfo1
0000000000005fe0 g     F .text	000000000000000c _utee_cipher_final
00000000000013ac g     F .text	000000000000001c trace_set_level
00000000000083b4 g     F .text	0000000000000118 TEE_GetObjectValueAttribute
0000000000003de4 g     F .text	0000000000000108 TEE_SetOperationKey
000000000000ddfc g     F .text	000000000000001c mbedtls_ct_mpi_uint_lt
0000000000005f98 g     F .text	000000000000000c _utee_cryp_state_free
0000000000001388 g     F .text	0000000000000024 strcmp
0000000000005f08 g     F .text	000000000000000c _utee_open_ta_session
000000000000727c g     F .text	0000000000000088 TEE_BigIntConvertToS32
000000000000775c g     F .text	000000000000000c TEE_BigIntSub
0000000000001364 g     F .text	0000000000000008 tahead_get_trace_level
000000000000610c g     F .text	000000000000000c _utee_storage_start_enum
0000000000008ea8 g     F .text	00000000000000d8 TEE_SeekObjectData
0000000000005d04 g     F .text	0000000000000078 tee_map_zi
000000000000c4f8 g     F .text	0000000000000004 mbedtls_mpi_montred
000000000000f58c g     F .text	0000000000000020 memalign
000000000000ddc4 g     F .text	0000000000000010 mbedtls_ct_uint_mask
0000000000004584 g     F .text	0000000000000208 TEE_CipherDoFinal
00000000000071f8 g     F .text	0000000000000084 TEE_BigIntConvertFromS32
000000000000b760 g     F .text	0000000000000044 mbedtls_mpi_add_int
0000000000006088 g     F .text	000000000000000c _utee_authenc_enc_final
000000000000f678 g     F .text	0000000000000134 malloc_buffer_is_within_alloced
000000000000601c g     F .text	000000000000000c _utee_cryp_obj_close
0000000000007fa8 g     F .text	0000000000000004 TEE_BigIntInitFMMContext
0000000000005f50 g     F .text	000000000000000c _utee_mask_cancellation
00000000000060dc g     F .text	000000000000000c _utee_storage_obj_rename
0000000000008dd8 g     F .text	0000000000000070 TEE_WriteObjectData
0000000000008c08 g     F .text	0000000000000028 TEE_ResetPersistentObjectEnumerator
0000000000007900 g     F .text	0000000000000008 TEE_BigIntSquare
0000000000006130 g     F .text	000000000000000c _utee_storage_obj_write
00000000000003e8 g     F .text	0000000000000008 TA_CreateEntryPoint
0000000000001350 g     F .text	0000000000000014 __ta_entry
0000000000006070 g     F .text	000000000000000c _utee_authenc_update_aad
000000000000c4ec g     F .text	0000000000000008 mbedtls_mpi_montg_init
0000000000001724 g     F .text	0000000000000074 snprintk
0000000000007710 g     F .text	0000000000000040 TEE_BigIntGetBitCount
0000000000006040 g     F .text	000000000000000c _utee_cryp_obj_copy
0000000000007b18 g     F .text	000000000000000c TEE_BigIntMulMod
000000000000d150 g     F .text	0000000000000424 mbedtls_mpi_inv_mod
000000000000557c g     F .text	0000000000000178 TEE_DeriveKey
00000000000155d0 g     O .bss	0000000000000040 ta_params
000000000000bbdc g     F .text	00000000000004b0 mbedtls_mpi_div_mpi
000000000000adac g     F .text	000000000000001c mbedtls_mpi_size
000000000000e590 g     F .text	00000000000002f8 bget
00000000000084f4 g     F .text	0000000000000080 TEE_AllocateTransientObject
00000000000098c8 g     F .text	0000000000000010 TEE_StartPropertyEnumerator
0000000000005f5c g     F .text	000000000000000c _utee_wait
000000000000ac60 g     F .text	000000000000008c mbedtls_mpi_set_bit
0000000000002ce4 g     F .text	0000000000000010 TEE_Free
000000000000d620 g     F .text	0000000000000010 mbedtls_mpi_is_prime
0000000000002d34 g     F .text	0000000000000008 TEE_CacheInvalidate
0000000000002454 g     F .text	0000000000000014 _assert_break
0000000000007b00 g     F .text	000000000000000c TEE_BigIntAddMod
000000000000de48 g     F .text	000000000000003c mbedtls_ct_mpi_uint_cond_assign
0000000000005f68 g     F .text	000000000000000c _utee_get_time
00000000000098d8 g     F .text	00000000000000fc TEE_GetPropertyName
0000000000003004 g     F .text	0000000000000b94 TEE_AllocateOperation
0000000000006034 g     F .text	000000000000000c _utee_cryp_obj_populate
00000000000056f4 g     F .text	0000000000000024 TEE_GenerateRandom
0000000000002b3c g     F .text	0000000000000008 TEE_MemCompare
0000000000005fd4 g     F .text	000000000000000c _utee_cipher_update
000000000000163c g     F .text	0000000000000090 __vsnprintf
00000000000155c0 g     O .bss	0000000000000010 __elf_phdr_info
0000000000008be0 g     F .text	0000000000000028 TEE_FreePersistentObjectEnumerator
0000000000002904 g     F .text	00000000000000f4 TEE_OpenTASession
0000000000002468 g     F .text	0000000000000028 trace_ext_puts
0000000000002490 g     F .text	0000000000000008 trace_ext_get_thread_id
0000000000008af8 g     F .text	000000000000002c TEE_CloseAndDeletePersistentObject
000000000000604c g     F .text	000000000000000c _utee_cryp_derive_key
000000000000a7c0 g     F .text	000000000000006c mbedtls_mpi_free
0000000000006028 g     F .text	000000000000000c _utee_cryp_obj_reset
0000000000002d24 g     F .text	0000000000000008 TEE_CacheClean
0000000000005efc g     F .text	000000000000000c _utee_get_property_name_to_index
000000000000f25c g     F .text	00000000000000b4 raw_calloc
0000000000009de4 g     F .text	0000000000000114 _base64_enc
000000000000e0b0 g     F .text	00000000000000fc mbedtls_mpi_safe_cond_swap
0000000000006064 g     F .text	000000000000000c _utee_authenc_init
0000000000008788 g     F .text	00000000000000ac TEE_CopyObjectAttributes1
00000000000023f4 g     F .text	000000000000001c strlen
0000000000007d20 g     F .text	0000000000000234 TEE_BigIntComputeExtendedGcd
00000000000060e8 g     F .text	000000000000000c _utee_storage_alloc_enum
0000000000002b4c g     F .text	0000000000000028 TEE_GetSystemTime
00000000000060ac g     F .text	000000000000000c _utee_asymm_verify
0000000000000000 g     O .ta_head	0000000000000020 ta_head
000000000000e910 g     F .text	00000000000002b8 brel
000000000000b4e0 g     F .text	000000000000015c mbedtls_mpi_sub_abs
000000000000ccfc g     F .text	0000000000000068 mbedtls_mpi_fill_random
0000000000002b1c g     F .text	000000000000000c TEE_SetInstanceData
0000000000005f2c g     F .text	000000000000000c _utee_get_cancellation_flag
000000000000c21c g     F .text	000000000000023c mbedtls_mpi_write_string
000000000000f5ac g     F .text	0000000000000018 aligned_alloc
0000000000008c80 g     F .text	00000000000000c4 TEE_GetNextPersistentObject
0000000000002684 g     F .text	0000000000000028 TEE_CloseTASession
0000000000005458 g     F .text	0000000000000124 TEE_AsymmetricVerifyDigest
00000000000060c4 g     F .text	000000000000000c _utee_storage_obj_create
000000000000f5c4 g     F .text	0000000000000014 free
000000000000ed74 g     F .text	0000000000000094 bstats
00000000000048d0 g     F .text	00000000000000dc TEE_MACComputeFinal
0000000000018628 g     O .bss	0000000000000008 mbedtls_mpi_mempool
0000000000005fbc g     F .text	000000000000000c _utee_hash_final



Disassembly of section .text:

0000000000000020 <memcpy>:
memcpy():
/media/home/beste/01_Pro/ld25x/bsp_hu/MYD-LD25X-Uboot-L2022.10-V1.0.0/GEN_FIP/myir-st-optee/lib/libutils/isoc/newlib/memcpy.c:99
      20:	aa0003e5 	mov	x5, x0
/media/home/beste/01_Pro/ld25x/bsp_hu/MYD-LD25X-Uboot-L2022.10-V1.0.0/GEN_FIP/myir-st-optee/lib/libutils/isoc/newlib/memcpy.c:106
      24:	f1007c5f 	cmp	x2, #0x1f
      28:	540004c9 	b.ls	c0 <memcpy+0xa0>  // b.plast
      2c:	aa010006 	orr	x6, x0, x1
      30:	f24008c6 	ands	x6, x6, #0x7
      34:	540005a1 	b.ne	e8 <memcpy+0xc8>  // b.any
      38:	d1008048 	sub	x8, x2, #0x20
/media/home/beste/01_Pro/ld25x/bsp_hu/MYD-LD25X-Uboot-L2022.10-V1.0.0/GEN_FIP/myir-st-optee/lib/libutils/isoc/newlib/memcpy.c:108
      3c:	aa0103e4 	mov	x4, x1
      40:	927be908 	and	x8, x8, #0xffffffffffffffe0
/media/home/beste/01_Pro/ld25x/bsp_hu/MYD-LD25X-Uboot-L2022.10-V1.0.0/GEN_FIP/myir-st-optee/lib/libutils/isoc/newlib/memcpy.c:107
      44:	aa0003e3 	mov	x3, x0
      48:	91008108 	add	x8, x8, #0x20
      4c:	8b080005 	add	x5, x0, x8
/media/home/beste/01_Pro/ld25x/bsp_hu/MYD-LD25X-Uboot-L2022.10-V1.0.0/GEN_FIP/myir-st-optee/lib/libutils/isoc/newlib/memcpy.c:112
      50:	f9400087 	ldr	x7, [x4]
      54:	f9000067 	str	x7, [x3]
/media/home/beste/01_Pro/ld25x/bsp_hu/MYD-LD25X-Uboot-L2022.10-V1.0.0/GEN_FIP/myir-st-optee/lib/libutils/isoc/newlib/memcpy.c:115
      58:	91008084 	add	x4, x4, #0x20
      5c:	91008063 	add	x3, x3, #0x20
/media/home/beste/01_Pro/ld25x/bsp_hu/MYD-LD25X-Uboot-L2022.10-V1.0.0/GEN_FIP/myir-st-optee/lib/libutils/isoc/newlib/memcpy.c:113
      60:	f85e8087 	ldur	x7, [x4, #-24]
      64:	f81e8067 	stur	x7, [x3, #-24]
/media/home/beste/01_Pro/ld25x/bsp_hu/MYD-LD25X-Uboot-L2022.10-V1.0.0/GEN_FIP/myir-st-optee/lib/libutils/isoc/newlib/memcpy.c:114
      68:	f85f0087 	ldur	x7, [x4, #-16]
      6c:	f81f0067 	stur	x7, [x3, #-16]
/media/home/beste/01_Pro/ld25x/bsp_hu/MYD-LD25X-Uboot-L2022.10-V1.0.0/GEN_FIP/myir-st-optee/lib/libutils/isoc/newlib/memcpy.c:115
      70:	f85f8087 	ldur	x7, [x4, #-8]
      74:	f81f8067 	stur	x7, [x3, #-8]
/media/home/beste/01_Pro/ld25x/bsp_hu/MYD-LD25X-Uboot-L2022.10-V1.0.0/GEN_FIP/myir-st-optee/lib/libutils/isoc/newlib/memcpy.c:111
      78:	eb05007f 	cmp	x3, x5
      7c:	54fffea1 	b.ne	50 <memcpy+0x30>  // b.any
/media/home/beste/01_Pro/ld25x/bsp_hu/MYD-LD25X-Uboot-L2022.10-V1.0.0/GEN_FIP/myir-st-optee/lib/libutils/isoc/newlib/memcpy.c:115
      80:	8b080021 	add	x1, x1, x8
/media/home/beste/01_Pro/ld25x/bsp_hu/MYD-LD25X-Uboot-L2022.10-V1.0.0/GEN_FIP/myir-st-optee/lib/libutils/isoc/newlib/memcpy.c:116
      84:	92401043 	and	x3, x2, #0x1f
/media/home/beste/01_Pro/ld25x/bsp_hu/MYD-LD25X-Uboot-L2022.10-V1.0.0/GEN_FIP/myir-st-optee/lib/libutils/isoc/newlib/memcpy.c:120
      88:	f27d045f 	tst	x2, #0x18
      8c:	54000320 	b.eq	f0 <memcpy+0xd0>  // b.none
/media/home/beste/01_Pro/ld25x/bsp_hu/MYD-LD25X-Uboot-L2022.10-V1.0.0/GEN_FIP/myir-st-optee/lib/libutils/isoc/newlib/memcpy.c:121
      90:	f8666824 	ldr	x4, [x1, x6]
      94:	f82668a4 	str	x4, [x5, x6]
/media/home/beste/01_Pro/ld25x/bsp_hu/MYD-LD25X-Uboot-L2022.10-V1.0.0/GEN_FIP/myir-st-optee/lib/libutils/isoc/newlib/memcpy.c:120
      98:	910020c6 	add	x6, x6, #0x8
      9c:	cb060064 	sub	x4, x3, x6
      a0:	f1001c9f 	cmp	x4, #0x7
      a4:	54ffff68 	b.hi	90 <memcpy+0x70>  // b.pmore
      a8:	d1002063 	sub	x3, x3, #0x8
/media/home/beste/01_Pro/ld25x/bsp_hu/MYD-LD25X-Uboot-L2022.10-V1.0.0/GEN_FIP/myir-st-optee/lib/libutils/isoc/newlib/memcpy.c:122
      ac:	92400842 	and	x2, x2, #0x7
      b0:	927df063 	and	x3, x3, #0xfffffffffffffff8
      b4:	91002063 	add	x3, x3, #0x8
/media/home/beste/01_Pro/ld25x/bsp_hu/MYD-LD25X-Uboot-L2022.10-V1.0.0/GEN_FIP/myir-st-optee/lib/libutils/isoc/newlib/memcpy.c:121
      b8:	8b0300a5 	add	x5, x5, x3
      bc:	8b030021 	add	x1, x1, x3
/media/home/beste/01_Pro/ld25x/bsp_hu/MYD-LD25X-Uboot-L2022.10-V1.0.0/GEN_FIP/myir-st-optee/lib/libutils/isoc/newlib/memcpy.c:130
      c0:	d1000446 	sub	x6, x2, #0x1
      c4:	b4000102 	cbz	x2, e4 <memcpy+0xc4>
/media/home/beste/01_Pro/ld25x/bsp_hu/MYD-LD25X-Uboot-L2022.10-V1.0.0/GEN_FIP/myir-st-optee/lib/libutils/isoc/newlib/memcpy.c:99
      c8:	d2800002 	mov	x2, #0x0                   	// #0
      cc:	d503201f 	nop
/media/home/beste/01_Pro/ld25x/bsp_hu/MYD-LD25X-Uboot-L2022.10-V1.0.0/GEN_FIP/myir-st-optee/lib/libutils/isoc/newlib/memcpy.c:131
      d0:	38626824 	ldrb	w4, [x1, x2]
/media/home/beste/01_Pro/ld25x/bsp_hu/MYD-LD25X-Uboot-L2022.10-V1.0.0/GEN_FIP/myir-st-optee/lib/libutils/isoc/newlib/memcpy.c:130
      d4:	eb0200df 	cmp	x6, x2
/media/home/beste/01_Pro/ld25x/bsp_hu/MYD-LD25X-Uboot-L2022.10-V1.0.0/GEN_FIP/myir-st-optee/lib/libutils/isoc/newlib/memcpy.c:131
      d8:	382268a4 	strb	w4, [x5, x2]
/media/home/beste/01_Pro/ld25x/bsp_hu/MYD-LD25X-Uboot-L2022.10-V1.0.0/GEN_FIP/myir-st-optee/lib/libutils/isoc/newlib/memcpy.c:130
      dc:	91000442 	add	x2, x2, #0x1
      e0:	54ffff81 	b.ne	d0 <memcpy+0xb0>  // b.any
/media/home/beste/01_Pro/ld25x/bsp_hu/MYD-LD25X-Uboot-L2022.10-V1.0.0/GEN_FIP/myir-st-optee/lib/libutils/isoc/newlib/memcpy.c:135
      e4:	d65f03c0 	ret
/media/home/beste/01_Pro/ld25x/bsp_hu/MYD-LD25X-Uboot-L2022.10-V1.0.0/GEN_FIP/myir-st-optee/lib/libutils/isoc/newlib/memcpy.c:130
      e8:	d1000446 	sub	x6, x2, #0x1
      ec:	17fffff7 	b	c8 <memcpy+0xa8>
/media/home/beste/01_Pro/ld25x/bsp_hu/MYD-LD25X-Uboot-L2022.10-V1.0.0/GEN_FIP/myir-st-optee/lib/libutils/isoc/newlib/memcpy.c:116
      f0:	aa0303e2 	mov	x2, x3
      f4:	17fffff3 	b	c0 <memcpy+0xa0>

00000000000000f8 <remoteproc_find_firmware>:
remoteproc_find_firmware():
/media/home/beste/01_Pro/ld25x/bsp_hu/MYD-LD25X-Uboot-L2022.10-V1.0.0/GEN_FIP/myir-st-optee/ta/remoteproc/src/remoteproc_core.c:263
      f8:	2a0003e1 	mov	w1, w0
/media/home/beste/01_Pro/ld25x/bsp_hu/MYD-LD25X-Uboot-L2022.10-V1.0.0/GEN_FIP/myir-st-optee/ta/remoteproc/src/remoteproc_core.c:266
      fc:	b00000a0 	adrp	x0, 15000 <_DYNAMIC>
     100:	f941b800 	ldr	x0, [x0, #880]
/media/home/beste/01_Pro/ld25x/bsp_hu/MYD-LD25X-Uboot-L2022.10-V1.0.0/GEN_FIP/myir-st-optee/ta/remoteproc/src/remoteproc_core.c:266 (discriminator 1)
     104:	b5000040 	cbnz	x0, 10c <remoteproc_find_firmware+0x14>
/media/home/beste/01_Pro/ld25x/bsp_hu/MYD-LD25X-Uboot-L2022.10-V1.0.0/GEN_FIP/myir-st-optee/ta/remoteproc/src/remoteproc_core.c:271
     108:	d65f03c0 	ret
/media/home/beste/01_Pro/ld25x/bsp_hu/MYD-LD25X-Uboot-L2022.10-V1.0.0/GEN_FIP/myir-st-optee/ta/remoteproc/src/remoteproc_core.c:267
     10c:	b9400002 	ldr	w2, [x0]
     110:	6b01005f 	cmp	w2, w1
     114:	54ffffa0 	b.eq	108 <remoteproc_find_firmware+0x10>  // b.none
/media/home/beste/01_Pro/ld25x/bsp_hu/MYD-LD25X-Uboot-L2022.10-V1.0.0/GEN_FIP/myir-st-optee/ta/remoteproc/src/remoteproc_core.c:266 (discriminator 2)
     118:	f9403000 	ldr	x0, [x0, #96]
     11c:	17fffffa 	b	104 <remoteproc_find_firmware+0xc>

0000000000000120 <remoteproc_get_tlv>:
remoteproc_get_tlv():
/media/home/beste/01_Pro/ld25x/bsp_hu/MYD-LD25X-Uboot-L2022.10-V1.0.0/GEN_FIP/myir-st-optee/ta/remoteproc/src/remoteproc_core.c:229
     120:	a9bb7bfd 	stp	x29, x30, [sp, #-80]!
     124:	910003fd 	mov	x29, sp
     128:	a90153f3 	stp	x19, x20, [sp, #16]
     12c:	aa0303f4 	mov	x20, x3
     130:	aa0003f3 	mov	x19, x0
     134:	a9025bf5 	stp	x21, x22, [sp, #32]
     138:	aa0403f5 	mov	x21, x4
/media/home/beste/01_Pro/ld25x/bsp_hu/MYD-LD25X-Uboot-L2022.10-V1.0.0/GEN_FIP/myir-st-optee/ta/remoteproc/src/remoteproc_core.c:231
     13c:	8b010016 	add	x22, x0, x1
/media/home/beste/01_Pro/ld25x/bsp_hu/MYD-LD25X-Uboot-L2022.10-V1.0.0/GEN_FIP/myir-st-optee/ta/remoteproc/src/remoteproc_core.c:229
     140:	a90363f7 	stp	x23, x24, [sp, #48]
     144:	12003c57 	and	w23, w2, #0xffff
/media/home/beste/01_Pro/ld25x/bsp_hu/MYD-LD25X-Uboot-L2022.10-V1.0.0/GEN_FIP/myir-st-optee/ta/remoteproc/src/remoteproc_core.c:236
     148:	f900007f 	str	xzr, [x3]
/media/home/beste/01_Pro/ld25x/bsp_hu/MYD-LD25X-Uboot-L2022.10-V1.0.0/GEN_FIP/myir-st-optee/ta/remoteproc/src/remoteproc_core.c:241
     14c:	910133e3 	add	x3, sp, #0x4c
/media/home/beste/01_Pro/ld25x/bsp_hu/MYD-LD25X-Uboot-L2022.10-V1.0.0/GEN_FIP/myir-st-optee/ta/remoteproc/src/remoteproc_core.c:237
     150:	f900009f 	str	xzr, [x4]
/media/home/beste/01_Pro/ld25x/bsp_hu/MYD-LD25X-Uboot-L2022.10-V1.0.0/GEN_FIP/myir-st-optee/ta/remoteproc/src/remoteproc_core.c:240
     154:	eb16027f 	cmp	x19, x22
     158:	54000242 	b.cs	1a0 <remoteproc_get_tlv+0x80>  // b.hs, b.nlast
/media/home/beste/01_Pro/ld25x/bsp_hu/MYD-LD25X-Uboot-L2022.10-V1.0.0/GEN_FIP/myir-st-optee/ta/remoteproc/src/remoteproc_core.c:241
     15c:	aa0303e0 	mov	x0, x3
     160:	aa1303e1 	mov	x1, x19
     164:	d2800082 	mov	x2, #0x4                   	// #4
     168:	97ffffae 	bl	20 <memcpy>
/media/home/beste/01_Pro/ld25x/bsp_hu/MYD-LD25X-Uboot-L2022.10-V1.0.0/GEN_FIP/myir-st-optee/ta/remoteproc/src/remoteproc_core.c:243
     16c:	d2800082 	mov	x2, #0x4                   	// #4
/media/home/beste/01_Pro/ld25x/bsp_hu/MYD-LD25X-Uboot-L2022.10-V1.0.0/GEN_FIP/myir-st-optee/ta/remoteproc/src/remoteproc_core.c:242
     170:	b9404ff8 	ldr	w24, [sp, #76]
/media/home/beste/01_Pro/ld25x/bsp_hu/MYD-LD25X-Uboot-L2022.10-V1.0.0/GEN_FIP/myir-st-optee/ta/remoteproc/src/remoteproc_core.c:243
     174:	8b020261 	add	x1, x19, x2
     178:	97ffffaa 	bl	20 <memcpy>
/media/home/beste/01_Pro/ld25x/bsp_hu/MYD-LD25X-Uboot-L2022.10-V1.0.0/GEN_FIP/myir-st-optee/ta/remoteproc/src/remoteproc_core.c:244
     17c:	b9404fe1 	ldr	w1, [sp, #76]
/media/home/beste/01_Pro/ld25x/bsp_hu/MYD-LD25X-Uboot-L2022.10-V1.0.0/GEN_FIP/myir-st-optee/ta/remoteproc/src/remoteproc_core.c:243
     180:	aa0003e3 	mov	x3, x0
/media/home/beste/01_Pro/ld25x/bsp_hu/MYD-LD25X-Uboot-L2022.10-V1.0.0/GEN_FIP/myir-st-optee/ta/remoteproc/src/remoteproc_core.c:245
     184:	6b1802ff 	cmp	w23, w24
     188:	2a0103e0 	mov	w0, w1
     18c:	54000161 	b.ne	1b8 <remoteproc_get_tlv+0x98>  // b.any
/media/home/beste/01_Pro/ld25x/bsp_hu/MYD-LD25X-Uboot-L2022.10-V1.0.0/GEN_FIP/myir-st-optee/ta/remoteproc/src/remoteproc_core.c:249
     190:	91002273 	add	x19, x19, #0x8
     194:	f9000293 	str	x19, [x20]
/media/home/beste/01_Pro/ld25x/bsp_hu/MYD-LD25X-Uboot-L2022.10-V1.0.0/GEN_FIP/myir-st-optee/ta/remoteproc/src/remoteproc_core.c:250
     198:	f90002a0 	str	x0, [x21]
/media/home/beste/01_Pro/ld25x/bsp_hu/MYD-LD25X-Uboot-L2022.10-V1.0.0/GEN_FIP/myir-st-optee/ta/remoteproc/src/remoteproc_core.c:251
     19c:	35000161 	cbnz	w1, 1c8 <remoteproc_get_tlv+0xa8>
/media/home/beste/01_Pro/ld25x/bsp_hu/MYD-LD25X-Uboot-L2022.10-V1.0.0/GEN_FIP/myir-st-optee/ta/remoteproc/src/remoteproc_core.c:254
     1a0:	129ffe80 	mov	w0, #0xffff000b            	// #-65525
/media/home/beste/01_Pro/ld25x/bsp_hu/MYD-LD25X-Uboot-L2022.10-V1.0.0/GEN_FIP/myir-st-optee/ta/remoteproc/src/remoteproc_core.c:260
     1a4:	a94153f3 	ldp	x19, x20, [sp, #16]
     1a8:	a9425bf5 	ldp	x21, x22, [sp, #32]
     1ac:	a94363f7 	ldp	x23, x24, [sp, #48]
     1b0:	a8c57bfd 	ldp	x29, x30, [sp], #80
     1b4:	d65f03c0 	ret
/media/home/beste/01_Pro/ld25x/bsp_hu/MYD-LD25X-Uboot-L2022.10-V1.0.0/GEN_FIP/myir-st-optee/ta/remoteproc/src/remoteproc_core.c:256
     1b8:	91003c00 	add	x0, x0, #0xf
     1bc:	927df000 	and	x0, x0, #0xfffffffffffffff8
     1c0:	8b000273 	add	x19, x19, x0
     1c4:	17ffffe4 	b	154 <remoteproc_get_tlv+0x34>
/media/home/beste/01_Pro/ld25x/bsp_hu/MYD-LD25X-Uboot-L2022.10-V1.0.0/GEN_FIP/myir-st-optee/ta/remoteproc/src/remoteproc_core.c:252
     1c8:	52800000 	mov	w0, #0x0                   	// #0
     1cc:	17fffff6 	b	1a4 <remoteproc_get_tlv+0x84>

00000000000001d0 <remoteproc_load_segment>:
remoteproc_load_segment():
/media/home/beste/01_Pro/ld25x/bsp_hu/MYD-LD25X-Uboot-L2022.10-V1.0.0/GEN_FIP/myir-st-optee/ta/remoteproc/src/remoteproc_core.c:813
     1d0:	a9b97bfd 	stp	x29, x30, [sp, #-112]!
     1d4:	910003fd 	mov	x29, sp
get_segment_hash():
/media/home/beste/01_Pro/ld25x/bsp_hu/MYD-LD25X-Uboot-L2022.10-V1.0.0/GEN_FIP/myir-st-optee/ta/remoteproc/src/remoteproc_core.c:731
     1d8:	f9401885 	ldr	x5, [x4, #48]
remoteproc_load_segment():
/media/home/beste/01_Pro/ld25x/bsp_hu/MYD-LD25X-Uboot-L2022.10-V1.0.0/GEN_FIP/myir-st-optee/ta/remoteproc/src/remoteproc_core.c:813
     1dc:	a9025bf5 	stp	x21, x22, [sp, #32]
     1e0:	2a0203f6 	mov	w22, w2
     1e4:	b9403882 	ldr	w2, [x4, #56]
     1e8:	a90153f3 	stp	x19, x20, [sp, #16]
     1ec:	2a0303f4 	mov	w20, w3
     1f0:	8b0218a2 	add	x2, x5, x2, lsl #6
/media/home/beste/01_Pro/ld25x/bsp_hu/MYD-LD25X-Uboot-L2022.10-V1.0.0/GEN_FIP/myir-st-optee/ta/remoteproc/src/remoteproc_core.c:819
     1f4:	a9037fff 	stp	xzr, xzr, [sp, #48]
     1f8:	a9047fff 	stp	xzr, xzr, [sp, #64]
     1fc:	a9057fff 	stp	xzr, xzr, [sp, #80]
     200:	a9067fff 	stp	xzr, xzr, [sp, #96]
get_segment_hash():
/media/home/beste/01_Pro/ld25x/bsp_hu/MYD-LD25X-Uboot-L2022.10-V1.0.0/GEN_FIP/myir-st-optee/ta/remoteproc/src/remoteproc_core.c:733
     204:	eb0200bf 	cmp	x5, x2
     208:	540000e1 	b.ne	224 <remoteproc_load_segment+0x54>  // b.any
     20c:	129ffe93 	mov	w19, #0xffff000b            	// #-65525
remoteproc_load_segment():
/media/home/beste/01_Pro/ld25x/bsp_hu/MYD-LD25X-Uboot-L2022.10-V1.0.0/GEN_FIP/myir-st-optee/ta/remoteproc/src/remoteproc_core.c:870
     210:	a9425bf5 	ldp	x21, x22, [sp, #32]
     214:	2a1303e0 	mov	w0, w19
     218:	a94153f3 	ldp	x19, x20, [sp, #16]
     21c:	a8c77bfd 	ldp	x29, x30, [sp], #112
     220:	d65f03c0 	ret
get_segment_hash():
/media/home/beste/01_Pro/ld25x/bsp_hu/MYD-LD25X-Uboot-L2022.10-V1.0.0/GEN_FIP/myir-st-optee/ta/remoteproc/src/remoteproc_core.c:734
     224:	b9400ca3 	ldr	w3, [x5, #12]
     228:	6b0302df 	cmp	w22, w3
     22c:	54000060 	b.eq	238 <remoteproc_load_segment+0x68>  // b.none
/media/home/beste/01_Pro/ld25x/bsp_hu/MYD-LD25X-Uboot-L2022.10-V1.0.0/GEN_FIP/myir-st-optee/ta/remoteproc/src/remoteproc_core.c:733
     230:	910100a5 	add	x5, x5, #0x40
     234:	17fffff4 	b	204 <remoteproc_load_segment+0x34>
/media/home/beste/01_Pro/ld25x/bsp_hu/MYD-LD25X-Uboot-L2022.10-V1.0.0/GEN_FIP/myir-st-optee/ta/remoteproc/src/remoteproc_core.c:741
     238:	b94000a2 	ldr	w2, [x5]
     23c:	7100045f 	cmp	w2, #0x1
     240:	540008e1 	b.ne	35c <remoteproc_load_segment+0x18c>  // b.any
/media/home/beste/01_Pro/ld25x/bsp_hu/MYD-LD25X-Uboot-L2022.10-V1.0.0/GEN_FIP/myir-st-optee/ta/remoteproc/src/remoteproc_core.c:744
     244:	b94010b5 	ldr	w21, [x5, #16]
     248:	6b15003f 	cmp	w1, w21
     24c:	54000881 	b.ne	35c <remoteproc_load_segment+0x18c>  // b.any
     250:	b94014a1 	ldr	w1, [x5, #20]
     254:	6b01029f 	cmp	w20, w1
     258:	54000821 	b.ne	35c <remoteproc_load_segment+0x18c>  // b.any
/media/home/beste/01_Pro/ld25x/bsp_hu/MYD-LD25X-Uboot-L2022.10-V1.0.0/GEN_FIP/myir-st-optee/ta/remoteproc/src/remoteproc_core.c:747
     25c:	f9401081 	ldr	x1, [x4, #32]
     260:	eb01001f 	cmp	x0, x1
     264:	540007c3 	b.cc	35c <remoteproc_load_segment+0x18c>  // b.lo, b.ul, b.last
/media/home/beste/01_Pro/ld25x/bsp_hu/MYD-LD25X-Uboot-L2022.10-V1.0.0/GEN_FIP/myir-st-optee/ta/remoteproc/src/remoteproc_core.c:748
     268:	f9401482 	ldr	x2, [x4, #40]
     26c:	8b020021 	add	x1, x1, x2
/media/home/beste/01_Pro/ld25x/bsp_hu/MYD-LD25X-Uboot-L2022.10-V1.0.0/GEN_FIP/myir-st-optee/ta/remoteproc/src/remoteproc_core.c:747
     270:	eb01001f 	cmp	x0, x1
     274:	54000748 	b.hi	35c <remoteproc_load_segment+0x18c>  // b.pmore
/media/home/beste/01_Pro/ld25x/bsp_hu/MYD-LD25X-Uboot-L2022.10-V1.0.0/GEN_FIP/myir-st-optee/ta/remoteproc/src/remoteproc_core.c:749
     278:	8b354002 	add	x2, x0, w21, uxtw
/media/home/beste/01_Pro/ld25x/bsp_hu/MYD-LD25X-Uboot-L2022.10-V1.0.0/GEN_FIP/myir-st-optee/ta/remoteproc/src/remoteproc_core.c:748
     27c:	eb02003f 	cmp	x1, x2
     280:	540006e3 	b.cc	35c <remoteproc_load_segment+0x18c>  // b.lo, b.ul, b.last
remoteproc_load_segment():
/media/home/beste/01_Pro/ld25x/bsp_hu/MYD-LD25X-Uboot-L2022.10-V1.0.0/GEN_FIP/myir-st-optee/ta/remoteproc/src/remoteproc_core.c:835
     284:	b9400081 	ldr	w1, [x4]
get_segment_hash():
/media/home/beste/01_Pro/ld25x/bsp_hu/MYD-LD25X-Uboot-L2022.10-V1.0.0/GEN_FIP/myir-st-optee/ta/remoteproc/src/remoteproc_core.c:752
     288:	910080a5 	add	x5, x5, #0x20
remoteproc_load_segment():
/media/home/beste/01_Pro/ld25x/bsp_hu/MYD-LD25X-Uboot-L2022.10-V1.0.0/GEN_FIP/myir-st-optee/ta/remoteproc/src/remoteproc_core.c:835
     28c:	b90033e1 	str	w1, [sp, #48]
/media/home/beste/01_Pro/ld25x/bsp_hu/MYD-LD25X-Uboot-L2022.10-V1.0.0/GEN_FIP/myir-st-optee/ta/remoteproc/src/remoteproc_core.c:836
     290:	f90023e0 	str	x0, [sp, #64]
/media/home/beste/01_Pro/ld25x/bsp_hu/MYD-LD25X-Uboot-L2022.10-V1.0.0/GEN_FIP/myir-st-optee/ta/remoteproc/src/remoteproc_core.c:840
     294:	52800400 	mov	w0, #0x20                  	// #32
/media/home/beste/01_Pro/ld25x/bsp_hu/MYD-LD25X-Uboot-L2022.10-V1.0.0/GEN_FIP/myir-st-optee/ta/remoteproc/src/remoteproc_core.c:837
     298:	b9004bf5 	str	w21, [sp, #72]
/media/home/beste/01_Pro/ld25x/bsp_hu/MYD-LD25X-Uboot-L2022.10-V1.0.0/GEN_FIP/myir-st-optee/ta/remoteproc/src/remoteproc_core.c:838
     29c:	b90053f6 	str	w22, [sp, #80]
/media/home/beste/01_Pro/ld25x/bsp_hu/MYD-LD25X-Uboot-L2022.10-V1.0.0/GEN_FIP/myir-st-optee/ta/remoteproc/src/remoteproc_core.c:839
     2a0:	f90033e5 	str	x5, [sp, #96]
/media/home/beste/01_Pro/ld25x/bsp_hu/MYD-LD25X-Uboot-L2022.10-V1.0.0/GEN_FIP/myir-st-optee/ta/remoteproc/src/remoteproc_core.c:840
     2a4:	b9006be0 	str	w0, [sp, #104]
/media/home/beste/01_Pro/ld25x/bsp_hu/MYD-LD25X-Uboot-L2022.10-V1.0.0/GEN_FIP/myir-st-optee/ta/remoteproc/src/remoteproc_core.c:842
     2a8:	340002b5 	cbz	w21, 2fc <remoteproc_load_segment+0x12c>
/media/home/beste/01_Pro/ld25x/bsp_hu/MYD-LD25X-Uboot-L2022.10-V1.0.0/GEN_FIP/myir-st-optee/ta/remoteproc/src/remoteproc_core.c:843
     2ac:	b00000a0 	adrp	x0, 15000 <_DYNAMIC>
     2b0:	9100c3e4 	add	x4, sp, #0x30
     2b4:	d2800005 	mov	x5, #0x0                   	// #0
     2b8:	528a2a23 	mov	w3, #0x5151                	// #20817
     2bc:	f942c800 	ldr	x0, [x0, #1424]
     2c0:	52800062 	mov	w2, #0x3                   	// #3
     2c4:	12800001 	mov	w1, #0xffffffff            	// #-1
     2c8:	940009cc 	bl	29f8 <TEE_InvokeTACommand>
     2cc:	2a0003f3 	mov	w19, w0
/media/home/beste/01_Pro/ld25x/bsp_hu/MYD-LD25X-Uboot-L2022.10-V1.0.0/GEN_FIP/myir-st-optee/ta/remoteproc/src/remoteproc_core.c:846
     2d0:	34000160 	cbz	w0, 2fc <remoteproc_load_segment+0x12c>
/media/home/beste/01_Pro/ld25x/bsp_hu/MYD-LD25X-Uboot-L2022.10-V1.0.0/GEN_FIP/myir-st-optee/ta/remoteproc/src/remoteproc_core.c:847
     2d4:	f0000084 	adrp	x4, 13000 <small_prime+0x19c>
     2d8:	2a0003e5 	mov	w5, w0
     2dc:	9104a084 	add	x4, x4, #0x128
     2e0:	52800023 	mov	w3, #0x1                   	// #1
     2e4:	52800022 	mov	w2, #0x1                   	// #1
     2e8:	528069e1 	mov	w1, #0x34f                 	// #847
/media/home/beste/01_Pro/ld25x/bsp_hu/MYD-LD25X-Uboot-L2022.10-V1.0.0/GEN_FIP/myir-st-optee/ta/remoteproc/src/remoteproc_core.c:866
     2ec:	d0000080 	adrp	x0, 12000 <__text_end+0x2494>
     2f0:	91318000 	add	x0, x0, #0xc60
     2f4:	940004b5 	bl	15c8 <trace_printf>
     2f8:	17ffffc6 	b	210 <remoteproc_load_segment+0x40>
/media/home/beste/01_Pro/ld25x/bsp_hu/MYD-LD25X-Uboot-L2022.10-V1.0.0/GEN_FIP/myir-st-optee/ta/remoteproc/src/remoteproc_core.c:853
     2fc:	6b15029f 	cmp	w20, w21
     300:	54000329 	b.ls	364 <remoteproc_load_segment+0x194>  // b.plast
/media/home/beste/01_Pro/ld25x/bsp_hu/MYD-LD25X-Uboot-L2022.10-V1.0.0/GEN_FIP/myir-st-optee/ta/remoteproc/src/remoteproc_core.c:862
     304:	b00000a0 	adrp	x0, 15000 <_DYNAMIC>
/media/home/beste/01_Pro/ld25x/bsp_hu/MYD-LD25X-Uboot-L2022.10-V1.0.0/GEN_FIP/myir-st-optee/ta/remoteproc/src/remoteproc_core.c:858
     308:	0b1502d6 	add	w22, w22, w21
/media/home/beste/01_Pro/ld25x/bsp_hu/MYD-LD25X-Uboot-L2022.10-V1.0.0/GEN_FIP/myir-st-optee/ta/remoteproc/src/remoteproc_core.c:859
     30c:	4b150294 	sub	w20, w20, w21
/media/home/beste/01_Pro/ld25x/bsp_hu/MYD-LD25X-Uboot-L2022.10-V1.0.0/GEN_FIP/myir-st-optee/ta/remoteproc/src/remoteproc_core.c:862
     310:	9100c3e4 	add	x4, sp, #0x30
     314:	f942c800 	ldr	x0, [x0, #1424]
     318:	d2800005 	mov	x5, #0x0                   	// #0
     31c:	52822223 	mov	w3, #0x1111                	// #4369
     320:	52800082 	mov	w2, #0x4                   	// #4
     324:	12800001 	mov	w1, #0xffffffff            	// #-1
/media/home/beste/01_Pro/ld25x/bsp_hu/MYD-LD25X-Uboot-L2022.10-V1.0.0/GEN_FIP/myir-st-optee/ta/remoteproc/src/remoteproc_core.c:858
     328:	b90043f6 	str	w22, [sp, #64]
/media/home/beste/01_Pro/ld25x/bsp_hu/MYD-LD25X-Uboot-L2022.10-V1.0.0/GEN_FIP/myir-st-optee/ta/remoteproc/src/remoteproc_core.c:859
     32c:	b90053f4 	str	w20, [sp, #80]
/media/home/beste/01_Pro/ld25x/bsp_hu/MYD-LD25X-Uboot-L2022.10-V1.0.0/GEN_FIP/myir-st-optee/ta/remoteproc/src/remoteproc_core.c:860
     330:	b90063ff 	str	wzr, [sp, #96]
/media/home/beste/01_Pro/ld25x/bsp_hu/MYD-LD25X-Uboot-L2022.10-V1.0.0/GEN_FIP/myir-st-optee/ta/remoteproc/src/remoteproc_core.c:862
     334:	940009b1 	bl	29f8 <TEE_InvokeTACommand>
     338:	2a0003f3 	mov	w19, w0
/media/home/beste/01_Pro/ld25x/bsp_hu/MYD-LD25X-Uboot-L2022.10-V1.0.0/GEN_FIP/myir-st-optee/ta/remoteproc/src/remoteproc_core.c:865
     33c:	34fff6a0 	cbz	w0, 210 <remoteproc_load_segment+0x40>
/media/home/beste/01_Pro/ld25x/bsp_hu/MYD-LD25X-Uboot-L2022.10-V1.0.0/GEN_FIP/myir-st-optee/ta/remoteproc/src/remoteproc_core.c:866
     340:	f0000084 	adrp	x4, 13000 <small_prime+0x19c>
     344:	2a0003e5 	mov	w5, w0
     348:	91052c84 	add	x4, x4, #0x14b
     34c:	52800023 	mov	w3, #0x1                   	// #1
     350:	52800022 	mov	w2, #0x1                   	// #1
     354:	52806c41 	mov	w1, #0x362                 	// #866
     358:	17ffffe5 	b	2ec <remoteproc_load_segment+0x11c>
get_segment_hash():
/media/home/beste/01_Pro/ld25x/bsp_hu/MYD-LD25X-Uboot-L2022.10-V1.0.0/GEN_FIP/myir-st-optee/ta/remoteproc/src/remoteproc_core.c:742
     35c:	129fff33 	mov	w19, #0xffff0006            	// #-65530
     360:	17ffffac 	b	210 <remoteproc_load_segment+0x40>
remoteproc_load_segment():
/media/home/beste/01_Pro/ld25x/bsp_hu/MYD-LD25X-Uboot-L2022.10-V1.0.0/GEN_FIP/myir-st-optee/ta/remoteproc/src/remoteproc_core.c:862
     364:	52800013 	mov	w19, #0x0                   	// #0
     368:	17ffffaa 	b	210 <remoteproc_load_segment+0x40>

000000000000036c <remoteproc_clean_resources.isra.0>:
remoteproc_clean_resources():
/media/home/beste/01_Pro/ld25x/bsp_hu/MYD-LD25X-Uboot-L2022.10-V1.0.0/GEN_FIP/myir-st-optee/ta/remoteproc/src/remoteproc_core.c:760
     36c:	a9ba7bfd 	stp	x29, x30, [sp, #-96]!
/media/home/beste/01_Pro/ld25x/bsp_hu/MYD-LD25X-Uboot-L2022.10-V1.0.0/GEN_FIP/myir-st-optee/ta/remoteproc/src/remoteproc_core.c:767
     370:	d2800782 	mov	x2, #0x3c                  	// #60
     374:	52800001 	mov	w1, #0x0                   	// #0
/media/home/beste/01_Pro/ld25x/bsp_hu/MYD-LD25X-Uboot-L2022.10-V1.0.0/GEN_FIP/myir-st-optee/ta/remoteproc/src/remoteproc_core.c:760
     378:	910003fd 	mov	x29, sp
     37c:	f9000bf3 	str	x19, [sp, #16]
     380:	2a0003f3 	mov	w19, w0
/media/home/beste/01_Pro/ld25x/bsp_hu/MYD-LD25X-Uboot-L2022.10-V1.0.0/GEN_FIP/myir-st-optee/ta/remoteproc/src/remoteproc_core.c:767
     384:	910093e0 	add	x0, sp, #0x24
     388:	940003f9 	bl	136c <memset>
/media/home/beste/01_Pro/ld25x/bsp_hu/MYD-LD25X-Uboot-L2022.10-V1.0.0/GEN_FIP/myir-st-optee/ta/remoteproc/src/remoteproc_core.c:772
     38c:	b00000a0 	adrp	x0, 15000 <_DYNAMIC>
     390:	910083e4 	add	x4, sp, #0x20
     394:	d2800005 	mov	x5, #0x0                   	// #0
     398:	52800023 	mov	w3, #0x1                   	// #1
     39c:	f942c800 	ldr	x0, [x0, #1424]
     3a0:	52800142 	mov	w2, #0xa                   	// #10
     3a4:	12800001 	mov	w1, #0xffffffff            	// #-1
/media/home/beste/01_Pro/ld25x/bsp_hu/MYD-LD25X-Uboot-L2022.10-V1.0.0/GEN_FIP/myir-st-optee/ta/remoteproc/src/remoteproc_core.c:770
     3a8:	b90023f3 	str	w19, [sp, #32]
/media/home/beste/01_Pro/ld25x/bsp_hu/MYD-LD25X-Uboot-L2022.10-V1.0.0/GEN_FIP/myir-st-optee/ta/remoteproc/src/remoteproc_core.c:772
     3ac:	94000993 	bl	29f8 <TEE_InvokeTACommand>
/media/home/beste/01_Pro/ld25x/bsp_hu/MYD-LD25X-Uboot-L2022.10-V1.0.0/GEN_FIP/myir-st-optee/ta/remoteproc/src/remoteproc_core.c:777
     3b0:	34000160 	cbz	w0, 3dc <remoteproc_clean_resources.isra.0+0x70>
_assert_trap():
/media/home/beste/01_Pro/ld25x/bsp_hu/MYD-LD25X-Uboot-L2022.10-V1.0.0/GEN_FIP/myir-st-optee/../build/myb-stm32mp257x-2GB-ca35tdcid-ostl/export-ta_arm64/include/assert.h:19
     3b4:	d0000083 	adrp	x3, 12000 <__text_end+0x2494>
     3b8:	91318063 	add	x3, x3, #0xc60
     3bc:	91006063 	add	x3, x3, #0x18
     3c0:	f0000081 	adrp	x1, 13000 <small_prime+0x19c>
     3c4:	f0000080 	adrp	x0, 13000 <small_prime+0x19c>
     3c8:	9105b421 	add	x1, x1, #0x16d
     3cc:	91064400 	add	x0, x0, #0x191
     3d0:	52806122 	mov	w2, #0x309                 	// #777
     3d4:	9400080f 	bl	2410 <_assert_log>
/media/home/beste/01_Pro/ld25x/bsp_hu/MYD-LD25X-Uboot-L2022.10-V1.0.0/GEN_FIP/myir-st-optee/../build/myb-stm32mp257x-2GB-ca35tdcid-ostl/export-ta_arm64/include/assert.h:20
     3d8:	9400081f 	bl	2454 <_assert_break>
remoteproc_clean_resources():
/media/home/beste/01_Pro/ld25x/bsp_hu/MYD-LD25X-Uboot-L2022.10-V1.0.0/GEN_FIP/myir-st-optee/ta/remoteproc/src/remoteproc_core.c:778
     3dc:	f9400bf3 	ldr	x19, [sp, #16]
     3e0:	a8c67bfd 	ldp	x29, x30, [sp], #96
     3e4:	d65f03c0 	ret

00000000000003e8 <TA_CreateEntryPoint>:
TA_CreateEntryPoint():
/media/home/beste/01_Pro/ld25x/bsp_hu/MYD-LD25X-Uboot-L2022.10-V1.0.0/GEN_FIP/myir-st-optee/ta/remoteproc/src/remoteproc_core.c:1154
     3e8:	52800000 	mov	w0, #0x0                   	// #0
     3ec:	d65f03c0 	ret

00000000000003f0 <TA_DestroyEntryPoint>:
TA_DestroyEntryPoint():
/media/home/beste/01_Pro/ld25x/bsp_hu/MYD-LD25X-Uboot-L2022.10-V1.0.0/GEN_FIP/myir-st-optee/ta/remoteproc/src/remoteproc_core.c:1158
     3f0:	d65f03c0 	ret

00000000000003f4 <TA_OpenSessionEntryPoint>:
TA_OpenSessionEntryPoint():
/media/home/beste/01_Pro/ld25x/bsp_hu/MYD-LD25X-Uboot-L2022.10-V1.0.0/GEN_FIP/myir-st-optee/ta/remoteproc/src/remoteproc_core.c:1177
     3f4:	7100041f 	cmp	w0, #0x1
     3f8:	54000341 	b.ne	460 <TA_OpenSessionEntryPoint+0x6c>  // b.any
/media/home/beste/01_Pro/ld25x/bsp_hu/MYD-LD25X-Uboot-L2022.10-V1.0.0/GEN_FIP/myir-st-optee/ta/remoteproc/src/remoteproc_core.c:1169
     3fc:	a9be7bfd 	stp	x29, x30, [sp, #-32]!
     400:	2a0003e2 	mov	w2, w0
     404:	910003fd 	mov	x29, sp
     408:	f9000bf3 	str	x19, [sp, #16]
/media/home/beste/01_Pro/ld25x/bsp_hu/MYD-LD25X-Uboot-L2022.10-V1.0.0/GEN_FIP/myir-st-optee/ta/remoteproc/src/remoteproc_core.c:1180
     40c:	b00000b3 	adrp	x19, 15000 <_DYNAMIC>
     410:	91164264 	add	x4, x19, #0x590
     414:	f9400480 	ldr	x0, [x4, #8]
     418:	b4000120 	cbz	x0, 43c <TA_OpenSessionEntryPoint+0x48>
/media/home/beste/01_Pro/ld25x/bsp_hu/MYD-LD25X-Uboot-L2022.10-V1.0.0/GEN_FIP/myir-st-optee/ta/remoteproc/src/remoteproc_core.c:1187
     41c:	91164273 	add	x19, x19, #0x590
     420:	f9400660 	ldr	x0, [x19, #8]
     424:	91000400 	add	x0, x0, #0x1
     428:	f9000660 	str	x0, [x19, #8]
/media/home/beste/01_Pro/ld25x/bsp_hu/MYD-LD25X-Uboot-L2022.10-V1.0.0/GEN_FIP/myir-st-optee/ta/remoteproc/src/remoteproc_core.c:1189
     42c:	52800000 	mov	w0, #0x0                   	// #0
/media/home/beste/01_Pro/ld25x/bsp_hu/MYD-LD25X-Uboot-L2022.10-V1.0.0/GEN_FIP/myir-st-optee/ta/remoteproc/src/remoteproc_core.c:1190
     430:	f9400bf3 	ldr	x19, [sp, #16]
     434:	a8c27bfd 	ldp	x29, x30, [sp], #32
     438:	d65f03c0 	ret
/media/home/beste/01_Pro/ld25x/bsp_hu/MYD-LD25X-Uboot-L2022.10-V1.0.0/GEN_FIP/myir-st-optee/ta/remoteproc/src/remoteproc_core.c:1181
     43c:	d0000080 	adrp	x0, 12000 <__text_end+0x2494>
     440:	91318000 	add	x0, x0, #0xc60
     444:	aa0103e3 	mov	x3, x1
     448:	9100d000 	add	x0, x0, #0x34
     44c:	d2800005 	mov	x5, #0x0                   	// #0
     450:	12800001 	mov	w1, #0xffffffff            	// #-1
     454:	9400092c 	bl	2904 <TEE_OpenTASession>
/media/home/beste/01_Pro/ld25x/bsp_hu/MYD-LD25X-Uboot-L2022.10-V1.0.0/GEN_FIP/myir-st-optee/ta/remoteproc/src/remoteproc_core.c:1183
     458:	34fffe20 	cbz	w0, 41c <TA_OpenSessionEntryPoint+0x28>
     45c:	17fffff5 	b	430 <TA_OpenSessionEntryPoint+0x3c>
/media/home/beste/01_Pro/ld25x/bsp_hu/MYD-LD25X-Uboot-L2022.10-V1.0.0/GEN_FIP/myir-st-optee/ta/remoteproc/src/remoteproc_core.c:1178
     460:	129fff20 	mov	w0, #0xffff0006            	// #-65530
/media/home/beste/01_Pro/ld25x/bsp_hu/MYD-LD25X-Uboot-L2022.10-V1.0.0/GEN_FIP/myir-st-optee/ta/remoteproc/src/remoteproc_core.c:1190
     464:	d65f03c0 	ret

0000000000000468 <TA_CloseSessionEntryPoint>:
TA_CloseSessionEntryPoint():
/media/home/beste/01_Pro/ld25x/bsp_hu/MYD-LD25X-Uboot-L2022.10-V1.0.0/GEN_FIP/myir-st-optee/ta/remoteproc/src/remoteproc_core.c:1194
     468:	b00000a1 	adrp	x1, 15000 <_DYNAMIC>
     46c:	91164022 	add	x2, x1, #0x590
     470:	f9400440 	ldr	x0, [x2, #8]
     474:	d1000400 	sub	x0, x0, #0x1
     478:	f9000440 	str	x0, [x2, #8]
/media/home/beste/01_Pro/ld25x/bsp_hu/MYD-LD25X-Uboot-L2022.10-V1.0.0/GEN_FIP/myir-st-optee/ta/remoteproc/src/remoteproc_core.c:1196
     47c:	b5000060 	cbnz	x0, 488 <TA_CloseSessionEntryPoint+0x20>
/media/home/beste/01_Pro/ld25x/bsp_hu/MYD-LD25X-Uboot-L2022.10-V1.0.0/GEN_FIP/myir-st-optee/ta/remoteproc/src/remoteproc_core.c:1197
     480:	f942c820 	ldr	x0, [x1, #1424]
     484:	14000880 	b	2684 <TEE_CloseTASession>
/media/home/beste/01_Pro/ld25x/bsp_hu/MYD-LD25X-Uboot-L2022.10-V1.0.0/GEN_FIP/myir-st-optee/ta/remoteproc/src/remoteproc_core.c:1198
     488:	d65f03c0 	ret

000000000000048c <TA_InvokeCommandEntryPoint>:
TA_InvokeCommandEntryPoint():
/media/home/beste/01_Pro/ld25x/bsp_hu/MYD-LD25X-Uboot-L2022.10-V1.0.0/GEN_FIP/myir-st-optee/ta/remoteproc/src/remoteproc_core.c:1203
     48c:	a9af7bfd 	stp	x29, x30, [sp, #-272]!
     490:	2a0203e6 	mov	w6, w2
     494:	910003fd 	mov	x29, sp
     498:	a90153f3 	stp	x19, x20, [sp, #16]
     49c:	a9025bf5 	stp	x21, x22, [sp, #32]
     4a0:	aa0303f5 	mov	x21, x3
     4a4:	a90363f7 	stp	x23, x24, [sp, #48]
     4a8:	a9046bf9 	stp	x25, x26, [sp, #64]
     4ac:	a90573fb 	stp	x27, x28, [sp, #80]
/media/home/beste/01_Pro/ld25x/bsp_hu/MYD-LD25X-Uboot-L2022.10-V1.0.0/GEN_FIP/myir-st-optee/ta/remoteproc/src/remoteproc_core.c:1204
     4b0:	71000c3f 	cmp	w1, #0x3
     4b4:	54005000 	b.eq	eb4 <TA_InvokeCommandEntryPoint+0xa28>  // b.none
     4b8:	2a0103f3 	mov	w19, w1
     4bc:	540000e8 	b.hi	4d8 <TA_InvokeCommandEntryPoint+0x4c>  // b.pmore
     4c0:	7100043f 	cmp	w1, #0x1
     4c4:	54000240 	b.eq	50c <TA_InvokeCommandEntryPoint+0x80>  // b.none
     4c8:	7100083f 	cmp	w1, #0x2
     4cc:	54004bc0 	b.eq	e44 <TA_InvokeCommandEntryPoint+0x9b8>  // b.none
/media/home/beste/01_Pro/ld25x/bsp_hu/MYD-LD25X-Uboot-L2022.10-V1.0.0/GEN_FIP/myir-st-optee/ta/remoteproc/src/remoteproc_core.c:1216
     4d0:	129fff3c 	mov	w28, #0xffff0006            	// #-65530
     4d4:	14000006 	b	4ec <TA_InvokeCommandEntryPoint+0x60>
/media/home/beste/01_Pro/ld25x/bsp_hu/MYD-LD25X-Uboot-L2022.10-V1.0.0/GEN_FIP/myir-st-optee/ta/remoteproc/src/remoteproc_core.c:1204
     4d8:	7100103f 	cmp	w1, #0x4
     4dc:	540052a0 	b.eq	f30 <TA_InvokeCommandEntryPoint+0xaa4>  // b.none
     4e0:	129ffedc 	mov	w28, #0xffff0009            	// #-65527
     4e4:	7100143f 	cmp	w1, #0x5
     4e8:	54ffff41 	b.ne	4d0 <TA_InvokeCommandEntryPoint+0x44>  // b.any
/media/home/beste/01_Pro/ld25x/bsp_hu/MYD-LD25X-Uboot-L2022.10-V1.0.0/GEN_FIP/myir-st-optee/ta/remoteproc/src/remoteproc_core.c:1218
     4ec:	a94153f3 	ldp	x19, x20, [sp, #16]
     4f0:	2a1c03e0 	mov	w0, w28
     4f4:	a9425bf5 	ldp	x21, x22, [sp, #32]
     4f8:	a94363f7 	ldp	x23, x24, [sp, #48]
     4fc:	a9446bf9 	ldp	x25, x26, [sp, #64]
     500:	a94573fb 	ldp	x27, x28, [sp, #80]
     504:	a8d17bfd 	ldp	x29, x30, [sp], #272
     508:	d65f03c0 	ret
remoteproc_load_fw():
/media/home/beste/01_Pro/ld25x/bsp_hu/MYD-LD25X-Uboot-L2022.10-V1.0.0/GEN_FIP/myir-st-optee/ta/remoteproc/src/remoteproc_core.c:984
     50c:	b9400074 	ldr	w20, [x3]
/media/home/beste/01_Pro/ld25x/bsp_hu/MYD-LD25X-Uboot-L2022.10-V1.0.0/GEN_FIP/myir-st-optee/ta/remoteproc/src/remoteproc_core.c:987
     510:	7101445f 	cmp	w2, #0x51
     514:	54fffde1 	b.ne	4d0 <TA_InvokeCommandEntryPoint+0x44>  // b.any
/media/home/beste/01_Pro/ld25x/bsp_hu/MYD-LD25X-Uboot-L2022.10-V1.0.0/GEN_FIP/myir-st-optee/ta/remoteproc/src/remoteproc_core.c:990
     518:	2a1403e0 	mov	w0, w20
     51c:	97fffef7 	bl	f8 <remoteproc_find_firmware>
     520:	aa0003f3 	mov	x19, x0
/media/home/beste/01_Pro/ld25x/bsp_hu/MYD-LD25X-Uboot-L2022.10-V1.0.0/GEN_FIP/myir-st-optee/ta/remoteproc/src/remoteproc_core.c:991
     524:	b50001c0 	cbnz	x0, 55c <TA_InvokeCommandEntryPoint+0xd0>
remoteproc_add_firmware():
/media/home/beste/01_Pro/ld25x/bsp_hu/MYD-LD25X-Uboot-L2022.10-V1.0.0/GEN_FIP/myir-st-optee/ta/remoteproc/src/remoteproc_core.c:277
     528:	52800001 	mov	w1, #0x0                   	// #0
     52c:	52800e00 	mov	w0, #0x70                  	// #112
     530:	940009d3 	bl	2c7c <TEE_Malloc>
     534:	aa0003f3 	mov	x19, x0
/media/home/beste/01_Pro/ld25x/bsp_hu/MYD-LD25X-Uboot-L2022.10-V1.0.0/GEN_FIP/myir-st-optee/ta/remoteproc/src/remoteproc_core.c:278
     538:	b4005180 	cbz	x0, f68 <TA_InvokeCommandEntryPoint+0xadc>
/media/home/beste/01_Pro/ld25x/bsp_hu/MYD-LD25X-Uboot-L2022.10-V1.0.0/GEN_FIP/myir-st-optee/ta/remoteproc/src/remoteproc_core.c:283
     53c:	b00000a0 	adrp	x0, 15000 <_DYNAMIC>
     540:	910dc000 	add	x0, x0, #0x370
     544:	f9400401 	ldr	x1, [x0, #8]
/media/home/beste/01_Pro/ld25x/bsp_hu/MYD-LD25X-Uboot-L2022.10-V1.0.0/GEN_FIP/myir-st-optee/ta/remoteproc/src/remoteproc_core.c:281
     548:	b9000274 	str	w20, [x19]
/media/home/beste/01_Pro/ld25x/bsp_hu/MYD-LD25X-Uboot-L2022.10-V1.0.0/GEN_FIP/myir-st-optee/ta/remoteproc/src/remoteproc_core.c:283
     54c:	a906067f 	stp	xzr, x1, [x19, #96]
     550:	f9000033 	str	x19, [x1]
     554:	91018261 	add	x1, x19, #0x60
     558:	f9000401 	str	x1, [x0, #8]
remoteproc_load_fw():
/media/home/beste/01_Pro/ld25x/bsp_hu/MYD-LD25X-Uboot-L2022.10-V1.0.0/GEN_FIP/myir-st-optee/ta/remoteproc/src/remoteproc_core.c:996
     55c:	b9405260 	ldr	w0, [x19, #80]
     560:	35004880 	cbnz	w0, e70 <TA_InvokeCommandEntryPoint+0x9e4>
/media/home/beste/01_Pro/ld25x/bsp_hu/MYD-LD25X-Uboot-L2022.10-V1.0.0/GEN_FIP/myir-st-optee/ta/remoteproc/src/remoteproc_core.c:999
     564:	f9400aa0 	ldr	x0, [x21, #16]
     568:	910042b6 	add	x22, x21, #0x10
     56c:	b4fffb20 	cbz	x0, 4d0 <TA_InvokeCommandEntryPoint+0x44>
     570:	b9400ac0 	ldr	w0, [x22, #8]
     574:	34fffae0 	cbz	w0, 4d0 <TA_InvokeCommandEntryPoint+0x44>
remoteproc_get_mems():
/media/home/beste/01_Pro/ld25x/bsp_hu/MYD-LD25X-Uboot-L2022.10-V1.0.0/GEN_FIP/myir-st-optee/ta/remoteproc/src/remoteproc_core.c:790
     578:	b00000bb 	adrp	x27, 15000 <_DYNAMIC>
     57c:	b9400274 	ldr	w20, [x19]
/media/home/beste/01_Pro/ld25x/bsp_hu/MYD-LD25X-Uboot-L2022.10-V1.0.0/GEN_FIP/myir-st-optee/ta/remoteproc/src/remoteproc_core.c:786
     580:	910353e0 	add	x0, sp, #0xd4
     584:	d2800782 	mov	x2, #0x3c                  	// #60
     588:	52800001 	mov	w1, #0x0                   	// #0
     58c:	f90037e0 	str	x0, [sp, #104]
     590:	94000377 	bl	136c <memset>
/media/home/beste/01_Pro/ld25x/bsp_hu/MYD-LD25X-Uboot-L2022.10-V1.0.0/GEN_FIP/myir-st-optee/ta/remoteproc/src/remoteproc_core.c:790
     594:	910343f7 	add	x23, sp, #0xd0
     598:	f942cb60 	ldr	x0, [x27, #1424]
     59c:	aa1703e4 	mov	x4, x23
     5a0:	d2800005 	mov	x5, #0x0                   	// #0
     5a4:	52800023 	mov	w3, #0x1                   	// #1
     5a8:	52800162 	mov	w2, #0xb                   	// #11
     5ac:	12800001 	mov	w1, #0xffffffff            	// #-1
/media/home/beste/01_Pro/ld25x/bsp_hu/MYD-LD25X-Uboot-L2022.10-V1.0.0/GEN_FIP/myir-st-optee/ta/remoteproc/src/remoteproc_core.c:788
     5b0:	b900d3f4 	str	w20, [sp, #208]
/media/home/beste/01_Pro/ld25x/bsp_hu/MYD-LD25X-Uboot-L2022.10-V1.0.0/GEN_FIP/myir-st-optee/ta/remoteproc/src/remoteproc_core.c:790
     5b4:	94000911 	bl	29f8 <TEE_InvokeTACommand>
     5b8:	d0000094 	adrp	x20, 12000 <__text_end+0x2494>
     5bc:	2a0003fc 	mov	w28, w0
remoteproc_load_fw():
/media/home/beste/01_Pro/ld25x/bsp_hu/MYD-LD25X-Uboot-L2022.10-V1.0.0/GEN_FIP/myir-st-optee/ta/remoteproc/src/remoteproc_core.c:1006
     5c0:	340001e0 	cbz	w0, 5fc <TA_InvokeCommandEntryPoint+0x170>
/media/home/beste/01_Pro/ld25x/bsp_hu/MYD-LD25X-Uboot-L2022.10-V1.0.0/GEN_FIP/myir-st-optee/ta/remoteproc/src/remoteproc_core.c:1007
     5c4:	91318280 	add	x0, x20, #0xc60
     5c8:	f0000084 	adrp	x4, 13000 <small_prime+0x19c>
     5cc:	91011000 	add	x0, x0, #0x44
     5d0:	91065884 	add	x4, x4, #0x196
     5d4:	52800023 	mov	w3, #0x1                   	// #1
     5d8:	52800022 	mov	w2, #0x1                   	// #1
     5dc:	52807de1 	mov	w1, #0x3ef                 	// #1007
     5e0:	940003fa 	bl	15c8 <trace_printf>
/media/home/beste/01_Pro/ld25x/bsp_hu/MYD-LD25X-Uboot-L2022.10-V1.0.0/GEN_FIP/myir-st-optee/ta/remoteproc/src/remoteproc_core.c:1034
     5e4:	f9400660 	ldr	x0, [x19, #8]
/media/home/beste/01_Pro/ld25x/bsp_hu/MYD-LD25X-Uboot-L2022.10-V1.0.0/GEN_FIP/myir-st-optee/ta/remoteproc/src/remoteproc_core.c:1030
     5e8:	a9027e7f 	stp	xzr, xzr, [x19, #32]
/media/home/beste/01_Pro/ld25x/bsp_hu/MYD-LD25X-Uboot-L2022.10-V1.0.0/GEN_FIP/myir-st-optee/ta/remoteproc/src/remoteproc_core.c:1031
     5ec:	b9003a7f 	str	wzr, [x19, #56]
/media/home/beste/01_Pro/ld25x/bsp_hu/MYD-LD25X-Uboot-L2022.10-V1.0.0/GEN_FIP/myir-st-optee/ta/remoteproc/src/remoteproc_core.c:1034
     5f0:	940009bd 	bl	2ce4 <TEE_Free>
/media/home/beste/01_Pro/ld25x/bsp_hu/MYD-LD25X-Uboot-L2022.10-V1.0.0/GEN_FIP/myir-st-optee/ta/remoteproc/src/remoteproc_core.c:1035
     5f4:	f900067f 	str	xzr, [x19, #8]
/media/home/beste/01_Pro/ld25x/bsp_hu/MYD-LD25X-Uboot-L2022.10-V1.0.0/GEN_FIP/myir-st-optee/ta/remoteproc/src/remoteproc_core.c:1037
     5f8:	17ffffbd 	b	4ec <TA_InvokeCommandEntryPoint+0x60>
/media/home/beste/01_Pro/ld25x/bsp_hu/MYD-LD25X-Uboot-L2022.10-V1.0.0/GEN_FIP/myir-st-optee/ta/remoteproc/src/remoteproc_core.c:1011
     5fc:	f9400aa0 	ldr	x0, [x21, #16]
     600:	f90033e0 	str	x0, [sp, #96]
get_rproc_pta_capabilities():
/media/home/beste/01_Pro/ld25x/bsp_hu/MYD-LD25X-Uboot-L2022.10-V1.0.0/GEN_FIP/myir-st-optee/ta/remoteproc/src/remoteproc_core.c:469
     604:	f94037e0 	ldr	x0, [sp, #104]
     608:	d2800782 	mov	x2, #0x3c                  	// #60
     60c:	52800001 	mov	w1, #0x0                   	// #0
remoteproc_load_fw():
/media/home/beste/01_Pro/ld25x/bsp_hu/MYD-LD25X-Uboot-L2022.10-V1.0.0/GEN_FIP/myir-st-optee/ta/remoteproc/src/remoteproc_core.c:1011
     610:	b9400ad6 	ldr	w22, [x22, #8]
get_rproc_pta_capabilities():
/media/home/beste/01_Pro/ld25x/bsp_hu/MYD-LD25X-Uboot-L2022.10-V1.0.0/GEN_FIP/myir-st-optee/ta/remoteproc/src/remoteproc_core.c:469
     614:	94000356 	bl	136c <memset>
/media/home/beste/01_Pro/ld25x/bsp_hu/MYD-LD25X-Uboot-L2022.10-V1.0.0/GEN_FIP/myir-st-optee/ta/remoteproc/src/remoteproc_core.c:472
     618:	b9400260 	ldr	w0, [x19]
/media/home/beste/01_Pro/ld25x/bsp_hu/MYD-LD25X-Uboot-L2022.10-V1.0.0/GEN_FIP/myir-st-optee/ta/remoteproc/src/remoteproc_core.c:474
     61c:	aa1703e4 	mov	x4, x23
/media/home/beste/01_Pro/ld25x/bsp_hu/MYD-LD25X-Uboot-L2022.10-V1.0.0/GEN_FIP/myir-st-optee/ta/remoteproc/src/remoteproc_core.c:472
     620:	b900d3e0 	str	w0, [sp, #208]
/media/home/beste/01_Pro/ld25x/bsp_hu/MYD-LD25X-Uboot-L2022.10-V1.0.0/GEN_FIP/myir-st-optee/ta/remoteproc/src/remoteproc_core.c:474
     624:	d2800005 	mov	x5, #0x0                   	// #0
     628:	f942cb60 	ldr	x0, [x27, #1424]
     62c:	52804423 	mov	w3, #0x221                 	// #545
     630:	52800022 	mov	w2, #0x1                   	// #1
     634:	12800001 	mov	w1, #0xffffffff            	// #-1
     638:	940008f0 	bl	29f8 <TEE_InvokeTACommand>
     63c:	2a0003fc 	mov	w28, w0
/media/home/beste/01_Pro/ld25x/bsp_hu/MYD-LD25X-Uboot-L2022.10-V1.0.0/GEN_FIP/myir-st-optee/ta/remoteproc/src/remoteproc_core.c:477
     640:	350005e0 	cbnz	w0, 6fc <TA_InvokeCommandEntryPoint+0x270>
/media/home/beste/01_Pro/ld25x/bsp_hu/MYD-LD25X-Uboot-L2022.10-V1.0.0/GEN_FIP/myir-st-optee/ta/remoteproc/src/remoteproc_core.c:481
     644:	b940f3e1 	ldr	w1, [sp, #240]
/media/home/beste/01_Pro/ld25x/bsp_hu/MYD-LD25X-Uboot-L2022.10-V1.0.0/GEN_FIP/myir-st-optee/ta/remoteproc/src/remoteproc_core.c:480
     648:	b940e3e0 	ldr	w0, [sp, #224]
/media/home/beste/01_Pro/ld25x/bsp_hu/MYD-LD25X-Uboot-L2022.10-V1.0.0/GEN_FIP/myir-st-optee/ta/remoteproc/src/remoteproc_core.c:481
     64c:	290a8660 	stp	w0, w1, [x19, #84]
remoteproc_verify_firmware():
/media/home/beste/01_Pro/ld25x/bsp_hu/MYD-LD25X-Uboot-L2022.10-V1.0.0/GEN_FIP/myir-st-optee/ta/remoteproc/src/remoteproc_core.c:540
     650:	360026e1 	tbz	w1, #0, b2c <TA_InvokeCommandEntryPoint+0x6a0>
     654:	7100041f 	cmp	w0, #0x1
     658:	540026a1 	b.ne	b2c <TA_InvokeCommandEntryPoint+0x6a0>  // b.any
remoteproc_save_fw_header_and_tlvs():
/media/home/beste/01_Pro/ld25x/bsp_hu/MYD-LD25X-Uboot-L2022.10-V1.0.0/GEN_FIP/myir-st-optee/ta/remoteproc/src/remoteproc_core.c:357
     65c:	f94033e0 	ldr	x0, [sp, #96]
     660:	f240041f 	tst	x0, #0x3
     664:	54000161 	b.ne	690 <TA_InvokeCommandEntryPoint+0x204>  // b.any
/media/home/beste/01_Pro/ld25x/bsp_hu/MYD-LD25X-Uboot-L2022.10-V1.0.0/GEN_FIP/myir-st-optee/ta/remoteproc/src/remoteproc_core.c:360
     668:	b9400801 	ldr	w1, [x0, #8]
     66c:	11001c35 	add	w21, w1, #0x7
     670:	121d72b5 	and	w21, w21, #0xfffffff8
     674:	310052b5 	adds	w21, w21, #0x14
     678:	540000c2 	b.cs	690 <TA_InvokeCommandEntryPoint+0x204>  // b.hs, b.nlast
/media/home/beste/01_Pro/ld25x/bsp_hu/MYD-LD25X-Uboot-L2022.10-V1.0.0/GEN_FIP/myir-st-optee/ta/remoteproc/src/remoteproc_core.c:361
     67c:	b9400c02 	ldr	w2, [x0, #12]
     680:	11001c40 	add	w0, w2, #0x7
     684:	121d7000 	and	w0, w0, #0xfffffff8
     688:	2b0002b5 	adds	w21, w21, w0
     68c:	54000063 	b.cc	698 <TA_InvokeCommandEntryPoint+0x20c>  // b.lo, b.ul, b.last
/media/home/beste/01_Pro/ld25x/bsp_hu/MYD-LD25X-Uboot-L2022.10-V1.0.0/GEN_FIP/myir-st-optee/ta/remoteproc/src/remoteproc_core.c:358
     690:	129fff3c 	mov	w28, #0xffff0006            	// #-65530
     694:	1400001a 	b	6fc <TA_InvokeCommandEntryPoint+0x270>
/media/home/beste/01_Pro/ld25x/bsp_hu/MYD-LD25X-Uboot-L2022.10-V1.0.0/GEN_FIP/myir-st-optee/ta/remoteproc/src/remoteproc_core.c:364
     698:	6b1502df 	cmp	w22, w21
     69c:	54ffffa9 	b.ls	690 <TA_InvokeCommandEntryPoint+0x204>  // b.plast
     6a0:	34ffff82 	cbz	w2, 690 <TA_InvokeCommandEntryPoint+0x204>
     6a4:	34ffff61 	cbz	w1, 690 <TA_InvokeCommandEntryPoint+0x204>
/media/home/beste/01_Pro/ld25x/bsp_hu/MYD-LD25X-Uboot-L2022.10-V1.0.0/GEN_FIP/myir-st-optee/ta/remoteproc/src/remoteproc_core.c:370
     6a8:	2a1503e0 	mov	w0, w21
     6ac:	52800001 	mov	w1, #0x0                   	// #0
     6b0:	94000973 	bl	2c7c <TEE_Malloc>
     6b4:	f9000660 	str	x0, [x19, #8]
/media/home/beste/01_Pro/ld25x/bsp_hu/MYD-LD25X-Uboot-L2022.10-V1.0.0/GEN_FIP/myir-st-optee/ta/remoteproc/src/remoteproc_core.c:371
     6b8:	b40023e0 	cbz	x0, b34 <TA_InvokeCommandEntryPoint+0x6a8>
/media/home/beste/01_Pro/ld25x/bsp_hu/MYD-LD25X-Uboot-L2022.10-V1.0.0/GEN_FIP/myir-st-optee/ta/remoteproc/src/remoteproc_core.c:374
     6bc:	f94033e1 	ldr	x1, [sp, #96]
     6c0:	2a1503e2 	mov	w2, w21
     6c4:	97fffe57 	bl	20 <memcpy>
remoteproc_verify_firmware():
/media/home/beste/01_Pro/ld25x/bsp_hu/MYD-LD25X-Uboot-L2022.10-V1.0.0/GEN_FIP/myir-st-optee/ta/remoteproc/src/remoteproc_core.c:553
     6c8:	f9400675 	ldr	x21, [x19, #8]
remoteproc_verify_header():
/media/home/beste/01_Pro/ld25x/bsp_hu/MYD-LD25X-Uboot-L2022.10-V1.0.0/GEN_FIP/myir-st-optee/ta/remoteproc/src/remoteproc_core.c:443
     6cc:	52948d00 	mov	w0, #0xa468                	// #42088
     6d0:	72a6a860 	movk	w0, #0x3543, lsl #16
     6d4:	b94002a1 	ldr	w1, [x21]
     6d8:	6b00003f 	cmp	w1, w0
     6dc:	54000081 	b.ne	6ec <TA_InvokeCommandEntryPoint+0x260>  // b.any
/media/home/beste/01_Pro/ld25x/bsp_hu/MYD-LD25X-Uboot-L2022.10-V1.0.0/GEN_FIP/myir-st-optee/ta/remoteproc/src/remoteproc_core.c:446
     6e0:	b94006ba 	ldr	w26, [x21, #4]
     6e4:	7100075f 	cmp	w26, #0x1
     6e8:	54000380 	b.eq	758 <TA_InvokeCommandEntryPoint+0x2cc>  // b.none
/media/home/beste/01_Pro/ld25x/bsp_hu/MYD-LD25X-Uboot-L2022.10-V1.0.0/GEN_FIP/myir-st-optee/ta/remoteproc/src/remoteproc_core.c:444
     6ec:	129fff3c 	mov	w28, #0xffff0006            	// #-65530
remoteproc_verify_firmware():
/media/home/beste/01_Pro/ld25x/bsp_hu/MYD-LD25X-Uboot-L2022.10-V1.0.0/GEN_FIP/myir-st-optee/ta/remoteproc/src/remoteproc_core.c:580
     6f0:	f9400660 	ldr	x0, [x19, #8]
     6f4:	9400097c 	bl	2ce4 <TEE_Free>
/media/home/beste/01_Pro/ld25x/bsp_hu/MYD-LD25X-Uboot-L2022.10-V1.0.0/GEN_FIP/myir-st-optee/ta/remoteproc/src/remoteproc_core.c:581
     6f8:	f900067f 	str	xzr, [x19, #8]
remoteproc_load_fw():
/media/home/beste/01_Pro/ld25x/bsp_hu/MYD-LD25X-Uboot-L2022.10-V1.0.0/GEN_FIP/myir-st-optee/ta/remoteproc/src/remoteproc_core.c:1014
     6fc:	91318280 	add	x0, x20, #0xc60
     700:	f0000084 	adrp	x4, 13000 <small_prime+0x19c>
     704:	2a1c03e5 	mov	w5, w28
     708:	9107f484 	add	x4, x4, #0x1fd
     70c:	91011000 	add	x0, x0, #0x44
     710:	52800023 	mov	w3, #0x1                   	// #1
     714:	52800022 	mov	w2, #0x1                   	// #1
     718:	52807ec1 	mov	w1, #0x3f6                 	// #1014
remoteproc_load_elf():
/media/home/beste/01_Pro/ld25x/bsp_hu/MYD-LD25X-Uboot-L2022.10-V1.0.0/GEN_FIP/myir-st-optee/ta/remoteproc/src/remoteproc_core.c:887
     71c:	940003ab 	bl	15c8 <trace_printf>
remoteproc_release_mems():
/media/home/beste/01_Pro/ld25x/bsp_hu/MYD-LD25X-Uboot-L2022.10-V1.0.0/GEN_FIP/myir-st-optee/ta/remoteproc/src/remoteproc_core.c:801
     720:	f94037e0 	ldr	x0, [sp, #104]
     724:	d2800782 	mov	x2, #0x3c                  	// #60
     728:	b9400274 	ldr	w20, [x19]
     72c:	52800001 	mov	w1, #0x0                   	// #0
     730:	9400030f 	bl	136c <memset>
/media/home/beste/01_Pro/ld25x/bsp_hu/MYD-LD25X-Uboot-L2022.10-V1.0.0/GEN_FIP/myir-st-optee/ta/remoteproc/src/remoteproc_core.c:803
     734:	b900d3f4 	str	w20, [sp, #208]
/media/home/beste/01_Pro/ld25x/bsp_hu/MYD-LD25X-Uboot-L2022.10-V1.0.0/GEN_FIP/myir-st-optee/ta/remoteproc/src/remoteproc_core.c:805
     738:	f942cb60 	ldr	x0, [x27, #1424]
     73c:	aa1703e4 	mov	x4, x23
     740:	d2800005 	mov	x5, #0x0                   	// #0
     744:	52800023 	mov	w3, #0x1                   	// #1
     748:	52800182 	mov	w2, #0xc                   	// #12
     74c:	12800001 	mov	w1, #0xffffffff            	// #-1
     750:	940008aa 	bl	29f8 <TEE_InvokeTACommand>
     754:	17ffffa4 	b	5e4 <TA_InvokeCommandEntryPoint+0x158>
remoteproc_verify_header():
/media/home/beste/01_Pro/ld25x/bsp_hu/MYD-LD25X-Uboot-L2022.10-V1.0.0/GEN_FIP/myir-st-optee/ta/remoteproc/src/remoteproc_core.c:454
     758:	b9400ea0 	ldr	w0, [x21, #12]
     75c:	11001c00 	add	w0, w0, #0x7
     760:	121d7000 	and	w0, w0, #0xfffffff8
     764:	31005000 	adds	w0, w0, #0x14
     768:	54fffc22 	b.cs	6ec <TA_InvokeCommandEntryPoint+0x260>  // b.hs, b.nlast
/media/home/beste/01_Pro/ld25x/bsp_hu/MYD-LD25X-Uboot-L2022.10-V1.0.0/GEN_FIP/myir-st-optee/ta/remoteproc/src/remoteproc_core.c:455
     76c:	b94012a1 	ldr	w1, [x21, #16]
     770:	11001c21 	add	w1, w1, #0x7
     774:	121d7021 	and	w1, w1, #0xfffffff8
     778:	2b010000 	adds	w0, w0, w1
     77c:	54fffb82 	b.cs	6ec <TA_InvokeCommandEntryPoint+0x260>  // b.hs, b.nlast
/media/home/beste/01_Pro/ld25x/bsp_hu/MYD-LD25X-Uboot-L2022.10-V1.0.0/GEN_FIP/myir-st-optee/ta/remoteproc/src/remoteproc_core.c:456
     780:	b9400aa1 	ldr	w1, [x21, #8]
     784:	11001c22 	add	w2, w1, #0x7
     788:	121d7042 	and	w2, w2, #0xfffffff8
     78c:	2b020000 	adds	w0, w0, w2
     790:	54fffae2 	b.cs	6ec <TA_InvokeCommandEntryPoint+0x260>  // b.hs, b.nlast
     794:	6b0002df 	cmp	w22, w0
     798:	54fffaa1 	b.ne	6ec <TA_InvokeCommandEntryPoint+0x260>  // b.any
remoteproc_verify_signature():
/media/home/beste/01_Pro/ld25x/bsp_hu/MYD-LD25X-Uboot-L2022.10-V1.0.0/GEN_FIP/myir-st-optee/ta/remoteproc/src/remoteproc_core.c:391
     79c:	9102e3e2 	add	x2, sp, #0xb8
     7a0:	f9003fe2 	str	x2, [sp, #120]
remoteproc_verify_firmware():
/media/home/beste/01_Pro/ld25x/bsp_hu/MYD-LD25X-Uboot-L2022.10-V1.0.0/GEN_FIP/myir-st-optee/ta/remoteproc/src/remoteproc_core.c:558
     7a4:	2a0103e1 	mov	w1, w1
/media/home/beste/01_Pro/ld25x/bsp_hu/MYD-LD25X-Uboot-L2022.10-V1.0.0/GEN_FIP/myir-st-optee/ta/remoteproc/src/remoteproc_core.c:559
     7a8:	910052a0 	add	x0, x21, #0x14
remoteproc_verify_signature():
/media/home/beste/01_Pro/ld25x/bsp_hu/MYD-LD25X-Uboot-L2022.10-V1.0.0/GEN_FIP/myir-st-optee/ta/remoteproc/src/remoteproc_core.c:391
     7ac:	f9403fe4 	ldr	x4, [sp, #120]
remoteproc_verify_firmware():
/media/home/beste/01_Pro/ld25x/bsp_hu/MYD-LD25X-Uboot-L2022.10-V1.0.0/GEN_FIP/myir-st-optee/ta/remoteproc/src/remoteproc_core.c:558
     7b0:	a9010660 	stp	x0, x1, [x19, #16]
remoteproc_verify_signature():
/media/home/beste/01_Pro/ld25x/bsp_hu/MYD-LD25X-Uboot-L2022.10-V1.0.0/GEN_FIP/myir-st-optee/ta/remoteproc/src/remoteproc_core.c:391
     7b4:	9102c3e2 	add	x2, sp, #0xb0
     7b8:	aa0203e3 	mov	x3, x2
     7bc:	f9003be2 	str	x2, [sp, #112]
     7c0:	52800022 	mov	w2, #0x1                   	// #1
/media/home/beste/01_Pro/ld25x/bsp_hu/MYD-LD25X-Uboot-L2022.10-V1.0.0/GEN_FIP/myir-st-optee/ta/remoteproc/src/remoteproc_core.c:388
     7c4:	b900a7ff 	str	wzr, [sp, #164]
/media/home/beste/01_Pro/ld25x/bsp_hu/MYD-LD25X-Uboot-L2022.10-V1.0.0/GEN_FIP/myir-st-optee/ta/remoteproc/src/remoteproc_core.c:381
     7c8:	f90057ff 	str	xzr, [sp, #168]
/media/home/beste/01_Pro/ld25x/bsp_hu/MYD-LD25X-Uboot-L2022.10-V1.0.0/GEN_FIP/myir-st-optee/ta/remoteproc/src/remoteproc_core.c:391
     7cc:	97fffe55 	bl	120 <remoteproc_get_tlv>
/media/home/beste/01_Pro/ld25x/bsp_hu/MYD-LD25X-Uboot-L2022.10-V1.0.0/GEN_FIP/myir-st-optee/ta/remoteproc/src/remoteproc_core.c:394
     7d0:	35fff8e0 	cbnz	w0, 6ec <TA_InvokeCommandEntryPoint+0x260>
     7d4:	f9405fe2 	ldr	x2, [sp, #184]
     7d8:	f100045f 	cmp	x2, #0x1
     7dc:	54fff881 	b.ne	6ec <TA_InvokeCommandEntryPoint+0x260>  // b.any
/media/home/beste/01_Pro/ld25x/bsp_hu/MYD-LD25X-Uboot-L2022.10-V1.0.0/GEN_FIP/myir-st-optee/ta/remoteproc/src/remoteproc_core.c:397
     7e0:	f9405be0 	ldr	x0, [sp, #176]
     7e4:	39400005 	ldrb	w5, [x0]
remoteproc_get_algo():
/media/home/beste/01_Pro/ld25x/bsp_hu/MYD-LD25X-Uboot-L2022.10-V1.0.0/GEN_FIP/myir-st-optee/ta/remoteproc/src/remoteproc_core.c:293
     7e8:	710004bf 	cmp	w5, #0x1
     7ec:	54000180 	b.eq	81c <TA_InvokeCommandEntryPoint+0x390>  // b.none
     7f0:	710008bf 	cmp	w5, #0x2
     7f4:	54000160 	b.eq	820 <TA_InvokeCommandEntryPoint+0x394>  // b.none
remoteproc_verify_signature():
/media/home/beste/01_Pro/ld25x/bsp_hu/MYD-LD25X-Uboot-L2022.10-V1.0.0/GEN_FIP/myir-st-optee/ta/remoteproc/src/remoteproc_core.c:399
     7f8:	91318280 	add	x0, x20, #0xc60
     7fc:	2a0203e3 	mov	w3, w2
     800:	91015c00 	add	x0, x0, #0x57
     804:	f0000084 	adrp	x4, 13000 <small_prime+0x19c>
     808:	528031e1 	mov	w1, #0x18f                 	// #399
     80c:	9106e484 	add	x4, x4, #0x1b9
/media/home/beste/01_Pro/ld25x/bsp_hu/MYD-LD25X-Uboot-L2022.10-V1.0.0/GEN_FIP/myir-st-optee/ta/remoteproc/src/remoteproc_core.c:400
     810:	129ffebc 	mov	w28, #0xffff000a            	// #-65526
/media/home/beste/01_Pro/ld25x/bsp_hu/MYD-LD25X-Uboot-L2022.10-V1.0.0/GEN_FIP/myir-st-optee/ta/remoteproc/src/remoteproc_core.c:399
     814:	9400036d 	bl	15c8 <trace_printf>
remoteproc_verify_firmware():
/media/home/beste/01_Pro/ld25x/bsp_hu/MYD-LD25X-Uboot-L2022.10-V1.0.0/GEN_FIP/myir-st-optee/ta/remoteproc/src/remoteproc_core.c:562
     818:	17ffffb6 	b	6f0 <TA_InvokeCommandEntryPoint+0x264>
remoteproc_get_algo():
/media/home/beste/01_Pro/ld25x/bsp_hu/MYD-LD25X-Uboot-L2022.10-V1.0.0/GEN_FIP/myir-st-optee/ta/remoteproc/src/remoteproc_core.c:292
     81c:	5280001a 	mov	w26, #0x0                   	// #0
remoteproc_verify_signature():
/media/home/beste/01_Pro/ld25x/bsp_hu/MYD-LD25X-Uboot-L2022.10-V1.0.0/GEN_FIP/myir-st-optee/ta/remoteproc/src/remoteproc_core.c:404
     820:	52800400 	mov	w0, #0x20                  	// #32
/media/home/beste/01_Pro/ld25x/bsp_hu/MYD-LD25X-Uboot-L2022.10-V1.0.0/GEN_FIP/myir-st-optee/ta/remoteproc/src/remoteproc_core.c:405
     824:	52800001 	mov	w1, #0x0                   	// #0
/media/home/beste/01_Pro/ld25x/bsp_hu/MYD-LD25X-Uboot-L2022.10-V1.0.0/GEN_FIP/myir-st-optee/ta/remoteproc/src/remoteproc_core.c:404
     828:	b900a7e0 	str	w0, [sp, #164]
/media/home/beste/01_Pro/ld25x/bsp_hu/MYD-LD25X-Uboot-L2022.10-V1.0.0/GEN_FIP/myir-st-optee/ta/remoteproc/src/remoteproc_core.c:405
     82c:	94000914 	bl	2c7c <TEE_Malloc>
     830:	aa0003f6 	mov	x22, x0
/media/home/beste/01_Pro/ld25x/bsp_hu/MYD-LD25X-Uboot-L2022.10-V1.0.0/GEN_FIP/myir-st-optee/ta/remoteproc/src/remoteproc_core.c:406
     834:	b4000820 	cbz	x0, 938 <TA_InvokeCommandEntryPoint+0x4ac>
/media/home/beste/01_Pro/ld25x/bsp_hu/MYD-LD25X-Uboot-L2022.10-V1.0.0/GEN_FIP/myir-st-optee/ta/remoteproc/src/remoteproc_core.c:409
     838:	52800081 	mov	w1, #0x4                   	// #4
     83c:	9102a3e0 	add	x0, sp, #0xa8
     840:	52800003 	mov	w3, #0x0                   	// #0
     844:	528000a2 	mov	w2, #0x5                   	// #5
     848:	72aa0001 	movk	w1, #0x5000, lsl #16
     84c:	940009ee 	bl	3004 <TEE_AllocateOperation>
     850:	2a0003fc 	mov	w28, w0
/media/home/beste/01_Pro/ld25x/bsp_hu/MYD-LD25X-Uboot-L2022.10-V1.0.0/GEN_FIP/myir-st-optee/ta/remoteproc/src/remoteproc_core.c:410
     854:	34000080 	cbz	w0, 864 <TA_InvokeCommandEntryPoint+0x3d8>
/media/home/beste/01_Pro/ld25x/bsp_hu/MYD-LD25X-Uboot-L2022.10-V1.0.0/GEN_FIP/myir-st-optee/ta/remoteproc/src/remoteproc_core.c:432
     858:	aa1603e0 	mov	x0, x22
     85c:	94000922 	bl	2ce4 <TEE_Free>
remoteproc_verify_firmware():
/media/home/beste/01_Pro/ld25x/bsp_hu/MYD-LD25X-Uboot-L2022.10-V1.0.0/GEN_FIP/myir-st-optee/ta/remoteproc/src/remoteproc_core.c:562
     860:	17ffffa4 	b	6f0 <TA_InvokeCommandEntryPoint+0x264>
remoteproc_verify_signature():
/media/home/beste/01_Pro/ld25x/bsp_hu/MYD-LD25X-Uboot-L2022.10-V1.0.0/GEN_FIP/myir-st-optee/ta/remoteproc/src/remoteproc_core.c:413
     864:	f94057e0 	ldr	x0, [sp, #168]
     868:	aa1503e1 	mov	x1, x21
     86c:	52800282 	mov	w2, #0x14                  	// #20
     870:	94000e5e 	bl	41e8 <TEE_DigestUpdate>
/media/home/beste/01_Pro/ld25x/bsp_hu/MYD-LD25X-Uboot-L2022.10-V1.0.0/GEN_FIP/myir-st-optee/ta/remoteproc/src/remoteproc_core.c:414
     874:	f9400a61 	ldr	x1, [x19, #16]
     878:	910293e4 	add	x4, sp, #0xa4
     87c:	f94057e0 	ldr	x0, [sp, #168]
     880:	aa1603e3 	mov	x3, x22
     884:	b9400aa2 	ldr	w2, [x21, #8]
     888:	11001c42 	add	w2, w2, #0x7
     88c:	121d7042 	and	w2, w2, #0xfffffff8
     890:	94000e72 	bl	4258 <TEE_DigestDoFinal>
     894:	2a0003fc 	mov	w28, w0
/media/home/beste/01_Pro/ld25x/bsp_hu/MYD-LD25X-Uboot-L2022.10-V1.0.0/GEN_FIP/myir-st-optee/ta/remoteproc/src/remoteproc_core.c:417
     898:	34000080 	cbz	w0, 8a8 <TA_InvokeCommandEntryPoint+0x41c>
/media/home/beste/01_Pro/ld25x/bsp_hu/MYD-LD25X-Uboot-L2022.10-V1.0.0/GEN_FIP/myir-st-optee/ta/remoteproc/src/remoteproc_core.c:430
     89c:	f94057e0 	ldr	x0, [sp, #168]
     8a0:	940009c8 	bl	2fc0 <TEE_FreeOperation>
     8a4:	17ffffed 	b	858 <TA_InvokeCommandEntryPoint+0x3cc>
remoteproc_pta_verify():
/media/home/beste/01_Pro/ld25x/bsp_hu/MYD-LD25X-Uboot-L2022.10-V1.0.0/GEN_FIP/myir-st-optee/ta/remoteproc/src/remoteproc_core.c:304
     8a8:	f9400665 	ldr	x5, [x19, #8]
/media/home/beste/01_Pro/ld25x/bsp_hu/MYD-LD25X-Uboot-L2022.10-V1.0.0/GEN_FIP/myir-st-optee/ta/remoteproc/src/remoteproc_core.c:315
     8ac:	910323f9 	add	x25, sp, #0xc8
remoteproc_verify_signature():
/media/home/beste/01_Pro/ld25x/bsp_hu/MYD-LD25X-Uboot-L2022.10-V1.0.0/GEN_FIP/myir-st-optee/ta/remoteproc/src/remoteproc_core.c:427
     8b0:	b940a7e0 	ldr	w0, [sp, #164]
remoteproc_pta_verify():
/media/home/beste/01_Pro/ld25x/bsp_hu/MYD-LD25X-Uboot-L2022.10-V1.0.0/GEN_FIP/myir-st-optee/ta/remoteproc/src/remoteproc_core.c:315
     8b4:	aa1903e3 	mov	x3, x25
remoteproc_verify_signature():
/media/home/beste/01_Pro/ld25x/bsp_hu/MYD-LD25X-Uboot-L2022.10-V1.0.0/GEN_FIP/myir-st-optee/ta/remoteproc/src/remoteproc_core.c:427
     8b8:	b9008be0 	str	w0, [sp, #136]
remoteproc_pta_verify():
/media/home/beste/01_Pro/ld25x/bsp_hu/MYD-LD25X-Uboot-L2022.10-V1.0.0/GEN_FIP/myir-st-optee/ta/remoteproc/src/remoteproc_core.c:315
     8bc:	910303e0 	add	x0, sp, #0xc0
     8c0:	b94008a1 	ldr	w1, [x5, #8]
     8c4:	aa0003e4 	mov	x4, x0
     8c8:	f90043e0 	str	x0, [sp, #128]
     8cc:	52800222 	mov	w2, #0x11                  	// #17
     8d0:	f9400a60 	ldr	x0, [x19, #16]
     8d4:	f9004be5 	str	x5, [sp, #144]
/media/home/beste/01_Pro/ld25x/bsp_hu/MYD-LD25X-Uboot-L2022.10-V1.0.0/GEN_FIP/myir-st-optee/ta/remoteproc/src/remoteproc_core.c:310
     8d8:	a90d7fff 	stp	xzr, xzr, [sp, #208]
     8dc:	a90e7fff 	stp	xzr, xzr, [sp, #224]
     8e0:	a90f7fff 	stp	xzr, xzr, [sp, #240]
     8e4:	a9107fff 	stp	xzr, xzr, [sp, #256]
/media/home/beste/01_Pro/ld25x/bsp_hu/MYD-LD25X-Uboot-L2022.10-V1.0.0/GEN_FIP/myir-st-optee/ta/remoteproc/src/remoteproc_core.c:315
     8e8:	97fffe0e 	bl	120 <remoteproc_get_tlv>
     8ec:	2a0003fc 	mov	w28, w0
/media/home/beste/01_Pro/ld25x/bsp_hu/MYD-LD25X-Uboot-L2022.10-V1.0.0/GEN_FIP/myir-st-optee/ta/remoteproc/src/remoteproc_core.c:318
     8f0:	7100001f 	cmp	w0, #0x0
     8f4:	129ffe80 	mov	w0, #0xffff000b            	// #-65525
     8f8:	f9404be5 	ldr	x5, [sp, #144]
     8fc:	7a401384 	ccmp	w28, w0, #0x4, ne	// ne = any
     900:	54fffce1 	b.ne	89c <TA_InvokeCommandEntryPoint+0x410>  // b.any
/media/home/beste/01_Pro/ld25x/bsp_hu/MYD-LD25X-Uboot-L2022.10-V1.0.0/GEN_FIP/myir-st-optee/ta/remoteproc/src/remoteproc_core.c:321
     904:	f94063e2 	ldr	x2, [sp, #192]
     908:	52800001 	mov	w1, #0x0                   	// #0
     90c:	a90917e2 	stp	x2, x5, [sp, #144]
     910:	1100205c 	add	w28, w2, #0x8
     914:	2a1c03e0 	mov	w0, w28
     918:	940008d9 	bl	2c7c <TEE_Malloc>
/media/home/beste/01_Pro/ld25x/bsp_hu/MYD-LD25X-Uboot-L2022.10-V1.0.0/GEN_FIP/myir-st-optee/ta/remoteproc/src/remoteproc_core.c:322
     91c:	a94917e2 	ldp	x2, x5, [sp, #144]
/media/home/beste/01_Pro/ld25x/bsp_hu/MYD-LD25X-Uboot-L2022.10-V1.0.0/GEN_FIP/myir-st-optee/ta/remoteproc/src/remoteproc_core.c:321
     920:	aa0003f8 	mov	x24, x0
/media/home/beste/01_Pro/ld25x/bsp_hu/MYD-LD25X-Uboot-L2022.10-V1.0.0/GEN_FIP/myir-st-optee/ta/remoteproc/src/remoteproc_core.c:322
     924:	b50000e0 	cbnz	x0, 940 <TA_InvokeCommandEntryPoint+0x4b4>
remoteproc_verify_signature():
/media/home/beste/01_Pro/ld25x/bsp_hu/MYD-LD25X-Uboot-L2022.10-V1.0.0/GEN_FIP/myir-st-optee/ta/remoteproc/src/remoteproc_core.c:430
     928:	f94057e0 	ldr	x0, [sp, #168]
     92c:	940009a5 	bl	2fc0 <TEE_FreeOperation>
/media/home/beste/01_Pro/ld25x/bsp_hu/MYD-LD25X-Uboot-L2022.10-V1.0.0/GEN_FIP/myir-st-optee/ta/remoteproc/src/remoteproc_core.c:432
     930:	aa1603e0 	mov	x0, x22
     934:	940008ec 	bl	2ce4 <TEE_Free>
remoteproc_pta_verify():
/media/home/beste/01_Pro/ld25x/bsp_hu/MYD-LD25X-Uboot-L2022.10-V1.0.0/GEN_FIP/myir-st-optee/ta/remoteproc/src/remoteproc_core.c:323
     938:	129ffe7c 	mov	w28, #0xffff000c            	// #-65524
     93c:	17ffff6d 	b	6f0 <TA_InvokeCommandEntryPoint+0x264>
/media/home/beste/01_Pro/ld25x/bsp_hu/MYD-LD25X-Uboot-L2022.10-V1.0.0/GEN_FIP/myir-st-optee/ta/remoteproc/src/remoteproc_core.c:325
     940:	91318288 	add	x8, x20, #0xc60
     944:	d37c7f5a 	ubfiz	x26, x26, #4, #32
     948:	8b1a011a 	add	x26, x8, x26
     94c:	a90917e8 	stp	x8, x5, [sp, #144]
/media/home/beste/01_Pro/ld25x/bsp_hu/MYD-LD25X-Uboot-L2022.10-V1.0.0/GEN_FIP/myir-st-optee/ta/remoteproc/src/remoteproc_core.c:327
     950:	f94067e1 	ldr	x1, [sp, #200]
/media/home/beste/01_Pro/ld25x/bsp_hu/MYD-LD25X-Uboot-L2022.10-V1.0.0/GEN_FIP/myir-st-optee/ta/remoteproc/src/remoteproc_core.c:325
     954:	b9407f40 	ldr	w0, [x26, #124]
/media/home/beste/01_Pro/ld25x/bsp_hu/MYD-LD25X-Uboot-L2022.10-V1.0.0/GEN_FIP/myir-st-optee/ta/remoteproc/src/remoteproc_core.c:326
     958:	29000b00 	stp	w0, w2, [x24]
/media/home/beste/01_Pro/ld25x/bsp_hu/MYD-LD25X-Uboot-L2022.10-V1.0.0/GEN_FIP/myir-st-optee/ta/remoteproc/src/remoteproc_core.c:327
     95c:	91002300 	add	x0, x24, #0x8
     960:	97fffdb0 	bl	20 <memcpy>
/media/home/beste/01_Pro/ld25x/bsp_hu/MYD-LD25X-Uboot-L2022.10-V1.0.0/GEN_FIP/myir-st-optee/ta/remoteproc/src/remoteproc_core.c:329
     964:	f9404fe5 	ldr	x5, [sp, #152]
/media/home/beste/01_Pro/ld25x/bsp_hu/MYD-LD25X-Uboot-L2022.10-V1.0.0/GEN_FIP/myir-st-optee/ta/remoteproc/src/remoteproc_core.c:339
     968:	aa1703e4 	mov	x4, x23
/media/home/beste/01_Pro/ld25x/bsp_hu/MYD-LD25X-Uboot-L2022.10-V1.0.0/GEN_FIP/myir-st-optee/ta/remoteproc/src/remoteproc_core.c:329
     96c:	f9400661 	ldr	x1, [x19, #8]
/media/home/beste/01_Pro/ld25x/bsp_hu/MYD-LD25X-Uboot-L2022.10-V1.0.0/GEN_FIP/myir-st-optee/ta/remoteproc/src/remoteproc_core.c:339
     970:	528aaa23 	mov	w3, #0x5551                	// #21841
/media/home/beste/01_Pro/ld25x/bsp_hu/MYD-LD25X-Uboot-L2022.10-V1.0.0/GEN_FIP/myir-st-optee/ta/remoteproc/src/remoteproc_core.c:329
     974:	b94008a0 	ldr	w0, [x5, #8]
/media/home/beste/01_Pro/ld25x/bsp_hu/MYD-LD25X-Uboot-L2022.10-V1.0.0/GEN_FIP/myir-st-optee/ta/remoteproc/src/remoteproc_core.c:339
     978:	52800102 	mov	w2, #0x8                   	// #8
/media/home/beste/01_Pro/ld25x/bsp_hu/MYD-LD25X-Uboot-L2022.10-V1.0.0/GEN_FIP/myir-st-optee/ta/remoteproc/src/remoteproc_core.c:329
     97c:	11001c00 	add	w0, w0, #0x7
     980:	927d7000 	and	x0, x0, #0xfffffff8
     984:	91005000 	add	x0, x0, #0x14
     988:	8b000020 	add	x0, x1, x0
/media/home/beste/01_Pro/ld25x/bsp_hu/MYD-LD25X-Uboot-L2022.10-V1.0.0/GEN_FIP/myir-st-optee/ta/remoteproc/src/remoteproc_core.c:331
     98c:	b9400261 	ldr	w1, [x19]
/media/home/beste/01_Pro/ld25x/bsp_hu/MYD-LD25X-Uboot-L2022.10-V1.0.0/GEN_FIP/myir-st-optee/ta/remoteproc/src/remoteproc_core.c:336
     990:	f90083e0 	str	x0, [sp, #256]
/media/home/beste/01_Pro/ld25x/bsp_hu/MYD-LD25X-Uboot-L2022.10-V1.0.0/GEN_FIP/myir-st-optee/ta/remoteproc/src/remoteproc_core.c:337
     994:	b9400ca0 	ldr	w0, [x5, #12]
/media/home/beste/01_Pro/ld25x/bsp_hu/MYD-LD25X-Uboot-L2022.10-V1.0.0/GEN_FIP/myir-st-optee/ta/remoteproc/src/remoteproc_core.c:339
     998:	d2800005 	mov	x5, #0x0                   	// #0
/media/home/beste/01_Pro/ld25x/bsp_hu/MYD-LD25X-Uboot-L2022.10-V1.0.0/GEN_FIP/myir-st-optee/ta/remoteproc/src/remoteproc_core.c:337
     99c:	b9010be0 	str	w0, [sp, #264]
/media/home/beste/01_Pro/ld25x/bsp_hu/MYD-LD25X-Uboot-L2022.10-V1.0.0/GEN_FIP/myir-st-optee/ta/remoteproc/src/remoteproc_core.c:339
     9a0:	f942cb60 	ldr	x0, [x27, #1424]
/media/home/beste/01_Pro/ld25x/bsp_hu/MYD-LD25X-Uboot-L2022.10-V1.0.0/GEN_FIP/myir-st-optee/ta/remoteproc/src/remoteproc_core.c:331
     9a4:	b900d3e1 	str	w1, [sp, #208]
/media/home/beste/01_Pro/ld25x/bsp_hu/MYD-LD25X-Uboot-L2022.10-V1.0.0/GEN_FIP/myir-st-optee/ta/remoteproc/src/remoteproc_core.c:335
     9a8:	b9408be1 	ldr	w1, [sp, #136]
/media/home/beste/01_Pro/ld25x/bsp_hu/MYD-LD25X-Uboot-L2022.10-V1.0.0/GEN_FIP/myir-st-optee/ta/remoteproc/src/remoteproc_core.c:332
     9ac:	f90073f8 	str	x24, [sp, #224]
/media/home/beste/01_Pro/ld25x/bsp_hu/MYD-LD25X-Uboot-L2022.10-V1.0.0/GEN_FIP/myir-st-optee/ta/remoteproc/src/remoteproc_core.c:333
     9b0:	b900ebfc 	str	w28, [sp, #232]
/media/home/beste/01_Pro/ld25x/bsp_hu/MYD-LD25X-Uboot-L2022.10-V1.0.0/GEN_FIP/myir-st-optee/ta/remoteproc/src/remoteproc_core.c:334
     9b4:	f9007bf6 	str	x22, [sp, #240]
/media/home/beste/01_Pro/ld25x/bsp_hu/MYD-LD25X-Uboot-L2022.10-V1.0.0/GEN_FIP/myir-st-optee/ta/remoteproc/src/remoteproc_core.c:335
     9b8:	b900fbe1 	str	w1, [sp, #248]
/media/home/beste/01_Pro/ld25x/bsp_hu/MYD-LD25X-Uboot-L2022.10-V1.0.0/GEN_FIP/myir-st-optee/ta/remoteproc/src/remoteproc_core.c:339
     9bc:	12800001 	mov	w1, #0xffffffff            	// #-1
     9c0:	9400080e 	bl	29f8 <TEE_InvokeTACommand>
     9c4:	2a0003fc 	mov	w28, w0
/media/home/beste/01_Pro/ld25x/bsp_hu/MYD-LD25X-Uboot-L2022.10-V1.0.0/GEN_FIP/myir-st-optee/ta/remoteproc/src/remoteproc_core.c:342
     9c8:	f9404be8 	ldr	x8, [sp, #144]
     9cc:	34000180 	cbz	w0, 9fc <TA_InvokeCommandEntryPoint+0x570>
/media/home/beste/01_Pro/ld25x/bsp_hu/MYD-LD25X-Uboot-L2022.10-V1.0.0/GEN_FIP/myir-st-optee/ta/remoteproc/src/remoteproc_core.c:343
     9d0:	2a0003e5 	mov	w5, w0
     9d4:	f0000084 	adrp	x4, 13000 <small_prime+0x19c>
     9d8:	91075c84 	add	x4, x4, #0x1d7
     9dc:	52800023 	mov	w3, #0x1                   	// #1
     9e0:	52800022 	mov	w2, #0x1                   	// #1
     9e4:	52802ae1 	mov	w1, #0x157                 	// #343
     9e8:	91026100 	add	x0, x8, #0x98
     9ec:	940002f7 	bl	15c8 <trace_printf>
/media/home/beste/01_Pro/ld25x/bsp_hu/MYD-LD25X-Uboot-L2022.10-V1.0.0/GEN_FIP/myir-st-optee/ta/remoteproc/src/remoteproc_core.c:345
     9f0:	aa1803e0 	mov	x0, x24
     9f4:	940008bc 	bl	2ce4 <TEE_Free>
     9f8:	17ffffa9 	b	89c <TA_InvokeCommandEntryPoint+0x410>
     9fc:	aa1803e0 	mov	x0, x24
     a00:	940008b9 	bl	2ce4 <TEE_Free>
remoteproc_verify_signature():
/media/home/beste/01_Pro/ld25x/bsp_hu/MYD-LD25X-Uboot-L2022.10-V1.0.0/GEN_FIP/myir-st-optee/ta/remoteproc/src/remoteproc_core.c:430
     a04:	f94057e0 	ldr	x0, [sp, #168]
remoteproc_set_platform_tlv():
/media/home/beste/01_Pro/ld25x/bsp_hu/MYD-LD25X-Uboot-L2022.10-V1.0.0/GEN_FIP/myir-st-optee/ta/remoteproc/src/remoteproc_core.c:509
     a08:	529ffff8 	mov	w24, #0xffff                	// #65535
remoteproc_verify_signature():
/media/home/beste/01_Pro/ld25x/bsp_hu/MYD-LD25X-Uboot-L2022.10-V1.0.0/GEN_FIP/myir-st-optee/ta/remoteproc/src/remoteproc_core.c:430
     a0c:	9400096d 	bl	2fc0 <TEE_FreeOperation>
/media/home/beste/01_Pro/ld25x/bsp_hu/MYD-LD25X-Uboot-L2022.10-V1.0.0/GEN_FIP/myir-st-optee/ta/remoteproc/src/remoteproc_core.c:432
     a10:	aa1603e0 	mov	x0, x22
     a14:	940008b4 	bl	2ce4 <TEE_Free>
remoteproc_set_platform_tlv():
/media/home/beste/01_Pro/ld25x/bsp_hu/MYD-LD25X-Uboot-L2022.10-V1.0.0/GEN_FIP/myir-st-optee/ta/remoteproc/src/remoteproc_core.c:492
     a18:	f94037e0 	ldr	x0, [sp, #104]
     a1c:	d2800782 	mov	x2, #0x3c                  	// #60
     a20:	52800001 	mov	w1, #0x0                   	// #0
     a24:	94000252 	bl	136c <memset>
/media/home/beste/01_Pro/ld25x/bsp_hu/MYD-LD25X-Uboot-L2022.10-V1.0.0/GEN_FIP/myir-st-optee/ta/remoteproc/src/remoteproc_core.c:494
     a28:	a9410276 	ldp	x22, x0, [x19, #16]
     a2c:	8b0002da 	add	x26, x22, x0
/media/home/beste/01_Pro/ld25x/bsp_hu/MYD-LD25X-Uboot-L2022.10-V1.0.0/GEN_FIP/myir-st-optee/ta/remoteproc/src/remoteproc_core.c:500
     a30:	b9400260 	ldr	w0, [x19]
     a34:	b900d3e0 	str	w0, [sp, #208]
/media/home/beste/01_Pro/ld25x/bsp_hu/MYD-LD25X-Uboot-L2022.10-V1.0.0/GEN_FIP/myir-st-optee/ta/remoteproc/src/remoteproc_core.c:503
     a38:	eb16035f 	cmp	x26, x22
     a3c:	54000328 	b.hi	aa0 <TA_InvokeCommandEntryPoint+0x614>  // b.pmore
remoteproc_verify_firmware():
/media/home/beste/01_Pro/ld25x/bsp_hu/MYD-LD25X-Uboot-L2022.10-V1.0.0/GEN_FIP/myir-st-optee/ta/remoteproc/src/remoteproc_core.c:572
     a40:	29410aa0 	ldp	w0, w2, [x21, #8]
remoteproc_load_elf():
/media/home/beste/01_Pro/ld25x/bsp_hu/MYD-LD25X-Uboot-L2022.10-V1.0.0/GEN_FIP/myir-st-optee/ta/remoteproc/src/remoteproc_core.c:881
     a44:	a90bffff 	stp	xzr, xzr, [sp, #184]
remoteproc_verify_firmware():
/media/home/beste/01_Pro/ld25x/bsp_hu/MYD-LD25X-Uboot-L2022.10-V1.0.0/GEN_FIP/myir-st-optee/ta/remoteproc/src/remoteproc_core.c:571
     a48:	b94012a1 	ldr	w1, [x21, #16]
/media/home/beste/01_Pro/ld25x/bsp_hu/MYD-LD25X-Uboot-L2022.10-V1.0.0/GEN_FIP/myir-st-optee/ta/remoteproc/src/remoteproc_core.c:572
     a4c:	11001c00 	add	w0, w0, #0x7
     a50:	11001c42 	add	w2, w2, #0x7
     a54:	927d7042 	and	x2, x2, #0xfffffff8
     a58:	927d7000 	and	x0, x0, #0xfffffff8
     a5c:	8b020000 	add	x0, x0, x2
     a60:	f94033e2 	ldr	x2, [sp, #96]
     a64:	91005000 	add	x0, x0, #0x14
     a68:	8b000040 	add	x0, x2, x0
/media/home/beste/01_Pro/ld25x/bsp_hu/MYD-LD25X-Uboot-L2022.10-V1.0.0/GEN_FIP/myir-st-optee/ta/remoteproc/src/remoteproc_core.c:571
     a6c:	a9020660 	stp	x0, x1, [x19, #32]
remoteproc_load_elf():
/media/home/beste/01_Pro/ld25x/bsp_hu/MYD-LD25X-Uboot-L2022.10-V1.0.0/GEN_FIP/myir-st-optee/ta/remoteproc/src/remoteproc_core.c:885
     a70:	94000140 	bl	f70 <e32_parse_ehdr>
     a74:	2a0003fc 	mov	w28, w0
/media/home/beste/01_Pro/ld25x/bsp_hu/MYD-LD25X-Uboot-L2022.10-V1.0.0/GEN_FIP/myir-st-optee/ta/remoteproc/src/remoteproc_core.c:886
     a78:	34000620 	cbz	w0, b3c <TA_InvokeCommandEntryPoint+0x6b0>
/media/home/beste/01_Pro/ld25x/bsp_hu/MYD-LD25X-Uboot-L2022.10-V1.0.0/GEN_FIP/myir-st-optee/ta/remoteproc/src/remoteproc_core.c:887
     a7c:	91318280 	add	x0, x20, #0xc60
     a80:	f0000084 	adrp	x4, 13000 <small_prime+0x19c>
     a84:	2a1c03e5 	mov	w5, w28
     a88:	9108a484 	add	x4, x4, #0x229
     a8c:	9102b800 	add	x0, x0, #0xae
     a90:	52800023 	mov	w3, #0x1                   	// #1
     a94:	52800022 	mov	w2, #0x1                   	// #1
     a98:	52806ee1 	mov	w1, #0x377                 	// #887
     a9c:	17ffff20 	b	71c <TA_InvokeCommandEntryPoint+0x290>
remoteproc_set_platform_tlv():
/media/home/beste/01_Pro/ld25x/bsp_hu/MYD-LD25X-Uboot-L2022.10-V1.0.0/GEN_FIP/myir-st-optee/ta/remoteproc/src/remoteproc_core.c:504
     aa0:	aa1603e1 	mov	x1, x22
     aa4:	d2800082 	mov	x2, #0x4                   	// #4
     aa8:	aa1903e0 	mov	x0, x25
     aac:	97fffd5d 	bl	20 <memcpy>
/media/home/beste/01_Pro/ld25x/bsp_hu/MYD-LD25X-Uboot-L2022.10-V1.0.0/GEN_FIP/myir-st-optee/ta/remoteproc/src/remoteproc_core.c:506
     ab0:	d2800082 	mov	x2, #0x4                   	// #4
/media/home/beste/01_Pro/ld25x/bsp_hu/MYD-LD25X-Uboot-L2022.10-V1.0.0/GEN_FIP/myir-st-optee/ta/remoteproc/src/remoteproc_core.c:505
     ab4:	b940cbfc 	ldr	w28, [sp, #200]
/media/home/beste/01_Pro/ld25x/bsp_hu/MYD-LD25X-Uboot-L2022.10-V1.0.0/GEN_FIP/myir-st-optee/ta/remoteproc/src/remoteproc_core.c:506
     ab8:	8b0202c1 	add	x1, x22, x2
     abc:	aa1903e0 	mov	x0, x25
     ac0:	97fffd58 	bl	20 <memcpy>
/media/home/beste/01_Pro/ld25x/bsp_hu/MYD-LD25X-Uboot-L2022.10-V1.0.0/GEN_FIP/myir-st-optee/ta/remoteproc/src/remoteproc_core.c:507
     ac4:	b940cbe0 	ldr	w0, [sp, #200]
/media/home/beste/01_Pro/ld25x/bsp_hu/MYD-LD25X-Uboot-L2022.10-V1.0.0/GEN_FIP/myir-st-optee/ta/remoteproc/src/remoteproc_core.c:509
     ac8:	51404381 	sub	w1, w28, #0x10, lsl #12
/media/home/beste/01_Pro/ld25x/bsp_hu/MYD-LD25X-Uboot-L2022.10-V1.0.0/GEN_FIP/myir-st-optee/ta/remoteproc/src/remoteproc_core.c:507
     acc:	12003c08 	and	w8, w0, #0xffff
/media/home/beste/01_Pro/ld25x/bsp_hu/MYD-LD25X-Uboot-L2022.10-V1.0.0/GEN_FIP/myir-st-optee/ta/remoteproc/src/remoteproc_core.c:509
     ad0:	6b18003f 	cmp	w1, w24
     ad4:	540000a9 	b.ls	ae8 <TA_InvokeCommandEntryPoint+0x65c>  // b.plast
/media/home/beste/01_Pro/ld25x/bsp_hu/MYD-LD25X-Uboot-L2022.10-V1.0.0/GEN_FIP/myir-st-optee/ta/remoteproc/src/remoteproc_core.c:522
     ad8:	91003d08 	add	x8, x8, #0xf
     adc:	927d3508 	and	x8, x8, #0x1fff8
     ae0:	8b0802d6 	add	x22, x22, x8
     ae4:	17ffffd5 	b	a38 <TA_InvokeCommandEntryPoint+0x5ac>
/media/home/beste/01_Pro/ld25x/bsp_hu/MYD-LD25X-Uboot-L2022.10-V1.0.0/GEN_FIP/myir-st-optee/ta/remoteproc/src/remoteproc_core.c:512
     ae8:	12003c00 	and	w0, w0, #0xffff
     aec:	b900fbe0 	str	w0, [sp, #248]
/media/home/beste/01_Pro/ld25x/bsp_hu/MYD-LD25X-Uboot-L2022.10-V1.0.0/GEN_FIP/myir-st-optee/ta/remoteproc/src/remoteproc_core.c:513
     af0:	910022c0 	add	x0, x22, #0x8
     af4:	f9007be0 	str	x0, [sp, #240]
/media/home/beste/01_Pro/ld25x/bsp_hu/MYD-LD25X-Uboot-L2022.10-V1.0.0/GEN_FIP/myir-st-optee/ta/remoteproc/src/remoteproc_core.c:515
     af8:	f942cb60 	ldr	x0, [x27, #1424]
     afc:	aa1703e4 	mov	x4, x23
     b00:	d2800005 	mov	x5, #0x0                   	// #0
     b04:	5280a223 	mov	w3, #0x511                 	// #1297
     b08:	52800122 	mov	w2, #0x9                   	// #9
     b0c:	12800001 	mov	w1, #0xffffffff            	// #-1
     b10:	b9008be8 	str	w8, [sp, #136]
/media/home/beste/01_Pro/ld25x/bsp_hu/MYD-LD25X-Uboot-L2022.10-V1.0.0/GEN_FIP/myir-st-optee/ta/remoteproc/src/remoteproc_core.c:511
     b14:	b900e3fc 	str	w28, [sp, #224]
/media/home/beste/01_Pro/ld25x/bsp_hu/MYD-LD25X-Uboot-L2022.10-V1.0.0/GEN_FIP/myir-st-optee/ta/remoteproc/src/remoteproc_core.c:515
     b18:	940007b8 	bl	29f8 <TEE_InvokeTACommand>
/media/home/beste/01_Pro/ld25x/bsp_hu/MYD-LD25X-Uboot-L2022.10-V1.0.0/GEN_FIP/myir-st-optee/ta/remoteproc/src/remoteproc_core.c:519
     b1c:	b9408be8 	ldr	w8, [sp, #136]
/media/home/beste/01_Pro/ld25x/bsp_hu/MYD-LD25X-Uboot-L2022.10-V1.0.0/GEN_FIP/myir-st-optee/ta/remoteproc/src/remoteproc_core.c:515
     b20:	2a0003fc 	mov	w28, w0
/media/home/beste/01_Pro/ld25x/bsp_hu/MYD-LD25X-Uboot-L2022.10-V1.0.0/GEN_FIP/myir-st-optee/ta/remoteproc/src/remoteproc_core.c:519
     b24:	34fffda0 	cbz	w0, ad8 <TA_InvokeCommandEntryPoint+0x64c>
     b28:	17fffef2 	b	6f0 <TA_InvokeCommandEntryPoint+0x264>
remoteproc_verify_firmware():
/media/home/beste/01_Pro/ld25x/bsp_hu/MYD-LD25X-Uboot-L2022.10-V1.0.0/GEN_FIP/myir-st-optee/ta/remoteproc/src/remoteproc_core.c:546
     b2c:	129ffedc 	mov	w28, #0xffff0009            	// #-65527
     b30:	17fffef3 	b	6fc <TA_InvokeCommandEntryPoint+0x270>
remoteproc_save_fw_header_and_tlvs():
/media/home/beste/01_Pro/ld25x/bsp_hu/MYD-LD25X-Uboot-L2022.10-V1.0.0/GEN_FIP/myir-st-optee/ta/remoteproc/src/remoteproc_core.c:372
     b34:	129ffe7c 	mov	w28, #0xffff000c            	// #-65524
     b38:	17fffef1 	b	6fc <TA_InvokeCommandEntryPoint+0x270>
get_hash_table():
/media/home/beste/01_Pro/ld25x/bsp_hu/MYD-LD25X-Uboot-L2022.10-V1.0.0/GEN_FIP/myir-st-optee/ta/remoteproc/src/remoteproc_core.c:656
     b3c:	a9410660 	ldp	x0, x1, [x19, #16]
     b40:	aa1703e4 	mov	x4, x23
     b44:	aa1903e3 	mov	x3, x25
     b48:	52800202 	mov	w2, #0x10                  	// #16
     b4c:	97fffd75 	bl	120 <remoteproc_get_tlv>
     b50:	2a0003fc 	mov	w28, w0
/media/home/beste/01_Pro/ld25x/bsp_hu/MYD-LD25X-Uboot-L2022.10-V1.0.0/GEN_FIP/myir-st-optee/ta/remoteproc/src/remoteproc_core.c:658
     b54:	35ffde60 	cbnz	w0, 720 <TA_InvokeCommandEntryPoint+0x294>
/media/home/beste/01_Pro/ld25x/bsp_hu/MYD-LD25X-Uboot-L2022.10-V1.0.0/GEN_FIP/myir-st-optee/ta/remoteproc/src/remoteproc_core.c:661
     b58:	f9406bf5 	ldr	x21, [sp, #208]
     b5c:	f24016b4 	ands	x20, x21, #0x3f
     b60:	54000301 	b.ne	bc0 <TA_InvokeCommandEntryPoint+0x734>  // b.any
/media/home/beste/01_Pro/ld25x/bsp_hu/MYD-LD25X-Uboot-L2022.10-V1.0.0/GEN_FIP/myir-st-optee/ta/remoteproc/src/remoteproc_core.c:665
     b64:	2a1503e0 	mov	w0, w21
     b68:	52800001 	mov	w1, #0x0                   	// #0
     b6c:	94000844 	bl	2c7c <TEE_Malloc>
     b70:	aa0003f6 	mov	x22, x0
/media/home/beste/01_Pro/ld25x/bsp_hu/MYD-LD25X-Uboot-L2022.10-V1.0.0/GEN_FIP/myir-st-optee/ta/remoteproc/src/remoteproc_core.c:666
     b74:	b40002a0 	cbz	x0, bc8 <TA_InvokeCommandEntryPoint+0x73c>
/media/home/beste/01_Pro/ld25x/bsp_hu/MYD-LD25X-Uboot-L2022.10-V1.0.0/GEN_FIP/myir-st-optee/ta/remoteproc/src/remoteproc_core.c:669
     b78:	f94067e1 	ldr	x1, [sp, #200]
     b7c:	aa1503e2 	mov	x2, x21
/media/home/beste/01_Pro/ld25x/bsp_hu/MYD-LD25X-Uboot-L2022.10-V1.0.0/GEN_FIP/myir-st-optee/ta/remoteproc/src/remoteproc_core.c:672
     b80:	d346feb5 	lsr	x21, x21, #6
/media/home/beste/01_Pro/ld25x/bsp_hu/MYD-LD25X-Uboot-L2022.10-V1.0.0/GEN_FIP/myir-st-optee/ta/remoteproc/src/remoteproc_core.c:669
     b84:	97fffd27 	bl	20 <memcpy>
/media/home/beste/01_Pro/ld25x/bsp_hu/MYD-LD25X-Uboot-L2022.10-V1.0.0/GEN_FIP/myir-st-optee/ta/remoteproc/src/remoteproc_core.c:671
     b88:	f9001a76 	str	x22, [x19, #48]
remoteproc_load_elf():
/media/home/beste/01_Pro/ld25x/bsp_hu/MYD-LD25X-Uboot-L2022.10-V1.0.0/GEN_FIP/myir-st-optee/ta/remoteproc/src/remoteproc_core.c:896
     b8c:	a9410660 	ldp	x0, x1, [x19, #16]
get_hash_table():
/media/home/beste/01_Pro/ld25x/bsp_hu/MYD-LD25X-Uboot-L2022.10-V1.0.0/GEN_FIP/myir-st-optee/ta/remoteproc/src/remoteproc_core.c:672
     b90:	b9003a75 	str	w21, [x19, #56]
remoteproc_load_elf():
/media/home/beste/01_Pro/ld25x/bsp_hu/MYD-LD25X-Uboot-L2022.10-V1.0.0/GEN_FIP/myir-st-optee/ta/remoteproc/src/remoteproc_core.c:896
     b94:	a94793e3 	ldp	x3, x4, [sp, #120]
     b98:	52800062 	mov	w2, #0x3                   	// #3
     b9c:	97fffd61 	bl	120 <remoteproc_get_tlv>
     ba0:	2a0003fc 	mov	w28, w0
/media/home/beste/01_Pro/ld25x/bsp_hu/MYD-LD25X-Uboot-L2022.10-V1.0.0/GEN_FIP/myir-st-optee/ta/remoteproc/src/remoteproc_core.c:898
     ba4:	34000160 	cbz	w0, bd0 <TA_InvokeCommandEntryPoint+0x744>
/media/home/beste/01_Pro/ld25x/bsp_hu/MYD-LD25X-Uboot-L2022.10-V1.0.0/GEN_FIP/myir-st-optee/ta/remoteproc/src/remoteproc_core.c:969
     ba8:	b9400260 	ldr	w0, [x19]
     bac:	97fffdf0 	bl	36c <remoteproc_clean_resources.isra.0>
/media/home/beste/01_Pro/ld25x/bsp_hu/MYD-LD25X-Uboot-L2022.10-V1.0.0/GEN_FIP/myir-st-optee/ta/remoteproc/src/remoteproc_core.c:970
     bb0:	f9401a60 	ldr	x0, [x19, #48]
     bb4:	9400084c 	bl	2ce4 <TEE_Free>
/media/home/beste/01_Pro/ld25x/bsp_hu/MYD-LD25X-Uboot-L2022.10-V1.0.0/GEN_FIP/myir-st-optee/ta/remoteproc/src/remoteproc_core.c:971
     bb8:	f9001a7f 	str	xzr, [x19, #48]
remoteproc_load_fw():
/media/home/beste/01_Pro/ld25x/bsp_hu/MYD-LD25X-Uboot-L2022.10-V1.0.0/GEN_FIP/myir-st-optee/ta/remoteproc/src/remoteproc_core.c:1019
     bbc:	17fffed9 	b	720 <TA_InvokeCommandEntryPoint+0x294>
get_hash_table():
/media/home/beste/01_Pro/ld25x/bsp_hu/MYD-LD25X-Uboot-L2022.10-V1.0.0/GEN_FIP/myir-st-optee/ta/remoteproc/src/remoteproc_core.c:662
     bc0:	129fff3c 	mov	w28, #0xffff0006            	// #-65530
     bc4:	17fffed7 	b	720 <TA_InvokeCommandEntryPoint+0x294>
/media/home/beste/01_Pro/ld25x/bsp_hu/MYD-LD25X-Uboot-L2022.10-V1.0.0/GEN_FIP/myir-st-optee/ta/remoteproc/src/remoteproc_core.c:667
     bc8:	129ffe7c 	mov	w28, #0xffff000c            	// #-65524
remoteproc_load_fw():
/media/home/beste/01_Pro/ld25x/bsp_hu/MYD-LD25X-Uboot-L2022.10-V1.0.0/GEN_FIP/myir-st-optee/ta/remoteproc/src/remoteproc_core.c:1019
     bcc:	17fffed5 	b	720 <TA_InvokeCommandEntryPoint+0x294>
remoteproc_load_elf():
/media/home/beste/01_Pro/ld25x/bsp_hu/MYD-LD25X-Uboot-L2022.10-V1.0.0/GEN_FIP/myir-st-optee/ta/remoteproc/src/remoteproc_core.c:900
     bd0:	f94063e0 	ldr	x0, [sp, #192]
     bd4:	f100041f 	cmp	x0, #0x1
     bd8:	54000060 	b.eq	be4 <TA_InvokeCommandEntryPoint+0x758>  // b.none
/media/home/beste/01_Pro/ld25x/bsp_hu/MYD-LD25X-Uboot-L2022.10-V1.0.0/GEN_FIP/myir-st-optee/ta/remoteproc/src/remoteproc_core.c:951
     bdc:	129fff5c 	mov	w28, #0xffff0005            	// #-65531
     be0:	17fffff2 	b	ba8 <TA_InvokeCommandEntryPoint+0x71c>
/media/home/beste/01_Pro/ld25x/bsp_hu/MYD-LD25X-Uboot-L2022.10-V1.0.0/GEN_FIP/myir-st-optee/ta/remoteproc/src/remoteproc_core.c:905
     be4:	f9405fe0 	ldr	x0, [sp, #184]
     be8:	39400015 	ldrb	w21, [x0]
/media/home/beste/01_Pro/ld25x/bsp_hu/MYD-LD25X-Uboot-L2022.10-V1.0.0/GEN_FIP/myir-st-optee/ta/remoteproc/src/remoteproc_core.c:906
     bec:	34001295 	cbz	w21, e3c <TA_InvokeCommandEntryPoint+0x9b0>
get_tlv_images_type():
/media/home/beste/01_Pro/ld25x/bsp_hu/MYD-LD25X-Uboot-L2022.10-V1.0.0/GEN_FIP/myir-st-optee/ta/remoteproc/src/remoteproc_core.c:691
     bf0:	2a1503e0 	mov	w0, w21
     bf4:	f9003fe0 	str	x0, [sp, #120]
get_tlv_images_size():
/media/home/beste/01_Pro/ld25x/bsp_hu/MYD-LD25X-Uboot-L2022.10-V1.0.0/GEN_FIP/myir-st-optee/ta/remoteproc/src/remoteproc_core.c:714
     bf8:	d37e1ea0 	ubfiz	x0, x21, #2, #8
remoteproc_load_elf():
/media/home/beste/01_Pro/ld25x/bsp_hu/MYD-LD25X-Uboot-L2022.10-V1.0.0/GEN_FIP/myir-st-optee/ta/remoteproc/src/remoteproc_core.c:880
     bfc:	52800016 	mov	w22, #0x0                   	// #0
/media/home/beste/01_Pro/ld25x/bsp_hu/MYD-LD25X-Uboot-L2022.10-V1.0.0/GEN_FIP/myir-st-optee/ta/remoteproc/src/remoteproc_core.c:916
     c00:	a9047e7f 	stp	xzr, xzr, [x19, #64]
get_tlv_images_size():
/media/home/beste/01_Pro/ld25x/bsp_hu/MYD-LD25X-Uboot-L2022.10-V1.0.0/GEN_FIP/myir-st-optee/ta/remoteproc/src/remoteproc_core.c:714
     c04:	f90043e0 	str	x0, [sp, #128]
remoteproc_load_elf():
/media/home/beste/01_Pro/ld25x/bsp_hu/MYD-LD25X-Uboot-L2022.10-V1.0.0/GEN_FIP/myir-st-optee/ta/remoteproc/src/remoteproc_core.c:931
     c08:	90000000 	adrp	x0, 0 <ta_head>
     c0c:	91074000 	add	x0, x0, #0x1d0
     c10:	f90047e0 	str	x0, [sp, #136]
get_tlv_images_type():
/media/home/beste/01_Pro/ld25x/bsp_hu/MYD-LD25X-Uboot-L2022.10-V1.0.0/GEN_FIP/myir-st-optee/ta/remoteproc/src/remoteproc_core.c:686
     c14:	a941067a 	ldp	x26, x1, [x19, #16]
     c18:	aa1703e4 	mov	x4, x23
     c1c:	aa1903e3 	mov	x3, x25
     c20:	52800082 	mov	w2, #0x4                   	// #4
     c24:	f90033e1 	str	x1, [sp, #96]
     c28:	aa1a03e0 	mov	x0, x26
     c2c:	97fffd3d 	bl	120 <remoteproc_get_tlv>
     c30:	2a0003fc 	mov	w28, w0
/media/home/beste/01_Pro/ld25x/bsp_hu/MYD-LD25X-Uboot-L2022.10-V1.0.0/GEN_FIP/myir-st-optee/ta/remoteproc/src/remoteproc_core.c:688
     c34:	35fffba0 	cbnz	w0, ba8 <TA_InvokeCommandEntryPoint+0x71c>
/media/home/beste/01_Pro/ld25x/bsp_hu/MYD-LD25X-Uboot-L2022.10-V1.0.0/GEN_FIP/myir-st-optee/ta/remoteproc/src/remoteproc_core.c:691
     c38:	f9403fe1 	ldr	x1, [sp, #120]
     c3c:	f9406be0 	ldr	x0, [sp, #208]
     c40:	eb00003f 	cmp	x1, x0
     c44:	54000a01 	b.ne	d84 <TA_InvokeCommandEntryPoint+0x8f8>  // b.any
/media/home/beste/01_Pro/ld25x/bsp_hu/MYD-LD25X-Uboot-L2022.10-V1.0.0/GEN_FIP/myir-st-optee/ta/remoteproc/src/remoteproc_core.c:694
     c48:	f94067e0 	ldr	x0, [sp, #200]
     c4c:	38746818 	ldrb	w24, [x0, x20]
remoteproc_load_elf():
/media/home/beste/01_Pro/ld25x/bsp_hu/MYD-LD25X-Uboot-L2022.10-V1.0.0/GEN_FIP/myir-st-optee/ta/remoteproc/src/remoteproc_core.c:922
     c50:	7100071f 	cmp	w24, #0x1
     c54:	54fffc41 	b.ne	bdc <TA_InvokeCommandEntryPoint+0x750>  // b.any
get_tlv_images_size():
/media/home/beste/01_Pro/ld25x/bsp_hu/MYD-LD25X-Uboot-L2022.10-V1.0.0/GEN_FIP/myir-st-optee/ta/remoteproc/src/remoteproc_core.c:709
     c58:	f94033e1 	ldr	x1, [sp, #96]
     c5c:	aa1703e4 	mov	x4, x23
     c60:	aa1903e3 	mov	x3, x25
     c64:	aa1a03e0 	mov	x0, x26
     c68:	528000a2 	mov	w2, #0x5                   	// #5
     c6c:	97fffd2d 	bl	120 <remoteproc_get_tlv>
     c70:	2a0003fc 	mov	w28, w0
/media/home/beste/01_Pro/ld25x/bsp_hu/MYD-LD25X-Uboot-L2022.10-V1.0.0/GEN_FIP/myir-st-optee/ta/remoteproc/src/remoteproc_core.c:711
     c74:	35fff9a0 	cbnz	w0, ba8 <TA_InvokeCommandEntryPoint+0x71c>
/media/home/beste/01_Pro/ld25x/bsp_hu/MYD-LD25X-Uboot-L2022.10-V1.0.0/GEN_FIP/myir-st-optee/ta/remoteproc/src/remoteproc_core.c:714
     c78:	f94043e1 	ldr	x1, [sp, #128]
     c7c:	f9406be0 	ldr	x0, [sp, #208]
     c80:	eb00003f 	cmp	x1, x0
     c84:	54000801 	b.ne	d84 <TA_InvokeCommandEntryPoint+0x8f8>  // b.any
/media/home/beste/01_Pro/ld25x/bsp_hu/MYD-LD25X-Uboot-L2022.10-V1.0.0/GEN_FIP/myir-st-optee/ta/remoteproc/src/remoteproc_core.c:717
     c88:	f9403be0 	ldr	x0, [sp, #112]
     c8c:	d2800082 	mov	x2, #0x4                   	// #4
     c90:	f94067e1 	ldr	x1, [sp, #200]
     c94:	8b140821 	add	x1, x1, x20, lsl #2
     c98:	97fffce2 	bl	20 <memcpy>
/media/home/beste/01_Pro/ld25x/bsp_hu/MYD-LD25X-Uboot-L2022.10-V1.0.0/GEN_FIP/myir-st-optee/ta/remoteproc/src/remoteproc_core.c:718
     c9c:	b940b3e0 	ldr	w0, [sp, #176]
remoteproc_load_elf():
/media/home/beste/01_Pro/ld25x/bsp_hu/MYD-LD25X-Uboot-L2022.10-V1.0.0/GEN_FIP/myir-st-optee/ta/remoteproc/src/remoteproc_core.c:931
     ca0:	93407ec4 	sxtw	x4, w22
     ca4:	f94047e2 	ldr	x2, [sp, #136]
     ca8:	2a0003fa 	mov	w26, w0
get_tlv_images_size():
/media/home/beste/01_Pro/ld25x/bsp_hu/MYD-LD25X-Uboot-L2022.10-V1.0.0/GEN_FIP/myir-st-optee/ta/remoteproc/src/remoteproc_core.c:718
     cac:	b90063e0 	str	w0, [sp, #96]
remoteproc_load_elf():
/media/home/beste/01_Pro/ld25x/bsp_hu/MYD-LD25X-Uboot-L2022.10-V1.0.0/GEN_FIP/myir-st-optee/ta/remoteproc/src/remoteproc_core.c:931
     cb0:	aa1303e3 	mov	x3, x19
     cb4:	f9401260 	ldr	x0, [x19, #32]
     cb8:	aa1a03e1 	mov	x1, x26
     cbc:	f9004be4 	str	x4, [sp, #144]
     cc0:	8b36c000 	add	x0, x0, w22, sxtw
     cc4:	940000e4 	bl	1054 <e32_parser_load_elf_image>
/media/home/beste/01_Pro/ld25x/bsp_hu/MYD-LD25X-Uboot-L2022.10-V1.0.0/GEN_FIP/myir-st-optee/ta/remoteproc/src/remoteproc_core.c:933
     cc8:	f9404be4 	ldr	x4, [sp, #144]
/media/home/beste/01_Pro/ld25x/bsp_hu/MYD-LD25X-Uboot-L2022.10-V1.0.0/GEN_FIP/myir-st-optee/ta/remoteproc/src/remoteproc_core.c:931
     ccc:	2a0003fc 	mov	w28, w0
/media/home/beste/01_Pro/ld25x/bsp_hu/MYD-LD25X-Uboot-L2022.10-V1.0.0/GEN_FIP/myir-st-optee/ta/remoteproc/src/remoteproc_core.c:933
     cd0:	35fff6c0 	cbnz	w0, ba8 <TA_InvokeCommandEntryPoint+0x71c>
remoteproc_parse_rsc_table():
/media/home/beste/01_Pro/ld25x/bsp_hu/MYD-LD25X-Uboot-L2022.10-V1.0.0/GEN_FIP/myir-st-optee/ta/remoteproc/src/remoteproc_core.c:632
     cd4:	f9403be2 	ldr	x2, [sp, #112]
     cd8:	aa1903e3 	mov	x3, x25
remoteproc_load_elf():
/media/home/beste/01_Pro/ld25x/bsp_hu/MYD-LD25X-Uboot-L2022.10-V1.0.0/GEN_FIP/myir-st-optee/ta/remoteproc/src/remoteproc_core.c:938
     cdc:	f9401260 	ldr	x0, [x19, #32]
remoteproc_parse_rsc_table():
/media/home/beste/01_Pro/ld25x/bsp_hu/MYD-LD25X-Uboot-L2022.10-V1.0.0/GEN_FIP/myir-st-optee/ta/remoteproc/src/remoteproc_core.c:632
     ce0:	aa1a03e1 	mov	x1, x26
/media/home/beste/01_Pro/ld25x/bsp_hu/MYD-LD25X-Uboot-L2022.10-V1.0.0/GEN_FIP/myir-st-optee/ta/remoteproc/src/remoteproc_core.c:628
     ce4:	b900b3ff 	str	wzr, [sp, #176]
/media/home/beste/01_Pro/ld25x/bsp_hu/MYD-LD25X-Uboot-L2022.10-V1.0.0/GEN_FIP/myir-st-optee/ta/remoteproc/src/remoteproc_core.c:632
     ce8:	8b040000 	add	x0, x0, x4
/media/home/beste/01_Pro/ld25x/bsp_hu/MYD-LD25X-Uboot-L2022.10-V1.0.0/GEN_FIP/myir-st-optee/ta/remoteproc/src/remoteproc_core.c:630
     cec:	b900cbff 	str	wzr, [sp, #200]
/media/home/beste/01_Pro/ld25x/bsp_hu/MYD-LD25X-Uboot-L2022.10-V1.0.0/GEN_FIP/myir-st-optee/ta/remoteproc/src/remoteproc_core.c:632
     cf0:	94000117 	bl	114c <e32_parser_find_rsc_table>
/media/home/beste/01_Pro/ld25x/bsp_hu/MYD-LD25X-Uboot-L2022.10-V1.0.0/GEN_FIP/myir-st-optee/ta/remoteproc/src/remoteproc_core.c:633
     cf4:	350007e0 	cbnz	w0, df0 <TA_InvokeCommandEntryPoint+0x964>
/media/home/beste/01_Pro/ld25x/bsp_hu/MYD-LD25X-Uboot-L2022.10-V1.0.0/GEN_FIP/myir-st-optee/ta/remoteproc/src/remoteproc_core.c:639
     cf8:	b9400264 	ldr	w4, [x19]
remoteproc_da_to_pa():
/media/home/beste/01_Pro/ld25x/bsp_hu/MYD-LD25X-Uboot-L2022.10-V1.0.0/GEN_FIP/myir-st-optee/ta/remoteproc/src/remoteproc_core.c:593
     cfc:	d2800782 	mov	x2, #0x3c                  	// #60
remoteproc_parse_rsc_table():
/media/home/beste/01_Pro/ld25x/bsp_hu/MYD-LD25X-Uboot-L2022.10-V1.0.0/GEN_FIP/myir-st-optee/ta/remoteproc/src/remoteproc_core.c:639
     d00:	b940cbe3 	ldr	w3, [sp, #200]
remoteproc_da_to_pa():
/media/home/beste/01_Pro/ld25x/bsp_hu/MYD-LD25X-Uboot-L2022.10-V1.0.0/GEN_FIP/myir-st-optee/ta/remoteproc/src/remoteproc_core.c:593
     d04:	52800001 	mov	w1, #0x0                   	// #0
remoteproc_parse_rsc_table():
/media/home/beste/01_Pro/ld25x/bsp_hu/MYD-LD25X-Uboot-L2022.10-V1.0.0/GEN_FIP/myir-st-optee/ta/remoteproc/src/remoteproc_core.c:639
     d08:	b940b3fa 	ldr	w26, [sp, #176]
remoteproc_da_to_pa():
/media/home/beste/01_Pro/ld25x/bsp_hu/MYD-LD25X-Uboot-L2022.10-V1.0.0/GEN_FIP/myir-st-optee/ta/remoteproc/src/remoteproc_core.c:593
     d0c:	910353e0 	add	x0, sp, #0xd4
     d10:	b90093e4 	str	w4, [sp, #144]
remoteproc_parse_rsc_table():
/media/home/beste/01_Pro/ld25x/bsp_hu/MYD-LD25X-Uboot-L2022.10-V1.0.0/GEN_FIP/myir-st-optee/ta/remoteproc/src/remoteproc_core.c:639
     d14:	b9009be3 	str	w3, [sp, #152]
remoteproc_da_to_pa():
/media/home/beste/01_Pro/ld25x/bsp_hu/MYD-LD25X-Uboot-L2022.10-V1.0.0/GEN_FIP/myir-st-optee/ta/remoteproc/src/remoteproc_core.c:593
     d18:	94000195 	bl	136c <memset>
/media/home/beste/01_Pro/ld25x/bsp_hu/MYD-LD25X-Uboot-L2022.10-V1.0.0/GEN_FIP/myir-st-optee/ta/remoteproc/src/remoteproc_core.c:604
     d1c:	b900e3fa 	str	w26, [sp, #224]
/media/home/beste/01_Pro/ld25x/bsp_hu/MYD-LD25X-Uboot-L2022.10-V1.0.0/GEN_FIP/myir-st-optee/ta/remoteproc/src/remoteproc_core.c:607
     d20:	b00000a0 	adrp	x0, 15000 <_DYNAMIC>
/media/home/beste/01_Pro/ld25x/bsp_hu/MYD-LD25X-Uboot-L2022.10-V1.0.0/GEN_FIP/myir-st-optee/ta/remoteproc/src/remoteproc_core.c:605
     d24:	b9409be3 	ldr	w3, [sp, #152]
/media/home/beste/01_Pro/ld25x/bsp_hu/MYD-LD25X-Uboot-L2022.10-V1.0.0/GEN_FIP/myir-st-optee/ta/remoteproc/src/remoteproc_core.c:603
     d28:	b94093e4 	ldr	w4, [sp, #144]
/media/home/beste/01_Pro/ld25x/bsp_hu/MYD-LD25X-Uboot-L2022.10-V1.0.0/GEN_FIP/myir-st-optee/ta/remoteproc/src/remoteproc_core.c:607
     d2c:	d2800005 	mov	x5, #0x0                   	// #0
     d30:	f942c800 	ldr	x0, [x0, #1424]
     d34:	528000e2 	mov	w2, #0x7                   	// #7
     d38:	12800001 	mov	w1, #0xffffffff            	// #-1
/media/home/beste/01_Pro/ld25x/bsp_hu/MYD-LD25X-Uboot-L2022.10-V1.0.0/GEN_FIP/myir-st-optee/ta/remoteproc/src/remoteproc_core.c:603
     d3c:	b900d3e4 	str	w4, [sp, #208]
/media/home/beste/01_Pro/ld25x/bsp_hu/MYD-LD25X-Uboot-L2022.10-V1.0.0/GEN_FIP/myir-st-optee/ta/remoteproc/src/remoteproc_core.c:607
     d40:	aa1703e4 	mov	x4, x23
/media/home/beste/01_Pro/ld25x/bsp_hu/MYD-LD25X-Uboot-L2022.10-V1.0.0/GEN_FIP/myir-st-optee/ta/remoteproc/src/remoteproc_core.c:605
     d44:	b900f3e3 	str	w3, [sp, #240]
/media/home/beste/01_Pro/ld25x/bsp_hu/MYD-LD25X-Uboot-L2022.10-V1.0.0/GEN_FIP/myir-st-optee/ta/remoteproc/src/remoteproc_core.c:607
     d48:	52842223 	mov	w3, #0x2111                	// #8465
     d4c:	9400072b 	bl	29f8 <TEE_InvokeTACommand>
/media/home/beste/01_Pro/ld25x/bsp_hu/MYD-LD25X-Uboot-L2022.10-V1.0.0/GEN_FIP/myir-st-optee/ta/remoteproc/src/remoteproc_core.c:610
     d50:	340001e0 	cbz	w0, d8c <TA_InvokeCommandEntryPoint+0x900>
/media/home/beste/01_Pro/ld25x/bsp_hu/MYD-LD25X-Uboot-L2022.10-V1.0.0/GEN_FIP/myir-st-optee/ta/remoteproc/src/remoteproc_core.c:611
     d54:	d0000080 	adrp	x0, 12000 <__text_end+0x2494>
     d58:	91318000 	add	x0, x0, #0xc60
     d5c:	2a1a03e5 	mov	w5, w26
     d60:	2a1803e3 	mov	w3, w24
     d64:	2a1803e2 	mov	w2, w24
     d68:	91030800 	add	x0, x0, #0xc2
     d6c:	f0000084 	adrp	x4, 13000 <small_prime+0x19c>
     d70:	52804c61 	mov	w1, #0x263                 	// #611
     d74:	91093484 	add	x4, x4, #0x24d
remoteproc_parse_rsc_table():
/media/home/beste/01_Pro/ld25x/bsp_hu/MYD-LD25X-Uboot-L2022.10-V1.0.0/GEN_FIP/myir-st-optee/ta/remoteproc/src/remoteproc_core.c:641
     d78:	129fffdc 	mov	w28, #0xffff0001            	// #-65535
remoteproc_da_to_pa():
/media/home/beste/01_Pro/ld25x/bsp_hu/MYD-LD25X-Uboot-L2022.10-V1.0.0/GEN_FIP/myir-st-optee/ta/remoteproc/src/remoteproc_core.c:611
     d7c:	94000213 	bl	15c8 <trace_printf>
remoteproc_load_elf():
/media/home/beste/01_Pro/ld25x/bsp_hu/MYD-LD25X-Uboot-L2022.10-V1.0.0/GEN_FIP/myir-st-optee/ta/remoteproc/src/remoteproc_core.c:968
     d80:	17ffff8a 	b	ba8 <TA_InvokeCommandEntryPoint+0x71c>
get_tlv_images_size():
/media/home/beste/01_Pro/ld25x/bsp_hu/MYD-LD25X-Uboot-L2022.10-V1.0.0/GEN_FIP/myir-st-optee/ta/remoteproc/src/remoteproc_core.c:715
     d84:	129fff3c 	mov	w28, #0xffff0006            	// #-65530
     d88:	17ffff88 	b	ba8 <TA_InvokeCommandEntryPoint+0x71c>
reg_pair_to_64():
/media/home/beste/01_Pro/ld25x/bsp_hu/MYD-LD25X-Uboot-L2022.10-V1.0.0/GEN_FIP/myir-st-optee/../build/myb-stm32mp257x-2GB-ca35tdcid-ostl/export-ta_arm64/include/util.h:166
     d8c:	f94083e0 	ldr	x0, [sp, #256]
remoteproc_da_to_pa():
/media/home/beste/01_Pro/ld25x/bsp_hu/MYD-LD25X-Uboot-L2022.10-V1.0.0/GEN_FIP/myir-st-optee/ta/remoteproc/src/remoteproc_core.c:618
     d90:	b5000160 	cbnz	x0, dbc <TA_InvokeCommandEntryPoint+0x930>
_assert_trap():
/media/home/beste/01_Pro/ld25x/bsp_hu/MYD-LD25X-Uboot-L2022.10-V1.0.0/GEN_FIP/myir-st-optee/../build/myb-stm32mp257x-2GB-ca35tdcid-ostl/export-ta_arm64/include/assert.h:19
     d94:	d0000083 	adrp	x3, 12000 <__text_end+0x2494>
     d98:	91318063 	add	x3, x3, #0xc60
     d9c:	91030863 	add	x3, x3, #0xc2
     da0:	f0000081 	adrp	x1, 13000 <small_prime+0x19c>
     da4:	f0000080 	adrp	x0, 13000 <small_prime+0x19c>
     da8:	9105b421 	add	x1, x1, #0x16d
     dac:	9109d000 	add	x0, x0, #0x274
     db0:	52804d42 	mov	w2, #0x26a                 	// #618
     db4:	94000597 	bl	2410 <_assert_log>
/media/home/beste/01_Pro/ld25x/bsp_hu/MYD-LD25X-Uboot-L2022.10-V1.0.0/GEN_FIP/myir-st-optee/../build/myb-stm32mp257x-2GB-ca35tdcid-ostl/export-ta_arm64/include/assert.h:20
     db8:	940005a7 	bl	2454 <_assert_break>
remoteproc_load_elf():
/media/home/beste/01_Pro/ld25x/bsp_hu/MYD-LD25X-Uboot-L2022.10-V1.0.0/GEN_FIP/myir-st-optee/ta/remoteproc/src/remoteproc_core.c:949
     dbc:	f9402262 	ldr	x2, [x19, #64]
remoteproc_parse_rsc_table():
/media/home/beste/01_Pro/ld25x/bsp_hu/MYD-LD25X-Uboot-L2022.10-V1.0.0/GEN_FIP/myir-st-optee/ta/remoteproc/src/remoteproc_core.c:643
     dc0:	b940cbe1 	ldr	w1, [sp, #200]
remoteproc_load_elf():
/media/home/beste/01_Pro/ld25x/bsp_hu/MYD-LD25X-Uboot-L2022.10-V1.0.0/GEN_FIP/myir-st-optee/ta/remoteproc/src/remoteproc_core.c:949
     dc4:	b4000202 	cbz	x2, e04 <TA_InvokeCommandEntryPoint+0x978>
/media/home/beste/01_Pro/ld25x/bsp_hu/MYD-LD25X-Uboot-L2022.10-V1.0.0/GEN_FIP/myir-st-optee/ta/remoteproc/src/remoteproc_core.c:950
     dc8:	d0000080 	adrp	x0, 12000 <__text_end+0x2494>
     dcc:	91318000 	add	x0, x0, #0xc60
     dd0:	9102b800 	add	x0, x0, #0xae
     dd4:	f0000084 	adrp	x4, 13000 <small_prime+0x19c>
     dd8:	52800023 	mov	w3, #0x1                   	// #1
     ddc:	9109dc84 	add	x4, x4, #0x277
     de0:	52800022 	mov	w2, #0x1                   	// #1
     de4:	528076c1 	mov	w1, #0x3b6                 	// #950
     de8:	940001f8 	bl	15c8 <trace_printf>
/media/home/beste/01_Pro/ld25x/bsp_hu/MYD-LD25X-Uboot-L2022.10-V1.0.0/GEN_FIP/myir-st-optee/ta/remoteproc/src/remoteproc_core.c:968
     dec:	17ffff7c 	b	bdc <TA_InvokeCommandEntryPoint+0x750>
/media/home/beste/01_Pro/ld25x/bsp_hu/MYD-LD25X-Uboot-L2022.10-V1.0.0/GEN_FIP/myir-st-optee/ta/remoteproc/src/remoteproc_core.c:940
     df0:	129ffe81 	mov	w1, #0xffff000b            	// #-65525
     df4:	6b01001f 	cmp	w0, w1
     df8:	540000c0 	b.eq	e10 <TA_InvokeCommandEntryPoint+0x984>  // b.none
     dfc:	2a0003fc 	mov	w28, w0
/media/home/beste/01_Pro/ld25x/bsp_hu/MYD-LD25X-Uboot-L2022.10-V1.0.0/GEN_FIP/myir-st-optee/ta/remoteproc/src/remoteproc_core.c:968
     e00:	17ffff6a 	b	ba8 <TA_InvokeCommandEntryPoint+0x71c>
/media/home/beste/01_Pro/ld25x/bsp_hu/MYD-LD25X-Uboot-L2022.10-V1.0.0/GEN_FIP/myir-st-optee/ta/remoteproc/src/remoteproc_core.c:949
     e04:	f9402662 	ldr	x2, [x19, #72]
     e08:	b5fffe02 	cbnz	x2, dc8 <TA_InvokeCommandEntryPoint+0x93c>
/media/home/beste/01_Pro/ld25x/bsp_hu/MYD-LD25X-Uboot-L2022.10-V1.0.0/GEN_FIP/myir-st-optee/ta/remoteproc/src/remoteproc_core.c:955
     e0c:	a9040660 	stp	x0, x1, [x19, #64]
/media/home/beste/01_Pro/ld25x/bsp_hu/MYD-LD25X-Uboot-L2022.10-V1.0.0/GEN_FIP/myir-st-optee/ta/remoteproc/src/remoteproc_core.c:963
     e10:	b94063e0 	ldr	w0, [sp, #96]
/media/home/beste/01_Pro/ld25x/bsp_hu/MYD-LD25X-Uboot-L2022.10-V1.0.0/GEN_FIP/myir-st-optee/ta/remoteproc/src/remoteproc_core.c:918
     e14:	91000694 	add	x20, x20, #0x1
/media/home/beste/01_Pro/ld25x/bsp_hu/MYD-LD25X-Uboot-L2022.10-V1.0.0/GEN_FIP/myir-st-optee/ta/remoteproc/src/remoteproc_core.c:963
     e18:	0b0002d6 	add	w22, w22, w0
/media/home/beste/01_Pro/ld25x/bsp_hu/MYD-LD25X-Uboot-L2022.10-V1.0.0/GEN_FIP/myir-st-optee/ta/remoteproc/src/remoteproc_core.c:918
     e1c:	6b1402bf 	cmp	w21, w20
     e20:	54ffefa8 	b.hi	c14 <TA_InvokeCommandEntryPoint+0x788>  // b.pmore
/media/home/beste/01_Pro/ld25x/bsp_hu/MYD-LD25X-Uboot-L2022.10-V1.0.0/GEN_FIP/myir-st-optee/ta/remoteproc/src/remoteproc_core.c:970
     e24:	f9401a60 	ldr	x0, [x19, #48]
     e28:	940007af 	bl	2ce4 <TEE_Free>
/media/home/beste/01_Pro/ld25x/bsp_hu/MYD-LD25X-Uboot-L2022.10-V1.0.0/GEN_FIP/myir-st-optee/ta/remoteproc/src/remoteproc_core.c:971
     e2c:	f9001a7f 	str	xzr, [x19, #48]
remoteproc_load_fw():
/media/home/beste/01_Pro/ld25x/bsp_hu/MYD-LD25X-Uboot-L2022.10-V1.0.0/GEN_FIP/myir-st-optee/ta/remoteproc/src/remoteproc_core.c:1022
     e30:	52800020 	mov	w0, #0x1                   	// #1
     e34:	b9005260 	str	w0, [x19, #80]
     e38:	17fffe3a 	b	720 <TA_InvokeCommandEntryPoint+0x294>
remoteproc_load_elf():
/media/home/beste/01_Pro/ld25x/bsp_hu/MYD-LD25X-Uboot-L2022.10-V1.0.0/GEN_FIP/myir-st-optee/ta/remoteproc/src/remoteproc_core.c:907
     e3c:	129ffe9c 	mov	w28, #0xffff000b            	// #-65525
     e40:	17ffff5a 	b	ba8 <TA_InvokeCommandEntryPoint+0x71c>
remoteproc_start_fw():
/media/home/beste/01_Pro/ld25x/bsp_hu/MYD-LD25X-Uboot-L2022.10-V1.0.0/GEN_FIP/myir-st-optee/ta/remoteproc/src/remoteproc_core.c:1048
     e44:	b9400060 	ldr	w0, [x3]
/media/home/beste/01_Pro/ld25x/bsp_hu/MYD-LD25X-Uboot-L2022.10-V1.0.0/GEN_FIP/myir-st-optee/ta/remoteproc/src/remoteproc_core.c:1051
     e48:	7100045f 	cmp	w2, #0x1
     e4c:	54ffb421 	b.ne	4d0 <TA_InvokeCommandEntryPoint+0x44>  // b.any
/media/home/beste/01_Pro/ld25x/bsp_hu/MYD-LD25X-Uboot-L2022.10-V1.0.0/GEN_FIP/myir-st-optee/ta/remoteproc/src/remoteproc_core.c:1054
     e50:	97fffcaa 	bl	f8 <remoteproc_find_firmware>
     e54:	aa0003f4 	mov	x20, x0
/media/home/beste/01_Pro/ld25x/bsp_hu/MYD-LD25X-Uboot-L2022.10-V1.0.0/GEN_FIP/myir-st-optee/ta/remoteproc/src/remoteproc_core.c:1055
     e58:	b4ffb3c0 	cbz	x0, 4d0 <TA_InvokeCommandEntryPoint+0x44>
/media/home/beste/01_Pro/ld25x/bsp_hu/MYD-LD25X-Uboot-L2022.10-V1.0.0/GEN_FIP/myir-st-optee/ta/remoteproc/src/remoteproc_core.c:1058
     e5c:	b9405003 	ldr	w3, [x0, #80]
     e60:	7100047f 	cmp	w3, #0x1
     e64:	540000a0 	b.eq	e78 <TA_InvokeCommandEntryPoint+0x9ec>  // b.none
     e68:	7100087f 	cmp	w3, #0x2
     e6c:	540001a0 	b.eq	ea0 <TA_InvokeCommandEntryPoint+0xa14>  // b.none
/media/home/beste/01_Pro/ld25x/bsp_hu/MYD-LD25X-Uboot-L2022.10-V1.0.0/GEN_FIP/myir-st-optee/ta/remoteproc/src/remoteproc_core.c:1060
     e70:	129fff1c 	mov	w28, #0xffff0007            	// #-65529
     e74:	17fffd9e 	b	4ec <TA_InvokeCommandEntryPoint+0x60>
/media/home/beste/01_Pro/ld25x/bsp_hu/MYD-LD25X-Uboot-L2022.10-V1.0.0/GEN_FIP/myir-st-optee/ta/remoteproc/src/remoteproc_core.c:1066
     e78:	b00000a0 	adrp	x0, 15000 <_DYNAMIC>
     e7c:	aa1503e4 	mov	x4, x21
     e80:	d2800005 	mov	x5, #0x0                   	// #0
     e84:	528000a2 	mov	w2, #0x5                   	// #5
     e88:	f942c800 	ldr	x0, [x0, #1424]
     e8c:	12800001 	mov	w1, #0xffffffff            	// #-1
     e90:	940006da 	bl	29f8 <TEE_InvokeTACommand>
     e94:	2a0003fc 	mov	w28, w0
/media/home/beste/01_Pro/ld25x/bsp_hu/MYD-LD25X-Uboot-L2022.10-V1.0.0/GEN_FIP/myir-st-optee/ta/remoteproc/src/remoteproc_core.c:1069
     e98:	35000080 	cbnz	w0, ea8 <TA_InvokeCommandEntryPoint+0xa1c>
/media/home/beste/01_Pro/ld25x/bsp_hu/MYD-LD25X-Uboot-L2022.10-V1.0.0/GEN_FIP/myir-st-optee/ta/remoteproc/src/remoteproc_core.c:1070
     e9c:	b9005293 	str	w19, [x20, #80]
/media/home/beste/01_Pro/ld25x/bsp_hu/MYD-LD25X-Uboot-L2022.10-V1.0.0/GEN_FIP/myir-st-optee/ta/remoteproc/src/remoteproc_core.c:1063
     ea0:	5280001c 	mov	w28, #0x0                   	// #0
     ea4:	17fffd92 	b	4ec <TA_InvokeCommandEntryPoint+0x60>
/media/home/beste/01_Pro/ld25x/bsp_hu/MYD-LD25X-Uboot-L2022.10-V1.0.0/GEN_FIP/myir-st-optee/ta/remoteproc/src/remoteproc_core.c:1072
     ea8:	b9400280 	ldr	w0, [x20]
     eac:	97fffd30 	bl	36c <remoteproc_clean_resources.isra.0>
     eb0:	17fffd8f 	b	4ec <TA_InvokeCommandEntryPoint+0x60>
remoteproc_stop_fw():
/media/home/beste/01_Pro/ld25x/bsp_hu/MYD-LD25X-Uboot-L2022.10-V1.0.0/GEN_FIP/myir-st-optee/ta/remoteproc/src/remoteproc_core.c:1089
     eb4:	b9400060 	ldr	w0, [x3]
/media/home/beste/01_Pro/ld25x/bsp_hu/MYD-LD25X-Uboot-L2022.10-V1.0.0/GEN_FIP/myir-st-optee/ta/remoteproc/src/remoteproc_core.c:1092
     eb8:	7100045f 	cmp	w2, #0x1
     ebc:	54ffb0a1 	b.ne	4d0 <TA_InvokeCommandEntryPoint+0x44>  // b.any
/media/home/beste/01_Pro/ld25x/bsp_hu/MYD-LD25X-Uboot-L2022.10-V1.0.0/GEN_FIP/myir-st-optee/ta/remoteproc/src/remoteproc_core.c:1095
     ec0:	97fffc8e 	bl	f8 <remoteproc_find_firmware>
     ec4:	aa0003f3 	mov	x19, x0
/media/home/beste/01_Pro/ld25x/bsp_hu/MYD-LD25X-Uboot-L2022.10-V1.0.0/GEN_FIP/myir-st-optee/ta/remoteproc/src/remoteproc_core.c:1096
     ec8:	b4ffb040 	cbz	x0, 4d0 <TA_InvokeCommandEntryPoint+0x44>
/media/home/beste/01_Pro/ld25x/bsp_hu/MYD-LD25X-Uboot-L2022.10-V1.0.0/GEN_FIP/myir-st-optee/ta/remoteproc/src/remoteproc_core.c:1099
     ecc:	b9405000 	ldr	w0, [x0, #80]
     ed0:	7100041f 	cmp	w0, #0x1
     ed4:	540000a0 	b.eq	ee8 <TA_InvokeCommandEntryPoint+0xa5c>  // b.none
     ed8:	7100081f 	cmp	w0, #0x2
     edc:	540000e0 	b.eq	ef8 <TA_InvokeCommandEntryPoint+0xa6c>  // b.none
     ee0:	35fffc80 	cbnz	w0, e70 <TA_InvokeCommandEntryPoint+0x9e4>
     ee4:	17ffffef 	b	ea0 <TA_InvokeCommandEntryPoint+0xa14>
/media/home/beste/01_Pro/ld25x/bsp_hu/MYD-LD25X-Uboot-L2022.10-V1.0.0/GEN_FIP/myir-st-optee/ta/remoteproc/src/remoteproc_core.c:1101
     ee8:	b9400260 	ldr	w0, [x19]
     eec:	97fffd20 	bl	36c <remoteproc_clean_resources.isra.0>
/media/home/beste/01_Pro/ld25x/bsp_hu/MYD-LD25X-Uboot-L2022.10-V1.0.0/GEN_FIP/myir-st-optee/ta/remoteproc/src/remoteproc_core.c:1102
     ef0:	b900527f 	str	wzr, [x19, #80]
/media/home/beste/01_Pro/ld25x/bsp_hu/MYD-LD25X-Uboot-L2022.10-V1.0.0/GEN_FIP/myir-st-optee/ta/remoteproc/src/remoteproc_core.c:1104
     ef4:	17ffffdf 	b	e70 <TA_InvokeCommandEntryPoint+0x9e4>
/media/home/beste/01_Pro/ld25x/bsp_hu/MYD-LD25X-Uboot-L2022.10-V1.0.0/GEN_FIP/myir-st-optee/ta/remoteproc/src/remoteproc_core.c:1109
     ef8:	b00000a0 	adrp	x0, 15000 <_DYNAMIC>
     efc:	aa0303e4 	mov	x4, x3
     f00:	d2800005 	mov	x5, #0x0                   	// #0
     f04:	2a0603e3 	mov	w3, w6
     f08:	f942c800 	ldr	x0, [x0, #1424]
     f0c:	528000c2 	mov	w2, #0x6                   	// #6
     f10:	12800001 	mov	w1, #0xffffffff            	// #-1
     f14:	940006b9 	bl	29f8 <TEE_InvokeTACommand>
     f18:	2a0003fc 	mov	w28, w0
/media/home/beste/01_Pro/ld25x/bsp_hu/MYD-LD25X-Uboot-L2022.10-V1.0.0/GEN_FIP/myir-st-optee/ta/remoteproc/src/remoteproc_core.c:1112
     f1c:	35ffae80 	cbnz	w0, 4ec <TA_InvokeCommandEntryPoint+0x60>
/media/home/beste/01_Pro/ld25x/bsp_hu/MYD-LD25X-Uboot-L2022.10-V1.0.0/GEN_FIP/myir-st-optee/ta/remoteproc/src/remoteproc_core.c:1113
     f20:	b9400260 	ldr	w0, [x19]
     f24:	97fffd12 	bl	36c <remoteproc_clean_resources.isra.0>
/media/home/beste/01_Pro/ld25x/bsp_hu/MYD-LD25X-Uboot-L2022.10-V1.0.0/GEN_FIP/myir-st-optee/ta/remoteproc/src/remoteproc_core.c:1114
     f28:	b900527f 	str	wzr, [x19, #80]
     f2c:	17fffd70 	b	4ec <TA_InvokeCommandEntryPoint+0x60>
remoteproc_get_rsc_table():
/media/home/beste/01_Pro/ld25x/bsp_hu/MYD-LD25X-Uboot-L2022.10-V1.0.0/GEN_FIP/myir-st-optee/ta/remoteproc/src/remoteproc_core.c:1133
     f30:	7108845f 	cmp	w2, #0x221
     f34:	54fface1 	b.ne	4d0 <TA_InvokeCommandEntryPoint+0x44>  // b.any
/media/home/beste/01_Pro/ld25x/bsp_hu/MYD-LD25X-Uboot-L2022.10-V1.0.0/GEN_FIP/myir-st-optee/ta/remoteproc/src/remoteproc_core.c:1136
     f38:	b9400060 	ldr	w0, [x3]
     f3c:	97fffc6f 	bl	f8 <remoteproc_find_firmware>
/media/home/beste/01_Pro/ld25x/bsp_hu/MYD-LD25X-Uboot-L2022.10-V1.0.0/GEN_FIP/myir-st-optee/ta/remoteproc/src/remoteproc_core.c:1137
     f40:	b4ffac80 	cbz	x0, 4d0 <TA_InvokeCommandEntryPoint+0x44>
/media/home/beste/01_Pro/ld25x/bsp_hu/MYD-LD25X-Uboot-L2022.10-V1.0.0/GEN_FIP/myir-st-optee/ta/remoteproc/src/remoteproc_core.c:1140
     f44:	b9405001 	ldr	w1, [x0, #80]
     f48:	34fff941 	cbz	w1, e70 <TA_InvokeCommandEntryPoint+0x9e4>
/media/home/beste/01_Pro/ld25x/bsp_hu/MYD-LD25X-Uboot-L2022.10-V1.0.0/GEN_FIP/myir-st-optee/ta/remoteproc/src/remoteproc_core.c:1145
     f4c:	a9440001 	ldp	x1, x0, [x0, #64]
reg_pair_from_64():
/media/home/beste/01_Pro/ld25x/bsp_hu/MYD-LD25X-Uboot-L2022.10-V1.0.0/GEN_FIP/myir-st-optee/../build/myb-stm32mp257x-2GB-ca35tdcid-ostl/export-ta_arm64/include/util.h:173
     f50:	b9002060 	str	w0, [x3, #32]
/media/home/beste/01_Pro/ld25x/bsp_hu/MYD-LD25X-Uboot-L2022.10-V1.0.0/GEN_FIP/myir-st-optee/../build/myb-stm32mp257x-2GB-ca35tdcid-ostl/export-ta_arm64/include/util.h:172
     f54:	d360fc22 	lsr	x2, x1, #32
     f58:	29020861 	stp	w1, w2, [x3, #16]
     f5c:	d360fc01 	lsr	x1, x0, #32
     f60:	b9002461 	str	w1, [x3, #36]
remoteproc_get_rsc_table():
/media/home/beste/01_Pro/ld25x/bsp_hu/MYD-LD25X-Uboot-L2022.10-V1.0.0/GEN_FIP/myir-st-optee/ta/remoteproc/src/remoteproc_core.c:1148
     f64:	17ffffcf 	b	ea0 <TA_InvokeCommandEntryPoint+0xa14>
remoteproc_load_fw():
/media/home/beste/01_Pro/ld25x/bsp_hu/MYD-LD25X-Uboot-L2022.10-V1.0.0/GEN_FIP/myir-st-optee/ta/remoteproc/src/remoteproc_core.c:994
     f68:	129ffe7c 	mov	w28, #0xffff000c            	// #-65524
     f6c:	17fffd60 	b	4ec <TA_InvokeCommandEntryPoint+0x60>

0000000000000f70 <e32_parse_ehdr>:
e32_parse_ehdr():
/media/home/beste/01_Pro/ld25x/bsp_hu/MYD-LD25X-Uboot-L2022.10-V1.0.0/GEN_FIP/myir-st-optee/ta/remoteproc/src/elf_parser.c:21
     f70:	a9bf7bfd 	stp	x29, x30, [sp, #-16]!
     f74:	910003fd 	mov	x29, sp
/media/home/beste/01_Pro/ld25x/bsp_hu/MYD-LD25X-Uboot-L2022.10-V1.0.0/GEN_FIP/myir-st-optee/ta/remoteproc/src/elf_parser.c:24
     f78:	b4000060 	cbz	x0, f84 <e32_parse_ehdr+0x14>
/media/home/beste/01_Pro/ld25x/bsp_hu/MYD-LD25X-Uboot-L2022.10-V1.0.0/GEN_FIP/myir-st-optee/ta/remoteproc/src/elf_parser.c:24 (discriminator 1)
     f7c:	f240041f 	tst	x0, #0x3
     f80:	54000180 	b.eq	fb0 <e32_parse_ehdr+0x40>  // b.none
/media/home/beste/01_Pro/ld25x/bsp_hu/MYD-LD25X-Uboot-L2022.10-V1.0.0/GEN_FIP/myir-st-optee/ta/remoteproc/src/elf_parser.c:25
     f84:	f0000084 	adrp	x4, 13000 <small_prime+0x19c>
     f88:	52800023 	mov	w3, #0x1                   	// #1
     f8c:	910a6884 	add	x4, x4, #0x29a
     f90:	52800022 	mov	w2, #0x1                   	// #1
     f94:	52800321 	mov	w1, #0x19                  	// #25
     f98:	f0000080 	adrp	x0, 13000 <small_prime+0x19c>
     f9c:	910de400 	add	x0, x0, #0x379
     fa0:	9400018a 	bl	15c8 <trace_printf>
/media/home/beste/01_Pro/ld25x/bsp_hu/MYD-LD25X-Uboot-L2022.10-V1.0.0/GEN_FIP/myir-st-optee/ta/remoteproc/src/elf_parser.c:26
     fa4:	129fff20 	mov	w0, #0xffff0006            	// #-65530
/media/home/beste/01_Pro/ld25x/bsp_hu/MYD-LD25X-Uboot-L2022.10-V1.0.0/GEN_FIP/myir-st-optee/ta/remoteproc/src/elf_parser.c:48
     fa8:	a8c17bfd 	ldp	x29, x30, [sp], #16
     fac:	d65f03c0 	ret
/media/home/beste/01_Pro/ld25x/bsp_hu/MYD-LD25X-Uboot-L2022.10-V1.0.0/GEN_FIP/myir-st-optee/ta/remoteproc/src/elf_parser.c:29
     fb0:	f100cc3f 	cmp	x1, #0x33
     fb4:	540003a9 	b.ls	1028 <e32_parse_ehdr+0xb8>  // b.plast
/media/home/beste/01_Pro/ld25x/bsp_hu/MYD-LD25X-Uboot-L2022.10-V1.0.0/GEN_FIP/myir-st-optee/ta/remoteproc/src/elf_parser.c:30 (discriminator 1)
     fb8:	b9402002 	ldr	w2, [x0, #32]
     fbc:	9100a042 	add	x2, x2, #0x28
/media/home/beste/01_Pro/ld25x/bsp_hu/MYD-LD25X-Uboot-L2022.10-V1.0.0/GEN_FIP/myir-st-optee/ta/remoteproc/src/elf_parser.c:29 (discriminator 1)
     fc0:	eb01005f 	cmp	x2, x1
     fc4:	54000328 	b.hi	1028 <e32_parse_ehdr+0xb8>  // b.pmore
/media/home/beste/01_Pro/ld25x/bsp_hu/MYD-LD25X-Uboot-L2022.10-V1.0.0/GEN_FIP/myir-st-optee/ta/remoteproc/src/elf_parser.c:33
     fc8:	b9400002 	ldr	w2, [x0]
     fcc:	5288afe1 	mov	w1, #0x457f                	// #17791
     fd0:	72a8c981 	movk	w1, #0x464c, lsl #16
     fd4:	6b01005f 	cmp	w2, w1
     fd8:	54000181 	b.ne	1008 <e32_parse_ehdr+0x98>  // b.any
/media/home/beste/01_Pro/ld25x/bsp_hu/MYD-LD25X-Uboot-L2022.10-V1.0.0/GEN_FIP/myir-st-optee/ta/remoteproc/src/elf_parser.c:34
     fdc:	b9400401 	ldr	w1, [x0, #4]
     fe0:	320083e2 	mov	w2, #0x10001               	// #65537
     fe4:	12009c21 	and	w1, w1, #0xff00ff
     fe8:	6b02003f 	cmp	w1, w2
     fec:	540000e1 	b.ne	1008 <e32_parse_ehdr+0x98>  // b.any
/media/home/beste/01_Pro/ld25x/bsp_hu/MYD-LD25X-Uboot-L2022.10-V1.0.0/GEN_FIP/myir-st-optee/ta/remoteproc/src/elf_parser.c:35
     ff0:	79405401 	ldrh	w1, [x0, #42]
     ff4:	7100803f 	cmp	w1, #0x20
     ff8:	54000081 	b.ne	1008 <e32_parse_ehdr+0x98>  // b.any
/media/home/beste/01_Pro/ld25x/bsp_hu/MYD-LD25X-Uboot-L2022.10-V1.0.0/GEN_FIP/myir-st-optee/ta/remoteproc/src/elf_parser.c:36
     ffc:	79405c01 	ldrh	w1, [x0, #46]
    1000:	7100a03f 	cmp	w1, #0x28
    1004:	54000160 	b.eq	1030 <e32_parse_ehdr+0xc0>  // b.none
/media/home/beste/01_Pro/ld25x/bsp_hu/MYD-LD25X-Uboot-L2022.10-V1.0.0/GEN_FIP/myir-st-optee/ta/remoteproc/src/elf_parser.c:38
    1008:	d0000084 	adrp	x4, 13000 <small_prime+0x19c>
    100c:	910acc84 	add	x4, x4, #0x2b3
    1010:	52800023 	mov	w3, #0x1                   	// #1
    1014:	52800022 	mov	w2, #0x1                   	// #1
    1018:	528004c1 	mov	w1, #0x26                  	// #38
    101c:	d0000080 	adrp	x0, 13000 <small_prime+0x19c>
    1020:	910de400 	add	x0, x0, #0x379
    1024:	94000169 	bl	15c8 <trace_printf>
/media/home/beste/01_Pro/ld25x/bsp_hu/MYD-LD25X-Uboot-L2022.10-V1.0.0/GEN_FIP/myir-st-optee/ta/remoteproc/src/elf_parser.c:31
    1028:	129fff40 	mov	w0, #0xffff0005            	// #-65531
    102c:	17ffffdf 	b	fa8 <e32_parse_ehdr+0x38>
/media/home/beste/01_Pro/ld25x/bsp_hu/MYD-LD25X-Uboot-L2022.10-V1.0.0/GEN_FIP/myir-st-optee/ta/remoteproc/src/elf_parser.c:42
    1030:	79405801 	ldrh	w1, [x0, #44]
/media/home/beste/01_Pro/ld25x/bsp_hu/MYD-LD25X-Uboot-L2022.10-V1.0.0/GEN_FIP/myir-st-optee/ta/remoteproc/src/elf_parser.c:47
    1034:	52800000 	mov	w0, #0x0                   	// #0
/media/home/beste/01_Pro/ld25x/bsp_hu/MYD-LD25X-Uboot-L2022.10-V1.0.0/GEN_FIP/myir-st-optee/ta/remoteproc/src/elf_parser.c:42
    1038:	35fffb81 	cbnz	w1, fa8 <e32_parse_ehdr+0x38>
/media/home/beste/01_Pro/ld25x/bsp_hu/MYD-LD25X-Uboot-L2022.10-V1.0.0/GEN_FIP/myir-st-optee/ta/remoteproc/src/elf_parser.c:43
    103c:	d0000084 	adrp	x4, 13000 <small_prime+0x19c>
    1040:	52800023 	mov	w3, #0x1                   	// #1
    1044:	910b0884 	add	x4, x4, #0x2c2
    1048:	52800022 	mov	w2, #0x1                   	// #1
    104c:	52800561 	mov	w1, #0x2b                  	// #43
    1050:	17fffff3 	b	101c <e32_parse_ehdr+0xac>

0000000000001054 <e32_parser_load_elf_image>:
e32_parser_load_elf_image():
/media/home/beste/01_Pro/ld25x/bsp_hu/MYD-LD25X-Uboot-L2022.10-V1.0.0/GEN_FIP/myir-st-optee/ta/remoteproc/src/elf_parser.c:57
    1054:	a9bc7bfd 	stp	x29, x30, [sp, #-64]!
/media/home/beste/01_Pro/ld25x/bsp_hu/MYD-LD25X-Uboot-L2022.10-V1.0.0/GEN_FIP/myir-st-optee/ta/remoteproc/src/elf_parser.c:63
    1058:	f100005f 	cmp	x2, #0x0
    105c:	fa401824 	ccmp	x1, #0x0, #0x4, ne	// ne = any
/media/home/beste/01_Pro/ld25x/bsp_hu/MYD-LD25X-Uboot-L2022.10-V1.0.0/GEN_FIP/myir-st-optee/ta/remoteproc/src/elf_parser.c:57
    1060:	910003fd 	mov	x29, sp
    1064:	a90153f3 	stp	x19, x20, [sp, #16]
/media/home/beste/01_Pro/ld25x/bsp_hu/MYD-LD25X-Uboot-L2022.10-V1.0.0/GEN_FIP/myir-st-optee/ta/remoteproc/src/elf_parser.c:59
    1068:	b9401c13 	ldr	w19, [x0, #28]
/media/home/beste/01_Pro/ld25x/bsp_hu/MYD-LD25X-Uboot-L2022.10-V1.0.0/GEN_FIP/myir-st-optee/ta/remoteproc/src/elf_parser.c:57
    106c:	a9025bf5 	stp	x21, x22, [sp, #32]
/media/home/beste/01_Pro/ld25x/bsp_hu/MYD-LD25X-Uboot-L2022.10-V1.0.0/GEN_FIP/myir-st-optee/ta/remoteproc/src/elf_parser.c:59
    1070:	8b130013 	add	x19, x0, x19
/media/home/beste/01_Pro/ld25x/bsp_hu/MYD-LD25X-Uboot-L2022.10-V1.0.0/GEN_FIP/myir-st-optee/ta/remoteproc/src/elf_parser.c:57
    1074:	a90363f7 	stp	x23, x24, [sp, #48]
/media/home/beste/01_Pro/ld25x/bsp_hu/MYD-LD25X-Uboot-L2022.10-V1.0.0/GEN_FIP/myir-st-optee/ta/remoteproc/src/elf_parser.c:63
    1078:	5400066d 	b.le	1144 <e32_parser_load_elf_image+0xf0>
/media/home/beste/01_Pro/ld25x/bsp_hu/MYD-LD25X-Uboot-L2022.10-V1.0.0/GEN_FIP/myir-st-optee/ta/remoteproc/src/elf_parser.c:66
    107c:	f240067f 	tst	x19, #0x3
    1080:	540000e0 	b.eq	109c <e32_parser_load_elf_image+0x48>  // b.none
/media/home/beste/01_Pro/ld25x/bsp_hu/MYD-LD25X-Uboot-L2022.10-V1.0.0/GEN_FIP/myir-st-optee/ta/remoteproc/src/elf_parser.c:68
    1084:	129fff40 	mov	w0, #0xffff0005            	// #-65531
/media/home/beste/01_Pro/ld25x/bsp_hu/MYD-LD25X-Uboot-L2022.10-V1.0.0/GEN_FIP/myir-st-optee/ta/remoteproc/src/elf_parser.c:94
    1088:	a94153f3 	ldp	x19, x20, [sp, #16]
    108c:	a9425bf5 	ldp	x21, x22, [sp, #32]
    1090:	a94363f7 	ldp	x23, x24, [sp, #48]
    1094:	a8c47bfd 	ldp	x29, x30, [sp], #64
    1098:	d65f03c0 	ret
    109c:	aa0003f4 	mov	x20, x0
va_in_fwm_image_range():
/media/home/beste/01_Pro/ld25x/bsp_hu/MYD-LD25X-Uboot-L2022.10-V1.0.0/GEN_FIP/myir-st-optee/ta/remoteproc/src/elf_parser.c:17
    10a0:	eb13001f 	cmp	x0, x19
    10a4:	54ffff08 	b.hi	1084 <e32_parser_load_elf_image+0x30>  // b.pmore
    10a8:	8b010015 	add	x21, x0, x1
    10ac:	eb15027f 	cmp	x19, x21
    10b0:	54fffea2 	b.cs	1084 <e32_parser_load_elf_image+0x30>  // b.hs, b.nlast
    10b4:	aa0203f7 	mov	x23, x2
    10b8:	aa0303f6 	mov	x22, x3
    10bc:	91007e73 	add	x19, x19, #0x1f
e32_parser_load_elf_image():
/media/home/beste/01_Pro/ld25x/bsp_hu/MYD-LD25X-Uboot-L2022.10-V1.0.0/GEN_FIP/myir-st-optee/ta/remoteproc/src/elf_parser.c:70
    10c0:	52800018 	mov	w24, #0x0                   	// #0
/media/home/beste/01_Pro/ld25x/bsp_hu/MYD-LD25X-Uboot-L2022.10-V1.0.0/GEN_FIP/myir-st-optee/ta/remoteproc/src/elf_parser.c:70 (discriminator 1)
    10c4:	79405a80 	ldrh	w0, [x20, #44]
    10c8:	6b18001f 	cmp	w0, w24
    10cc:	54000068 	b.hi	10d8 <e32_parser_load_elf_image+0x84>  // b.pmore
/media/home/beste/01_Pro/ld25x/bsp_hu/MYD-LD25X-Uboot-L2022.10-V1.0.0/GEN_FIP/myir-st-optee/ta/remoteproc/src/elf_parser.c:93
    10d0:	52800000 	mov	w0, #0x0                   	// #0
    10d4:	17ffffed 	b	1088 <e32_parser_load_elf_image+0x34>
/media/home/beste/01_Pro/ld25x/bsp_hu/MYD-LD25X-Uboot-L2022.10-V1.0.0/GEN_FIP/myir-st-optee/ta/remoteproc/src/elf_parser.c:74
    10d8:	b85e1260 	ldur	w0, [x19, #-31]
/media/home/beste/01_Pro/ld25x/bsp_hu/MYD-LD25X-Uboot-L2022.10-V1.0.0/GEN_FIP/myir-st-optee/ta/remoteproc/src/elf_parser.c:71
    10dc:	b85ed262 	ldur	w2, [x19, #-19]
/media/home/beste/01_Pro/ld25x/bsp_hu/MYD-LD25X-Uboot-L2022.10-V1.0.0/GEN_FIP/myir-st-optee/ta/remoteproc/src/elf_parser.c:74
    10e0:	7100041f 	cmp	w0, #0x1
    10e4:	54000080 	b.eq	10f4 <e32_parser_load_elf_image+0xa0>  // b.none
/media/home/beste/01_Pro/ld25x/bsp_hu/MYD-LD25X-Uboot-L2022.10-V1.0.0/GEN_FIP/myir-st-optee/ta/remoteproc/src/elf_parser.c:70
    10e8:	11000718 	add	w24, w24, #0x1
    10ec:	91008273 	add	x19, x19, #0x20
    10f0:	17fffff5 	b	10c4 <e32_parser_load_elf_image+0x70>
va_in_fwm_image_range():
/media/home/beste/01_Pro/ld25x/bsp_hu/MYD-LD25X-Uboot-L2022.10-V1.0.0/GEN_FIP/myir-st-optee/ta/remoteproc/src/elf_parser.c:17
    10f4:	eb13029f 	cmp	x20, x19
    10f8:	54fffc68 	b.hi	1084 <e32_parser_load_elf_image+0x30>  // b.pmore
    10fc:	eb1302bf 	cmp	x21, x19
    1100:	54fffc29 	b.ls	1084 <e32_parser_load_elf_image+0x30>  // b.plast
e32_parser_load_elf_image():
/media/home/beste/01_Pro/ld25x/bsp_hu/MYD-LD25X-Uboot-L2022.10-V1.0.0/GEN_FIP/myir-st-optee/ta/remoteproc/src/elf_parser.c:81
    1104:	b85e5260 	ldur	w0, [x19, #-27]
va_in_fwm_image_range():
/media/home/beste/01_Pro/ld25x/bsp_hu/MYD-LD25X-Uboot-L2022.10-V1.0.0/GEN_FIP/myir-st-optee/ta/remoteproc/src/elf_parser.c:17
    1108:	ab000280 	adds	x0, x20, x0
    110c:	54fffbc2 	b.cs	1084 <e32_parser_load_elf_image+0x30>  // b.hs, b.nlast
    1110:	eb15001f 	cmp	x0, x21
    1114:	54fffb82 	b.cs	1084 <e32_parser_load_elf_image+0x30>  // b.hs, b.nlast
e32_parser_load_elf_image():
/media/home/beste/01_Pro/ld25x/bsp_hu/MYD-LD25X-Uboot-L2022.10-V1.0.0/GEN_FIP/myir-st-optee/ta/remoteproc/src/elf_parser.c:84
    1118:	b85f1261 	ldur	w1, [x19, #-15]
    111c:	8b214003 	add	x3, x0, w1, uxtw
va_in_fwm_image_range():
/media/home/beste/01_Pro/ld25x/bsp_hu/MYD-LD25X-Uboot-L2022.10-V1.0.0/GEN_FIP/myir-st-optee/ta/remoteproc/src/elf_parser.c:17
    1120:	eb14007f 	cmp	x3, x20
    1124:	54fffb03 	b.cc	1084 <e32_parser_load_elf_image+0x30>  // b.lo, b.ul, b.last
    1128:	eb15007f 	cmp	x3, x21
    112c:	54fffac2 	b.cs	1084 <e32_parser_load_elf_image+0x30>  // b.hs, b.nlast
e32_parser_load_elf_image():
/media/home/beste/01_Pro/ld25x/bsp_hu/MYD-LD25X-Uboot-L2022.10-V1.0.0/GEN_FIP/myir-st-optee/ta/remoteproc/src/elf_parser.c:87
    1130:	b85f5263 	ldur	w3, [x19, #-11]
    1134:	aa1603e4 	mov	x4, x22
    1138:	d63f02e0 	blr	x23
/media/home/beste/01_Pro/ld25x/bsp_hu/MYD-LD25X-Uboot-L2022.10-V1.0.0/GEN_FIP/myir-st-optee/ta/remoteproc/src/elf_parser.c:89
    113c:	34fffd60 	cbz	w0, 10e8 <e32_parser_load_elf_image+0x94>
    1140:	17ffffd2 	b	1088 <e32_parser_load_elf_image+0x34>
/media/home/beste/01_Pro/ld25x/bsp_hu/MYD-LD25X-Uboot-L2022.10-V1.0.0/GEN_FIP/myir-st-optee/ta/remoteproc/src/elf_parser.c:64
    1144:	129fff20 	mov	w0, #0xffff0006            	// #-65530
    1148:	17ffffd0 	b	1088 <e32_parser_load_elf_image+0x34>

000000000000114c <e32_parser_find_rsc_table>:
e32_parser_find_rsc_table():
/media/home/beste/01_Pro/ld25x/bsp_hu/MYD-LD25X-Uboot-L2022.10-V1.0.0/GEN_FIP/myir-st-optee/ta/remoteproc/src/elf_parser.c:107
    114c:	f100003f 	cmp	x1, #0x0
    1150:	54000f6d 	b.le	133c <e32_parser_find_rsc_table+0x1f0>
/media/home/beste/01_Pro/ld25x/bsp_hu/MYD-LD25X-Uboot-L2022.10-V1.0.0/GEN_FIP/myir-st-optee/ta/remoteproc/src/elf_parser.c:99
    1154:	a9ba7bfd 	stp	x29, x30, [sp, #-96]!
    1158:	910003fd 	mov	x29, sp
    115c:	a90153f3 	stp	x19, x20, [sp, #16]
    1160:	aa0003f4 	mov	x20, x0
/media/home/beste/01_Pro/ld25x/bsp_hu/MYD-LD25X-Uboot-L2022.10-V1.0.0/GEN_FIP/myir-st-optee/ta/remoteproc/src/elf_parser.c:110
    1164:	b9402013 	ldr	w19, [x0, #32]
/media/home/beste/01_Pro/ld25x/bsp_hu/MYD-LD25X-Uboot-L2022.10-V1.0.0/GEN_FIP/myir-st-optee/ta/remoteproc/src/elf_parser.c:99
    1168:	a9025bf5 	stp	x21, x22, [sp, #32]
/media/home/beste/01_Pro/ld25x/bsp_hu/MYD-LD25X-Uboot-L2022.10-V1.0.0/GEN_FIP/myir-st-optee/ta/remoteproc/src/elf_parser.c:110
    116c:	8b130013 	add	x19, x0, x19
/media/home/beste/01_Pro/ld25x/bsp_hu/MYD-LD25X-Uboot-L2022.10-V1.0.0/GEN_FIP/myir-st-optee/ta/remoteproc/src/elf_parser.c:99
    1170:	a90363f7 	stp	x23, x24, [sp, #48]
    1174:	a9046bf9 	stp	x25, x26, [sp, #64]
    1178:	a90573fb 	stp	x27, x28, [sp, #80]
/media/home/beste/01_Pro/ld25x/bsp_hu/MYD-LD25X-Uboot-L2022.10-V1.0.0/GEN_FIP/myir-st-optee/ta/remoteproc/src/elf_parser.c:111
    117c:	f240067f 	tst	x19, #0x3
    1180:	540009a1 	b.ne	12b4 <e32_parser_find_rsc_table+0x168>  // b.any
va_in_fwm_image_range():
/media/home/beste/01_Pro/ld25x/bsp_hu/MYD-LD25X-Uboot-L2022.10-V1.0.0/GEN_FIP/myir-st-optee/ta/remoteproc/src/elf_parser.c:17
    1184:	eb13001f 	cmp	x0, x19
    1188:	54000968 	b.hi	12b4 <e32_parser_find_rsc_table+0x168>  // b.pmore
    118c:	8b010018 	add	x24, x0, x1
    1190:	aa0103f6 	mov	x22, x1
    1194:	eb18027f 	cmp	x19, x24
    1198:	540008e2 	b.cs	12b4 <e32_parser_find_rsc_table+0x168>  // b.hs, b.nlast
e32_parser_find_rsc_table():
/media/home/beste/01_Pro/ld25x/bsp_hu/MYD-LD25X-Uboot-L2022.10-V1.0.0/GEN_FIP/myir-st-optee/ta/remoteproc/src/elf_parser.c:115
    119c:	79406400 	ldrh	w0, [x0, #50]
    11a0:	52800501 	mov	w1, #0x28                  	// #40
    11a4:	9ba14c00 	umaddl	x0, w0, w1, x19
    11a8:	b9401015 	ldr	w21, [x0, #16]
va_in_fwm_image_range():
/media/home/beste/01_Pro/ld25x/bsp_hu/MYD-LD25X-Uboot-L2022.10-V1.0.0/GEN_FIP/myir-st-optee/ta/remoteproc/src/elf_parser.c:17
    11ac:	ab150295 	adds	x21, x20, x21
    11b0:	54000822 	b.cs	12b4 <e32_parser_find_rsc_table+0x168>  // b.hs, b.nlast
    11b4:	eb1802bf 	cmp	x21, x24
    11b8:	540007e2 	b.cs	12b4 <e32_parser_find_rsc_table+0x168>  // b.hs, b.nlast
e32_parser_find_rsc_table():
/media/home/beste/01_Pro/ld25x/bsp_hu/MYD-LD25X-Uboot-L2022.10-V1.0.0/GEN_FIP/myir-st-optee/ta/remoteproc/src/elf_parser.c:119
    11bc:	7940629c 	ldrh	w28, [x20, #48]
/media/home/beste/01_Pro/ld25x/bsp_hu/MYD-LD25X-Uboot-L2022.10-V1.0.0/GEN_FIP/myir-st-optee/ta/remoteproc/src/elf_parser.c:127
    11c0:	d000009b 	adrp	x27, 13000 <small_prime+0x19c>
    11c4:	aa0203f9 	mov	x25, x2
    11c8:	aa0303fa 	mov	x26, x3
    11cc:	910b737b 	add	x27, x27, #0x2dc
/media/home/beste/01_Pro/ld25x/bsp_hu/MYD-LD25X-Uboot-L2022.10-V1.0.0/GEN_FIP/myir-st-optee/ta/remoteproc/src/elf_parser.c:119
    11d0:	52800017 	mov	w23, #0x0                   	// #0
/media/home/beste/01_Pro/ld25x/bsp_hu/MYD-LD25X-Uboot-L2022.10-V1.0.0/GEN_FIP/myir-st-optee/ta/remoteproc/src/elf_parser.c:119 (discriminator 1)
    11d4:	6b17039f 	cmp	w28, w23
    11d8:	54000068 	b.hi	11e4 <e32_parser_find_rsc_table+0x98>  // b.pmore
/media/home/beste/01_Pro/ld25x/bsp_hu/MYD-LD25X-Uboot-L2022.10-V1.0.0/GEN_FIP/myir-st-optee/ta/remoteproc/src/elf_parser.c:131
    11dc:	129ffe80 	mov	w0, #0xffff000b            	// #-65525
    11e0:	14000050 	b	1320 <e32_parser_find_rsc_table+0x1d4>
va_in_fwm_image_range():
/media/home/beste/01_Pro/ld25x/bsp_hu/MYD-LD25X-Uboot-L2022.10-V1.0.0/GEN_FIP/myir-st-optee/ta/remoteproc/src/elf_parser.c:17
    11e4:	eb14027f 	cmp	x19, x20
    11e8:	54000663 	b.cc	12b4 <e32_parser_find_rsc_table+0x168>  // b.lo, b.ul, b.last
    11ec:	eb18027f 	cmp	x19, x24
    11f0:	54000622 	b.cs	12b4 <e32_parser_find_rsc_table+0x168>  // b.hs, b.nlast
e32_parser_find_rsc_table():
/media/home/beste/01_Pro/ld25x/bsp_hu/MYD-LD25X-Uboot-L2022.10-V1.0.0/GEN_FIP/myir-st-optee/ta/remoteproc/src/elf_parser.c:127
    11f4:	b9400260 	ldr	w0, [x19]
    11f8:	aa1b03e1 	mov	x1, x27
    11fc:	8b0002a0 	add	x0, x21, x0
    1200:	94000062 	bl	1388 <strcmp>
    1204:	34000080 	cbz	w0, 1214 <e32_parser_find_rsc_table+0xc8>
/media/home/beste/01_Pro/ld25x/bsp_hu/MYD-LD25X-Uboot-L2022.10-V1.0.0/GEN_FIP/myir-st-optee/ta/remoteproc/src/elf_parser.c:119 (discriminator 1)
    1208:	110006f7 	add	w23, w23, #0x1
    120c:	9100a273 	add	x19, x19, #0x28
    1210:	17fffff1 	b	11d4 <e32_parser_find_rsc_table+0x88>
/media/home/beste/01_Pro/ld25x/bsp_hu/MYD-LD25X-Uboot-L2022.10-V1.0.0/GEN_FIP/myir-st-optee/ta/remoteproc/src/elf_parser.c:120
    1214:	b9401660 	ldr	w0, [x19, #20]
/media/home/beste/01_Pro/ld25x/bsp_hu/MYD-LD25X-Uboot-L2022.10-V1.0.0/GEN_FIP/myir-st-optee/ta/remoteproc/src/elf_parser.c:130
    1218:	34fffe20 	cbz	w0, 11dc <e32_parser_find_rsc_table+0x90>
/media/home/beste/01_Pro/ld25x/bsp_hu/MYD-LD25X-Uboot-L2022.10-V1.0.0/GEN_FIP/myir-st-optee/ta/remoteproc/src/elf_parser.c:121
    121c:	b9401262 	ldr	w2, [x19, #16]
/media/home/beste/01_Pro/ld25x/bsp_hu/MYD-LD25X-Uboot-L2022.10-V1.0.0/GEN_FIP/myir-st-optee/ta/remoteproc/src/elf_parser.c:120
    1220:	2a0003e3 	mov	w3, w0
/media/home/beste/01_Pro/ld25x/bsp_hu/MYD-LD25X-Uboot-L2022.10-V1.0.0/GEN_FIP/myir-st-optee/ta/remoteproc/src/elf_parser.c:133
    1224:	8b204040 	add	x0, x2, w0, uxtw
    1228:	eb16001f 	cmp	x0, x22
    122c:	54000169 	b.ls	1258 <e32_parser_find_rsc_table+0x10c>  // b.plast
/media/home/beste/01_Pro/ld25x/bsp_hu/MYD-LD25X-Uboot-L2022.10-V1.0.0/GEN_FIP/myir-st-optee/ta/remoteproc/src/elf_parser.c:134
    1230:	d0000084 	adrp	x4, 13000 <small_prime+0x19c>
    1234:	910bb084 	add	x4, x4, #0x2ec
    1238:	52800023 	mov	w3, #0x1                   	// #1
    123c:	52800022 	mov	w2, #0x1                   	// #1
    1240:	528010c1 	mov	w1, #0x86                  	// #134
/media/home/beste/01_Pro/ld25x/bsp_hu/MYD-LD25X-Uboot-L2022.10-V1.0.0/GEN_FIP/myir-st-optee/ta/remoteproc/src/elf_parser.c:161
    1244:	d0000080 	adrp	x0, 13000 <small_prime+0x19c>
    1248:	910de400 	add	x0, x0, #0x379
    124c:	91003c00 	add	x0, x0, #0xf
    1250:	940000de 	bl	15c8 <trace_printf>
/media/home/beste/01_Pro/ld25x/bsp_hu/MYD-LD25X-Uboot-L2022.10-V1.0.0/GEN_FIP/myir-st-optee/ta/remoteproc/src/elf_parser.c:162
    1254:	14000018 	b	12b4 <e32_parser_find_rsc_table+0x168>
/media/home/beste/01_Pro/ld25x/bsp_hu/MYD-LD25X-Uboot-L2022.10-V1.0.0/GEN_FIP/myir-st-optee/ta/remoteproc/src/elf_parser.c:138
    1258:	f1003c7f 	cmp	x3, #0xf
    125c:	540000e8 	b.hi	1278 <e32_parser_find_rsc_table+0x12c>  // b.pmore
/media/home/beste/01_Pro/ld25x/bsp_hu/MYD-LD25X-Uboot-L2022.10-V1.0.0/GEN_FIP/myir-st-optee/ta/remoteproc/src/elf_parser.c:139
    1260:	d0000084 	adrp	x4, 13000 <small_prime+0x19c>
    1264:	52800023 	mov	w3, #0x1                   	// #1
    1268:	910c1484 	add	x4, x4, #0x305
    126c:	52800022 	mov	w2, #0x1                   	// #1
    1270:	52801161 	mov	w1, #0x8b                  	// #139
    1274:	17fffff4 	b	1244 <e32_parser_find_rsc_table+0xf8>
/media/home/beste/01_Pro/ld25x/bsp_hu/MYD-LD25X-Uboot-L2022.10-V1.0.0/GEN_FIP/myir-st-optee/ta/remoteproc/src/elf_parser.c:143
    1278:	8b020281 	add	x1, x20, x2
/media/home/beste/01_Pro/ld25x/bsp_hu/MYD-LD25X-Uboot-L2022.10-V1.0.0/GEN_FIP/myir-st-optee/ta/remoteproc/src/elf_parser.c:144
    127c:	f240043f 	tst	x1, #0x3
    1280:	54000621 	b.ne	1344 <e32_parser_find_rsc_table+0x1f8>  // b.any
/media/home/beste/01_Pro/ld25x/bsp_hu/MYD-LD25X-Uboot-L2022.10-V1.0.0/GEN_FIP/myir-st-optee/ta/remoteproc/src/elf_parser.c:147
    1284:	b8626a85 	ldr	w5, [x20, x2]
    1288:	710004bf 	cmp	w5, #0x1
    128c:	54000180 	b.eq	12bc <e32_parser_find_rsc_table+0x170>  // b.none
/media/home/beste/01_Pro/ld25x/bsp_hu/MYD-LD25X-Uboot-L2022.10-V1.0.0/GEN_FIP/myir-st-optee/ta/remoteproc/src/elf_parser.c:148
    1290:	d0000080 	adrp	x0, 13000 <small_prime+0x19c>
    1294:	910de400 	add	x0, x0, #0x379
    1298:	d0000084 	adrp	x4, 13000 <small_prime+0x19c>
    129c:	91003c00 	add	x0, x0, #0xf
    12a0:	910c9c84 	add	x4, x4, #0x327
    12a4:	52800023 	mov	w3, #0x1                   	// #1
    12a8:	52800022 	mov	w2, #0x1                   	// #1
    12ac:	52801281 	mov	w1, #0x94                  	// #148
    12b0:	940000c6 	bl	15c8 <trace_printf>
/media/home/beste/01_Pro/ld25x/bsp_hu/MYD-LD25X-Uboot-L2022.10-V1.0.0/GEN_FIP/myir-st-optee/ta/remoteproc/src/elf_parser.c:113
    12b4:	129fff40 	mov	w0, #0xffff0005            	// #-65531
    12b8:	1400001a 	b	1320 <e32_parser_find_rsc_table+0x1d4>
/media/home/beste/01_Pro/ld25x/bsp_hu/MYD-LD25X-Uboot-L2022.10-V1.0.0/GEN_FIP/myir-st-optee/ta/remoteproc/src/elf_parser.c:153
    12bc:	b9400820 	ldr	w0, [x1, #8]
    12c0:	35000060 	cbnz	w0, 12cc <e32_parser_find_rsc_table+0x180>
/media/home/beste/01_Pro/ld25x/bsp_hu/MYD-LD25X-Uboot-L2022.10-V1.0.0/GEN_FIP/myir-st-optee/ta/remoteproc/src/elf_parser.c:153 (discriminator 1)
    12c4:	b9400c20 	ldr	w0, [x1, #12]
    12c8:	340000e0 	cbz	w0, 12e4 <e32_parser_find_rsc_table+0x198>
/media/home/beste/01_Pro/ld25x/bsp_hu/MYD-LD25X-Uboot-L2022.10-V1.0.0/GEN_FIP/myir-st-optee/ta/remoteproc/src/elf_parser.c:154
    12cc:	d0000084 	adrp	x4, 13000 <small_prime+0x19c>
    12d0:	52800023 	mov	w3, #0x1                   	// #1
    12d4:	910d1c84 	add	x4, x4, #0x347
    12d8:	52800022 	mov	w2, #0x1                   	// #1
    12dc:	52801341 	mov	w1, #0x9a                  	// #154
    12e0:	17ffffd9 	b	1244 <e32_parser_find_rsc_table+0xf8>
/media/home/beste/01_Pro/ld25x/bsp_hu/MYD-LD25X-Uboot-L2022.10-V1.0.0/GEN_FIP/myir-st-optee/ta/remoteproc/src/elf_parser.c:159
    12e4:	b9400421 	ldr	w1, [x1, #4]
    12e8:	d2800202 	mov	x2, #0x10                  	// #16
    12ec:	8b214841 	add	x1, x2, w1, uxtw #2
    12f0:	eb01007f 	cmp	x3, x1
    12f4:	540000e2 	b.cs	1310 <e32_parser_find_rsc_table+0x1c4>  // b.hs, b.nlast
/media/home/beste/01_Pro/ld25x/bsp_hu/MYD-LD25X-Uboot-L2022.10-V1.0.0/GEN_FIP/myir-st-optee/ta/remoteproc/src/elf_parser.c:161
    12f8:	d0000084 	adrp	x4, 13000 <small_prime+0x19c>
    12fc:	52800023 	mov	w3, #0x1                   	// #1
    1300:	910d7c84 	add	x4, x4, #0x35f
    1304:	52800022 	mov	w2, #0x1                   	// #1
    1308:	52801421 	mov	w1, #0xa1                  	// #161
    130c:	17ffffce 	b	1244 <e32_parser_find_rsc_table+0xf8>
/media/home/beste/01_Pro/ld25x/bsp_hu/MYD-LD25X-Uboot-L2022.10-V1.0.0/GEN_FIP/myir-st-optee/ta/remoteproc/src/elf_parser.c:168
    1310:	b9400e61 	ldr	w1, [x19, #12]
    1314:	b9000321 	str	w1, [x25]
/media/home/beste/01_Pro/ld25x/bsp_hu/MYD-LD25X-Uboot-L2022.10-V1.0.0/GEN_FIP/myir-st-optee/ta/remoteproc/src/elf_parser.c:169
    1318:	b9401661 	ldr	w1, [x19, #20]
    131c:	b9000341 	str	w1, [x26]
/media/home/beste/01_Pro/ld25x/bsp_hu/MYD-LD25X-Uboot-L2022.10-V1.0.0/GEN_FIP/myir-st-optee/ta/remoteproc/src/elf_parser.c:175
    1320:	a94153f3 	ldp	x19, x20, [sp, #16]
    1324:	a9425bf5 	ldp	x21, x22, [sp, #32]
    1328:	a94363f7 	ldp	x23, x24, [sp, #48]
    132c:	a9446bf9 	ldp	x25, x26, [sp, #64]
    1330:	a94573fb 	ldp	x27, x28, [sp, #80]
    1334:	a8c67bfd 	ldp	x29, x30, [sp], #96
    1338:	d65f03c0 	ret
/media/home/beste/01_Pro/ld25x/bsp_hu/MYD-LD25X-Uboot-L2022.10-V1.0.0/GEN_FIP/myir-st-optee/ta/remoteproc/src/elf_parser.c:108
    133c:	129fff20 	mov	w0, #0xffff0006            	// #-65530
/media/home/beste/01_Pro/ld25x/bsp_hu/MYD-LD25X-Uboot-L2022.10-V1.0.0/GEN_FIP/myir-st-optee/ta/remoteproc/src/elf_parser.c:175
    1340:	d65f03c0 	ret
/media/home/beste/01_Pro/ld25x/bsp_hu/MYD-LD25X-Uboot-L2022.10-V1.0.0/GEN_FIP/myir-st-optee/ta/remoteproc/src/elf_parser.c:145
    1344:	52800020 	mov	w0, #0x1                   	// #1
    1348:	72be0200 	movk	w0, #0xf010, lsl #16
    134c:	17fffff5 	b	1320 <e32_parser_find_rsc_table+0x1d4>

0000000000001350 <__ta_entry>:
__ta_entry():
/media/home/beste/01_Pro/ld25x/bsp_hu/MYD-LD25X-Uboot-L2022.10-V1.0.0/GEN_FIP/myir-st-optee/../build/myb-stm32mp257x-2GB-ca35tdcid-ostl/export-ta_arm64/src/user_ta_header.c:48
    1350:	a9bf7bfd 	stp	x29, x30, [sp, #-16]!
    1354:	910003fd 	mov	x29, sp
/media/home/beste/01_Pro/ld25x/bsp_hu/MYD-LD25X-Uboot-L2022.10-V1.0.0/GEN_FIP/myir-st-optee/../build/myb-stm32mp257x-2GB-ca35tdcid-ostl/export-ta_arm64/src/user_ta_header.c:49
    1358:	9400149c 	bl	65c8 <__utee_entry>
/media/home/beste/01_Pro/ld25x/bsp_hu/MYD-LD25X-Uboot-L2022.10-V1.0.0/GEN_FIP/myir-st-optee/../build/myb-stm32mp257x-2GB-ca35tdcid-ostl/export-ta_arm64/src/user_ta_header.c:60
    135c:	2a0003e0 	mov	w0, w0
    1360:	940012db 	bl	5ecc <_utee_return>

0000000000001364 <tahead_get_trace_level>:
tahead_get_trace_level():
/media/home/beste/01_Pro/ld25x/bsp_hu/MYD-LD25X-Uboot-L2022.10-V1.0.0/GEN_FIP/myir-st-optee/../build/myb-stm32mp257x-2GB-ca35tdcid-ostl/export-ta_arm64/src/user_ta_header.c:154
    1364:	52800020 	mov	w0, #0x1                   	// #1
    1368:	d65f03c0 	ret

000000000000136c <memset>:
memset():
/media/home/beste/01_Pro/ld25x/bsp_hu/MYD-LD25X-Uboot-L2022.10-V1.0.0/GEN_FIP/myir-st-optee/lib/libutils/isoc/newlib/memset.c:125
    136c:	d2800003 	mov	x3, #0x0                   	// #0
    1370:	eb03005f 	cmp	x2, x3
    1374:	54000041 	b.ne	137c <memset+0x10>  // b.any
/media/home/beste/01_Pro/ld25x/bsp_hu/MYD-LD25X-Uboot-L2022.10-V1.0.0/GEN_FIP/myir-st-optee/lib/libutils/isoc/newlib/memset.c:129
    1378:	d65f03c0 	ret
/media/home/beste/01_Pro/ld25x/bsp_hu/MYD-LD25X-Uboot-L2022.10-V1.0.0/GEN_FIP/myir-st-optee/lib/libutils/isoc/newlib/memset.c:126
    137c:	38236801 	strb	w1, [x0, x3]
    1380:	91000463 	add	x3, x3, #0x1
    1384:	17fffffb 	b	1370 <memset+0x4>

0000000000001388 <strcmp>:
strcmp():
/media/home/beste/01_Pro/ld25x/bsp_hu/MYD-LD25X-Uboot-L2022.10-V1.0.0/GEN_FIP/myir-st-optee/lib/libutils/isoc/newlib/strcmp.c:99
    1388:	d2800002 	mov	x2, #0x0                   	// #0
    138c:	38626803 	ldrb	w3, [x0, x2]
    1390:	38626824 	ldrb	w4, [x1, x2]
    1394:	34000083 	cbz	w3, 13a4 <strcmp+0x1c>
/media/home/beste/01_Pro/ld25x/bsp_hu/MYD-LD25X-Uboot-L2022.10-V1.0.0/GEN_FIP/myir-st-optee/lib/libutils/isoc/newlib/strcmp.c:99 (discriminator 1)
    1398:	91000442 	add	x2, x2, #0x1
    139c:	6b04007f 	cmp	w3, w4
    13a0:	54ffff60 	b.eq	138c <strcmp+0x4>  // b.none
/media/home/beste/01_Pro/ld25x/bsp_hu/MYD-LD25X-Uboot-L2022.10-V1.0.0/GEN_FIP/myir-st-optee/lib/libutils/isoc/newlib/strcmp.c:142
    13a4:	4b040060 	sub	w0, w3, w4
    13a8:	d65f03c0 	ret

00000000000013ac <trace_set_level>:
trace_set_level():
/media/home/beste/01_Pro/ld25x/bsp_hu/MYD-LD25X-Uboot-L2022.10-V1.0.0/GEN_FIP/myir-st-optee/lib/libutils/ext/trace.c:28
    13ac:	7100141f 	cmp	w0, #0x5
    13b0:	52800081 	mov	w1, #0x4                   	// #4
    13b4:	1a813000 	csel	w0, w0, w1, cc	// cc = lo, ul, last
    13b8:	900000a1 	adrp	x1, 15000 <_DYNAMIC>
    13bc:	f940a021 	ldr	x1, [x1, #320]
    13c0:	b9000020 	str	w0, [x1]
/media/home/beste/01_Pro/ld25x/bsp_hu/MYD-LD25X-Uboot-L2022.10-V1.0.0/GEN_FIP/myir-st-optee/lib/libutils/ext/trace.c:29
    13c4:	d65f03c0 	ret

00000000000013c8 <trace_get_level>:
trace_get_level():
/media/home/beste/01_Pro/ld25x/bsp_hu/MYD-LD25X-Uboot-L2022.10-V1.0.0/GEN_FIP/myir-st-optee/lib/libutils/ext/trace.c:33
    13c8:	900000a0 	adrp	x0, 15000 <_DYNAMIC>
/media/home/beste/01_Pro/ld25x/bsp_hu/MYD-LD25X-Uboot-L2022.10-V1.0.0/GEN_FIP/myir-st-optee/lib/libutils/ext/trace.c:34
    13cc:	f940a000 	ldr	x0, [x0, #320]
    13d0:	b9400000 	ldr	w0, [x0]
    13d4:	d65f03c0 	ret

00000000000013d8 <trace_vprintf>:
trace_vprintf():
/media/home/beste/01_Pro/ld25x/bsp_hu/MYD-LD25X-Uboot-L2022.10-V1.0.0/GEN_FIP/myir-st-optee/lib/libutils/ext/trace.c:113
    13d8:	a9a87bfd 	stp	x29, x30, [sp, #-384]!
    13dc:	910003fd 	mov	x29, sp
    13e0:	a90153f3 	stp	x19, x20, [sp, #16]
    13e4:	2a0203f3 	mov	w19, w2
    13e8:	a9025bf5 	stp	x21, x22, [sp, #32]
    13ec:	aa0003f6 	mov	x22, x0
    13f0:	a90363f7 	stp	x23, x24, [sp, #48]
    13f4:	aa0403f7 	mov	x23, x4
    13f8:	aa0503f8 	mov	x24, x5
    13fc:	a9046bf9 	stp	x25, x26, [sp, #64]
    1400:	2a0103f9 	mov	w25, w1
/media/home/beste/01_Pro/ld25x/bsp_hu/MYD-LD25X-Uboot-L2022.10-V1.0.0/GEN_FIP/myir-st-optee/lib/libutils/ext/trace.c:118
    1404:	72001c7a 	ands	w26, w3, #0xff
/media/home/beste/01_Pro/ld25x/bsp_hu/MYD-LD25X-Uboot-L2022.10-V1.0.0/GEN_FIP/myir-st-optee/lib/libutils/ext/trace.c:113
    1408:	f9002bfb 	str	x27, [sp, #80]
/media/home/beste/01_Pro/ld25x/bsp_hu/MYD-LD25X-Uboot-L2022.10-V1.0.0/GEN_FIP/myir-st-optee/lib/libutils/ext/trace.c:118
    140c:	54000b60 	b.eq	1578 <trace_vprintf+0x1a0>  // b.none
/media/home/beste/01_Pro/ld25x/bsp_hu/MYD-LD25X-Uboot-L2022.10-V1.0.0/GEN_FIP/myir-st-optee/lib/libutils/ext/trace.c:118 (discriminator 1)
    1410:	900000a3 	adrp	x3, 15000 <_DYNAMIC>
    1414:	f940a063 	ldr	x3, [x3, #320]
    1418:	b9400060 	ldr	w0, [x3]
    141c:	6b02001f 	cmp	w0, w2
    1420:	540009eb 	b.lt	155c <trace_vprintf+0x184>  // b.tstop
trace_level_to_string():
/media/home/beste/01_Pro/ld25x/bsp_hu/MYD-LD25X-Uboot-L2022.10-V1.0.0/GEN_FIP/myir-st-optee/lib/libutils/ext/trace.c:51
    1424:	7100105f 	cmp	w2, #0x4
/media/home/beste/01_Pro/ld25x/bsp_hu/MYD-LD25X-Uboot-L2022.10-V1.0.0/GEN_FIP/myir-st-optee/lib/libutils/ext/trace.c:54
    1428:	d0000080 	adrp	x0, 13000 <small_prime+0x19c>
/media/home/beste/01_Pro/ld25x/bsp_hu/MYD-LD25X-Uboot-L2022.10-V1.0.0/GEN_FIP/myir-st-optee/lib/libutils/ext/trace.c:51
    142c:	1a9f9041 	csel	w1, w2, wzr, ls	// ls = plast
/media/home/beste/01_Pro/ld25x/bsp_hu/MYD-LD25X-Uboot-L2022.10-V1.0.0/GEN_FIP/myir-st-optee/lib/libutils/ext/trace.c:54
    1430:	9111ac00 	add	x0, x0, #0x46b
    1434:	3861c803 	ldrb	w3, [x0, w1, sxtw]
trace_vprintf():
/media/home/beste/01_Pro/ld25x/bsp_hu/MYD-LD25X-Uboot-L2022.10-V1.0.0/GEN_FIP/myir-st-optee/lib/libutils/ext/trace.c:122
    1438:	910203f5 	add	x21, sp, #0x80
    143c:	d0000082 	adrp	x2, 13000 <small_prime+0x19c>
    1440:	aa1503e0 	mov	x0, x21
    1444:	91114442 	add	x2, x2, #0x451
    1448:	d2802001 	mov	x1, #0x100                 	// #256
    144c:	940000b6 	bl	1724 <snprintk>
/media/home/beste/01_Pro/ld25x/bsp_hu/MYD-LD25X-Uboot-L2022.10-V1.0.0/GEN_FIP/myir-st-optee/lib/libutils/ext/trace.c:124
    1450:	37f80860 	tbnz	w0, #31, 155c <trace_vprintf+0x184>
/media/home/beste/01_Pro/ld25x/bsp_hu/MYD-LD25X-Uboot-L2022.10-V1.0.0/GEN_FIP/myir-st-optee/lib/libutils/ext/trace.c:129
    1454:	900000a3 	adrp	x3, 15000 <_DYNAMIC>
    1458:	d280201b 	mov	x27, #0x100                 	// #256
/media/home/beste/01_Pro/ld25x/bsp_hu/MYD-LD25X-Uboot-L2022.10-V1.0.0/GEN_FIP/myir-st-optee/lib/libutils/ext/trace.c:126
    145c:	93407c14 	sxtw	x20, w0
/media/home/beste/01_Pro/ld25x/bsp_hu/MYD-LD25X-Uboot-L2022.10-V1.0.0/GEN_FIP/myir-st-optee/lib/libutils/ext/trace.c:129
    1460:	cb20c361 	sub	x1, x27, w0, sxtw
    1464:	f940a863 	ldr	x3, [x3, #336]
    1468:	d0000082 	adrp	x2, 13000 <small_prime+0x19c>
    146c:	8b20c2a0 	add	x0, x21, w0, sxtw
    1470:	91115442 	add	x2, x2, #0x455
    1474:	940000ac 	bl	1724 <snprintk>
/media/home/beste/01_Pro/ld25x/bsp_hu/MYD-LD25X-Uboot-L2022.10-V1.0.0/GEN_FIP/myir-st-optee/lib/libutils/ext/trace.c:131
    1478:	37f80720 	tbnz	w0, #31, 155c <trace_vprintf+0x184>
/media/home/beste/01_Pro/ld25x/bsp_hu/MYD-LD25X-Uboot-L2022.10-V1.0.0/GEN_FIP/myir-st-optee/lib/libutils/ext/trace.c:133
    147c:	8b20c294 	add	x20, x20, w0, sxtw
/media/home/beste/01_Pro/ld25x/bsp_hu/MYD-LD25X-Uboot-L2022.10-V1.0.0/GEN_FIP/myir-st-optee/lib/libutils/ext/trace.c:135
    1480:	3400093a 	cbz	w26, 15a4 <trace_vprintf+0x1cc>
/media/home/beste/01_Pro/ld25x/bsp_hu/MYD-LD25X-Uboot-L2022.10-V1.0.0/GEN_FIP/myir-st-optee/lib/libutils/ext/trace.c:135 (discriminator 1)
    1484:	52800340 	mov	w0, #0x1a                  	// #26
    1488:	1ad32400 	lsr	w0, w0, w19
    148c:	360008c0 	tbz	w0, #0, 15a4 <trace_vprintf+0x1cc>
print_thread_id():
/media/home/beste/01_Pro/ld25x/bsp_hu/MYD-LD25X-Uboot-L2022.10-V1.0.0/GEN_FIP/myir-st-optee/lib/libutils/ext/trace.c:66
    1490:	94000400 	bl	2490 <trace_ext_get_thread_id>
trace_vprintf():
/media/home/beste/01_Pro/ld25x/bsp_hu/MYD-LD25X-Uboot-L2022.10-V1.0.0/GEN_FIP/myir-st-optee/lib/libutils/ext/trace.c:137
    1494:	8b1402ba 	add	x26, x21, x20
    1498:	cb14037b 	sub	x27, x27, x20
print_thread_id():
/media/home/beste/01_Pro/ld25x/bsp_hu/MYD-LD25X-Uboot-L2022.10-V1.0.0/GEN_FIP/myir-st-optee/lib/libutils/ext/trace.c:66
    149c:	2a0003e4 	mov	w4, w0
/media/home/beste/01_Pro/ld25x/bsp_hu/MYD-LD25X-Uboot-L2022.10-V1.0.0/GEN_FIP/myir-st-optee/lib/libutils/ext/trace.c:68
    14a0:	37f80700 	tbnz	w0, #31, 1580 <trace_vprintf+0x1a8>
/media/home/beste/01_Pro/ld25x/bsp_hu/MYD-LD25X-Uboot-L2022.10-V1.0.0/GEN_FIP/myir-st-optee/lib/libutils/ext/trace.c:69
    14a4:	d0000082 	adrp	x2, 13000 <small_prime+0x19c>
    14a8:	aa1b03e1 	mov	x1, x27
    14ac:	91116442 	add	x2, x2, #0x459
    14b0:	aa1a03e0 	mov	x0, x26
    14b4:	52800023 	mov	w3, #0x1                   	// #1
    14b8:	9400009b 	bl	1724 <snprintk>
trace_vprintf():
/media/home/beste/01_Pro/ld25x/bsp_hu/MYD-LD25X-Uboot-L2022.10-V1.0.0/GEN_FIP/myir-st-optee/lib/libutils/ext/trace.c:144
    14bc:	37f80500 	tbnz	w0, #31, 155c <trace_vprintf+0x184>
/media/home/beste/01_Pro/ld25x/bsp_hu/MYD-LD25X-Uboot-L2022.10-V1.0.0/GEN_FIP/myir-st-optee/lib/libutils/ext/trace.c:146
    14c0:	8b20c293 	add	x19, x20, w0, sxtw
/media/home/beste/01_Pro/ld25x/bsp_hu/MYD-LD25X-Uboot-L2022.10-V1.0.0/GEN_FIP/myir-st-optee/lib/libutils/ext/trace.c:148
    14c4:	b4000176 	cbz	x22, 14f0 <trace_vprintf+0x118>
/media/home/beste/01_Pro/ld25x/bsp_hu/MYD-LD25X-Uboot-L2022.10-V1.0.0/GEN_FIP/myir-st-optee/lib/libutils/ext/trace.c:149
    14c8:	d0000082 	adrp	x2, 13000 <small_prime+0x19c>
    14cc:	d2802001 	mov	x1, #0x100                 	// #256
    14d0:	2a1903e4 	mov	w4, w25
    14d4:	aa1603e3 	mov	x3, x22
    14d8:	91119042 	add	x2, x2, #0x464
    14dc:	cb130021 	sub	x1, x1, x19
    14e0:	8b1302a0 	add	x0, x21, x19
    14e4:	94000090 	bl	1724 <snprintk>
/media/home/beste/01_Pro/ld25x/bsp_hu/MYD-LD25X-Uboot-L2022.10-V1.0.0/GEN_FIP/myir-st-optee/lib/libutils/ext/trace.c:151
    14e8:	37f803a0 	tbnz	w0, #31, 155c <trace_vprintf+0x184>
/media/home/beste/01_Pro/ld25x/bsp_hu/MYD-LD25X-Uboot-L2022.10-V1.0.0/GEN_FIP/myir-st-optee/lib/libutils/ext/trace.c:153
    14ec:	8b20c273 	add	x19, x19, w0, sxtw
/media/home/beste/01_Pro/ld25x/bsp_hu/MYD-LD25X-Uboot-L2022.10-V1.0.0/GEN_FIP/myir-st-optee/lib/libutils/ext/trace.c:163
    14f0:	910183e3 	add	x3, sp, #0x60
    14f4:	aa1803e1 	mov	x1, x24
    14f8:	aa0303e0 	mov	x0, x3
    14fc:	d2800402 	mov	x2, #0x20                  	// #32
    1500:	97fffac8 	bl	20 <memcpy>
    1504:	aa0003e3 	mov	x3, x0
    1508:	d2802001 	mov	x1, #0x100                 	// #256
    150c:	aa1703e2 	mov	x2, x23
    1510:	cb130021 	sub	x1, x1, x19
    1514:	8b1302a0 	add	x0, x21, x19
    1518:	9400006d 	bl	16cc <vsnprintk>
/media/home/beste/01_Pro/ld25x/bsp_hu/MYD-LD25X-Uboot-L2022.10-V1.0.0/GEN_FIP/myir-st-optee/lib/libutils/ext/trace.c:164
    151c:	7100001f 	cmp	w0, #0x0
    1520:	5400004d 	b.le	1528 <trace_vprintf+0x150>
/media/home/beste/01_Pro/ld25x/bsp_hu/MYD-LD25X-Uboot-L2022.10-V1.0.0/GEN_FIP/myir-st-optee/lib/libutils/ext/trace.c:165
    1524:	8b20c273 	add	x19, x19, w0, sxtw
/media/home/beste/01_Pro/ld25x/bsp_hu/MYD-LD25X-Uboot-L2022.10-V1.0.0/GEN_FIP/myir-st-optee/lib/libutils/ext/trace.c:167
    1528:	f103fa7f 	cmp	x19, #0xfe
    152c:	d2801fc0 	mov	x0, #0xfe                  	// #254
    1530:	9a809273 	csel	x19, x19, x0, ls	// ls = plast
/media/home/beste/01_Pro/ld25x/bsp_hu/MYD-LD25X-Uboot-L2022.10-V1.0.0/GEN_FIP/myir-st-optee/lib/libutils/ext/trace.c:170
    1534:	52800140 	mov	w0, #0xa                   	// #10
    1538:	38336aa0 	strb	w0, [x21, x19]
/media/home/beste/01_Pro/ld25x/bsp_hu/MYD-LD25X-Uboot-L2022.10-V1.0.0/GEN_FIP/myir-st-optee/lib/libutils/ext/trace.c:171
    153c:	b4000093 	cbz	x19, 154c <trace_vprintf+0x174>
/media/home/beste/01_Pro/ld25x/bsp_hu/MYD-LD25X-Uboot-L2022.10-V1.0.0/GEN_FIP/myir-st-optee/lib/libutils/ext/trace.c:171 (discriminator 1)
    1540:	38736aa0 	ldrb	w0, [x21, x19]
    1544:	7100281f 	cmp	w0, #0xa
    1548:	540003c0 	b.eq	15c0 <trace_vprintf+0x1e8>  // b.none
/media/home/beste/01_Pro/ld25x/bsp_hu/MYD-LD25X-Uboot-L2022.10-V1.0.0/GEN_FIP/myir-st-optee/lib/libutils/ext/trace.c:174
    154c:	91020be0 	add	x0, sp, #0x82
    1550:	3833681f 	strb	wzr, [x0, x19]
/media/home/beste/01_Pro/ld25x/bsp_hu/MYD-LD25X-Uboot-L2022.10-V1.0.0/GEN_FIP/myir-st-optee/lib/libutils/ext/trace.c:176
    1554:	aa1503e0 	mov	x0, x21
    1558:	940003c4 	bl	2468 <trace_ext_puts>
/media/home/beste/01_Pro/ld25x/bsp_hu/MYD-LD25X-Uboot-L2022.10-V1.0.0/GEN_FIP/myir-st-optee/lib/libutils/ext/trace.c:177
    155c:	a94153f3 	ldp	x19, x20, [sp, #16]
    1560:	a9425bf5 	ldp	x21, x22, [sp, #32]
    1564:	a94363f7 	ldp	x23, x24, [sp, #48]
    1568:	a9446bf9 	ldp	x25, x26, [sp, #64]
    156c:	f9402bfb 	ldr	x27, [sp, #80]
    1570:	a8d87bfd 	ldp	x29, x30, [sp], #384
    1574:	d65f03c0 	ret
trace_level_to_string():
/media/home/beste/01_Pro/ld25x/bsp_hu/MYD-LD25X-Uboot-L2022.10-V1.0.0/GEN_FIP/myir-st-optee/lib/libutils/ext/trace.c:49
    1578:	528009a3 	mov	w3, #0x4d                  	// #77
    157c:	17ffffaf 	b	1438 <trace_vprintf+0x60>
print_thread_id():
/media/home/beste/01_Pro/ld25x/bsp_hu/MYD-LD25X-Uboot-L2022.10-V1.0.0/GEN_FIP/myir-st-optee/lib/libutils/ext/trace.c:71
    1580:	aa1b03e1 	mov	x1, x27
    1584:	aa1a03e0 	mov	x0, x26
    1588:	d0000084 	adrp	x4, 13000 <small_prime+0x19c>
    158c:	52800023 	mov	w3, #0x1                   	// #1
    1590:	91360c84 	add	x4, x4, #0xd83
    1594:	d0000082 	adrp	x2, 13000 <small_prime+0x19c>
    1598:	91117c42 	add	x2, x2, #0x45f
    159c:	94000062 	bl	1724 <snprintk>
    15a0:	17ffffc7 	b	14bc <trace_vprintf+0xe4>
trace_vprintf():
/media/home/beste/01_Pro/ld25x/bsp_hu/MYD-LD25X-Uboot-L2022.10-V1.0.0/GEN_FIP/myir-st-optee/lib/libutils/ext/trace.c:157
    15a4:	f103fa9f 	cmp	x20, #0xfe
    15a8:	54fffda8 	b.hi	155c <trace_vprintf+0x184>  // b.pmore
/media/home/beste/01_Pro/ld25x/bsp_hu/MYD-LD25X-Uboot-L2022.10-V1.0.0/GEN_FIP/myir-st-optee/lib/libutils/ext/trace.c:159
    15ac:	91000693 	add	x19, x20, #0x1
    15b0:	52800400 	mov	w0, #0x20                  	// #32
    15b4:	38346aa0 	strb	w0, [x21, x20]
/media/home/beste/01_Pro/ld25x/bsp_hu/MYD-LD25X-Uboot-L2022.10-V1.0.0/GEN_FIP/myir-st-optee/lib/libutils/ext/trace.c:160
    15b8:	38336abf 	strb	wzr, [x21, x19]
    15bc:	17ffffcd 	b	14f0 <trace_vprintf+0x118>
/media/home/beste/01_Pro/ld25x/bsp_hu/MYD-LD25X-Uboot-L2022.10-V1.0.0/GEN_FIP/myir-st-optee/lib/libutils/ext/trace.c:172
    15c0:	d1000673 	sub	x19, x19, #0x1
    15c4:	17ffffde 	b	153c <trace_vprintf+0x164>

00000000000015c8 <trace_printf>:
trace_printf():
/media/home/beste/01_Pro/ld25x/bsp_hu/MYD-LD25X-Uboot-L2022.10-V1.0.0/GEN_FIP/myir-st-optee/lib/libutils/ext/trace.c:104
    15c8:	a9b17bfd 	stp	x29, x30, [sp, #-240]!
    15cc:	910003fd 	mov	x29, sp
    15d0:	a90d9be5 	stp	x5, x6, [sp, #216]
/media/home/beste/01_Pro/ld25x/bsp_hu/MYD-LD25X-Uboot-L2022.10-V1.0.0/GEN_FIP/myir-st-optee/lib/libutils/ext/trace.c:107
    15d4:	9103c3e5 	add	x5, sp, #0xf0
    15d8:	a90317e5 	stp	x5, x5, [sp, #48]
    15dc:	910343e5 	add	x5, sp, #0xd0
    15e0:	f90023e5 	str	x5, [sp, #64]
    15e4:	128002e5 	mov	w5, #0xffffffe8            	// #-24
    15e8:	b9004be5 	str	w5, [sp, #72]
    15ec:	12800fe5 	mov	w5, #0xffffff80            	// #-128
    15f0:	b9004fe5 	str	w5, [sp, #76]
/media/home/beste/01_Pro/ld25x/bsp_hu/MYD-LD25X-Uboot-L2022.10-V1.0.0/GEN_FIP/myir-st-optee/lib/libutils/ext/trace.c:108
    15f4:	910043e5 	add	x5, sp, #0x10
/media/home/beste/01_Pro/ld25x/bsp_hu/MYD-LD25X-Uboot-L2022.10-V1.0.0/GEN_FIP/myir-st-optee/lib/libutils/ext/trace.c:104
    15f8:	f90077e7 	str	x7, [sp, #232]
/media/home/beste/01_Pro/ld25x/bsp_hu/MYD-LD25X-Uboot-L2022.10-V1.0.0/GEN_FIP/myir-st-optee/lib/libutils/ext/trace.c:108
    15fc:	a9431fe6 	ldp	x6, x7, [sp, #48]
    1600:	a9011fe6 	stp	x6, x7, [sp, #16]
    1604:	a9441fe6 	ldp	x6, x7, [sp, #64]
    1608:	a9021fe6 	stp	x6, x7, [sp, #32]
/media/home/beste/01_Pro/ld25x/bsp_hu/MYD-LD25X-Uboot-L2022.10-V1.0.0/GEN_FIP/myir-st-optee/lib/libutils/ext/trace.c:104
    160c:	3d8017e0 	str	q0, [sp, #80]
    1610:	3d801be1 	str	q1, [sp, #96]
    1614:	3d801fe2 	str	q2, [sp, #112]
    1618:	3d8023e3 	str	q3, [sp, #128]
    161c:	3d8027e4 	str	q4, [sp, #144]
    1620:	3d802be5 	str	q5, [sp, #160]
    1624:	3d802fe6 	str	q6, [sp, #176]
    1628:	3d8033e7 	str	q7, [sp, #192]
/media/home/beste/01_Pro/ld25x/bsp_hu/MYD-LD25X-Uboot-L2022.10-V1.0.0/GEN_FIP/myir-st-optee/lib/libutils/ext/trace.c:108
    162c:	97ffff6b 	bl	13d8 <trace_vprintf>
/media/home/beste/01_Pro/ld25x/bsp_hu/MYD-LD25X-Uboot-L2022.10-V1.0.0/GEN_FIP/myir-st-optee/lib/libutils/ext/trace.c:110
    1630:	a8cf7bfd 	ldp	x29, x30, [sp], #240
    1634:	d65f03c0 	ret

0000000000001638 <dhex_dump>:
dhex_dump():
/media/home/beste/01_Pro/ld25x/bsp_hu/MYD-LD25X-Uboot-L2022.10-V1.0.0/GEN_FIP/myir-st-optee/lib/libutils/ext/trace.c:287
    1638:	d65f03c0 	ret

000000000000163c <__vsnprintf>:
__vsnprintf():
/media/home/beste/01_Pro/ld25x/bsp_hu/MYD-LD25X-Uboot-L2022.10-V1.0.0/GEN_FIP/myir-st-optee/lib/libutils/ext/snprintk.c:138
    163c:	a9b97bfd 	stp	x29, x30, [sp, #-112]!
/media/home/beste/01_Pro/ld25x/bsp_hu/MYD-LD25X-Uboot-L2022.10-V1.0.0/GEN_FIP/myir-st-optee/lib/libutils/ext/snprintk.c:143
    1640:	910103e5 	add	x5, sp, #0x40
/media/home/beste/01_Pro/ld25x/bsp_hu/MYD-LD25X-Uboot-L2022.10-V1.0.0/GEN_FIP/myir-st-optee/lib/libutils/ext/snprintk.c:138
    1644:	910003fd 	mov	x29, sp
    1648:	a90153f3 	stp	x19, x20, [sp, #16]
    164c:	aa0103f4 	mov	x20, x1
    1650:	aa0003f3 	mov	x19, x0
    1654:	aa0303e1 	mov	x1, x3
    1658:	a9025bf5 	stp	x21, x22, [sp, #32]
    165c:	aa0203f5 	mov	x21, x2
/media/home/beste/01_Pro/ld25x/bsp_hu/MYD-LD25X-Uboot-L2022.10-V1.0.0/GEN_FIP/myir-st-optee/lib/libutils/ext/snprintk.c:142
    1660:	8b140016 	add	x22, x0, x20
/media/home/beste/01_Pro/ld25x/bsp_hu/MYD-LD25X-Uboot-L2022.10-V1.0.0/GEN_FIP/myir-st-optee/lib/libutils/ext/snprintk.c:143
    1664:	d2800402 	mov	x2, #0x20                  	// #32
    1668:	aa0503e0 	mov	x0, x5
/media/home/beste/01_Pro/ld25x/bsp_hu/MYD-LD25X-Uboot-L2022.10-V1.0.0/GEN_FIP/myir-st-optee/lib/libutils/ext/snprintk.c:138
    166c:	f9001bf7 	str	x23, [sp, #48]
    1670:	12001c97 	and	w23, w4, #0xff
/media/home/beste/01_Pro/ld25x/bsp_hu/MYD-LD25X-Uboot-L2022.10-V1.0.0/GEN_FIP/myir-st-optee/lib/libutils/ext/snprintk.c:142
    1674:	f90037f6 	str	x22, [sp, #104]
/media/home/beste/01_Pro/ld25x/bsp_hu/MYD-LD25X-Uboot-L2022.10-V1.0.0/GEN_FIP/myir-st-optee/lib/libutils/ext/snprintk.c:143
    1678:	97fffa6a 	bl	20 <memcpy>
    167c:	aa0003e3 	mov	x3, x0
    1680:	2a1703e4 	mov	w4, w23
    1684:	aa1303e2 	mov	x2, x19
    1688:	9101a3e1 	add	x1, sp, #0x68
    168c:	aa1503e0 	mov	x0, x21
    1690:	94000042 	bl	1798 <kprintf.constprop.0>
/media/home/beste/01_Pro/ld25x/bsp_hu/MYD-LD25X-Uboot-L2022.10-V1.0.0/GEN_FIP/myir-st-optee/lib/libutils/ext/snprintk.c:144
    1694:	f100027f 	cmp	x19, #0x0
    1698:	fa401a84 	ccmp	x20, #0x0, #0x4, ne	// ne = any
    169c:	540000a0 	b.eq	16b0 <__vsnprintf+0x74>  // b.none
/media/home/beste/01_Pro/ld25x/bsp_hu/MYD-LD25X-Uboot-L2022.10-V1.0.0/GEN_FIP/myir-st-optee/lib/libutils/ext/snprintk.c:146
    16a0:	93407c01 	sxtw	x1, w0
    16a4:	eb20c29f 	cmp	x20, w0, sxtw
    16a8:	540000e8 	b.hi	16c4 <__vsnprintf+0x88>  // b.pmore
/media/home/beste/01_Pro/ld25x/bsp_hu/MYD-LD25X-Uboot-L2022.10-V1.0.0/GEN_FIP/myir-st-optee/lib/libutils/ext/snprintk.c:147
    16ac:	381ff2df 	sturb	wzr, [x22, #-1]
/media/home/beste/01_Pro/ld25x/bsp_hu/MYD-LD25X-Uboot-L2022.10-V1.0.0/GEN_FIP/myir-st-optee/lib/libutils/ext/snprintk.c:152
    16b0:	a94153f3 	ldp	x19, x20, [sp, #16]
    16b4:	a9425bf5 	ldp	x21, x22, [sp, #32]
    16b8:	f9401bf7 	ldr	x23, [sp, #48]
    16bc:	a8c77bfd 	ldp	x29, x30, [sp], #112
    16c0:	d65f03c0 	ret
/media/home/beste/01_Pro/ld25x/bsp_hu/MYD-LD25X-Uboot-L2022.10-V1.0.0/GEN_FIP/myir-st-optee/lib/libutils/ext/snprintk.c:149
    16c4:	38216a7f 	strb	wzr, [x19, x1]
/media/home/beste/01_Pro/ld25x/bsp_hu/MYD-LD25X-Uboot-L2022.10-V1.0.0/GEN_FIP/myir-st-optee/lib/libutils/ext/snprintk.c:151
    16c8:	17fffffa 	b	16b0 <__vsnprintf+0x74>

00000000000016cc <vsnprintk>:
vsnprintk():
/media/home/beste/01_Pro/ld25x/bsp_hu/MYD-LD25X-Uboot-L2022.10-V1.0.0/GEN_FIP/myir-st-optee/lib/libutils/ext/snprintk.c:130
    16cc:	a9bb7bfd 	stp	x29, x30, [sp, #-80]!
/media/home/beste/01_Pro/ld25x/bsp_hu/MYD-LD25X-Uboot-L2022.10-V1.0.0/GEN_FIP/myir-st-optee/lib/libutils/ext/snprintk.c:131
    16d0:	9100c3e4 	add	x4, sp, #0x30
/media/home/beste/01_Pro/ld25x/bsp_hu/MYD-LD25X-Uboot-L2022.10-V1.0.0/GEN_FIP/myir-st-optee/lib/libutils/ext/snprintk.c:130
    16d4:	910003fd 	mov	x29, sp
    16d8:	a90153f3 	stp	x19, x20, [sp, #16]
    16dc:	aa0003f3 	mov	x19, x0
    16e0:	aa0103f4 	mov	x20, x1
/media/home/beste/01_Pro/ld25x/bsp_hu/MYD-LD25X-Uboot-L2022.10-V1.0.0/GEN_FIP/myir-st-optee/lib/libutils/ext/snprintk.c:131
    16e4:	aa0403e0 	mov	x0, x4
/media/home/beste/01_Pro/ld25x/bsp_hu/MYD-LD25X-Uboot-L2022.10-V1.0.0/GEN_FIP/myir-st-optee/lib/libutils/ext/snprintk.c:130
    16e8:	aa0303e1 	mov	x1, x3
    16ec:	f90013f5 	str	x21, [sp, #32]
    16f0:	aa0203f5 	mov	x21, x2
/media/home/beste/01_Pro/ld25x/bsp_hu/MYD-LD25X-Uboot-L2022.10-V1.0.0/GEN_FIP/myir-st-optee/lib/libutils/ext/snprintk.c:131
    16f4:	d2800402 	mov	x2, #0x20                  	// #32
    16f8:	97fffa4a 	bl	20 <memcpy>
    16fc:	aa1503e2 	mov	x2, x21
    1700:	aa0003e3 	mov	x3, x0
    1704:	aa1403e1 	mov	x1, x20
    1708:	aa1303e0 	mov	x0, x19
    170c:	52800024 	mov	w4, #0x1                   	// #1
    1710:	97ffffcb 	bl	163c <__vsnprintf>
/media/home/beste/01_Pro/ld25x/bsp_hu/MYD-LD25X-Uboot-L2022.10-V1.0.0/GEN_FIP/myir-st-optee/lib/libutils/ext/snprintk.c:132
    1714:	a94153f3 	ldp	x19, x20, [sp, #16]
    1718:	f94013f5 	ldr	x21, [sp, #32]
    171c:	a8c57bfd 	ldp	x29, x30, [sp], #80
    1720:	d65f03c0 	ret

0000000000001724 <snprintk>:
snprintk():
/media/home/beste/01_Pro/ld25x/bsp_hu/MYD-LD25X-Uboot-L2022.10-V1.0.0/GEN_FIP/myir-st-optee/lib/libutils/ext/snprintk.c:113
    1724:	a9b07bfd 	stp	x29, x30, [sp, #-256]!
    1728:	910003fd 	mov	x29, sp
    172c:	a90d93e3 	stp	x3, x4, [sp, #216]
/media/home/beste/01_Pro/ld25x/bsp_hu/MYD-LD25X-Uboot-L2022.10-V1.0.0/GEN_FIP/myir-st-optee/lib/libutils/ext/snprintk.c:117
    1730:	910403e3 	add	x3, sp, #0x100
    1734:	a9030fe3 	stp	x3, x3, [sp, #48]
    1738:	910343e3 	add	x3, sp, #0xd0
    173c:	f90023e3 	str	x3, [sp, #64]
    1740:	128004e3 	mov	w3, #0xffffffd8            	// #-40
    1744:	b9004be3 	str	w3, [sp, #72]
    1748:	12800fe3 	mov	w3, #0xffffff80            	// #-128
    174c:	b9004fe3 	str	w3, [sp, #76]
/media/home/beste/01_Pro/ld25x/bsp_hu/MYD-LD25X-Uboot-L2022.10-V1.0.0/GEN_FIP/myir-st-optee/lib/libutils/ext/snprintk.c:118
    1750:	910043e3 	add	x3, sp, #0x10
/media/home/beste/01_Pro/ld25x/bsp_hu/MYD-LD25X-Uboot-L2022.10-V1.0.0/GEN_FIP/myir-st-optee/lib/libutils/ext/snprintk.c:113
    1754:	a90e9be5 	stp	x5, x6, [sp, #232]
/media/home/beste/01_Pro/ld25x/bsp_hu/MYD-LD25X-Uboot-L2022.10-V1.0.0/GEN_FIP/myir-st-optee/lib/libutils/ext/snprintk.c:118
    1758:	a94317e4 	ldp	x4, x5, [sp, #48]
    175c:	a90117e4 	stp	x4, x5, [sp, #16]
    1760:	a94417e4 	ldp	x4, x5, [sp, #64]
    1764:	a90217e4 	stp	x4, x5, [sp, #32]
/media/home/beste/01_Pro/ld25x/bsp_hu/MYD-LD25X-Uboot-L2022.10-V1.0.0/GEN_FIP/myir-st-optee/lib/libutils/ext/snprintk.c:113
    1768:	3d8017e0 	str	q0, [sp, #80]
    176c:	3d801be1 	str	q1, [sp, #96]
    1770:	3d801fe2 	str	q2, [sp, #112]
    1774:	3d8023e3 	str	q3, [sp, #128]
    1778:	3d8027e4 	str	q4, [sp, #144]
    177c:	3d802be5 	str	q5, [sp, #160]
    1780:	3d802fe6 	str	q6, [sp, #176]
    1784:	3d8033e7 	str	q7, [sp, #192]
    1788:	f9007fe7 	str	x7, [sp, #248]
/media/home/beste/01_Pro/ld25x/bsp_hu/MYD-LD25X-Uboot-L2022.10-V1.0.0/GEN_FIP/myir-st-optee/lib/libutils/ext/snprintk.c:118
    178c:	97ffffd0 	bl	16cc <vsnprintk>
/media/home/beste/01_Pro/ld25x/bsp_hu/MYD-LD25X-Uboot-L2022.10-V1.0.0/GEN_FIP/myir-st-optee/lib/libutils/ext/snprintk.c:122
    1790:	a8d07bfd 	ldp	x29, x30, [sp], #256
    1794:	d65f03c0 	ret

0000000000001798 <kprintf.constprop.0>:
kprintf():
/media/home/beste/01_Pro/ld25x/bsp_hu/MYD-LD25X-Uboot-L2022.10-V1.0.0/GEN_FIP/myir-st-optee/lib/libutils/ext/snprintk.c:242
    1798:	d103c3ff 	sub	sp, sp, #0xf0
    179c:	aa0103eb 	mov	x11, x1
    17a0:	a9037bfd 	stp	x29, x30, [sp, #48]
    17a4:	9100c3fd 	add	x29, sp, #0x30
    17a8:	a90453f3 	stp	x19, x20, [sp, #64]
    17ac:	b9401874 	ldr	w20, [x3, #24]
    17b0:	a9055bf5 	stp	x21, x22, [sp, #80]
    17b4:	aa0203f5 	mov	x21, x2
    17b8:	a90663f7 	stp	x23, x24, [sp, #96]
    17bc:	a9076bf9 	stp	x25, x26, [sp, #112]
    17c0:	a90873fb 	stp	x27, x28, [sp, #128]
    17c4:	aa0003fc 	mov	x28, x0
    17c8:	12001c80 	and	w0, w4, #0xff
    17cc:	b900abe0 	str	w0, [sp, #168]
    17d0:	a9406c73 	ldp	x19, x27, [x3]
/media/home/beste/01_Pro/ld25x/bsp_hu/MYD-LD25X-Uboot-L2022.10-V1.0.0/GEN_FIP/myir-st-optee/lib/libutils/ext/snprintk.c:264
    17d4:	b4000421 	cbz	x1, 1858 <kprintf.constprop.0+0xc0>
/media/home/beste/01_Pro/ld25x/bsp_hu/MYD-LD25X-Uboot-L2022.10-V1.0.0/GEN_FIP/myir-st-optee/lib/libutils/ext/snprintk.c:265
    17d8:	f9400039 	ldr	x25, [x1]
/media/home/beste/01_Pro/ld25x/bsp_hu/MYD-LD25X-Uboot-L2022.10-V1.0.0/GEN_FIP/myir-st-optee/lib/libutils/ext/snprintk.c:297
    17dc:	b0000098 	adrp	x24, 12000 <__text_end+0x2494>
/media/home/beste/01_Pro/ld25x/bsp_hu/MYD-LD25X-Uboot-L2022.10-V1.0.0/GEN_FIP/myir-st-optee/lib/libutils/ext/snprintk.c:275
    17e0:	d2800017 	mov	x23, #0x0                   	// #0
/media/home/beste/01_Pro/ld25x/bsp_hu/MYD-LD25X-Uboot-L2022.10-V1.0.0/GEN_FIP/myir-st-optee/lib/libutils/ext/snprintk.c:297
    17e4:	91364300 	add	x0, x24, #0xd90
/media/home/beste/01_Pro/ld25x/bsp_hu/MYD-LD25X-Uboot-L2022.10-V1.0.0/GEN_FIP/myir-st-optee/lib/libutils/ext/snprintk.c:273
    17e8:	5280001a 	mov	w26, #0x0                   	// #0
/media/home/beste/01_Pro/ld25x/bsp_hu/MYD-LD25X-Uboot-L2022.10-V1.0.0/GEN_FIP/myir-st-optee/lib/libutils/ext/snprintk.c:297
    17ec:	f9004fe0 	str	x0, [sp, #152]
/media/home/beste/01_Pro/ld25x/bsp_hu/MYD-LD25X-Uboot-L2022.10-V1.0.0/GEN_FIP/myir-st-optee/lib/libutils/ext/snprintk.c:281
    17f0:	39400380 	ldrb	w0, [x28]
    17f4:	7100941f 	cmp	w0, #0x25
    17f8:	7a401804 	ccmp	w0, #0x0, #0x4, ne	// ne = any
    17fc:	54000321 	b.ne	1860 <kprintf.constprop.0+0xc8>  // b.any
/media/home/beste/01_Pro/ld25x/bsp_hu/MYD-LD25X-Uboot-L2022.10-V1.0.0/GEN_FIP/myir-st-optee/lib/libutils/ext/snprintk.c:285
    1800:	34004ec0 	cbz	w0, 21d8 <kprintf.constprop.0+0xa40>
/media/home/beste/01_Pro/ld25x/bsp_hu/MYD-LD25X-Uboot-L2022.10-V1.0.0/GEN_FIP/myir-st-optee/lib/libutils/ext/snprintk.c:297
    1804:	b0000082 	adrp	x2, 12000 <__text_end+0x2494>
/media/home/beste/01_Pro/ld25x/bsp_hu/MYD-LD25X-Uboot-L2022.10-V1.0.0/GEN_FIP/myir-st-optee/lib/libutils/ext/snprintk.c:288
    1808:	9100079c 	add	x28, x28, #0x1
    180c:	2a1403e4 	mov	w4, w20
    1810:	aa1303e3 	mov	x3, x19
/media/home/beste/01_Pro/ld25x/bsp_hu/MYD-LD25X-Uboot-L2022.10-V1.0.0/GEN_FIP/myir-st-optee/lib/libutils/ext/snprintk.c:297
    1814:	91357042 	add	x2, x2, #0xd5c
/media/home/beste/01_Pro/ld25x/bsp_hu/MYD-LD25X-Uboot-L2022.10-V1.0.0/GEN_FIP/myir-st-optee/lib/libutils/ext/snprintk.c:294
    1818:	52800001 	mov	w1, #0x0                   	// #0
/media/home/beste/01_Pro/ld25x/bsp_hu/MYD-LD25X-Uboot-L2022.10-V1.0.0/GEN_FIP/myir-st-optee/lib/libutils/ext/snprintk.c:293
    181c:	12800005 	mov	w5, #0xffffffff            	// #-1
/media/home/beste/01_Pro/ld25x/bsp_hu/MYD-LD25X-Uboot-L2022.10-V1.0.0/GEN_FIP/myir-st-optee/lib/libutils/ext/snprintk.c:292
    1820:	5280000a 	mov	w10, #0x0                   	// #0
/media/home/beste/01_Pro/ld25x/bsp_hu/MYD-LD25X-Uboot-L2022.10-V1.0.0/GEN_FIP/myir-st-optee/lib/libutils/ext/snprintk.c:290
    1824:	52800016 	mov	w22, #0x0                   	// #0
/media/home/beste/01_Pro/ld25x/bsp_hu/MYD-LD25X-Uboot-L2022.10-V1.0.0/GEN_FIP/myir-st-optee/lib/libutils/ext/snprintk.c:296
    1828:	38401798 	ldrb	w24, [x28], #1
/media/home/beste/01_Pro/ld25x/bsp_hu/MYD-LD25X-Uboot-L2022.10-V1.0.0/GEN_FIP/myir-st-optee/lib/libutils/ext/snprintk.c:297
    182c:	7100e71f 	cmp	w24, #0x39
    1830:	5400052c 	b.gt	18d4 <kprintf.constprop.0+0x13c>
    1834:	71007f1f 	cmp	w24, #0x1f
    1838:	54004ced 	b.le	21d4 <kprintf.constprop.0+0xa3c>
    183c:	51008300 	sub	w0, w24, #0x20
    1840:	7100641f 	cmp	w0, #0x19
    1844:	54004c88 	b.hi	21d4 <kprintf.constprop.0+0xa3c>  // b.pmore
    1848:	78605840 	ldrh	w0, [x2, w0, uxtw #1]
    184c:	10000066 	adr	x6, 1858 <kprintf.constprop.0+0xc0>
    1850:	8b20a8c0 	add	x0, x6, w0, sxth #2
    1854:	d61f0000 	br	x0
/media/home/beste/01_Pro/ld25x/bsp_hu/MYD-LD25X-Uboot-L2022.10-V1.0.0/GEN_FIP/myir-st-optee/lib/libutils/ext/snprintk.c:267
    1858:	d2800019 	mov	x25, #0x0                   	// #0
    185c:	17ffffe0 	b	17dc <kprintf.constprop.0+0x44>
/media/home/beste/01_Pro/ld25x/bsp_hu/MYD-LD25X-Uboot-L2022.10-V1.0.0/GEN_FIP/myir-st-optee/lib/libutils/ext/snprintk.c:282
    1860:	1100075a 	add	w26, w26, #0x1
/media/home/beste/01_Pro/ld25x/bsp_hu/MYD-LD25X-Uboot-L2022.10-V1.0.0/GEN_FIP/myir-st-optee/lib/libutils/ext/snprintk.c:283
    1864:	b40000b5 	cbz	x21, 1878 <kprintf.constprop.0+0xe0>
    1868:	f100017f 	cmp	x11, #0x0
    186c:	fa5912a0 	ccmp	x21, x25, #0x0, ne	// ne = any
    1870:	54000042 	b.cs	1878 <kprintf.constprop.0+0xe0>  // b.hs, b.nlast
    1874:	380016a0 	strb	w0, [x21], #1
/media/home/beste/01_Pro/ld25x/bsp_hu/MYD-LD25X-Uboot-L2022.10-V1.0.0/GEN_FIP/myir-st-optee/lib/libutils/ext/snprintk.c:281
    1878:	9100079c 	add	x28, x28, #0x1
    187c:	17ffffdd 	b	17f0 <kprintf.constprop.0+0x58>
/media/home/beste/01_Pro/ld25x/bsp_hu/MYD-LD25X-Uboot-L2022.10-V1.0.0/GEN_FIP/myir-st-optee/lib/libutils/ext/snprintk.c:297
    1880:	52800561 	mov	w1, #0x2b                  	// #43
    1884:	17ffffe9 	b	1828 <kprintf.constprop.0+0x90>
    1888:	f9404fe6 	ldr	x6, [sp, #152]
    188c:	786058c0 	ldrh	w0, [x6, w0, uxtw #1]
    1890:	10000066 	adr	x6, 189c <kprintf.constprop.0+0x104>
    1894:	8b20a8c0 	add	x0, x6, w0, sxth #2
    1898:	d61f0000 	br	x0
/media/home/beste/01_Pro/ld25x/bsp_hu/MYD-LD25X-Uboot-L2022.10-V1.0.0/GEN_FIP/myir-st-optee/lib/libutils/ext/snprintk.c:480
    189c:	b0000097 	adrp	x23, 12000 <__text_end+0x2494>
    18a0:	9137faf7 	add	x23, x23, #0xdfe
/media/home/beste/01_Pro/ld25x/bsp_hu/MYD-LD25X-Uboot-L2022.10-V1.0.0/GEN_FIP/myir-st-optee/lib/libutils/ext/snprintk.c:481
    18a4:	363841f6 	tbz	w22, #7, 20e0 <kprintf.constprop.0+0x948>
    18a8:	37f84324 	tbnz	w4, #31, 210c <kprintf.constprop.0+0x974>
    18ac:	91003c73 	add	x19, x3, #0xf
    18b0:	2a0403f4 	mov	w20, w4
    18b4:	927df273 	and	x19, x19, #0xfffffffffffffff8
    18b8:	f9400062 	ldr	x2, [x3]
/media/home/beste/01_Pro/ld25x/bsp_hu/MYD-LD25X-Uboot-L2022.10-V1.0.0/GEN_FIP/myir-st-optee/lib/libutils/ext/snprintk.c:484
    18bc:	360031f6 	tbz	w22, #0, 1ef8 <kprintf.constprop.0+0x760>
    18c0:	b40031c2 	cbz	x2, 1ef8 <kprintf.constprop.0+0x760>
/media/home/beste/01_Pro/ld25x/bsp_hu/MYD-LD25X-Uboot-L2022.10-V1.0.0/GEN_FIP/myir-st-optee/lib/libutils/ext/snprintk.c:485
    18c4:	321f02d6 	orr	w22, w22, #0x2
/media/home/beste/01_Pro/ld25x/bsp_hu/MYD-LD25X-Uboot-L2022.10-V1.0.0/GEN_FIP/myir-st-optee/lib/libutils/ext/snprintk.c:482
    18c8:	52800040 	mov	w0, #0x2                   	// #2
/media/home/beste/01_Pro/ld25x/bsp_hu/MYD-LD25X-Uboot-L2022.10-V1.0.0/GEN_FIP/myir-st-optee/lib/libutils/ext/snprintk.c:488
    18cc:	52800001 	mov	w1, #0x0                   	// #0
    18d0:	1400007b 	b	1abc <kprintf.constprop.0+0x324>
/media/home/beste/01_Pro/ld25x/bsp_hu/MYD-LD25X-Uboot-L2022.10-V1.0.0/GEN_FIP/myir-st-optee/lib/libutils/ext/snprintk.c:297
    18d4:	51011300 	sub	w0, w24, #0x44
    18d8:	7100d81f 	cmp	w0, #0x36
    18dc:	54fffd69 	b.ls	1888 <kprintf.constprop.0+0xf0>  // b.plast
/media/home/beste/01_Pro/ld25x/bsp_hu/MYD-LD25X-Uboot-L2022.10-V1.0.0/GEN_FIP/myir-st-optee/lib/libutils/ext/snprintk.c:554
    18e0:	2a0403f4 	mov	w20, w4
    18e4:	aa0303f3 	mov	x19, x3
/media/home/beste/01_Pro/ld25x/bsp_hu/MYD-LD25X-Uboot-L2022.10-V1.0.0/GEN_FIP/myir-st-optee/lib/libutils/ext/snprintk.c:551
    18e8:	390323f8 	strb	w24, [sp, #200]
/media/home/beste/01_Pro/ld25x/bsp_hu/MYD-LD25X-Uboot-L2022.10-V1.0.0/GEN_FIP/myir-st-optee/lib/libutils/ext/snprintk.c:554
    18ec:	1400005b 	b	1a58 <kprintf.constprop.0+0x2c0>
/media/home/beste/01_Pro/ld25x/bsp_hu/MYD-LD25X-Uboot-L2022.10-V1.0.0/GEN_FIP/myir-st-optee/lib/libutils/ext/snprintk.c:305
    18f0:	7100003f 	cmp	w1, #0x0
    18f4:	52800400 	mov	w0, #0x20                  	// #32
    18f8:	1a801021 	csel	w1, w1, w0, ne	// ne = any
    18fc:	17ffffcb 	b	1828 <kprintf.constprop.0+0x90>
/media/home/beste/01_Pro/ld25x/bsp_hu/MYD-LD25X-Uboot-L2022.10-V1.0.0/GEN_FIP/myir-st-optee/lib/libutils/ext/snprintk.c:308
    1900:	320002d6 	orr	w22, w22, #0x1
/media/home/beste/01_Pro/ld25x/bsp_hu/MYD-LD25X-Uboot-L2022.10-V1.0.0/GEN_FIP/myir-st-optee/lib/libutils/ext/snprintk.c:309
    1904:	17ffffc9 	b	1828 <kprintf.constprop.0+0x90>
/media/home/beste/01_Pro/ld25x/bsp_hu/MYD-LD25X-Uboot-L2022.10-V1.0.0/GEN_FIP/myir-st-optee/lib/libutils/ext/snprintk.c:317
    1908:	37f80124 	tbnz	w4, #31, 192c <kprintf.constprop.0+0x194>
    190c:	91002c66 	add	x6, x3, #0xb
    1910:	aa0303e0 	mov	x0, x3
    1914:	927df0c3 	and	x3, x6, #0xfffffffffffffff8
    1918:	b940000a 	ldr	w10, [x0]
    191c:	36fff86a 	tbz	w10, #31, 1828 <kprintf.constprop.0+0x90>
/media/home/beste/01_Pro/ld25x/bsp_hu/MYD-LD25X-Uboot-L2022.10-V1.0.0/GEN_FIP/myir-st-optee/lib/libutils/ext/snprintk.c:319
    1920:	4b0a03ea 	neg	w10, w10
/media/home/beste/01_Pro/ld25x/bsp_hu/MYD-LD25X-Uboot-L2022.10-V1.0.0/GEN_FIP/myir-st-optee/lib/libutils/ext/snprintk.c:322
    1924:	321e02d6 	orr	w22, w22, #0x4
/media/home/beste/01_Pro/ld25x/bsp_hu/MYD-LD25X-Uboot-L2022.10-V1.0.0/GEN_FIP/myir-st-optee/lib/libutils/ext/snprintk.c:323
    1928:	17ffffc0 	b	1828 <kprintf.constprop.0+0x90>
/media/home/beste/01_Pro/ld25x/bsp_hu/MYD-LD25X-Uboot-L2022.10-V1.0.0/GEN_FIP/myir-st-optee/lib/libutils/ext/snprintk.c:317
    192c:	11002086 	add	w6, w4, #0x8
    1930:	710000df 	cmp	w6, #0x0
    1934:	540000cd 	b.le	194c <kprintf.constprop.0+0x1b4>
    1938:	91002c67 	add	x7, x3, #0xb
    193c:	aa0303e0 	mov	x0, x3
    1940:	2a0603e4 	mov	w4, w6
    1944:	927df0e3 	and	x3, x7, #0xfffffffffffffff8
    1948:	17fffff4 	b	1918 <kprintf.constprop.0+0x180>
    194c:	8b24c360 	add	x0, x27, w4, sxtw
    1950:	2a0603e4 	mov	w4, w6
    1954:	17fffff1 	b	1918 <kprintf.constprop.0+0x180>
/media/home/beste/01_Pro/ld25x/bsp_hu/MYD-LD25X-Uboot-L2022.10-V1.0.0/GEN_FIP/myir-st-optee/lib/libutils/ext/snprintk.c:328
    1958:	38401798 	ldrb	w24, [x28], #1
    195c:	7100ab1f 	cmp	w24, #0x2a
    1960:	54000341 	b.ne	19c8 <kprintf.constprop.0+0x230>  // b.any
/media/home/beste/01_Pro/ld25x/bsp_hu/MYD-LD25X-Uboot-L2022.10-V1.0.0/GEN_FIP/myir-st-optee/lib/libutils/ext/snprintk.c:329
    1964:	37f80144 	tbnz	w4, #31, 198c <kprintf.constprop.0+0x1f4>
    1968:	91002c60 	add	x0, x3, #0xb
    196c:	2a0403e6 	mov	w6, w4
    1970:	927df000 	and	x0, x0, #0xfffffffffffffff8
/media/home/beste/01_Pro/ld25x/bsp_hu/MYD-LD25X-Uboot-L2022.10-V1.0.0/GEN_FIP/myir-st-optee/lib/libutils/ext/snprintk.c:330
    1974:	b9400065 	ldr	w5, [x3]
/media/home/beste/01_Pro/ld25x/bsp_hu/MYD-LD25X-Uboot-L2022.10-V1.0.0/GEN_FIP/myir-st-optee/lib/libutils/ext/snprintk.c:331
    1978:	2a0603e4 	mov	w4, w6
    197c:	aa0003e3 	mov	x3, x0
/media/home/beste/01_Pro/ld25x/bsp_hu/MYD-LD25X-Uboot-L2022.10-V1.0.0/GEN_FIP/myir-st-optee/lib/libutils/ext/snprintk.c:330
    1980:	710000bf 	cmp	w5, #0x0
    1984:	5a9fa0a5 	csinv	w5, w5, wzr, ge	// ge = tcont
/media/home/beste/01_Pro/ld25x/bsp_hu/MYD-LD25X-Uboot-L2022.10-V1.0.0/GEN_FIP/myir-st-optee/lib/libutils/ext/snprintk.c:331
    1988:	17ffffa8 	b	1828 <kprintf.constprop.0+0x90>
/media/home/beste/01_Pro/ld25x/bsp_hu/MYD-LD25X-Uboot-L2022.10-V1.0.0/GEN_FIP/myir-st-optee/lib/libutils/ext/snprintk.c:329
    198c:	11002086 	add	w6, w4, #0x8
    1990:	710000df 	cmp	w6, #0x0
    1994:	5400008d 	b.le	19a4 <kprintf.constprop.0+0x20c>
    1998:	91002c60 	add	x0, x3, #0xb
    199c:	927df000 	and	x0, x0, #0xfffffffffffffff8
    19a0:	17fffff5 	b	1974 <kprintf.constprop.0+0x1dc>
    19a4:	aa0303e0 	mov	x0, x3
    19a8:	8b24c363 	add	x3, x27, w4, sxtw
    19ac:	17fffff2 	b	1974 <kprintf.constprop.0+0x1dc>
/media/home/beste/01_Pro/ld25x/bsp_hu/MYD-LD25X-Uboot-L2022.10-V1.0.0/GEN_FIP/myir-st-optee/lib/libutils/ext/snprintk.c:335
    19b0:	1b0600a5 	madd	w5, w5, w6, w0
/media/home/beste/01_Pro/ld25x/bsp_hu/MYD-LD25X-Uboot-L2022.10-V1.0.0/GEN_FIP/myir-st-optee/lib/libutils/ext/snprintk.c:336
    19b4:	38401798 	ldrb	w24, [x28], #1
/media/home/beste/01_Pro/ld25x/bsp_hu/MYD-LD25X-Uboot-L2022.10-V1.0.0/GEN_FIP/myir-st-optee/lib/libutils/ext/snprintk.c:334
    19b8:	5100c300 	sub	w0, w24, #0x30
    19bc:	7100241f 	cmp	w0, #0x9
    19c0:	54ffff89 	b.ls	19b0 <kprintf.constprop.0+0x218>  // b.plast
    19c4:	17ffff9a 	b	182c <kprintf.constprop.0+0x94>
/media/home/beste/01_Pro/ld25x/bsp_hu/MYD-LD25X-Uboot-L2022.10-V1.0.0/GEN_FIP/myir-st-optee/lib/libutils/ext/snprintk.c:333
    19c8:	52800005 	mov	w5, #0x0                   	// #0
/media/home/beste/01_Pro/ld25x/bsp_hu/MYD-LD25X-Uboot-L2022.10-V1.0.0/GEN_FIP/myir-st-optee/lib/libutils/ext/snprintk.c:335
    19cc:	52800146 	mov	w6, #0xa                   	// #10
    19d0:	17fffffa 	b	19b8 <kprintf.constprop.0+0x220>
/media/home/beste/01_Pro/ld25x/bsp_hu/MYD-LD25X-Uboot-L2022.10-V1.0.0/GEN_FIP/myir-st-optee/lib/libutils/ext/snprintk.c:346
    19d4:	321602d6 	orr	w22, w22, #0x400
/media/home/beste/01_Pro/ld25x/bsp_hu/MYD-LD25X-Uboot-L2022.10-V1.0.0/GEN_FIP/myir-st-optee/lib/libutils/ext/snprintk.c:347
    19d8:	17ffff94 	b	1828 <kprintf.constprop.0+0x90>
/media/home/beste/01_Pro/ld25x/bsp_hu/MYD-LD25X-Uboot-L2022.10-V1.0.0/GEN_FIP/myir-st-optee/lib/libutils/ext/snprintk.c:297
    19dc:	5280000a 	mov	w10, #0x0                   	// #0
/media/home/beste/01_Pro/ld25x/bsp_hu/MYD-LD25X-Uboot-L2022.10-V1.0.0/GEN_FIP/myir-st-optee/lib/libutils/ext/snprintk.c:352
    19e0:	52800146 	mov	w6, #0xa                   	// #10
    19e4:	5100c308 	sub	w8, w24, #0x30
/media/home/beste/01_Pro/ld25x/bsp_hu/MYD-LD25X-Uboot-L2022.10-V1.0.0/GEN_FIP/myir-st-optee/lib/libutils/ext/snprintk.c:353
    19e8:	38401798 	ldrb	w24, [x28], #1
/media/home/beste/01_Pro/ld25x/bsp_hu/MYD-LD25X-Uboot-L2022.10-V1.0.0/GEN_FIP/myir-st-optee/lib/libutils/ext/snprintk.c:354
    19ec:	5100c300 	sub	w0, w24, #0x30
/media/home/beste/01_Pro/ld25x/bsp_hu/MYD-LD25X-Uboot-L2022.10-V1.0.0/GEN_FIP/myir-st-optee/lib/libutils/ext/snprintk.c:352
    19f0:	1b06214a 	madd	w10, w10, w6, w8
/media/home/beste/01_Pro/ld25x/bsp_hu/MYD-LD25X-Uboot-L2022.10-V1.0.0/GEN_FIP/myir-st-optee/lib/libutils/ext/snprintk.c:354
    19f4:	7100241f 	cmp	w0, #0x9
    19f8:	54ffff69 	b.ls	19e4 <kprintf.constprop.0+0x24c>  // b.plast
    19fc:	17ffff8c 	b	182c <kprintf.constprop.0+0x94>
/media/home/beste/01_Pro/ld25x/bsp_hu/MYD-LD25X-Uboot-L2022.10-V1.0.0/GEN_FIP/myir-st-optee/lib/libutils/ext/snprintk.c:358
    1a00:	321a02d6 	orr	w22, w22, #0x40
/media/home/beste/01_Pro/ld25x/bsp_hu/MYD-LD25X-Uboot-L2022.10-V1.0.0/GEN_FIP/myir-st-optee/lib/libutils/ext/snprintk.c:359
    1a04:	17ffff89 	b	1828 <kprintf.constprop.0+0x90>
/media/home/beste/01_Pro/ld25x/bsp_hu/MYD-LD25X-Uboot-L2022.10-V1.0.0/GEN_FIP/myir-st-optee/lib/libutils/ext/snprintk.c:361
    1a08:	321902d6 	orr	w22, w22, #0x80
/media/home/beste/01_Pro/ld25x/bsp_hu/MYD-LD25X-Uboot-L2022.10-V1.0.0/GEN_FIP/myir-st-optee/lib/libutils/ext/snprintk.c:362
    1a0c:	17ffff87 	b	1828 <kprintf.constprop.0+0x90>
/media/home/beste/01_Pro/ld25x/bsp_hu/MYD-LD25X-Uboot-L2022.10-V1.0.0/GEN_FIP/myir-st-optee/lib/libutils/ext/snprintk.c:364
    1a10:	39400380 	ldrb	w0, [x28]
    1a14:	7101b01f 	cmp	w0, #0x6c
    1a18:	54000081 	b.ne	1a28 <kprintf.constprop.0+0x290>  // b.any
/media/home/beste/01_Pro/ld25x/bsp_hu/MYD-LD25X-Uboot-L2022.10-V1.0.0/GEN_FIP/myir-st-optee/lib/libutils/ext/snprintk.c:328
    1a1c:	9100079c 	add	x28, x28, #0x1
/media/home/beste/01_Pro/ld25x/bsp_hu/MYD-LD25X-Uboot-L2022.10-V1.0.0/GEN_FIP/myir-st-optee/lib/libutils/ext/snprintk.c:372
    1a20:	321b02d6 	orr	w22, w22, #0x20
/media/home/beste/01_Pro/ld25x/bsp_hu/MYD-LD25X-Uboot-L2022.10-V1.0.0/GEN_FIP/myir-st-optee/lib/libutils/ext/snprintk.c:373
    1a24:	17ffff81 	b	1828 <kprintf.constprop.0+0x90>
/media/home/beste/01_Pro/ld25x/bsp_hu/MYD-LD25X-Uboot-L2022.10-V1.0.0/GEN_FIP/myir-st-optee/lib/libutils/ext/snprintk.c:368
    1a28:	321c02d6 	orr	w22, w22, #0x10
    1a2c:	17ffff7f 	b	1828 <kprintf.constprop.0+0x90>
/media/home/beste/01_Pro/ld25x/bsp_hu/MYD-LD25X-Uboot-L2022.10-V1.0.0/GEN_FIP/myir-st-optee/lib/libutils/ext/snprintk.c:375
    1a30:	321802d6 	orr	w22, w22, #0x100
/media/home/beste/01_Pro/ld25x/bsp_hu/MYD-LD25X-Uboot-L2022.10-V1.0.0/GEN_FIP/myir-st-optee/lib/libutils/ext/snprintk.c:376
    1a34:	17ffff7d 	b	1828 <kprintf.constprop.0+0x90>
/media/home/beste/01_Pro/ld25x/bsp_hu/MYD-LD25X-Uboot-L2022.10-V1.0.0/GEN_FIP/myir-st-optee/lib/libutils/ext/snprintk.c:378
    1a38:	321702d6 	orr	w22, w22, #0x200
/media/home/beste/01_Pro/ld25x/bsp_hu/MYD-LD25X-Uboot-L2022.10-V1.0.0/GEN_FIP/myir-st-optee/lib/libutils/ext/snprintk.c:379
    1a3c:	17ffff7b 	b	1828 <kprintf.constprop.0+0x90>
/media/home/beste/01_Pro/ld25x/bsp_hu/MYD-LD25X-Uboot-L2022.10-V1.0.0/GEN_FIP/myir-st-optee/lib/libutils/ext/snprintk.c:381
    1a40:	37f80164 	tbnz	w4, #31, 1a6c <kprintf.constprop.0+0x2d4>
    1a44:	91002c73 	add	x19, x3, #0xb
    1a48:	2a0403f4 	mov	w20, w4
    1a4c:	927df273 	and	x19, x19, #0xfffffffffffffff8
    1a50:	b9400060 	ldr	w0, [x3]
    1a54:	390323e0 	strb	w0, [sp, #200]
/media/home/beste/01_Pro/ld25x/bsp_hu/MYD-LD25X-Uboot-L2022.10-V1.0.0/GEN_FIP/myir-st-optee/lib/libutils/ext/snprintk.c:550
    1a58:	910323ed 	add	x13, sp, #0xc8
/media/home/beste/01_Pro/ld25x/bsp_hu/MYD-LD25X-Uboot-L2022.10-V1.0.0/GEN_FIP/myir-st-optee/lib/libutils/ext/snprintk.c:552
    1a5c:	52800025 	mov	w5, #0x1                   	// #1
/media/home/beste/01_Pro/ld25x/bsp_hu/MYD-LD25X-Uboot-L2022.10-V1.0.0/GEN_FIP/myir-st-optee/lib/libutils/ext/snprintk.c:291
    1a60:	52800002 	mov	w2, #0x0                   	// #0
/media/home/beste/01_Pro/ld25x/bsp_hu/MYD-LD25X-Uboot-L2022.10-V1.0.0/GEN_FIP/myir-st-optee/lib/libutils/ext/snprintk.c:553
    1a64:	52800001 	mov	w1, #0x0                   	// #0
/media/home/beste/01_Pro/ld25x/bsp_hu/MYD-LD25X-Uboot-L2022.10-V1.0.0/GEN_FIP/myir-st-optee/lib/libutils/ext/snprintk.c:554
    1a68:	140000fa 	b	1e50 <kprintf.constprop.0+0x6b8>
/media/home/beste/01_Pro/ld25x/bsp_hu/MYD-LD25X-Uboot-L2022.10-V1.0.0/GEN_FIP/myir-st-optee/lib/libutils/ext/snprintk.c:381
    1a6c:	11002094 	add	w20, w4, #0x8
    1a70:	7100029f 	cmp	w20, #0x0
    1a74:	5400008d 	b.le	1a84 <kprintf.constprop.0+0x2ec>
    1a78:	91002c73 	add	x19, x3, #0xb
    1a7c:	927df273 	and	x19, x19, #0xfffffffffffffff8
    1a80:	17fffff4 	b	1a50 <kprintf.constprop.0+0x2b8>
    1a84:	aa0303f3 	mov	x19, x3
    1a88:	8b24c363 	add	x3, x27, w4, sxtw
    1a8c:	17fffff1 	b	1a50 <kprintf.constprop.0+0x2b8>
/media/home/beste/01_Pro/ld25x/bsp_hu/MYD-LD25X-Uboot-L2022.10-V1.0.0/GEN_FIP/myir-st-optee/lib/libutils/ext/snprintk.c:386
    1a90:	321c02d6 	orr	w22, w22, #0x10
/media/home/beste/01_Pro/ld25x/bsp_hu/MYD-LD25X-Uboot-L2022.10-V1.0.0/GEN_FIP/myir-st-optee/lib/libutils/ext/snprintk.c:390
    1a94:	363802f6 	tbz	w22, #7, 1af0 <kprintf.constprop.0+0x358>
    1a98:	37f80424 	tbnz	w4, #31, 1b1c <kprintf.constprop.0+0x384>
    1a9c:	91003c73 	add	x19, x3, #0xf
    1aa0:	2a0403f4 	mov	w20, w4
    1aa4:	927df273 	and	x19, x19, #0xfffffffffffffff8
    1aa8:	f9400062 	ldr	x2, [x3]
/media/home/beste/01_Pro/ld25x/bsp_hu/MYD-LD25X-Uboot-L2022.10-V1.0.0/GEN_FIP/myir-st-optee/lib/libutils/ext/snprintk.c:391
    1aac:	b6f82a62 	tbz	x2, #63, 1ff8 <kprintf.constprop.0+0x860>
/media/home/beste/01_Pro/ld25x/bsp_hu/MYD-LD25X-Uboot-L2022.10-V1.0.0/GEN_FIP/myir-st-optee/lib/libutils/ext/snprintk.c:392
    1ab0:	cb0203e2 	neg	x2, x2
/media/home/beste/01_Pro/ld25x/bsp_hu/MYD-LD25X-Uboot-L2022.10-V1.0.0/GEN_FIP/myir-st-optee/lib/libutils/ext/snprintk.c:395
    1ab4:	52800020 	mov	w0, #0x1                   	// #1
/media/home/beste/01_Pro/ld25x/bsp_hu/MYD-LD25X-Uboot-L2022.10-V1.0.0/GEN_FIP/myir-st-optee/lib/libutils/ext/snprintk.c:393
    1ab8:	528005a1 	mov	w1, #0x2d                  	// #45
/media/home/beste/01_Pro/ld25x/bsp_hu/MYD-LD25X-Uboot-L2022.10-V1.0.0/GEN_FIP/myir-st-optee/lib/libutils/ext/snprintk.c:494
    1abc:	310004bf 	cmn	w5, #0x1
    1ac0:	540036a1 	b.ne	2194 <kprintf.constprop.0+0x9fc>  // b.any
/media/home/beste/01_Pro/ld25x/bsp_hu/MYD-LD25X-Uboot-L2022.10-V1.0.0/GEN_FIP/myir-st-optee/lib/libutils/ext/snprintk.c:509
    1ac4:	7100041f 	cmp	w0, #0x1
    1ac8:	540029c0 	b.eq	2000 <kprintf.constprop.0+0x868>  // b.none
    1acc:	7100081f 	cmp	w0, #0x2
    1ad0:	54000ea1 	b.ne	1ca4 <kprintf.constprop.0+0x50c>  // b.any
/media/home/beste/01_Pro/ld25x/bsp_hu/MYD-LD25X-Uboot-L2022.10-V1.0.0/GEN_FIP/myir-st-optee/lib/libutils/ext/snprintk.c:502
    1ad4:	9103b7ed 	add	x13, sp, #0xed
/media/home/beste/01_Pro/ld25x/bsp_hu/MYD-LD25X-Uboot-L2022.10-V1.0.0/GEN_FIP/myir-st-optee/lib/libutils/ext/snprintk.c:531
    1ad8:	92400c40 	and	x0, x2, #0xf
/media/home/beste/01_Pro/ld25x/bsp_hu/MYD-LD25X-Uboot-L2022.10-V1.0.0/GEN_FIP/myir-st-optee/lib/libutils/ext/snprintk.c:532
    1adc:	d344fc42 	lsr	x2, x2, #4
/media/home/beste/01_Pro/ld25x/bsp_hu/MYD-LD25X-Uboot-L2022.10-V1.0.0/GEN_FIP/myir-st-optee/lib/libutils/ext/snprintk.c:531
    1ae0:	38606ae0 	ldrb	w0, [x23, x0]
    1ae4:	381ffda0 	strb	w0, [x13, #-1]!
/media/home/beste/01_Pro/ld25x/bsp_hu/MYD-LD25X-Uboot-L2022.10-V1.0.0/GEN_FIP/myir-st-optee/lib/libutils/ext/snprintk.c:533
    1ae8:	b5ffff82 	cbnz	x2, 1ad8 <kprintf.constprop.0+0x340>
    1aec:	1400007b 	b	1cd8 <kprintf.constprop.0+0x540>
/media/home/beste/01_Pro/ld25x/bsp_hu/MYD-LD25X-Uboot-L2022.10-V1.0.0/GEN_FIP/myir-st-optee/lib/libutils/ext/snprintk.c:390
    1af0:	3747fd56 	tbnz	w22, #8, 1a98 <kprintf.constprop.0+0x300>
    1af4:	374ffd36 	tbnz	w22, #9, 1a98 <kprintf.constprop.0+0x300>
    1af8:	372ffd16 	tbnz	w22, #5, 1a98 <kprintf.constprop.0+0x300>
    1afc:	3727fcf6 	tbnz	w22, #4, 1a98 <kprintf.constprop.0+0x300>
    1b00:	36300336 	tbz	w22, #6, 1b64 <kprintf.constprop.0+0x3cc>
    1b04:	37f801e4 	tbnz	w4, #31, 1b40 <kprintf.constprop.0+0x3a8>
    1b08:	91002c73 	add	x19, x3, #0xb
    1b0c:	2a0403f4 	mov	w20, w4
    1b10:	927df273 	and	x19, x19, #0xfffffffffffffff8
    1b14:	79800062 	ldrsh	x2, [x3]
    1b18:	17ffffe5 	b	1aac <kprintf.constprop.0+0x314>
    1b1c:	11002094 	add	w20, w4, #0x8
    1b20:	7100029f 	cmp	w20, #0x0
    1b24:	5400008d 	b.le	1b34 <kprintf.constprop.0+0x39c>
    1b28:	91003c73 	add	x19, x3, #0xf
    1b2c:	927df273 	and	x19, x19, #0xfffffffffffffff8
    1b30:	17ffffde 	b	1aa8 <kprintf.constprop.0+0x310>
    1b34:	aa0303f3 	mov	x19, x3
    1b38:	8b24c363 	add	x3, x27, w4, sxtw
    1b3c:	17ffffdb 	b	1aa8 <kprintf.constprop.0+0x310>
    1b40:	11002094 	add	w20, w4, #0x8
    1b44:	7100029f 	cmp	w20, #0x0
    1b48:	5400008d 	b.le	1b58 <kprintf.constprop.0+0x3c0>
    1b4c:	91002c73 	add	x19, x3, #0xb
    1b50:	927df273 	and	x19, x19, #0xfffffffffffffff8
    1b54:	17fffff0 	b	1b14 <kprintf.constprop.0+0x37c>
    1b58:	aa0303f3 	mov	x19, x3
    1b5c:	8b24c363 	add	x3, x27, w4, sxtw
    1b60:	17ffffed 	b	1b14 <kprintf.constprop.0+0x37c>
    1b64:	37f800c4 	tbnz	w4, #31, 1b7c <kprintf.constprop.0+0x3e4>
    1b68:	91002c73 	add	x19, x3, #0xb
    1b6c:	2a0403f4 	mov	w20, w4
    1b70:	927df273 	and	x19, x19, #0xfffffffffffffff8
    1b74:	b9800062 	ldrsw	x2, [x3]
    1b78:	17ffffcd 	b	1aac <kprintf.constprop.0+0x314>
    1b7c:	11002094 	add	w20, w4, #0x8
    1b80:	7100029f 	cmp	w20, #0x0
    1b84:	5400008d 	b.le	1b94 <kprintf.constprop.0+0x3fc>
    1b88:	91002c73 	add	x19, x3, #0xb
    1b8c:	927df273 	and	x19, x19, #0xfffffffffffffff8
    1b90:	17fffff9 	b	1b74 <kprintf.constprop.0+0x3dc>
    1b94:	aa0303f3 	mov	x19, x3
    1b98:	8b24c363 	add	x3, x27, w4, sxtw
    1b9c:	17fffff6 	b	1b74 <kprintf.constprop.0+0x3dc>
/media/home/beste/01_Pro/ld25x/bsp_hu/MYD-LD25X-Uboot-L2022.10-V1.0.0/GEN_FIP/myir-st-optee/lib/libutils/ext/snprintk.c:398
    1ba0:	36380136 	tbz	w22, #7, 1bc4 <kprintf.constprop.0+0x42c>
/media/home/beste/01_Pro/ld25x/bsp_hu/MYD-LD25X-Uboot-L2022.10-V1.0.0/GEN_FIP/myir-st-optee/lib/libutils/ext/snprintk.c:407
    1ba4:	37f80284 	tbnz	w4, #31, 1bf4 <kprintf.constprop.0+0x45c>
    1ba8:	91003c73 	add	x19, x3, #0xf
    1bac:	2a0403f4 	mov	w20, w4
    1bb0:	927df273 	and	x19, x19, #0xfffffffffffffff8
    1bb4:	f9400060 	ldr	x0, [x3]
    1bb8:	93407f41 	sxtw	x1, w26
    1bbc:	f9000001 	str	x1, [x0]
    1bc0:	17ffff0c 	b	17f0 <kprintf.constprop.0+0x58>
/media/home/beste/01_Pro/ld25x/bsp_hu/MYD-LD25X-Uboot-L2022.10-V1.0.0/GEN_FIP/myir-st-optee/lib/libutils/ext/snprintk.c:400
    1bc4:	3747ff16 	tbnz	w22, #8, 1ba4 <kprintf.constprop.0+0x40c>
/media/home/beste/01_Pro/ld25x/bsp_hu/MYD-LD25X-Uboot-L2022.10-V1.0.0/GEN_FIP/myir-st-optee/lib/libutils/ext/snprintk.c:402
    1bc8:	374ffef6 	tbnz	w22, #9, 1ba4 <kprintf.constprop.0+0x40c>
/media/home/beste/01_Pro/ld25x/bsp_hu/MYD-LD25X-Uboot-L2022.10-V1.0.0/GEN_FIP/myir-st-optee/lib/libutils/ext/snprintk.c:404
    1bcc:	372ffed6 	tbnz	w22, #5, 1ba4 <kprintf.constprop.0+0x40c>
/media/home/beste/01_Pro/ld25x/bsp_hu/MYD-LD25X-Uboot-L2022.10-V1.0.0/GEN_FIP/myir-st-optee/lib/libutils/ext/snprintk.c:406
    1bd0:	3727feb6 	tbnz	w22, #4, 1ba4 <kprintf.constprop.0+0x40c>
/media/home/beste/01_Pro/ld25x/bsp_hu/MYD-LD25X-Uboot-L2022.10-V1.0.0/GEN_FIP/myir-st-optee/lib/libutils/ext/snprintk.c:408
    1bd4:	36300356 	tbz	w22, #6, 1c3c <kprintf.constprop.0+0x4a4>
/media/home/beste/01_Pro/ld25x/bsp_hu/MYD-LD25X-Uboot-L2022.10-V1.0.0/GEN_FIP/myir-st-optee/lib/libutils/ext/snprintk.c:409
    1bd8:	37f80204 	tbnz	w4, #31, 1c18 <kprintf.constprop.0+0x480>
    1bdc:	91003c73 	add	x19, x3, #0xf
    1be0:	2a0403f4 	mov	w20, w4
    1be4:	927df273 	and	x19, x19, #0xfffffffffffffff8
    1be8:	f9400060 	ldr	x0, [x3]
    1bec:	7900001a 	strh	w26, [x0]
    1bf0:	17ffff00 	b	17f0 <kprintf.constprop.0+0x58>
/media/home/beste/01_Pro/ld25x/bsp_hu/MYD-LD25X-Uboot-L2022.10-V1.0.0/GEN_FIP/myir-st-optee/lib/libutils/ext/snprintk.c:407
    1bf4:	11002094 	add	w20, w4, #0x8
    1bf8:	7100029f 	cmp	w20, #0x0
    1bfc:	5400008d 	b.le	1c0c <kprintf.constprop.0+0x474>
    1c00:	91003c73 	add	x19, x3, #0xf
    1c04:	927df273 	and	x19, x19, #0xfffffffffffffff8
    1c08:	17ffffeb 	b	1bb4 <kprintf.constprop.0+0x41c>
    1c0c:	aa0303f3 	mov	x19, x3
    1c10:	8b24c363 	add	x3, x27, w4, sxtw
    1c14:	17ffffe8 	b	1bb4 <kprintf.constprop.0+0x41c>
/media/home/beste/01_Pro/ld25x/bsp_hu/MYD-LD25X-Uboot-L2022.10-V1.0.0/GEN_FIP/myir-st-optee/lib/libutils/ext/snprintk.c:409
    1c18:	11002094 	add	w20, w4, #0x8
    1c1c:	7100029f 	cmp	w20, #0x0
    1c20:	5400008d 	b.le	1c30 <kprintf.constprop.0+0x498>
    1c24:	91003c73 	add	x19, x3, #0xf
    1c28:	927df273 	and	x19, x19, #0xfffffffffffffff8
    1c2c:	17ffffef 	b	1be8 <kprintf.constprop.0+0x450>
    1c30:	aa0303f3 	mov	x19, x3
    1c34:	8b24c363 	add	x3, x27, w4, sxtw
    1c38:	17ffffec 	b	1be8 <kprintf.constprop.0+0x450>
/media/home/beste/01_Pro/ld25x/bsp_hu/MYD-LD25X-Uboot-L2022.10-V1.0.0/GEN_FIP/myir-st-optee/lib/libutils/ext/snprintk.c:411
    1c3c:	37f800e4 	tbnz	w4, #31, 1c58 <kprintf.constprop.0+0x4c0>
    1c40:	91003c73 	add	x19, x3, #0xf
    1c44:	2a0403f4 	mov	w20, w4
    1c48:	927df273 	and	x19, x19, #0xfffffffffffffff8
    1c4c:	f9400060 	ldr	x0, [x3]
    1c50:	b900001a 	str	w26, [x0]
    1c54:	17fffee7 	b	17f0 <kprintf.constprop.0+0x58>
    1c58:	11002094 	add	w20, w4, #0x8
    1c5c:	7100029f 	cmp	w20, #0x0
    1c60:	5400008d 	b.le	1c70 <kprintf.constprop.0+0x4d8>
    1c64:	91003c73 	add	x19, x3, #0xf
    1c68:	927df273 	and	x19, x19, #0xfffffffffffffff8
    1c6c:	17fffff8 	b	1c4c <kprintf.constprop.0+0x4b4>
    1c70:	aa0303f3 	mov	x19, x3
    1c74:	8b24c363 	add	x3, x27, w4, sxtw
    1c78:	17fffff5 	b	1c4c <kprintf.constprop.0+0x4b4>
/media/home/beste/01_Pro/ld25x/bsp_hu/MYD-LD25X-Uboot-L2022.10-V1.0.0/GEN_FIP/myir-st-optee/lib/libutils/ext/snprintk.c:414
    1c7c:	321c02d6 	orr	w22, w22, #0x10
/media/home/beste/01_Pro/ld25x/bsp_hu/MYD-LD25X-Uboot-L2022.10-V1.0.0/GEN_FIP/myir-st-optee/lib/libutils/ext/snprintk.c:417
    1c80:	36380356 	tbz	w22, #7, 1ce8 <kprintf.constprop.0+0x550>
    1c84:	37f80484 	tbnz	w4, #31, 1d14 <kprintf.constprop.0+0x57c>
    1c88:	91003c73 	add	x19, x3, #0xf
    1c8c:	2a0403f4 	mov	w20, w4
    1c90:	927df273 	and	x19, x19, #0xfffffffffffffff8
    1c94:	f9400062 	ldr	x2, [x3]
/media/home/beste/01_Pro/ld25x/bsp_hu/MYD-LD25X-Uboot-L2022.10-V1.0.0/GEN_FIP/myir-st-optee/lib/libutils/ext/snprintk.c:494
    1c98:	52800001 	mov	w1, #0x0                   	// #0
    1c9c:	310004bf 	cmn	w5, #0x1
    1ca0:	54002781 	b.ne	2190 <kprintf.constprop.0+0x9f8>  // b.any
/media/home/beste/01_Pro/ld25x/bsp_hu/MYD-LD25X-Uboot-L2022.10-V1.0.0/GEN_FIP/myir-st-optee/lib/libutils/ext/snprintk.c:502
    1ca4:	9103b7ed 	add	x13, sp, #0xed
/media/home/beste/01_Pro/ld25x/bsp_hu/MYD-LD25X-Uboot-L2022.10-V1.0.0/GEN_FIP/myir-st-optee/lib/libutils/ext/snprintk.c:512
    1ca8:	12000840 	and	w0, w2, #0x7
    1cac:	aa0d03e4 	mov	x4, x13
    1cb0:	1100c000 	add	w0, w0, #0x30
    1cb4:	381ffda0 	strb	w0, [x13, #-1]!
/media/home/beste/01_Pro/ld25x/bsp_hu/MYD-LD25X-Uboot-L2022.10-V1.0.0/GEN_FIP/myir-st-optee/lib/libutils/ext/snprintk.c:513
    1cb8:	d343fc42 	lsr	x2, x2, #3
/media/home/beste/01_Pro/ld25x/bsp_hu/MYD-LD25X-Uboot-L2022.10-V1.0.0/GEN_FIP/myir-st-optee/lib/libutils/ext/snprintk.c:514
    1cbc:	b5ffff62 	cbnz	x2, 1ca8 <kprintf.constprop.0+0x510>
/media/home/beste/01_Pro/ld25x/bsp_hu/MYD-LD25X-Uboot-L2022.10-V1.0.0/GEN_FIP/myir-st-optee/lib/libutils/ext/snprintk.c:516
    1cc0:	360000d6 	tbz	w22, #0, 1cd8 <kprintf.constprop.0+0x540>
    1cc4:	7100c01f 	cmp	w0, #0x30
    1cc8:	54000080 	b.eq	1cd8 <kprintf.constprop.0+0x540>  // b.none
/media/home/beste/01_Pro/ld25x/bsp_hu/MYD-LD25X-Uboot-L2022.10-V1.0.0/GEN_FIP/myir-st-optee/lib/libutils/ext/snprintk.c:517
    1ccc:	52800600 	mov	w0, #0x30                  	// #48
    1cd0:	381ff1a0 	sturb	w0, [x13, #-1]
    1cd4:	d100088d 	sub	x13, x4, #0x2
/media/home/beste/01_Pro/ld25x/bsp_hu/MYD-LD25X-Uboot-L2022.10-V1.0.0/GEN_FIP/myir-st-optee/lib/libutils/ext/snprintk.c:543
    1cd8:	2a0503e2 	mov	w2, w5
    1cdc:	9103b7e5 	add	x5, sp, #0xed
    1ce0:	4b0d00a5 	sub	w5, w5, w13
    1ce4:	1400005b 	b	1e50 <kprintf.constprop.0+0x6b8>
/media/home/beste/01_Pro/ld25x/bsp_hu/MYD-LD25X-Uboot-L2022.10-V1.0.0/GEN_FIP/myir-st-optee/lib/libutils/ext/snprintk.c:417
    1ce8:	3747fcf6 	tbnz	w22, #8, 1c84 <kprintf.constprop.0+0x4ec>
    1cec:	374ffcd6 	tbnz	w22, #9, 1c84 <kprintf.constprop.0+0x4ec>
    1cf0:	372ffcb6 	tbnz	w22, #5, 1c84 <kprintf.constprop.0+0x4ec>
    1cf4:	3727fc96 	tbnz	w22, #4, 1c84 <kprintf.constprop.0+0x4ec>
    1cf8:	36300336 	tbz	w22, #6, 1d5c <kprintf.constprop.0+0x5c4>
    1cfc:	37f801e4 	tbnz	w4, #31, 1d38 <kprintf.constprop.0+0x5a0>
    1d00:	91002c73 	add	x19, x3, #0xb
    1d04:	2a0403f4 	mov	w20, w4
    1d08:	927df273 	and	x19, x19, #0xfffffffffffffff8
    1d0c:	79400062 	ldrh	w2, [x3]
    1d10:	17ffffe2 	b	1c98 <kprintf.constprop.0+0x500>
    1d14:	11002094 	add	w20, w4, #0x8
    1d18:	7100029f 	cmp	w20, #0x0
    1d1c:	5400008d 	b.le	1d2c <kprintf.constprop.0+0x594>
    1d20:	91003c73 	add	x19, x3, #0xf
    1d24:	927df273 	and	x19, x19, #0xfffffffffffffff8
    1d28:	17ffffdb 	b	1c94 <kprintf.constprop.0+0x4fc>
    1d2c:	aa0303f3 	mov	x19, x3
    1d30:	8b24c363 	add	x3, x27, w4, sxtw
    1d34:	17ffffd8 	b	1c94 <kprintf.constprop.0+0x4fc>
    1d38:	11002094 	add	w20, w4, #0x8
    1d3c:	7100029f 	cmp	w20, #0x0
    1d40:	5400008d 	b.le	1d50 <kprintf.constprop.0+0x5b8>
    1d44:	91002c73 	add	x19, x3, #0xb
    1d48:	927df273 	and	x19, x19, #0xfffffffffffffff8
    1d4c:	17fffff0 	b	1d0c <kprintf.constprop.0+0x574>
    1d50:	aa0303f3 	mov	x19, x3
    1d54:	8b24c363 	add	x3, x27, w4, sxtw
    1d58:	17ffffed 	b	1d0c <kprintf.constprop.0+0x574>
    1d5c:	37f800c4 	tbnz	w4, #31, 1d74 <kprintf.constprop.0+0x5dc>
    1d60:	91002c73 	add	x19, x3, #0xb
    1d64:	2a0403f4 	mov	w20, w4
    1d68:	927df273 	and	x19, x19, #0xfffffffffffffff8
    1d6c:	b9400062 	ldr	w2, [x3]
    1d70:	17ffffca 	b	1c98 <kprintf.constprop.0+0x500>
    1d74:	11002094 	add	w20, w4, #0x8
    1d78:	7100029f 	cmp	w20, #0x0
    1d7c:	5400008d 	b.le	1d8c <kprintf.constprop.0+0x5f4>
    1d80:	91002c73 	add	x19, x3, #0xb
    1d84:	927df273 	and	x19, x19, #0xfffffffffffffff8
    1d88:	17fffff9 	b	1d6c <kprintf.constprop.0+0x5d4>
    1d8c:	aa0303f3 	mov	x19, x3
    1d90:	8b24c363 	add	x3, x27, w4, sxtw
    1d94:	17fffff6 	b	1d6c <kprintf.constprop.0+0x5d4>
/media/home/beste/01_Pro/ld25x/bsp_hu/MYD-LD25X-Uboot-L2022.10-V1.0.0/GEN_FIP/myir-st-optee/lib/libutils/ext/snprintk.c:421
    1d98:	b940abe0 	ldr	w0, [sp, #168]
    1d9c:	340009c0 	cbz	w0, 1ed4 <kprintf.constprop.0+0x73c>
    1da0:	39400380 	ldrb	w0, [x28]
    1da4:	7101541f 	cmp	w0, #0x55
    1da8:	54000961 	b.ne	1ed4 <kprintf.constprop.0+0x73c>  // b.any
    1dac:	39400780 	ldrb	w0, [x28, #1]
    1db0:	7101b01f 	cmp	w0, #0x6c
    1db4:	54000901 	b.ne	1ed4 <kprintf.constprop.0+0x73c>  // b.any
/media/home/beste/01_Pro/ld25x/bsp_hu/MYD-LD25X-Uboot-L2022.10-V1.0.0/GEN_FIP/myir-st-optee/lib/libutils/ext/snprintk.c:426
    1db8:	91000b9c 	add	x28, x28, #0x2
/media/home/beste/01_Pro/ld25x/bsp_hu/MYD-LD25X-Uboot-L2022.10-V1.0.0/GEN_FIP/myir-st-optee/lib/libutils/ext/snprintk.c:427
    1dbc:	37f807a4 	tbnz	w4, #31, 1eb0 <kprintf.constprop.0+0x718>
    1dc0:	91003c73 	add	x19, x3, #0xf
    1dc4:	2a0403f4 	mov	w20, w4
    1dc8:	927df273 	and	x19, x19, #0xfffffffffffffff8
    1dcc:	f9400061 	ldr	x1, [x3]
uuid2str():
/media/home/beste/01_Pro/ld25x/bsp_hu/MYD-LD25X-Uboot-L2022.10-V1.0.0/GEN_FIP/myir-st-optee/lib/libutils/ext/snprintk.c:229
    1dd0:	910323ed 	add	x13, sp, #0xc8
    1dd4:	d0000082 	adrp	x2, 13000 <small_prime+0x19c>
    1dd8:	9111dc42 	add	x2, x2, #0x477
    1ddc:	f90053ed 	str	x13, [sp, #160]
    1de0:	39403c20 	ldrb	w0, [x1, #15]
    1de4:	39402427 	ldrb	w7, [x1, #9]
    1de8:	39402026 	ldrb	w6, [x1, #8]
    1dec:	79400c25 	ldrh	w5, [x1, #6]
    1df0:	79400824 	ldrh	w4, [x1, #4]
    1df4:	b9002be0 	str	w0, [sp, #40]
    1df8:	b900afea 	str	w10, [sp, #172]
    1dfc:	39403820 	ldrb	w0, [x1, #14]
    1e00:	b90023e0 	str	w0, [sp, #32]
    1e04:	f9005beb 	str	x11, [sp, #176]
    1e08:	39403420 	ldrb	w0, [x1, #13]
    1e0c:	b9001be0 	str	w0, [sp, #24]
    1e10:	39403020 	ldrb	w0, [x1, #12]
    1e14:	b90013e0 	str	w0, [sp, #16]
    1e18:	39402c20 	ldrb	w0, [x1, #11]
    1e1c:	b9000be0 	str	w0, [sp, #8]
    1e20:	39402820 	ldrb	w0, [x1, #10]
    1e24:	b90003e0 	str	w0, [sp]
    1e28:	aa0d03e0 	mov	x0, x13
    1e2c:	b9400023 	ldr	w3, [x1]
    1e30:	d28004a1 	mov	x1, #0x25                  	// #37
    1e34:	97fffe3c 	bl	1724 <snprintk>
    1e38:	f94053ed 	ldr	x13, [sp, #160]
kprintf():
/media/home/beste/01_Pro/ld25x/bsp_hu/MYD-LD25X-Uboot-L2022.10-V1.0.0/GEN_FIP/myir-st-optee/lib/libutils/ext/snprintk.c:466
    1e3c:	2a0003e5 	mov	w5, w0
    1e40:	f9405beb 	ldr	x11, [sp, #176]
/media/home/beste/01_Pro/ld25x/bsp_hu/MYD-LD25X-Uboot-L2022.10-V1.0.0/GEN_FIP/myir-st-optee/lib/libutils/ext/snprintk.c:291
    1e44:	52800002 	mov	w2, #0x0                   	// #0
    1e48:	b940afea 	ldr	w10, [sp, #172]
/media/home/beste/01_Pro/ld25x/bsp_hu/MYD-LD25X-Uboot-L2022.10-V1.0.0/GEN_FIP/myir-st-optee/lib/libutils/ext/snprintk.c:467
    1e4c:	52800001 	mov	w1, #0x0                   	// #0
/media/home/beste/01_Pro/ld25x/bsp_hu/MYD-LD25X-Uboot-L2022.10-V1.0.0/GEN_FIP/myir-st-optee/lib/libutils/ext/snprintk.c:571
    1e50:	6b05005f 	cmp	w2, w5
/media/home/beste/01_Pro/ld25x/bsp_hu/MYD-LD25X-Uboot-L2022.10-V1.0.0/GEN_FIP/myir-st-optee/lib/libutils/ext/snprintk.c:581
    1e54:	52808084 	mov	w4, #0x404                 	// #1028
/media/home/beste/01_Pro/ld25x/bsp_hu/MYD-LD25X-Uboot-L2022.10-V1.0.0/GEN_FIP/myir-st-optee/lib/libutils/ext/snprintk.c:571
    1e58:	1a85a040 	csel	w0, w2, w5, ge	// ge = tcont
/media/home/beste/01_Pro/ld25x/bsp_hu/MYD-LD25X-Uboot-L2022.10-V1.0.0/GEN_FIP/myir-st-optee/lib/libutils/ext/snprintk.c:581
    1e5c:	0a0402c4 	and	w4, w22, w4
/media/home/beste/01_Pro/ld25x/bsp_hu/MYD-LD25X-Uboot-L2022.10-V1.0.0/GEN_FIP/myir-st-optee/lib/libutils/ext/snprintk.c:572
    1e60:	34001d21 	cbz	w1, 2204 <kprintf.constprop.0+0xa6c>
/media/home/beste/01_Pro/ld25x/bsp_hu/MYD-LD25X-Uboot-L2022.10-V1.0.0/GEN_FIP/myir-st-optee/lib/libutils/ext/snprintk.c:573
    1e64:	11000400 	add	w0, w0, #0x1
/media/home/beste/01_Pro/ld25x/bsp_hu/MYD-LD25X-Uboot-L2022.10-V1.0.0/GEN_FIP/myir-st-optee/lib/libutils/ext/snprintk.c:578
    1e68:	6b0a001f 	cmp	w0, w10
    1e6c:	1a8aa006 	csel	w6, w0, w10, ge	// ge = tcont
    1e70:	0b06035a 	add	w26, w26, w6
/media/home/beste/01_Pro/ld25x/bsp_hu/MYD-LD25X-Uboot-L2022.10-V1.0.0/GEN_FIP/myir-st-optee/lib/libutils/ext/snprintk.c:581
    1e74:	35001f84 	cbnz	w4, 2264 <kprintf.constprop.0+0xacc>
/media/home/beste/01_Pro/ld25x/bsp_hu/MYD-LD25X-Uboot-L2022.10-V1.0.0/GEN_FIP/myir-st-optee/lib/libutils/ext/snprintk.c:582
    1e78:	4b000144 	sub	w4, w10, w0
/media/home/beste/01_Pro/ld25x/bsp_hu/MYD-LD25X-Uboot-L2022.10-V1.0.0/GEN_FIP/myir-st-optee/lib/libutils/ext/snprintk.c:583
    1e7c:	7100009f 	cmp	w4, #0x0
    1e80:	5400012d 	b.le	1ea4 <kprintf.constprop.0+0x70c>
/media/home/beste/01_Pro/ld25x/bsp_hu/MYD-LD25X-Uboot-L2022.10-V1.0.0/GEN_FIP/myir-st-optee/lib/libutils/ext/snprintk.c:584
    1e84:	b4001ed5 	cbz	x21, 225c <kprintf.constprop.0+0xac4>
    1e88:	f100017f 	cmp	x11, #0x0
    1e8c:	fa551322 	ccmp	x25, x21, #0x2, ne	// ne = any
    1e90:	54001e69 	b.ls	225c <kprintf.constprop.0+0xac4>  // b.plast
    1e94:	52800403 	mov	w3, #0x20                  	// #32
    1e98:	380016a3 	strb	w3, [x21], #1
/media/home/beste/01_Pro/ld25x/bsp_hu/MYD-LD25X-Uboot-L2022.10-V1.0.0/GEN_FIP/myir-st-optee/lib/libutils/ext/snprintk.c:583
    1e9c:	71000484 	subs	w4, w4, #0x1
    1ea0:	54ffff41 	b.ne	1e88 <kprintf.constprop.0+0x6f0>  // b.any
/media/home/beste/01_Pro/ld25x/bsp_hu/MYD-LD25X-Uboot-L2022.10-V1.0.0/GEN_FIP/myir-st-optee/lib/libutils/ext/snprintk.c:588
    1ea4:	350025e1 	cbnz	w1, 2360 <kprintf.constprop.0+0xbc8>
    1ea8:	52800004 	mov	w4, #0x0                   	// #0
    1eac:	140000dc 	b	221c <kprintf.constprop.0+0xa84>
/media/home/beste/01_Pro/ld25x/bsp_hu/MYD-LD25X-Uboot-L2022.10-V1.0.0/GEN_FIP/myir-st-optee/lib/libutils/ext/snprintk.c:427
    1eb0:	11002094 	add	w20, w4, #0x8
    1eb4:	7100029f 	cmp	w20, #0x0
    1eb8:	5400008d 	b.le	1ec8 <kprintf.constprop.0+0x730>
    1ebc:	91003c73 	add	x19, x3, #0xf
    1ec0:	927df273 	and	x19, x19, #0xfffffffffffffff8
    1ec4:	17ffffc2 	b	1dcc <kprintf.constprop.0+0x634>
    1ec8:	aa0303f3 	mov	x19, x3
    1ecc:	8b24c363 	add	x3, x27, w4, sxtw
    1ed0:	17ffffbf 	b	1dcc <kprintf.constprop.0+0x634>
/media/home/beste/01_Pro/ld25x/bsp_hu/MYD-LD25X-Uboot-L2022.10-V1.0.0/GEN_FIP/myir-st-optee/lib/libutils/ext/snprintk.c:441
    1ed4:	37f801c4 	tbnz	w4, #31, 1f0c <kprintf.constprop.0+0x774>
    1ed8:	91003c73 	add	x19, x3, #0xf
    1edc:	2a0403f4 	mov	w20, w4
    1ee0:	927df273 	and	x19, x19, #0xfffffffffffffff8
    1ee4:	f9400062 	ldr	x2, [x3]
/media/home/beste/01_Pro/ld25x/bsp_hu/MYD-LD25X-Uboot-L2022.10-V1.0.0/GEN_FIP/myir-st-optee/lib/libutils/ext/snprintk.c:443
    1ee8:	b0000097 	adrp	x23, 12000 <__text_end+0x2494>
/media/home/beste/01_Pro/ld25x/bsp_hu/MYD-LD25X-Uboot-L2022.10-V1.0.0/GEN_FIP/myir-st-optee/lib/libutils/ext/snprintk.c:444
    1eec:	321f02d6 	orr	w22, w22, #0x2
/media/home/beste/01_Pro/ld25x/bsp_hu/MYD-LD25X-Uboot-L2022.10-V1.0.0/GEN_FIP/myir-st-optee/lib/libutils/ext/snprintk.c:443
    1ef0:	9137faf7 	add	x23, x23, #0xdfe
/media/home/beste/01_Pro/ld25x/bsp_hu/MYD-LD25X-Uboot-L2022.10-V1.0.0/GEN_FIP/myir-st-optee/lib/libutils/ext/snprintk.c:445
    1ef4:	52800f18 	mov	w24, #0x78                  	// #120
/media/home/beste/01_Pro/ld25x/bsp_hu/MYD-LD25X-Uboot-L2022.10-V1.0.0/GEN_FIP/myir-st-optee/lib/libutils/ext/snprintk.c:494
    1ef8:	52800001 	mov	w1, #0x0                   	// #0
    1efc:	310004bf 	cmn	w5, #0x1
    1f00:	54ffdea0 	b.eq	1ad4 <kprintf.constprop.0+0x33c>  // b.none
    1f04:	52800040 	mov	w0, #0x2                   	// #2
    1f08:	140000a3 	b	2194 <kprintf.constprop.0+0x9fc>
/media/home/beste/01_Pro/ld25x/bsp_hu/MYD-LD25X-Uboot-L2022.10-V1.0.0/GEN_FIP/myir-st-optee/lib/libutils/ext/snprintk.c:441
    1f0c:	11002094 	add	w20, w4, #0x8
    1f10:	7100029f 	cmp	w20, #0x0
    1f14:	5400008d 	b.le	1f24 <kprintf.constprop.0+0x78c>
    1f18:	91003c73 	add	x19, x3, #0xf
    1f1c:	927df273 	and	x19, x19, #0xfffffffffffffff8
    1f20:	17fffff1 	b	1ee4 <kprintf.constprop.0+0x74c>
    1f24:	aa0303f3 	mov	x19, x3
    1f28:	8b24c363 	add	x3, x27, w4, sxtw
    1f2c:	17ffffee 	b	1ee4 <kprintf.constprop.0+0x74c>
/media/home/beste/01_Pro/ld25x/bsp_hu/MYD-LD25X-Uboot-L2022.10-V1.0.0/GEN_FIP/myir-st-optee/lib/libutils/ext/snprintk.c:448
    1f30:	37f80364 	tbnz	w4, #31, 1f9c <kprintf.constprop.0+0x804>
    1f34:	91003c73 	add	x19, x3, #0xf
    1f38:	2a0403f4 	mov	w20, w4
    1f3c:	927df273 	and	x19, x19, #0xfffffffffffffff8
    1f40:	f940006d 	ldr	x13, [x3]
    1f44:	b500006d 	cbnz	x13, 1f50 <kprintf.constprop.0+0x7b8>
/media/home/beste/01_Pro/ld25x/bsp_hu/MYD-LD25X-Uboot-L2022.10-V1.0.0/GEN_FIP/myir-st-optee/lib/libutils/ext/snprintk.c:450
    1f48:	d0000083 	adrp	x3, 13000 <small_prime+0x19c>
    1f4c:	9111c06d 	add	x13, x3, #0x470
/media/home/beste/01_Pro/ld25x/bsp_hu/MYD-LD25X-Uboot-L2022.10-V1.0.0/GEN_FIP/myir-st-optee/lib/libutils/ext/snprintk.c:451
    1f50:	310004bf 	cmn	w5, #0x1
    1f54:	54000360 	b.eq	1fc0 <kprintf.constprop.0+0x828>  // b.none
/media/home/beste/01_Pro/ld25x/bsp_hu/MYD-LD25X-Uboot-L2022.10-V1.0.0/GEN_FIP/myir-st-optee/lib/libutils/ext/snprintk.c:457
    1f58:	93407ca2 	sxtw	x2, w5
    1f5c:	aa0d03e0 	mov	x0, x13
    1f60:	52800001 	mov	w1, #0x0                   	// #0
    1f64:	f90053ed 	str	x13, [sp, #160]
    1f68:	2915abe5 	stp	w5, w10, [sp, #172]
    1f6c:	f9005feb 	str	x11, [sp, #184]
    1f70:	94000116 	bl	23c8 <memchr>
/media/home/beste/01_Pro/ld25x/bsp_hu/MYD-LD25X-Uboot-L2022.10-V1.0.0/GEN_FIP/myir-st-optee/lib/libutils/ext/snprintk.c:459
    1f74:	f94053ed 	ldr	x13, [sp, #160]
    1f78:	f9405feb 	ldr	x11, [sp, #184]
    1f7c:	2955abe5 	ldp	w5, w10, [sp, #172]
    1f80:	b4000080 	cbz	x0, 1f90 <kprintf.constprop.0+0x7f8>
/media/home/beste/01_Pro/ld25x/bsp_hu/MYD-LD25X-Uboot-L2022.10-V1.0.0/GEN_FIP/myir-st-optee/lib/libutils/ext/snprintk.c:460
    1f84:	cb0d0000 	sub	x0, x0, x13
    1f88:	6b0000bf 	cmp	w5, w0
    1f8c:	1a80d0a5 	csel	w5, w5, w0, le
/media/home/beste/01_Pro/ld25x/bsp_hu/MYD-LD25X-Uboot-L2022.10-V1.0.0/GEN_FIP/myir-st-optee/lib/libutils/ext/snprintk.c:291
    1f90:	52800002 	mov	w2, #0x0                   	// #0
/media/home/beste/01_Pro/ld25x/bsp_hu/MYD-LD25X-Uboot-L2022.10-V1.0.0/GEN_FIP/myir-st-optee/lib/libutils/ext/snprintk.c:467
    1f94:	52800001 	mov	w1, #0x0                   	// #0
    1f98:	17ffffae 	b	1e50 <kprintf.constprop.0+0x6b8>
/media/home/beste/01_Pro/ld25x/bsp_hu/MYD-LD25X-Uboot-L2022.10-V1.0.0/GEN_FIP/myir-st-optee/lib/libutils/ext/snprintk.c:448
    1f9c:	11002094 	add	w20, w4, #0x8
    1fa0:	7100029f 	cmp	w20, #0x0
    1fa4:	5400008d 	b.le	1fb4 <kprintf.constprop.0+0x81c>
    1fa8:	91003c73 	add	x19, x3, #0xf
    1fac:	927df273 	and	x19, x19, #0xfffffffffffffff8
    1fb0:	17ffffe4 	b	1f40 <kprintf.constprop.0+0x7a8>
    1fb4:	aa0303f3 	mov	x19, x3
    1fb8:	8b24c363 	add	x3, x27, w4, sxtw
    1fbc:	17ffffe1 	b	1f40 <kprintf.constprop.0+0x7a8>
/media/home/beste/01_Pro/ld25x/bsp_hu/MYD-LD25X-Uboot-L2022.10-V1.0.0/GEN_FIP/myir-st-optee/lib/libutils/ext/snprintk.c:466
    1fc0:	aa0d03e0 	mov	x0, x13
    1fc4:	f90053ed 	str	x13, [sp, #160]
    1fc8:	b900afea 	str	w10, [sp, #172]
    1fcc:	f9005beb 	str	x11, [sp, #176]
    1fd0:	94000109 	bl	23f4 <strlen>
    1fd4:	17ffff99 	b	1e38 <kprintf.constprop.0+0x6a0>
/media/home/beste/01_Pro/ld25x/bsp_hu/MYD-LD25X-Uboot-L2022.10-V1.0.0/GEN_FIP/myir-st-optee/lib/libutils/ext/snprintk.c:470
    1fd8:	321c02d6 	orr	w22, w22, #0x10
/media/home/beste/01_Pro/ld25x/bsp_hu/MYD-LD25X-Uboot-L2022.10-V1.0.0/GEN_FIP/myir-st-optee/lib/libutils/ext/snprintk.c:473
    1fdc:	36380236 	tbz	w22, #7, 2020 <kprintf.constprop.0+0x888>
    1fe0:	37f80364 	tbnz	w4, #31, 204c <kprintf.constprop.0+0x8b4>
    1fe4:	91003c73 	add	x19, x3, #0xf
    1fe8:	2a0403f4 	mov	w20, w4
    1fec:	927df273 	and	x19, x19, #0xfffffffffffffff8
    1ff0:	f9400062 	ldr	x2, [x3]
/media/home/beste/01_Pro/ld25x/bsp_hu/MYD-LD25X-Uboot-L2022.10-V1.0.0/GEN_FIP/myir-st-optee/lib/libutils/ext/snprintk.c:488
    1ff4:	52800001 	mov	w1, #0x0                   	// #0
/media/home/beste/01_Pro/ld25x/bsp_hu/MYD-LD25X-Uboot-L2022.10-V1.0.0/GEN_FIP/myir-st-optee/lib/libutils/ext/snprintk.c:494
    1ff8:	310004bf 	cmn	w5, #0x1
    1ffc:	54000da1 	b.ne	21b0 <kprintf.constprop.0+0xa18>  // b.any
/media/home/beste/01_Pro/ld25x/bsp_hu/MYD-LD25X-Uboot-L2022.10-V1.0.0/GEN_FIP/myir-st-optee/lib/libutils/ext/snprintk.c:502
    2000:	9103b7e0 	add	x0, sp, #0xed
/media/home/beste/01_Pro/ld25x/bsp_hu/MYD-LD25X-Uboot-L2022.10-V1.0.0/GEN_FIP/myir-st-optee/lib/libutils/ext/snprintk.c:523
    2004:	d2800144 	mov	x4, #0xa                   	// #10
    2008:	d100040d 	sub	x13, x0, #0x1
/media/home/beste/01_Pro/ld25x/bsp_hu/MYD-LD25X-Uboot-L2022.10-V1.0.0/GEN_FIP/myir-st-optee/lib/libutils/ext/snprintk.c:522
    200c:	f100245f 	cmp	x2, #0x9
    2010:	54000d48 	b.hi	21b8 <kprintf.constprop.0+0xa20>  // b.pmore
/media/home/beste/01_Pro/ld25x/bsp_hu/MYD-LD25X-Uboot-L2022.10-V1.0.0/GEN_FIP/myir-st-optee/lib/libutils/ext/snprintk.c:526
    2014:	1100c042 	add	w2, w2, #0x30
    2018:	381ff002 	sturb	w2, [x0, #-1]
/media/home/beste/01_Pro/ld25x/bsp_hu/MYD-LD25X-Uboot-L2022.10-V1.0.0/GEN_FIP/myir-st-optee/lib/libutils/ext/snprintk.c:527
    201c:	17ffff2f 	b	1cd8 <kprintf.constprop.0+0x540>
/media/home/beste/01_Pro/ld25x/bsp_hu/MYD-LD25X-Uboot-L2022.10-V1.0.0/GEN_FIP/myir-st-optee/lib/libutils/ext/snprintk.c:473
    2020:	3747fe16 	tbnz	w22, #8, 1fe0 <kprintf.constprop.0+0x848>
    2024:	374ffdf6 	tbnz	w22, #9, 1fe0 <kprintf.constprop.0+0x848>
    2028:	372ffdd6 	tbnz	w22, #5, 1fe0 <kprintf.constprop.0+0x848>
    202c:	3727fdb6 	tbnz	w22, #4, 1fe0 <kprintf.constprop.0+0x848>
    2030:	36300336 	tbz	w22, #6, 2094 <kprintf.constprop.0+0x8fc>
    2034:	37f801e4 	tbnz	w4, #31, 2070 <kprintf.constprop.0+0x8d8>
    2038:	91002c73 	add	x19, x3, #0xb
    203c:	2a0403f4 	mov	w20, w4
    2040:	927df273 	and	x19, x19, #0xfffffffffffffff8
    2044:	79400062 	ldrh	w2, [x3]
    2048:	17ffffeb 	b	1ff4 <kprintf.constprop.0+0x85c>
    204c:	11002094 	add	w20, w4, #0x8
    2050:	7100029f 	cmp	w20, #0x0
    2054:	5400008d 	b.le	2064 <kprintf.constprop.0+0x8cc>
    2058:	91003c73 	add	x19, x3, #0xf
    205c:	927df273 	and	x19, x19, #0xfffffffffffffff8
    2060:	17ffffe4 	b	1ff0 <kprintf.constprop.0+0x858>
    2064:	aa0303f3 	mov	x19, x3
    2068:	8b24c363 	add	x3, x27, w4, sxtw
    206c:	17ffffe1 	b	1ff0 <kprintf.constprop.0+0x858>
    2070:	11002094 	add	w20, w4, #0x8
    2074:	7100029f 	cmp	w20, #0x0
    2078:	5400008d 	b.le	2088 <kprintf.constprop.0+0x8f0>
    207c:	91002c73 	add	x19, x3, #0xb
    2080:	927df273 	and	x19, x19, #0xfffffffffffffff8
    2084:	17fffff0 	b	2044 <kprintf.constprop.0+0x8ac>
    2088:	aa0303f3 	mov	x19, x3
    208c:	8b24c363 	add	x3, x27, w4, sxtw
    2090:	17ffffed 	b	2044 <kprintf.constprop.0+0x8ac>
    2094:	37f800c4 	tbnz	w4, #31, 20ac <kprintf.constprop.0+0x914>
    2098:	91002c73 	add	x19, x3, #0xb
    209c:	2a0403f4 	mov	w20, w4
    20a0:	927df273 	and	x19, x19, #0xfffffffffffffff8
    20a4:	b9400062 	ldr	w2, [x3]
    20a8:	17ffffd3 	b	1ff4 <kprintf.constprop.0+0x85c>
    20ac:	11002094 	add	w20, w4, #0x8
    20b0:	7100029f 	cmp	w20, #0x0
    20b4:	5400008d 	b.le	20c4 <kprintf.constprop.0+0x92c>
    20b8:	91002c73 	add	x19, x3, #0xb
    20bc:	927df273 	and	x19, x19, #0xfffffffffffffff8
    20c0:	17fffff9 	b	20a4 <kprintf.constprop.0+0x90c>
    20c4:	aa0303f3 	mov	x19, x3
    20c8:	8b24c363 	add	x3, x27, w4, sxtw
    20cc:	17fffff6 	b	20a4 <kprintf.constprop.0+0x90c>
/media/home/beste/01_Pro/ld25x/bsp_hu/MYD-LD25X-Uboot-L2022.10-V1.0.0/GEN_FIP/myir-st-optee/lib/libutils/ext/snprintk.c:297
    20d0:	90000097 	adrp	x23, 12000 <__text_end+0x2494>
    20d4:	9137faf7 	add	x23, x23, #0xdfe
    20d8:	910046f7 	add	x23, x23, #0x11
    20dc:	17fffdf2 	b	18a4 <kprintf.constprop.0+0x10c>
/media/home/beste/01_Pro/ld25x/bsp_hu/MYD-LD25X-Uboot-L2022.10-V1.0.0/GEN_FIP/myir-st-optee/lib/libutils/ext/snprintk.c:481
    20e0:	3747be56 	tbnz	w22, #8, 18a8 <kprintf.constprop.0+0x110>
    20e4:	374fbe36 	tbnz	w22, #9, 18a8 <kprintf.constprop.0+0x110>
    20e8:	372fbe16 	tbnz	w22, #5, 18a8 <kprintf.constprop.0+0x110>
    20ec:	3727bdf6 	tbnz	w22, #4, 18a8 <kprintf.constprop.0+0x110>
    20f0:	36300336 	tbz	w22, #6, 2154 <kprintf.constprop.0+0x9bc>
    20f4:	37f801e4 	tbnz	w4, #31, 2130 <kprintf.constprop.0+0x998>
    20f8:	91002c73 	add	x19, x3, #0xb
    20fc:	2a0403f4 	mov	w20, w4
    2100:	927df273 	and	x19, x19, #0xfffffffffffffff8
    2104:	79400062 	ldrh	w2, [x3]
    2108:	17fffded 	b	18bc <kprintf.constprop.0+0x124>
    210c:	11002094 	add	w20, w4, #0x8
    2110:	7100029f 	cmp	w20, #0x0
    2114:	5400008d 	b.le	2124 <kprintf.constprop.0+0x98c>
    2118:	91003c73 	add	x19, x3, #0xf
    211c:	927df273 	and	x19, x19, #0xfffffffffffffff8
    2120:	17fffde6 	b	18b8 <kprintf.constprop.0+0x120>
    2124:	aa0303f3 	mov	x19, x3
    2128:	8b24c363 	add	x3, x27, w4, sxtw
    212c:	17fffde3 	b	18b8 <kprintf.constprop.0+0x120>
    2130:	11002094 	add	w20, w4, #0x8
    2134:	7100029f 	cmp	w20, #0x0
    2138:	5400008d 	b.le	2148 <kprintf.constprop.0+0x9b0>
    213c:	91002c73 	add	x19, x3, #0xb
    2140:	927df273 	and	x19, x19, #0xfffffffffffffff8
    2144:	17fffff0 	b	2104 <kprintf.constprop.0+0x96c>
    2148:	aa0303f3 	mov	x19, x3
    214c:	8b24c363 	add	x3, x27, w4, sxtw
    2150:	17ffffed 	b	2104 <kprintf.constprop.0+0x96c>
    2154:	37f800c4 	tbnz	w4, #31, 216c <kprintf.constprop.0+0x9d4>
    2158:	91002c73 	add	x19, x3, #0xb
    215c:	2a0403f4 	mov	w20, w4
    2160:	927df273 	and	x19, x19, #0xfffffffffffffff8
    2164:	b9400062 	ldr	w2, [x3]
    2168:	17fffdd5 	b	18bc <kprintf.constprop.0+0x124>
    216c:	11002094 	add	w20, w4, #0x8
    2170:	7100029f 	cmp	w20, #0x0
    2174:	5400008d 	b.le	2184 <kprintf.constprop.0+0x9ec>
    2178:	91002c73 	add	x19, x3, #0xb
    217c:	927df273 	and	x19, x19, #0xfffffffffffffff8
    2180:	17fffff9 	b	2164 <kprintf.constprop.0+0x9cc>
    2184:	aa0303f3 	mov	x19, x3
    2188:	8b24c363 	add	x3, x27, w4, sxtw
    218c:	17fffff6 	b	2164 <kprintf.constprop.0+0x9cc>
/media/home/beste/01_Pro/ld25x/bsp_hu/MYD-LD25X-Uboot-L2022.10-V1.0.0/GEN_FIP/myir-st-optee/lib/libutils/ext/snprintk.c:494
    2190:	52800000 	mov	w0, #0x0                   	// #0
/media/home/beste/01_Pro/ld25x/bsp_hu/MYD-LD25X-Uboot-L2022.10-V1.0.0/GEN_FIP/myir-st-optee/lib/libutils/ext/snprintk.c:503
    2194:	f100005f 	cmp	x2, #0x0
/media/home/beste/01_Pro/ld25x/bsp_hu/MYD-LD25X-Uboot-L2022.10-V1.0.0/GEN_FIP/myir-st-optee/lib/libutils/ext/snprintk.c:495
    2198:	12157ad6 	and	w22, w22, #0xfffffbff
/media/home/beste/01_Pro/ld25x/bsp_hu/MYD-LD25X-Uboot-L2022.10-V1.0.0/GEN_FIP/myir-st-optee/lib/libutils/ext/snprintk.c:503
    219c:	7a4008a0 	ccmp	w5, #0x0, #0x0, eq	// eq = none
    21a0:	54ffc921 	b.ne	1ac4 <kprintf.constprop.0+0x32c>  // b.any
/media/home/beste/01_Pro/ld25x/bsp_hu/MYD-LD25X-Uboot-L2022.10-V1.0.0/GEN_FIP/myir-st-optee/lib/libutils/ext/snprintk.c:502
    21a4:	9103b7ed 	add	x13, sp, #0xed
    21a8:	52800005 	mov	w5, #0x0                   	// #0
    21ac:	17fffecb 	b	1cd8 <kprintf.constprop.0+0x540>
/media/home/beste/01_Pro/ld25x/bsp_hu/MYD-LD25X-Uboot-L2022.10-V1.0.0/GEN_FIP/myir-st-optee/lib/libutils/ext/snprintk.c:494
    21b0:	52800020 	mov	w0, #0x1                   	// #1
    21b4:	17fffff8 	b	2194 <kprintf.constprop.0+0x9fc>
/media/home/beste/01_Pro/ld25x/bsp_hu/MYD-LD25X-Uboot-L2022.10-V1.0.0/GEN_FIP/myir-st-optee/lib/libutils/ext/snprintk.c:523
    21b8:	9ac40846 	udiv	x6, x2, x4
    21bc:	9b0488c2 	msub	x2, x6, x4, x2
    21c0:	1100c042 	add	w2, w2, #0x30
    21c4:	381ff002 	sturb	w2, [x0, #-1]
/media/home/beste/01_Pro/ld25x/bsp_hu/MYD-LD25X-Uboot-L2022.10-V1.0.0/GEN_FIP/myir-st-optee/lib/libutils/ext/snprintk.c:524
    21c8:	aa0603e2 	mov	x2, x6
/media/home/beste/01_Pro/ld25x/bsp_hu/MYD-LD25X-Uboot-L2022.10-V1.0.0/GEN_FIP/myir-st-optee/lib/libutils/ext/snprintk.c:523
    21cc:	aa0d03e0 	mov	x0, x13
    21d0:	17ffff8e 	b	2008 <kprintf.constprop.0+0x870>
/media/home/beste/01_Pro/ld25x/bsp_hu/MYD-LD25X-Uboot-L2022.10-V1.0.0/GEN_FIP/myir-st-optee/lib/libutils/ext/snprintk.c:547
    21d4:	35ffb878 	cbnz	w24, 18e0 <kprintf.constprop.0+0x148>
/media/home/beste/01_Pro/ld25x/bsp_hu/MYD-LD25X-Uboot-L2022.10-V1.0.0/GEN_FIP/myir-st-optee/lib/libutils/ext/snprintk.c:619
    21d8:	b400004b 	cbz	x11, 21e0 <kprintf.constprop.0+0xa48>
/media/home/beste/01_Pro/ld25x/bsp_hu/MYD-LD25X-Uboot-L2022.10-V1.0.0/GEN_FIP/myir-st-optee/lib/libutils/ext/snprintk.c:620
    21dc:	f9000175 	str	x21, [x11]
/media/home/beste/01_Pro/ld25x/bsp_hu/MYD-LD25X-Uboot-L2022.10-V1.0.0/GEN_FIP/myir-st-optee/lib/libutils/ext/snprintk.c:622
    21e0:	a9437bfd 	ldp	x29, x30, [sp, #48]
    21e4:	2a1a03e0 	mov	w0, w26
    21e8:	a94453f3 	ldp	x19, x20, [sp, #64]
    21ec:	a9455bf5 	ldp	x21, x22, [sp, #80]
    21f0:	a94663f7 	ldp	x23, x24, [sp, #96]
    21f4:	a9476bf9 	ldp	x25, x26, [sp, #112]
    21f8:	a94873fb 	ldp	x27, x28, [sp, #128]
    21fc:	9103c3ff 	add	sp, sp, #0xf0
    2200:	d65f03c0 	ret
/media/home/beste/01_Pro/ld25x/bsp_hu/MYD-LD25X-Uboot-L2022.10-V1.0.0/GEN_FIP/myir-st-optee/lib/libutils/ext/snprintk.c:574
    2204:	36080056 	tbz	w22, #1, 220c <kprintf.constprop.0+0xa74>
/media/home/beste/01_Pro/ld25x/bsp_hu/MYD-LD25X-Uboot-L2022.10-V1.0.0/GEN_FIP/myir-st-optee/lib/libutils/ext/snprintk.c:575
    2208:	11000800 	add	w0, w0, #0x2
/media/home/beste/01_Pro/ld25x/bsp_hu/MYD-LD25X-Uboot-L2022.10-V1.0.0/GEN_FIP/myir-st-optee/lib/libutils/ext/snprintk.c:578
    220c:	6b0a001f 	cmp	w0, w10
    2210:	1a8aa006 	csel	w6, w0, w10, ge	// ge = tcont
    2214:	0b06035a 	add	w26, w26, w6
/media/home/beste/01_Pro/ld25x/bsp_hu/MYD-LD25X-Uboot-L2022.10-V1.0.0/GEN_FIP/myir-st-optee/lib/libutils/ext/snprintk.c:581
    2218:	34ffe304 	cbz	w4, 1e78 <kprintf.constprop.0+0x6e0>
/media/home/beste/01_Pro/ld25x/bsp_hu/MYD-LD25X-Uboot-L2022.10-V1.0.0/GEN_FIP/myir-st-optee/lib/libutils/ext/snprintk.c:590
    221c:	36080276 	tbz	w22, #1, 2268 <kprintf.constprop.0+0xad0>
/media/home/beste/01_Pro/ld25x/bsp_hu/MYD-LD25X-Uboot-L2022.10-V1.0.0/GEN_FIP/myir-st-optee/lib/libutils/ext/snprintk.c:591
    2220:	b4000255 	cbz	x21, 2268 <kprintf.constprop.0+0xad0>
    2224:	f100017f 	cmp	x11, #0x0
    2228:	1a9f17e6 	cset	w6, eq	// eq = none
    222c:	710000df 	cmp	w6, #0x0
    2230:	fa550322 	ccmp	x25, x21, #0x2, eq	// eq = none
    2234:	540001a9 	b.ls	2268 <kprintf.constprop.0+0xad0>  // b.plast
    2238:	aa1503e1 	mov	x1, x21
    223c:	52800607 	mov	w7, #0x30                  	// #48
/media/home/beste/01_Pro/ld25x/bsp_hu/MYD-LD25X-Uboot-L2022.10-V1.0.0/GEN_FIP/myir-st-optee/lib/libutils/ext/snprintk.c:592
    2240:	710000df 	cmp	w6, #0x0
/media/home/beste/01_Pro/ld25x/bsp_hu/MYD-LD25X-Uboot-L2022.10-V1.0.0/GEN_FIP/myir-st-optee/lib/libutils/ext/snprintk.c:591
    2244:	38001427 	strb	w7, [x1], #1
/media/home/beste/01_Pro/ld25x/bsp_hu/MYD-LD25X-Uboot-L2022.10-V1.0.0/GEN_FIP/myir-st-optee/lib/libutils/ext/snprintk.c:592
    2248:	fa410322 	ccmp	x25, x1, #0x2, eq	// eq = none
    224c:	54000769 	b.ls	2338 <kprintf.constprop.0+0xba0>  // b.plast
    2250:	91000ab5 	add	x21, x21, #0x2
    2254:	381ff2b8 	sturb	w24, [x21, #-1]
    2258:	14000004 	b	2268 <kprintf.constprop.0+0xad0>
    225c:	51000484 	sub	w4, w4, #0x1
    2260:	17ffff07 	b	1e7c <kprintf.constprop.0+0x6e4>
/media/home/beste/01_Pro/ld25x/bsp_hu/MYD-LD25X-Uboot-L2022.10-V1.0.0/GEN_FIP/myir-st-optee/lib/libutils/ext/snprintk.c:589
    2264:	b5000835 	cbnz	x21, 2368 <kprintf.constprop.0+0xbd0>
