
../build/myb-stm32mp257x-2GB-ca35tdcid-ostl/ldelf/ldelf.elf:     file format elf64-littleaarch64
../build/myb-stm32mp257x-2GB-ca35tdcid-ostl/ldelf/ldelf.elf
architecture: aarch64, flags 0x00000150:
HAS_SYMS, DYNAMIC, D_PAGED
start address 0x0000000000000000

Program Header:
    LOAD off    0x0000000000001000 vaddr 0x0000000000000000 paddr 0x0000000000000000 align 2**12
         filesz 0x0000000000007b00 memsz 0x0000000000007b00 flags r-x
    LOAD off    0x0000000000009000 vaddr 0x0000000000008000 paddr 0x0000000000008000 align 2**12
         filesz 0x00000000000001f4 memsz 0x0000000000000210 flags rw-
 DYNAMIC off    0x0000000000009000 vaddr 0x0000000000008000 paddr 0x0000000000008000 align 2**3
         filesz 0x0000000000000110 memsz 0x0000000000000110 flags rw-
   STACK off    0x0000000000000000 vaddr 0x0000000000000000 paddr 0x0000000000000000 align 2**4
         filesz 0x0000000000000000 memsz 0x0000000000000000 flags rw-

Dynamic Section:
  HASH                 0x0000000000007a40
  GNU_HASH             0x00000000000079d0
  STRTAB               0x0000000000007a38
  SYMTAB               0x00000000000079f0
  STRSZ                0x0000000000000001
  SYMENT               0x0000000000000018
  DEBUG                0x0000000000000000
  RELA                 0x0000000000007a58
  RELASZ               0x00000000000000a8
  RELAENT              0x0000000000000018
  FLAGS_1              0x0000000008000000
  RELACOUNT            0x0000000000000003
private flags = 0x0:

Sections:
Idx Name          Size      VMA               LMA               File off  Algn
  0 .text         00006808  0000000000000000  0000000000000000  00001000  2**4
                  CONTENTS, ALLOC, LOAD, READONLY, CODE
  1 .rodata       000011c1  0000000000006808  0000000000006808  00007808  2**2
                  CONTENTS, ALLOC, LOAD, READONLY, DATA
  2 .gnu.hash     0000001c  00000000000079d0  00000000000079d0  000089d0  2**3
                  CONTENTS, ALLOC, LOAD, READONLY, DATA
  3 .dynsym       00000048  00000000000079f0  00000000000079f0  000089f0  2**3
                  CONTENTS, ALLOC, LOAD, READONLY, DATA
  4 .dynstr       00000001  0000000000007a38  0000000000007a38  00008a38  2**0
                  CONTENTS, ALLOC, LOAD, READONLY, DATA
  5 .hash         00000018  0000000000007a40  0000000000007a40  00008a40  2**3
                  CONTENTS, ALLOC, LOAD, READONLY, DATA
  6 .rela.got     00000060  0000000000007a58  0000000000007a58  00008a58  2**3
                  CONTENTS, ALLOC, LOAD, READONLY, DATA
  7 .dynamic      00000110  0000000000008000  0000000000008000  00009000  2**3
                  CONTENTS, ALLOC, LOAD, DATA
  8 .got          00000040  0000000000008110  0000000000008110  00009110  2**3
                  CONTENTS, ALLOC, LOAD, DATA
  9 .data         000000a4  0000000000008150  0000000000008150  00009150  2**3
                  CONTENTS, ALLOC, LOAD, DATA
 10 .bss          00000018  00000000000081f8  00000000000081f8  000091f4  2**3
                  ALLOC
 11 .debug_line   000070e9  0000000000000000  0000000000000000  000091f4  2**0
                  CONTENTS, READONLY, DEBUGGING, OCTETS
 12 .debug_line_str 00000729  0000000000000000  0000000000000000  000102dd  2**0
                  CONTENTS, READONLY, DEBUGGING, OCTETS
 13 .debug_info   00010075  0000000000000000  0000000000000000  00010a06  2**0
                  CONTENTS, READONLY, DEBUGGING, OCTETS
 14 .debug_abbrev 00002d2a  0000000000000000  0000000000000000  00020a7b  2**0
                  CONTENTS, READONLY, DEBUGGING, OCTETS
 15 .debug_aranges 00001050  0000000000000000  0000000000000000  000237b0  2**4
                  CONTENTS, READONLY, DEBUGGING, OCTETS
 16 .debug_str    00015de4  0000000000000000  0000000000000000  00024800  2**0
                  CONTENTS, READONLY, DEBUGGING, OCTETS
 17 .rela.dyn     00000048  0000000000007ab8  0000000000007ab8  00008ab8  2**3
                  CONTENTS, ALLOC, LOAD, READONLY, DATA
 18 .debug_rnglists 000012a2  0000000000000000  0000000000000000  0003a5e4  2**0
                  CONTENTS, READONLY, DEBUGGING, OCTETS
 19 .debug_loclists 0000a8d0  0000000000000000  0000000000000000  0003b886  2**0
                  CONTENTS, READONLY, DEBUGGING, OCTETS
 20 .debug_macro  000133bd  0000000000000000  0000000000000000  00046156  2**0
                  CONTENTS, READONLY, DEBUGGING, OCTETS
 21 .comment      00000012  0000000000000000  0000000000000000  00059513  2**0
                  CONTENTS, READONLY
SYMBOL TABLE:
0000000000000000 l    d  .text	0000000000000000 .text
0000000000006808 l    d  .rodata	0000000000000000 .rodata
00000000000079d0 l    d  .gnu.hash	0000000000000000 .gnu.hash
00000000000079f0 l    d  .dynsym	0000000000000000 .dynsym
0000000000007a38 l    d  .dynstr	0000000000000000 .dynstr
0000000000007a40 l    d  .hash	0000000000000000 .hash
0000000000007a58 l    d  .rela.got	0000000000000000 .rela.got
0000000000008000 l    d  .dynamic	0000000000000000 .dynamic
0000000000008110 l    d  .got	0000000000000000 .got
0000000000008150 l    d  .data	0000000000000000 .data
00000000000081f8 l    d  .bss	0000000000000000 .bss
0000000000000000 l    d  .debug_line	0000000000000000 .debug_line
0000000000000000 l    d  .debug_line_str	0000000000000000 .debug_line_str
0000000000000000 l    d  .debug_info	0000000000000000 .debug_info
0000000000000000 l    d  .debug_abbrev	0000000000000000 .debug_abbrev
0000000000000000 l    d  .debug_aranges	0000000000000000 .debug_aranges
0000000000000000 l    d  .debug_str	0000000000000000 .debug_str
0000000000007ab8 l    d  .rela.dyn	0000000000000000 .rela.dyn
0000000000000000 l    d  .debug_rnglists	0000000000000000 .debug_rnglists
0000000000000000 l    d  .debug_loclists	0000000000000000 .debug_loclists
0000000000000000 l    d  .debug_macro	0000000000000000 .debug_macro
0000000000000000 l    d  .comment	0000000000000000 .comment
0000000000000000 l    df *ABS*	0000000000000000 start_a64.o
000000000000005c l       .text	0000000000000000 reloc_begin_rel
0000000000000060 l       .text	0000000000000000 reloc_end_rel
0000000000000000 l    df *ABS*	0000000000000000 memcpy.c
0000000000000000 l    df *ABS*	0000000000000000 syscalls_a64.o
0000000000000000 l    df *ABS*	0000000000000000 tlsdesc_rel_a64.o
0000000000000000 l    df *ABS*	0000000000000000 dl.c
0000000000000000 l    df *ABS*	0000000000000000 main.c
00000000000002b4 l     F .text	000000000000003c dl_entry
00000000000002f0 l     F .text	000000000000004c print_to_console
000000000000033c l     F .text	00000000000000f0 dump_ta_state
000000000000690e l     O .rodata	000000000000000e __func__.0
00000000000081f8 l     O .bss	0000000000000008 mpool_base
000000000000691c l     O .rodata	0000000000000006 __func__.1
0000000000000000 l    df *ABS*	0000000000000000 sys.c
0000000000000000 l    df *ABS*	0000000000000000 ta_elf.c
0000000000000670 l     F .text	00000000000000a8 check_range
000000000000720d l     O .rodata	000000000000000c __func__.18
0000000000000718 l     F .text	0000000000000058 check_hashtab
00000000000071ca l     O .rodata	000000000000000e __func__.14
0000000000000770 l     F .text	0000000000000068 queue_elf_helper
00000000000007d8 l     F .text	00000000000000d4 add_segment
000000000000726c l     O .rodata	000000000000000c __func__.23
00000000000008ac l     F .text	0000000000000034 get_pad_begin
00000000000008e0 l     F .text	0000000000000084 ta_elf_add_bti
00000000000072b4 l     O .rodata	000000000000000f __func__.29
0000000000000964 l     F .text	00000000000002a8 init_elf
0000000000007297 l     O .rodata	0000000000000009 __func__.27
0000000000000c0c l     F .text	000000000000005c close_handle
0000000000007192 l     O .rodata	000000000000000d __func__.11
0000000000000c68 l     F .text	0000000000000058 print_wrapper
0000000000000cc0 l     F .text	0000000000000070 check_phdr_in_range.constprop.0
0000000000007219 l     O .rodata	0000000000000014 __func__.19
0000000000000d30 l     F .text	0000000000000020 _assert_trap.constprop.0
0000000000000d50 l     F .text	000000000000013c print_seg
0000000000008208 l     O .bss	0000000000000008 ta_stack
0000000000000e8c l     F .text	0000000000000114 copy_section_headers
00000000000071f8 l     O .rodata	0000000000000015 __func__.17
0000000000000fa0 l     F .text	00000000000004a0 populate_segments
00000000000072d4 l     O .rodata	0000000000000012 __func__.32
00000000000072c3 l     O .rodata	0000000000000011 __func__.31
0000000000001440 l     F .text	00000000000004c8 map_segments
000000000000728a l     O .rodata	000000000000000d __func__.26
0000000000008150 l     O .data	0000000000000008 last_tls_mod_id.25
0000000000007278 l     O .rodata	0000000000000012 __func__.24
000000000000725c l     O .rodata	0000000000000010 __func__.22
0000000000001908 l     F .text	00000000000000d4 get_next_in_order
0000000000007120 l     O .rodata	0000000000000012 __func__.5
00000000000019dc l     F .text	0000000000000044 read_dyn
0000000000001a20 l     F .text	00000000000000ec save_soname_from_segment
000000000000719f l     O .rodata	0000000000000019 __func__.12
0000000000001b0c l     F .text	0000000000000434 save_symtab
00000000000071d8 l     O .rodata	0000000000000010 __func__.15
00000000000071e8 l     O .rodata	0000000000000010 __func__.16
00000000000071b8 l     O .rodata	0000000000000012 __func__.13
0000000000001f40 l     F .text	0000000000000128 get_init_fini_array.constprop.0
00000000000070e2 l     O .rodata	0000000000000014 __func__.2
0000000000002068 l     F .text	0000000000000094 elf_get_init_fini_array.constprop.0
0000000000002144 l     F .text	000000000000005c queue_elf
00000000000072f0 l     O .rodata	000000000000000a __func__.34
00000000000021a0 l     F .text	00000000000001a0 add_deps_from_segment
000000000000722d l     O .rodata	0000000000000016 __func__.20
0000000000002340 l     F .text	0000000000000080 add_dependencies
00000000000072fa l     O .rodata	0000000000000011 __func__.35
0000000000008158 l     O .data	0000000000000008 next_offs.30
00000000000072a0 l     O .rodata	0000000000000014 __func__.28
0000000000007243 l     O .rodata	0000000000000019 __func__.21
00000000000072e6 l     O .rodata	000000000000000a __func__.33
0000000000008200 l     O .bss	0000000000000008 ta_stack_size
0000000000007161 l     O .rodata	0000000000000017 __func__.9
0000000000007148 l     O .rodata	0000000000000019 __func__.8
0000000000007132 l     O .rodata	0000000000000016 __func__.7
00000000000070ff l     O .rodata	0000000000000021 __func__.4
00000000000070f6 l     O .rodata	0000000000000009 __func__.3
00000000000070c9 l     O .rodata	0000000000000019 __func__.1
00000000000070b6 l     O .rodata	0000000000000013 __func__.0
0000000000007178 l     O .rodata	000000000000001a __func__.10
0000000000000000 l    df *ABS*	0000000000000000 ta_elf_rel.c
0000000000003338 l     F .text	00000000000001dc check_found_sym
000000000000760a l     O .rodata	0000000000000010 __func__.7
00000000000075fe l     O .rodata	000000000000000c __func__.6
0000000000003514 l     F .text	0000000000000234 resolve_sym_helper
000000000000761a l     O .rodata	0000000000000013 __func__.8
0000000000003748 l     F .text	00000000000000b0 e32_get_sym_name.constprop.0.isra.0
00000000000075e0 l     O .rodata	0000000000000011 __func__.4
00000000000037f8 l     F .text	00000000000000ac e64_get_sym_name.constprop.0.isra.0
00000000000075a3 l     O .rodata	0000000000000011 __func__.0
0000000000003960 l     F .text	0000000000000070 resolve_sym
00000000000075d4 l     O .rodata	000000000000000c __func__.3
00000000000039d0 l     F .text	0000000000000054 e32_process_dyn_rel
0000000000003a24 l     F .text	0000000000000054 e64_process_dyn_rela
0000000000003a78 l     F .text	0000000000000080 e64_process_tls_tprel_rela
00000000000075f1 l     O .rodata	000000000000000d __func__.5
00000000000075c1 l     O .rodata	0000000000000013 __func__.2
00000000000075b4 l     O .rodata	000000000000000d __func__.1
0000000000000000 l    df *ABS*	0000000000000000 unwind_arm32.c
00000000000043a8 l     F .text	000000000000005c pop_vsp
0000000000004404 l     F .text	0000000000000088 unwind_exec_read_byte
0000000000000000 l    df *ABS*	0000000000000000 unwind_arm64.c
0000000000000000 l    df *ABS*	0000000000000000 assert.c
0000000000000000 l    df *ABS*	0000000000000000 tee_uuid_from_str.c
0000000000004ae0 l     F .text	0000000000000084 parse_hex
0000000000000000 l    df *ABS*	0000000000000000 utee_syscalls_a64.o
0000000000000000 l    df *ABS*	0000000000000000 bget_malloc.c
0000000000004cd4 l     F .text	0000000000000038 raw_malloc_return_hook
0000000000004d0c l     F .text	0000000000000010 _assert_trap
0000000000004d1c l     F .text	0000000000000028 bget_buf_size.part.0
000000000000792c l     O .rodata	000000000000000e __func__.2
000000000000794b l     O .rodata	0000000000000005 __func__.8
0000000000007945 l     O .rodata	0000000000000006 __func__.7
0000000000007940 l     O .rodata	0000000000000005 __func__.5
000000000000793a l     O .rodata	0000000000000006 __func__.4
0000000000008170 l     O .data	0000000000000080 malloc_ctx
00000000000055b8 l     F .text	00000000000000d0 gen_malloc_add_pool
0000000000007918 l     O .rodata	0000000000000014 __func__.1
0000000000000000 l    df *ABS*	0000000000000000 isxdigit.c
0000000000000000 l    df *ABS*	0000000000000000 snprintf.c
0000000000000000 l    df *ABS*	0000000000000000 tolower.c
0000000000000000 l    df *ABS*	0000000000000000 memcmp.c
0000000000000000 l    df *ABS*	0000000000000000 memset.c
0000000000000000 l    df *ABS*	0000000000000000 strcmp.c
0000000000000000 l    df *ABS*	0000000000000000 strcpy.c
0000000000000000 l    df *ABS*	0000000000000000 strnlen.c
0000000000000000 l    df *ABS*	0000000000000000 snprintk.c
0000000000005974 l     F .text	0000000000000be0 kprintf.constprop.0
0000000000007999 l     O .rodata	0000000000000011 hexdigits
0000000000007988 l     O .rodata	0000000000000011 HEXDIGITS
0000000000000000 l    df *ABS*	0000000000000000 trace.c
00000000000079c4 l     O .rodata	0000000000000005 lvl_strs.0
0000000000000000 l    df *ABS*	0000000000000000 memchr.c
0000000000000000 l    df *ABS*	0000000000000000 strlen.c
0000000000000000 l    df *ABS*	0000000000000000 trace_ext.c
0000000000000000 l    df *ABS*	0000000000000000 
00000000000057fc l     F .text	0000000000000018 strcpy
0000000000005444 l     F .text	0000000000000010 raw_free
00000000000038a4 l     F .text	00000000000000bc ta_elf_resolve_sym
0000000000004b64 l     F .text	0000000000000158 tee_uuid_from_str
00000000000058cc l     F .text	0000000000000058 vsnprintk
0000000000005720 l     F .text	0000000000000054 snprintf
0000000000008000 l     O *ABS*	0000000000000000 _DYNAMIC
0000000000003af8 l     F .text	00000000000008b0 ta_elf_relocate
00000000000020fc l     F .text	0000000000000048 ta_elf_find_elf
0000000000006744 l     F .text	000000000000004c trace_printf
0000000000000070 l     F .text	00000000000000d8 memcpy
00000000000005ec l     F .text	0000000000000010 sys_return_cleanup
0000000000005774 l     F .text	0000000000000014 tolower
0000000000005688 l     F .text	0000000000000018 malloc
00000000000049f8 l     F .text	0000000000000090 print_stack_arm64
0000000000000668 l     F .text	0000000000000004 sys_remap
000000000000297c l     F .text	0000000000000260 ta_elf_print_mappings
00000000000053f0 l     F .text	0000000000000054 raw_malloc
000000000000501c l     F .text	0000000000000084 bgetz
0000000000000550 l     F .text	000000000000009c __panic
0000000000006554 l     F .text	00000000000001f0 trace_vprintf
0000000000004a88 l     F .text	0000000000000044 _assert_log
00000000000056f8 l     F .text	0000000000000028 isxdigit
0000000000005814 l     F .text	0000000000000028 strnlen
0000000000002c60 l     F .text	0000000000000048 ta_elf_stack_trace_a32
00000000000056a0 l     F .text	000000000000001c calloc
00000000000001ec l     F .text	0000000000000060 dlopen_entry
0000000000000618 l     F .text	0000000000000004 sys_unmap
0000000000006790 l     F .text	000000000000002c memchr
0000000000002f84 l     F .text	0000000000000238 ta_elf_set_elf_phdr_info
0000000000004954 l     F .text	0000000000000004 ftrace_map_lr
00000000000028ec l     F .text	0000000000000090 ta_elf_finalize_mappings
000000000000328c l     F .text	00000000000000ac ta_elf_add_library
00000000000056bc l     F .text	0000000000000018 realloc
000000000000024c l     F .text	0000000000000068 dlsym_entry
0000000000005788 l     F .text	0000000000000034 memcmp
00000000000056e4 l     F .text	0000000000000014 malloc_add_pool
00000000000054c4 l     F .text	00000000000000f4 raw_realloc
00000000000031bc l     F .text	00000000000000d0 ta_elf_finalize_load_main
000000000000532c l     F .text	00000000000000c4 bpool
000000000000061c l     F .text	000000000000000c sys_open_ta_bin
0000000000004958 l     F .text	0000000000000004 pauth_strip_pac
00000000000057bc l     F .text	000000000000001c memset
0000000000002bdc l     F .text	0000000000000084 find_exidx
00000000000057d8 l     F .text	0000000000000024 strcmp
0000000000000628 l     F .text	0000000000000008 sys_close_ta_bin
00000000000048d0 l     F .text	0000000000000084 print_stack_arm32
0000000000002ca8 l     F .text	0000000000000030 ta_elf_stack_trace_a64
0000000000005924 l     F .text	0000000000000050 snprintk
000000000000448c l     F .text	0000000000000444 unwind_stack_arm32
0000000000004d44 l     F .text	00000000000002d8 bget
00000000000005fc l     F .text	000000000000001c sys_map_zi
0000000000000630 l     F .text	000000000000001c sys_map_ta_bin
000000000000042c l     F .text	0000000000000124 ldelf
0000000000004acc l     F .text	0000000000000014 _assert_break
0000000000008128 l     O *ABS*	0000000000000000 _GLOBAL_OFFSET_TABLE_
0000000000002800 l     F .text	00000000000000ec ta_elf_load_dependency
000000000000583c l     F .text	0000000000000090 __vsnprintf
000000000000066c l     F .text	0000000000000004 sys_gen_random_num
00000000000067d8 l     F .text	0000000000000028 trace_ext_puts
0000000000006800 l     F .text	0000000000000008 trace_ext_get_thread_id
0000000000000660 l     F .text	0000000000000008 sys_set_prot
0000000000005454 l     F .text	0000000000000070 raw_calloc
000000000000495c l     F .text	000000000000009c unwind_stack_arm64
00000000000067bc l     F .text	000000000000001c strlen
00000000000050a0 l     F .text	000000000000028c brel
00000000000023c0 l     F .text	0000000000000440 ta_elf_load_main
0000000000002cd8 l     F .text	00000000000002ac ta_elf_set_init_fini_info_compat
000000000000064c l     F .text	0000000000000014 sys_copy_from_ta_bin
00000000000056d4 l     F .text	0000000000000010 free
0000000000007a58 g       .rela.got	0000000000000000 __reloc_begin
00000000000001cc g     F .text	000000000000000c _ldelf_remap
0000000000008160 g     O .data	0000000000000010 .hidden main_elf_queue
0000000000000000 g       .text	0000000000000000 __text_start
00000000000001b4 g     F .text	000000000000000c _ldelf_cp_from_bin
0000000000000154 g     F .text	000000000000000c _ldelf_return
0000000000000148 g     F .text	000000000000000c _ldelf_panic
00000000000081f0 g     O .data	0000000000000004 .hidden trace_level
0000000000006944 g     O .rodata	0000000000000003 .hidden trace_ext_prefix
0000000000000160 g     F .text	000000000000000c _ldelf_log
00000000000001a8 g     F .text	000000000000000c _ldelf_map_bin
0000000000004cc8 g     F .text	000000000000000c __utee_panic
0000000000004cbc g     F .text	000000000000000c _utee_panic
0000000000007b00 g       .rela.dyn	0000000000000000 __reloc_end
00000000000001d8 g     F .text	000000000000000c _ldelf_gen_rnd_num
0000000000000000 g     F .text	0000000000000064 _ldelf_start
000000000000019c g     F .text	000000000000000c _ldelf_close_bin
0000000000006808 g       .text	0000000000000000 __text_end
0000000000000184 g     F .text	000000000000000c _ldelf_unmap
00000000000001e4 g     F .text	0000000000000008 tlsdesc_resolve
0000000000000190 g     F .text	000000000000000c _ldelf_open_bin
00000000000001c0 g     F .text	000000000000000c _ldelf_set_prot
0000000000000178 g     F .text	000000000000000c _ldelf_map_zi
000000000000016c g     F .text	000000000000000c __ldelf_panic



Disassembly of section .text:

0000000000000000 <_ldelf_start>:
_ldelf_start():
/media/home/beste/01_Pro/ld25x/bsp_hu/MYD-LD25X-Uboot-L2022.10-V1.0.0/GEN_FIP/myir-st-optee/ldelf/start_a64.S:24
       0:	100002e4 	adr	x4, 5c <reloc_begin_rel>
/media/home/beste/01_Pro/ld25x/bsp_hu/MYD-LD25X-Uboot-L2022.10-V1.0.0/GEN_FIP/myir-st-optee/ldelf/start_a64.S:25
       4:	180002c5 	ldr	w5, 5c <reloc_begin_rel>
/media/home/beste/01_Pro/ld25x/bsp_hu/MYD-LD25X-Uboot-L2022.10-V1.0.0/GEN_FIP/myir-st-optee/ldelf/start_a64.S:26
       8:	180002c6 	ldr	w6, 60 <reloc_end_rel>
/media/home/beste/01_Pro/ld25x/bsp_hu/MYD-LD25X-Uboot-L2022.10-V1.0.0/GEN_FIP/myir-st-optee/ldelf/start_a64.S:27
       c:	8b0400a5 	add	x5, x5, x4
/media/home/beste/01_Pro/ld25x/bsp_hu/MYD-LD25X-Uboot-L2022.10-V1.0.0/GEN_FIP/myir-st-optee/ldelf/start_a64.S:28
      10:	8b0400c6 	add	x6, x6, x4
/media/home/beste/01_Pro/ld25x/bsp_hu/MYD-LD25X-Uboot-L2022.10-V1.0.0/GEN_FIP/myir-st-optee/ldelf/start_a64.S:29
      14:	eb0600bf 	cmp	x5, x6
/media/home/beste/01_Pro/ld25x/bsp_hu/MYD-LD25X-Uboot-L2022.10-V1.0.0/GEN_FIP/myir-st-optee/ldelf/start_a64.S:30
      18:	54000180 	b.eq	48 <_ldelf_start+0x48>  // b.none
/media/home/beste/01_Pro/ld25x/bsp_hu/MYD-LD25X-Uboot-L2022.10-V1.0.0/GEN_FIP/myir-st-optee/ldelf/start_a64.S:32
      1c:	10ffff24 	adr	x4, 0 <_ldelf_start>
/media/home/beste/01_Pro/ld25x/bsp_hu/MYD-LD25X-Uboot-L2022.10-V1.0.0/GEN_FIP/myir-st-optee/ldelf/start_a64.S:35
      20:	a8c120a7 	ldp	x7, x8, [x5], #16
/media/home/beste/01_Pro/ld25x/bsp_hu/MYD-LD25X-Uboot-L2022.10-V1.0.0/GEN_FIP/myir-st-optee/ldelf/start_a64.S:36
      24:	f84084a9 	ldr	x9, [x5], #8
/media/home/beste/01_Pro/ld25x/bsp_hu/MYD-LD25X-Uboot-L2022.10-V1.0.0/GEN_FIP/myir-st-optee/ldelf/start_a64.S:37
      28:	92407d08 	and	x8, x8, #0xffffffff
/media/home/beste/01_Pro/ld25x/bsp_hu/MYD-LD25X-Uboot-L2022.10-V1.0.0/GEN_FIP/myir-st-optee/ldelf/start_a64.S:38
      2c:	f1100d1f 	cmp	x8, #0x403
/media/home/beste/01_Pro/ld25x/bsp_hu/MYD-LD25X-Uboot-L2022.10-V1.0.0/GEN_FIP/myir-st-optee/ldelf/start_a64.S:40
      30:	54000121 	b.ne	54 <_ldelf_start+0x54>  // b.any
/media/home/beste/01_Pro/ld25x/bsp_hu/MYD-LD25X-Uboot-L2022.10-V1.0.0/GEN_FIP/myir-st-optee/ldelf/start_a64.S:46
      34:	8b0400e7 	add	x7, x7, x4
/media/home/beste/01_Pro/ld25x/bsp_hu/MYD-LD25X-Uboot-L2022.10-V1.0.0/GEN_FIP/myir-st-optee/ldelf/start_a64.S:47
      38:	8b040129 	add	x9, x9, x4
/media/home/beste/01_Pro/ld25x/bsp_hu/MYD-LD25X-Uboot-L2022.10-V1.0.0/GEN_FIP/myir-st-optee/ldelf/start_a64.S:48
      3c:	f90000e9 	str	x9, [x7]
/media/home/beste/01_Pro/ld25x/bsp_hu/MYD-LD25X-Uboot-L2022.10-V1.0.0/GEN_FIP/myir-st-optee/ldelf/start_a64.S:50
      40:	eb0600bf 	cmp	x5, x6
/media/home/beste/01_Pro/ld25x/bsp_hu/MYD-LD25X-Uboot-L2022.10-V1.0.0/GEN_FIP/myir-st-optee/ldelf/start_a64.S:51
      44:	54fffee3 	b.cc	20 <_ldelf_start+0x20>  // b.lo, b.ul, b.last
/media/home/beste/01_Pro/ld25x/bsp_hu/MYD-LD25X-Uboot-L2022.10-V1.0.0/GEN_FIP/myir-st-optee/ldelf/start_a64.S:53
      48:	940000f9 	bl	42c <ldelf>
/media/home/beste/01_Pro/ld25x/bsp_hu/MYD-LD25X-Uboot-L2022.10-V1.0.0/GEN_FIP/myir-st-optee/ldelf/start_a64.S:54
      4c:	d2800000 	mov	x0, #0x0                   	// #0
/media/home/beste/01_Pro/ld25x/bsp_hu/MYD-LD25X-Uboot-L2022.10-V1.0.0/GEN_FIP/myir-st-optee/ldelf/start_a64.S:55
      50:	94000041 	bl	154 <_ldelf_return>
/media/home/beste/01_Pro/ld25x/bsp_hu/MYD-LD25X-Uboot-L2022.10-V1.0.0/GEN_FIP/myir-st-optee/ldelf/start_a64.S:56
      54:	d2800000 	mov	x0, #0x0                   	// #0
/media/home/beste/01_Pro/ld25x/bsp_hu/MYD-LD25X-Uboot-L2022.10-V1.0.0/GEN_FIP/myir-st-optee/ldelf/start_a64.S:57
      58:	9400003c 	bl	148 <_ldelf_panic>

000000000000005c <reloc_begin_rel>:
      5c:	000079fc 	.word	0x000079fc

0000000000000060 <reloc_end_rel>:
      60:	00007aa0 	.word	0x00007aa0
	...

0000000000000070 <memcpy>:
raw_memalign():
/media/home/beste/01_Pro/ld25x/bsp_hu/MYD-LD25X-Uboot-L2022.10-V1.0.0/GEN_FIP/myir-st-optee/lib/libutils/isoc/bget_malloc.c:369
      70:	aa0003e5 	mov	x5, x0
bpool_foreach_pool():
/media/home/beste/01_Pro/ld25x/bsp_hu/MYD-LD25X-Uboot-L2022.10-V1.0.0/GEN_FIP/myir-st-optee/lib/libutils/isoc/bget_malloc.c:406
      74:	f1007c5f 	cmp	x2, #0x1f
      78:	540004c9 	b.ls	110 <memcpy+0xa0>  // b.plast
      7c:	aa010006 	orr	x6, x0, x1
/media/home/beste/01_Pro/ld25x/bsp_hu/MYD-LD25X-Uboot-L2022.10-V1.0.0/GEN_FIP/myir-st-optee/lib/libutils/isoc/bget_malloc.c:913
      80:	f24008c6 	ands	x6, x6, #0x7
/media/home/beste/01_Pro/ld25x/bsp_hu/MYD-LD25X-Uboot-L2022.10-V1.0.0/GEN_FIP/myir-st-optee/lib/libutils/isoc/bget_malloc.c:1005
      84:	540005a1 	b.ne	138 <memcpy+0xc8>  // b.any
      88:	d1008048 	sub	x8, x2, #0x20
/media/home/beste/01_Pro/ld25x/bsp_hu/MYD-LD25X-Uboot-L2022.10-V1.0.0/GEN_FIP/myir-st-optee/lib/libutils/isoc/bget_malloc.c:382
      8c:	aa0103e4 	mov	x4, x1
      90:	927be908 	and	x8, x8, #0xffffffffffffffe0
      94:	aa0003e3 	mov	x3, x0
      98:	91008108 	add	x8, x8, #0x20
      9c:	8b080005 	add	x5, x0, x8
      a0:	f9400087 	ldr	x7, [x4]
      a4:	f9000067 	str	x7, [x3]
      a8:	91008084 	add	x4, x4, #0x20
      ac:	91008063 	add	x3, x3, #0x20
      b0:	f85e8087 	ldur	x7, [x4, #-24]
      b4:	f81e8067 	stur	x7, [x3, #-24]
      b8:	f85f0087 	ldur	x7, [x4, #-16]
/media/home/beste/01_Pro/ld25x/bsp_hu/MYD-LD25X-Uboot-L2022.10-V1.0.0/GEN_FIP/myir-st-optee/lib/libutils/isoc/bget_malloc.c:383
      bc:	f81f0067 	stur	x7, [x3, #-16]
      c0:	f85f8087 	ldur	x7, [x4, #-8]
      c4:	f81f8067 	stur	x7, [x3, #-8]
      c8:	eb05007f 	cmp	x3, x5
      cc:	54fffea1 	b.ne	a0 <memcpy+0x30>  // b.any
bget_buf_size():
/media/home/beste/01_Pro/ld25x/bsp_hu/MYD-LD25X-Uboot-L2022.10-V1.0.0/GEN_FIP/myir-st-optee/lib/libutils/isoc/bget_malloc.c:383
      d0:	8b080021 	add	x1, x1, x8
      d4:	92401043 	and	x3, x2, #0x1f
      d8:	f27d045f 	tst	x2, #0x18
      dc:	54000320 	b.eq	140 <memcpy+0xd0>  // b.none
bpool_foreach():
/media/home/beste/01_Pro/ld25x/bsp_hu/MYD-LD25X-Uboot-L2022.10-V1.0.0/GEN_FIP/myir-st-optee/lib/libutils/isoc/bget_malloc.c:383
      e0:	f8666824 	ldr	x4, [x1, x6]
      e4:	f82668a4 	str	x4, [x5, x6]
gen_malloc_buffer_is_within_alloced():
/media/home/beste/01_Pro/ld25x/bsp_hu/MYD-LD25X-Uboot-L2022.10-V1.0.0/GEN_FIP/myir-st-optee/lib/libutils/isoc/bget_malloc.c:383
      e8:	910020c6 	add	x6, x6, #0x8
/media/home/beste/01_Pro/ld25x/bsp_hu/MYD-LD25X-Uboot-L2022.10-V1.0.0/GEN_FIP/myir-st-optee/lib/libutils/isoc/bget_malloc.c:389
      ec:	cb060064 	sub	x4, x3, x6
/media/home/beste/01_Pro/ld25x/bsp_hu/MYD-LD25X-Uboot-L2022.10-V1.0.0/GEN_FIP/myir-st-optee/lib/libutils/isoc/bget_malloc.c:401
      f0:	f1001c9f 	cmp	x4, #0x7
/media/home/beste/01_Pro/ld25x/bsp_hu/MYD-LD25X-Uboot-L2022.10-V1.0.0/GEN_FIP/myir-st-optee/lib/libutils/isoc/bget_malloc.c:410
      f4:	54ffff68 	b.hi	e0 <memcpy+0x70>  // b.pmore
bpool_foreach_pool():
/media/home/beste/01_Pro/ld25x/bsp_hu/MYD-LD25X-Uboot-L2022.10-V1.0.0/GEN_FIP/myir-st-optee/lib/libutils/isoc/bget_malloc.c:410
      f8:	d1002063 	sub	x3, x3, #0x8
      fc:	92400842 	and	x2, x2, #0x7
/media/home/beste/01_Pro/ld25x/bsp_hu/MYD-LD25X-Uboot-L2022.10-V1.0.0/GEN_FIP/myir-st-optee/lib/libutils/isoc/bget_malloc.c:913
     100:	927df063 	and	x3, x3, #0xfffffffffffffff8
malloc_buffer_is_within_alloced():
/media/home/beste/01_Pro/ld25x/bsp_hu/MYD-LD25X-Uboot-L2022.10-V1.0.0/GEN_FIP/myir-st-optee/lib/libutils/isoc/bget_malloc.c:1005
     104:	91002063 	add	x3, x3, #0x8
/media/home/beste/01_Pro/ld25x/bsp_hu/MYD-LD25X-Uboot-L2022.10-V1.0.0/GEN_FIP/myir-st-optee/lib/libutils/isoc/bget_malloc.c:1003
     108:	8b0300a5 	add	x5, x5, x3
     10c:	8b030021 	add	x1, x1, x3
gen_malloc_buffer_is_within_alloced():
/media/home/beste/01_Pro/ld25x/bsp_hu/MYD-LD25X-Uboot-L2022.10-V1.0.0/GEN_FIP/myir-st-optee/lib/libutils/isoc/bget_malloc.c:372
     110:	d1000446 	sub	x6, x2, #0x1
/media/home/beste/01_Pro/ld25x/bsp_hu/MYD-LD25X-Uboot-L2022.10-V1.0.0/GEN_FIP/myir-st-optee/lib/libutils/isoc/bget_malloc.c:386
     114:	b4000102 	cbz	x2, 134 <memcpy+0xc4>
/media/home/beste/01_Pro/ld25x/bsp_hu/MYD-LD25X-Uboot-L2022.10-V1.0.0/GEN_FIP/myir-st-optee/lib/libutils/isoc/bget_malloc.c:389
     118:	d2800002 	mov	x2, #0x0                   	// #0
/media/home/beste/01_Pro/ld25x/bsp_hu/MYD-LD25X-Uboot-L2022.10-V1.0.0/GEN_FIP/myir-st-optee/lib/libutils/isoc/bget_malloc.c:207
     11c:	d503201f 	nop
/media/home/beste/01_Pro/ld25x/bsp_hu/MYD-LD25X-Uboot-L2022.10-V1.0.0/GEN_FIP/myir-st-optee/lib/libutils/isoc/bget_malloc.c:208
     120:	38626824 	ldrb	w4, [x1, x2]
     124:	eb0200df 	cmp	x6, x2
     128:	382268a4 	strb	w4, [x5, x2]
memcpy():
/media/home/beste/01_Pro/ld25x/bsp_hu/MYD-LD25X-Uboot-L2022.10-V1.0.0/GEN_FIP/myir-st-optee/lib/libutils/isoc/newlib/memcpy.c:130
     12c:	91000442 	add	x2, x2, #0x1
     130:	54ffff81 	b.ne	120 <memcpy+0xb0>  // b.any
/media/home/beste/01_Pro/ld25x/bsp_hu/MYD-LD25X-Uboot-L2022.10-V1.0.0/GEN_FIP/myir-st-optee/lib/libutils/isoc/newlib/memcpy.c:135
     134:	d65f03c0 	ret
/media/home/beste/01_Pro/ld25x/bsp_hu/MYD-LD25X-Uboot-L2022.10-V1.0.0/GEN_FIP/myir-st-optee/lib/libutils/isoc/newlib/memcpy.c:130
     138:	d1000446 	sub	x6, x2, #0x1
     13c:	17fffff7 	b	118 <memcpy+0xa8>
/media/home/beste/01_Pro/ld25x/bsp_hu/MYD-LD25X-Uboot-L2022.10-V1.0.0/GEN_FIP/myir-st-optee/lib/libutils/isoc/newlib/memcpy.c:116
     140:	aa0303e2 	mov	x2, x3
     144:	17fffff3 	b	110 <memcpy+0xa0>

0000000000000148 <_ldelf_panic>:
_ldelf_panic():
/media/home/beste/01_Pro/ld25x/bsp_hu/MYD-LD25X-Uboot-L2022.10-V1.0.0/GEN_FIP/myir-st-optee/ldelf/syscalls_a64.S:25
     148:	a9bf7bfd 	stp	x29, x30, [sp, #-16]!
/media/home/beste/01_Pro/ld25x/bsp_hu/MYD-LD25X-Uboot-L2022.10-V1.0.0/GEN_FIP/myir-st-optee/ldelf/syscalls_a64.S:26
     14c:	910003e1 	mov	x1, sp
/media/home/beste/01_Pro/ld25x/bsp_hu/MYD-LD25X-Uboot-L2022.10-V1.0.0/GEN_FIP/myir-st-optee/ldelf/syscalls_a64.S:27
     150:	94000007 	bl	16c <__ldelf_panic>

0000000000000154 <_ldelf_return>:
_ldelf_return():
/media/home/beste/01_Pro/ld25x/bsp_hu/MYD-LD25X-Uboot-L2022.10-V1.0.0/GEN_FIP/myir-st-optee/ldelf/syscalls_asm.S:9
     154:	d2800008 	mov	x8, #0x0                   	// #0
     158:	d4000001 	svc	#0x0
     15c:	d65f03c0 	ret

0000000000000160 <_ldelf_log>:
_ldelf_log():
/media/home/beste/01_Pro/ld25x/bsp_hu/MYD-LD25X-Uboot-L2022.10-V1.0.0/GEN_FIP/myir-st-optee/ldelf/syscalls_asm.S:10
     160:	d2800028 	mov	x8, #0x1                   	// #1
     164:	d4000001 	svc	#0x0
     168:	d65f03c0 	ret

000000000000016c <__ldelf_panic>:
__ldelf_panic():
/media/home/beste/01_Pro/ld25x/bsp_hu/MYD-LD25X-Uboot-L2022.10-V1.0.0/GEN_FIP/myir-st-optee/ldelf/syscalls_asm.S:11
     16c:	d2800048 	mov	x8, #0x2                   	// #2
     170:	d4000001 	svc	#0x0
     174:	d65f03c0 	ret

0000000000000178 <_ldelf_map_zi>:
_ldelf_map_zi():
/media/home/beste/01_Pro/ld25x/bsp_hu/MYD-LD25X-Uboot-L2022.10-V1.0.0/GEN_FIP/myir-st-optee/ldelf/syscalls_asm.S:12
     178:	d2800068 	mov	x8, #0x3                   	// #3
     17c:	d4000001 	svc	#0x0
     180:	d65f03c0 	ret

0000000000000184 <_ldelf_unmap>:
_ldelf_unmap():
/media/home/beste/01_Pro/ld25x/bsp_hu/MYD-LD25X-Uboot-L2022.10-V1.0.0/GEN_FIP/myir-st-optee/ldelf/syscalls_asm.S:13
     184:	d2800088 	mov	x8, #0x4                   	// #4
     188:	d4000001 	svc	#0x0
     18c:	d65f03c0 	ret

0000000000000190 <_ldelf_open_bin>:
_ldelf_open_bin():
/media/home/beste/01_Pro/ld25x/bsp_hu/MYD-LD25X-Uboot-L2022.10-V1.0.0/GEN_FIP/myir-st-optee/ldelf/syscalls_asm.S:14
     190:	d28000a8 	mov	x8, #0x5                   	// #5
     194:	d4000001 	svc	#0x0
     198:	d65f03c0 	ret

000000000000019c <_ldelf_close_bin>:
_ldelf_close_bin():
/media/home/beste/01_Pro/ld25x/bsp_hu/MYD-LD25X-Uboot-L2022.10-V1.0.0/GEN_FIP/myir-st-optee/ldelf/syscalls_asm.S:15
     19c:	d28000c8 	mov	x8, #0x6                   	// #6
     1a0:	d4000001 	svc	#0x0
     1a4:	d65f03c0 	ret

00000000000001a8 <_ldelf_map_bin>:
_ldelf_map_bin():
/media/home/beste/01_Pro/ld25x/bsp_hu/MYD-LD25X-Uboot-L2022.10-V1.0.0/GEN_FIP/myir-st-optee/ldelf/syscalls_asm.S:16
     1a8:	d28000e8 	mov	x8, #0x7                   	// #7
     1ac:	d4000001 	svc	#0x0
     1b0:	d65f03c0 	ret

00000000000001b4 <_ldelf_cp_from_bin>:
_ldelf_cp_from_bin():
/media/home/beste/01_Pro/ld25x/bsp_hu/MYD-LD25X-Uboot-L2022.10-V1.0.0/GEN_FIP/myir-st-optee/ldelf/syscalls_asm.S:17
     1b4:	d2800108 	mov	x8, #0x8                   	// #8
     1b8:	d4000001 	svc	#0x0
     1bc:	d65f03c0 	ret

00000000000001c0 <_ldelf_set_prot>:
_ldelf_set_prot():
/media/home/beste/01_Pro/ld25x/bsp_hu/MYD-LD25X-Uboot-L2022.10-V1.0.0/GEN_FIP/myir-st-optee/ldelf/syscalls_asm.S:18
     1c0:	d2800128 	mov	x8, #0x9                   	// #9
     1c4:	d4000001 	svc	#0x0
     1c8:	d65f03c0 	ret

00000000000001cc <_ldelf_remap>:
_ldelf_remap():
/media/home/beste/01_Pro/ld25x/bsp_hu/MYD-LD25X-Uboot-L2022.10-V1.0.0/GEN_FIP/myir-st-optee/ldelf/syscalls_asm.S:19
     1cc:	d2800148 	mov	x8, #0xa                   	// #10
     1d0:	d4000001 	svc	#0x0
     1d4:	d65f03c0 	ret

00000000000001d8 <_ldelf_gen_rnd_num>:
_ldelf_gen_rnd_num():
/media/home/beste/01_Pro/ld25x/bsp_hu/MYD-LD25X-Uboot-L2022.10-V1.0.0/GEN_FIP/myir-st-optee/ldelf/syscalls_asm.S:20
     1d8:	d2800168 	mov	x8, #0xb                   	// #11
     1dc:	d4000001 	svc	#0x0
     1e0:	d65f03c0 	ret

00000000000001e4 <tlsdesc_resolve>:
tlsdesc_resolve():
/media/home/beste/01_Pro/ld25x/bsp_hu/MYD-LD25X-Uboot-L2022.10-V1.0.0/GEN_FIP/myir-st-optee/ldelf/tlsdesc_rel_a64.S:17
     1e4:	f9400400 	ldr	x0, [x0, #8]
/media/home/beste/01_Pro/ld25x/bsp_hu/MYD-LD25X-Uboot-L2022.10-V1.0.0/GEN_FIP/myir-st-optee/ldelf/tlsdesc_rel_a64.S:18
     1e8:	d65f03c0 	ret

00000000000001ec <dlopen_entry>:
dlopen_entry():
/media/home/beste/01_Pro/ld25x/bsp_hu/MYD-LD25X-Uboot-L2022.10-V1.0.0/GEN_FIP/myir-st-optee/ldelf/dl.c:12
     1ec:	a9bd7bfd 	stp	x29, x30, [sp, #-48]!
/media/home/beste/01_Pro/ld25x/bsp_hu/MYD-LD25X-Uboot-L2022.10-V1.0.0/GEN_FIP/myir-st-optee/ldelf/dl.c:15
     1f0:	52822041 	mov	w1, #0x1102                	// #4354
/media/home/beste/01_Pro/ld25x/bsp_hu/MYD-LD25X-Uboot-L2022.10-V1.0.0/GEN_FIP/myir-st-optee/ldelf/dl.c:12
     1f4:	910003fd 	mov	x29, sp
/media/home/beste/01_Pro/ld25x/bsp_hu/MYD-LD25X-Uboot-L2022.10-V1.0.0/GEN_FIP/myir-st-optee/ldelf/dl.c:15
     1f8:	b9401802 	ldr	w2, [x0, #24]
/media/home/beste/01_Pro/ld25x/bsp_hu/MYD-LD25X-Uboot-L2022.10-V1.0.0/GEN_FIP/myir-st-optee/ldelf/dl.c:12
     1fc:	f9000bf3 	str	x19, [sp, #16]
/media/home/beste/01_Pro/ld25x/bsp_hu/MYD-LD25X-Uboot-L2022.10-V1.0.0/GEN_FIP/myir-st-optee/ldelf/dl.c:13
     200:	a9027fff 	stp	xzr, xzr, [sp, #32]
/media/home/beste/01_Pro/ld25x/bsp_hu/MYD-LD25X-Uboot-L2022.10-V1.0.0/GEN_FIP/myir-st-optee/ldelf/dl.c:15
     204:	6b01005f 	cmp	w2, w1
     208:	54000161 	b.ne	234 <dlopen_entry+0x48>  // b.any
/media/home/beste/01_Pro/ld25x/bsp_hu/MYD-LD25X-Uboot-L2022.10-V1.0.0/GEN_FIP/myir-st-optee/ldelf/dl.c:18
     20c:	91002013 	add	x19, x0, #0x8
     210:	910083e1 	add	x1, sp, #0x20
     214:	aa1303e0 	mov	x0, x19
     218:	d2800202 	mov	x2, #0x10                  	// #16
     21c:	9400155b 	bl	5788 <memcmp>
     220:	34000120 	cbz	w0, 244 <dlopen_entry+0x58>
/media/home/beste/01_Pro/ld25x/bsp_hu/MYD-LD25X-Uboot-L2022.10-V1.0.0/GEN_FIP/myir-st-optee/ldelf/dl.c:21
     224:	aa1303e0 	mov	x0, x19
/media/home/beste/01_Pro/ld25x/bsp_hu/MYD-LD25X-Uboot-L2022.10-V1.0.0/GEN_FIP/myir-st-optee/ldelf/dl.c:22
     228:	f9400bf3 	ldr	x19, [sp, #16]
     22c:	a8c37bfd 	ldp	x29, x30, [sp], #48
/media/home/beste/01_Pro/ld25x/bsp_hu/MYD-LD25X-Uboot-L2022.10-V1.0.0/GEN_FIP/myir-st-optee/ldelf/dl.c:21
     230:	14000c17 	b	328c <ta_elf_add_library>
/media/home/beste/01_Pro/ld25x/bsp_hu/MYD-LD25X-Uboot-L2022.10-V1.0.0/GEN_FIP/myir-st-optee/ldelf/dl.c:16
     234:	129fff20 	mov	w0, #0xffff0006            	// #-65530
/media/home/beste/01_Pro/ld25x/bsp_hu/MYD-LD25X-Uboot-L2022.10-V1.0.0/GEN_FIP/myir-st-optee/ldelf/dl.c:22
     238:	f9400bf3 	ldr	x19, [sp, #16]
     23c:	a8c37bfd 	ldp	x29, x30, [sp], #48
     240:	d65f03c0 	ret
/media/home/beste/01_Pro/ld25x/bsp_hu/MYD-LD25X-Uboot-L2022.10-V1.0.0/GEN_FIP/myir-st-optee/ldelf/dl.c:19
     244:	52800000 	mov	w0, #0x0                   	// #0
     248:	17fffffc 	b	238 <dlopen_entry+0x4c>

000000000000024c <dlsym_entry>:
dlsym_entry():
/media/home/beste/01_Pro/ld25x/bsp_hu/MYD-LD25X-Uboot-L2022.10-V1.0.0/GEN_FIP/myir-st-optee/ldelf/dl.c:25
     24c:	a9bd7bfd 	stp	x29, x30, [sp, #-48]!
/media/home/beste/01_Pro/ld25x/bsp_hu/MYD-LD25X-Uboot-L2022.10-V1.0.0/GEN_FIP/myir-st-optee/ldelf/dl.c:29
     250:	d2800202 	mov	x2, #0x10                  	// #16
/media/home/beste/01_Pro/ld25x/bsp_hu/MYD-LD25X-Uboot-L2022.10-V1.0.0/GEN_FIP/myir-st-optee/ldelf/dl.c:25
     254:	910003fd 	mov	x29, sp
     258:	a90153f3 	stp	x19, x20, [sp, #16]
/media/home/beste/01_Pro/ld25x/bsp_hu/MYD-LD25X-Uboot-L2022.10-V1.0.0/GEN_FIP/myir-st-optee/ldelf/dl.c:29
     25c:	91002014 	add	x20, x0, #0x8
/media/home/beste/01_Pro/ld25x/bsp_hu/MYD-LD25X-Uboot-L2022.10-V1.0.0/GEN_FIP/myir-st-optee/ldelf/dl.c:25
     260:	aa0003f3 	mov	x19, x0
/media/home/beste/01_Pro/ld25x/bsp_hu/MYD-LD25X-Uboot-L2022.10-V1.0.0/GEN_FIP/myir-st-optee/ldelf/dl.c:29
     264:	910083e1 	add	x1, sp, #0x20
     268:	aa1403e0 	mov	x0, x20
/media/home/beste/01_Pro/ld25x/bsp_hu/MYD-LD25X-Uboot-L2022.10-V1.0.0/GEN_FIP/myir-st-optee/ldelf/dl.c:27
     26c:	a9027fff 	stp	xzr, xzr, [sp, #32]
/media/home/beste/01_Pro/ld25x/bsp_hu/MYD-LD25X-Uboot-L2022.10-V1.0.0/GEN_FIP/myir-st-optee/ldelf/dl.c:29
     270:	94001546 	bl	5788 <memcmp>
     274:	34000120 	cbz	w0, 298 <dlsym_entry+0x4c>
/media/home/beste/01_Pro/ld25x/bsp_hu/MYD-LD25X-Uboot-L2022.10-V1.0.0/GEN_FIP/myir-st-optee/ldelf/dl.c:30
     278:	aa1403e0 	mov	x0, x20
     27c:	940007a0 	bl	20fc <ta_elf_find_elf>
     280:	aa0003e3 	mov	x3, x0
/media/home/beste/01_Pro/ld25x/bsp_hu/MYD-LD25X-Uboot-L2022.10-V1.0.0/GEN_FIP/myir-st-optee/ldelf/dl.c:31
     284:	b50000c0 	cbnz	x0, 29c <dlsym_entry+0x50>
/media/home/beste/01_Pro/ld25x/bsp_hu/MYD-LD25X-Uboot-L2022.10-V1.0.0/GEN_FIP/myir-st-optee/ldelf/dl.c:37
     288:	a94153f3 	ldp	x19, x20, [sp, #16]
     28c:	129ffee0 	mov	w0, #0xffff0008            	// #-65528
     290:	a8c37bfd 	ldp	x29, x30, [sp], #48
     294:	d65f03c0 	ret
/media/home/beste/01_Pro/ld25x/bsp_hu/MYD-LD25X-Uboot-L2022.10-V1.0.0/GEN_FIP/myir-st-optee/ldelf/dl.c:26
     298:	d2800003 	mov	x3, #0x0                   	// #0
/media/home/beste/01_Pro/ld25x/bsp_hu/MYD-LD25X-Uboot-L2022.10-V1.0.0/GEN_FIP/myir-st-optee/ldelf/dl.c:35
     29c:	91006261 	add	x1, x19, #0x18
     2a0:	91008260 	add	x0, x19, #0x20
/media/home/beste/01_Pro/ld25x/bsp_hu/MYD-LD25X-Uboot-L2022.10-V1.0.0/GEN_FIP/myir-st-optee/ldelf/dl.c:37
     2a4:	a94153f3 	ldp	x19, x20, [sp, #16]
/media/home/beste/01_Pro/ld25x/bsp_hu/MYD-LD25X-Uboot-L2022.10-V1.0.0/GEN_FIP/myir-st-optee/ldelf/dl.c:35
     2a8:	d2800002 	mov	x2, #0x0                   	// #0
/media/home/beste/01_Pro/ld25x/bsp_hu/MYD-LD25X-Uboot-L2022.10-V1.0.0/GEN_FIP/myir-st-optee/ldelf/dl.c:37
     2ac:	a8c37bfd 	ldp	x29, x30, [sp], #48
/media/home/beste/01_Pro/ld25x/bsp_hu/MYD-LD25X-Uboot-L2022.10-V1.0.0/GEN_FIP/myir-st-optee/ldelf/dl.c:35
     2b0:	14000d7d 	b	38a4 <ta_elf_resolve_sym>

00000000000002b4 <dl_entry>:
dl_entry():
/media/home/beste/01_Pro/ld25x/bsp_hu/MYD-LD25X-Uboot-L2022.10-V1.0.0/GEN_FIP/myir-st-optee/ldelf/main.c:107
     2b4:	a9be7bfd 	stp	x29, x30, [sp, #-32]!
     2b8:	910003fd 	mov	x29, sp
/media/home/beste/01_Pro/ld25x/bsp_hu/MYD-LD25X-Uboot-L2022.10-V1.0.0/GEN_FIP/myir-st-optee/ldelf/main.c:108
     2bc:	b9400001 	ldr	w1, [x0]
/media/home/beste/01_Pro/ld25x/bsp_hu/MYD-LD25X-Uboot-L2022.10-V1.0.0/GEN_FIP/myir-st-optee/ldelf/main.c:107
     2c0:	f9000bf3 	str	x19, [sp, #16]
     2c4:	aa0003f3 	mov	x19, x0
/media/home/beste/01_Pro/ld25x/bsp_hu/MYD-LD25X-Uboot-L2022.10-V1.0.0/GEN_FIP/myir-st-optee/ldelf/main.c:108
     2c8:	340000c1 	cbz	w1, 2e0 <dl_entry+0x2c>
     2cc:	7100043f 	cmp	w1, #0x1
     2d0:	540000c0 	b.eq	2e8 <dl_entry+0x34>  // b.none
     2d4:	129ffea0 	mov	w0, #0xffff000a            	// #-65526
/media/home/beste/01_Pro/ld25x/bsp_hu/MYD-LD25X-Uboot-L2022.10-V1.0.0/GEN_FIP/myir-st-optee/ldelf/main.c:110
     2d8:	b9000660 	str	w0, [x19, #4]
/media/home/beste/01_Pro/ld25x/bsp_hu/MYD-LD25X-Uboot-L2022.10-V1.0.0/GEN_FIP/myir-st-optee/ldelf/main.c:119
     2dc:	940000c4 	bl	5ec <sys_return_cleanup>
/media/home/beste/01_Pro/ld25x/bsp_hu/MYD-LD25X-Uboot-L2022.10-V1.0.0/GEN_FIP/myir-st-optee/ldelf/main.c:110
     2e0:	97ffffc3 	bl	1ec <dlopen_entry>
/media/home/beste/01_Pro/ld25x/bsp_hu/MYD-LD25X-Uboot-L2022.10-V1.0.0/GEN_FIP/myir-st-optee/ldelf/main.c:111
     2e4:	17fffffd 	b	2d8 <dl_entry+0x24>
/media/home/beste/01_Pro/ld25x/bsp_hu/MYD-LD25X-Uboot-L2022.10-V1.0.0/GEN_FIP/myir-st-optee/ldelf/main.c:113
     2e8:	97ffffd9 	bl	24c <dlsym_entry>
/media/home/beste/01_Pro/ld25x/bsp_hu/MYD-LD25X-Uboot-L2022.10-V1.0.0/GEN_FIP/myir-st-optee/ldelf/main.c:114
     2ec:	17fffffb 	b	2d8 <dl_entry+0x24>

00000000000002f0 <print_to_console>:
print_to_console():
/media/home/beste/01_Pro/ld25x/bsp_hu/MYD-LD25X-Uboot-L2022.10-V1.0.0/GEN_FIP/myir-st-optee/ldelf/main.c:27
     2f0:	a9bc7bfd 	stp	x29, x30, [sp, #-64]!
/media/home/beste/01_Pro/ld25x/bsp_hu/MYD-LD25X-Uboot-L2022.10-V1.0.0/GEN_FIP/myir-st-optee/ldelf/main.c:28
     2f4:	910083e5 	add	x5, sp, #0x20
/media/home/beste/01_Pro/ld25x/bsp_hu/MYD-LD25X-Uboot-L2022.10-V1.0.0/GEN_FIP/myir-st-optee/ldelf/main.c:27
     2f8:	910003fd 	mov	x29, sp
/media/home/beste/01_Pro/ld25x/bsp_hu/MYD-LD25X-Uboot-L2022.10-V1.0.0/GEN_FIP/myir-st-optee/ldelf/main.c:28
     2fc:	aa0503e0 	mov	x0, x5
/media/home/beste/01_Pro/ld25x/bsp_hu/MYD-LD25X-Uboot-L2022.10-V1.0.0/GEN_FIP/myir-st-optee/ldelf/main.c:27
     300:	f9000bf3 	str	x19, [sp, #16]
     304:	aa0103f3 	mov	x19, x1
     308:	aa0203e1 	mov	x1, x2
/media/home/beste/01_Pro/ld25x/bsp_hu/MYD-LD25X-Uboot-L2022.10-V1.0.0/GEN_FIP/myir-st-optee/ldelf/main.c:28
     30c:	d2800402 	mov	x2, #0x20                  	// #32
     310:	97ffff58 	bl	70 <memcpy>
     314:	aa0003e5 	mov	x5, x0
     318:	aa1303e4 	mov	x4, x19
     31c:	52800023 	mov	w3, #0x1                   	// #1
     320:	52800022 	mov	w2, #0x1                   	// #1
     324:	52800001 	mov	w1, #0x0                   	// #0
     328:	d2800000 	mov	x0, #0x0                   	// #0
     32c:	9400188a 	bl	6554 <trace_vprintf>
/media/home/beste/01_Pro/ld25x/bsp_hu/MYD-LD25X-Uboot-L2022.10-V1.0.0/GEN_FIP/myir-st-optee/ldelf/main.c:29
     330:	f9400bf3 	ldr	x19, [sp, #16]
     334:	a8c47bfd 	ldp	x29, x30, [sp], #64
     338:	d65f03c0 	ret

000000000000033c <dump_ta_state>:
dump_ta_state():
/media/home/beste/01_Pro/ld25x/bsp_hu/MYD-LD25X-Uboot-L2022.10-V1.0.0/GEN_FIP/myir-st-optee/ldelf/main.c:32
     33c:	a9bd7bfd 	stp	x29, x30, [sp, #-48]!
     340:	910003fd 	mov	x29, sp
     344:	a90153f3 	stp	x19, x20, [sp, #16]
/media/home/beste/01_Pro/ld25x/bsp_hu/MYD-LD25X-Uboot-L2022.10-V1.0.0/GEN_FIP/myir-st-optee/ldelf/main.c:33
     348:	90000054 	adrp	x20, 8000 <_DYNAMIC>
     34c:	f9409a94 	ldr	x20, [x20, #304]
/media/home/beste/01_Pro/ld25x/bsp_hu/MYD-LD25X-Uboot-L2022.10-V1.0.0/GEN_FIP/myir-st-optee/ldelf/main.c:32
     350:	f90013f5 	str	x21, [sp, #32]
/media/home/beste/01_Pro/ld25x/bsp_hu/MYD-LD25X-Uboot-L2022.10-V1.0.0/GEN_FIP/myir-st-optee/ldelf/main.c:33
     354:	f9400295 	ldr	x21, [x20]
/media/home/beste/01_Pro/ld25x/bsp_hu/MYD-LD25X-Uboot-L2022.10-V1.0.0/GEN_FIP/myir-st-optee/ldelf/main.c:35
     358:	b4000095 	cbz	x21, 368 <dump_ta_state+0x2c>
     35c:	aa0003f3 	mov	x19, x0
/media/home/beste/01_Pro/ld25x/bsp_hu/MYD-LD25X-Uboot-L2022.10-V1.0.0/GEN_FIP/myir-st-optee/ldelf/main.c:35 (discriminator 2)
     360:	394002a0 	ldrb	w0, [x21]
     364:	35000140 	cbnz	w0, 38c <dump_ta_state+0x50>
_assert_trap():
/media/home/beste/01_Pro/ld25x/bsp_hu/MYD-LD25X-Uboot-L2022.10-V1.0.0/GEN_FIP/myir-st-optee/lib/libutils/isoc/include/assert.h:19
     368:	d0000023 	adrp	x3, 6000 <kprintf.constprop.0+0x68c>
     36c:	d0000021 	adrp	x1, 6000 <kprintf.constprop.0+0x68c>
     370:	91243863 	add	x3, x3, #0x90e
     374:	9122d821 	add	x1, x1, #0x8b6
     378:	d0000020 	adrp	x0, 6000 <kprintf.constprop.0+0x68c>
     37c:	91230c00 	add	x0, x0, #0x8c3
     380:	52800462 	mov	w2, #0x23                  	// #35
     384:	940011c1 	bl	4a88 <_assert_log>
/media/home/beste/01_Pro/ld25x/bsp_hu/MYD-LD25X-Uboot-L2022.10-V1.0.0/GEN_FIP/myir-st-optee/lib/libutils/isoc/include/assert.h:20
     388:	940011d1 	bl	4acc <_assert_break>
dump_ta_state():
/media/home/beste/01_Pro/ld25x/bsp_hu/MYD-LD25X-Uboot-L2022.10-V1.0.0/GEN_FIP/myir-st-optee/ldelf/main.c:36
     38c:	910442a5 	add	x5, x21, #0x110
     390:	52800023 	mov	w3, #0x1                   	// #1
     394:	52800022 	mov	w2, #0x1                   	// #1
     398:	52800001 	mov	w1, #0x0                   	// #0
     39c:	d2800000 	mov	x0, #0x0                   	// #0
     3a0:	d0000024 	adrp	x4, 6000 <kprintf.constprop.0+0x68c>
     3a4:	91235c84 	add	x4, x4, #0x8d7
     3a8:	940018e7 	bl	6744 <trace_printf>
/media/home/beste/01_Pro/ld25x/bsp_hu/MYD-LD25X-Uboot-L2022.10-V1.0.0/GEN_FIP/myir-st-optee/ldelf/main.c:37
     3ac:	394006a1 	ldrb	w1, [x21, #1]
     3b0:	d0000020 	adrp	x0, 6000 <kprintf.constprop.0+0x68c>
     3b4:	d0000025 	adrp	x5, 6000 <kprintf.constprop.0+0x68c>
     3b8:	9122a800 	add	x0, x0, #0x8aa
     3bc:	7100003f 	cmp	w1, #0x0
     3c0:	9122b8a5 	add	x5, x5, #0x8ae
     3c4:	9a8000a5 	csel	x5, x5, x0, eq	// eq = none
     3c8:	52800023 	mov	w3, #0x1                   	// #1
     3cc:	52800022 	mov	w2, #0x1                   	// #1
     3d0:	52800001 	mov	w1, #0x0                   	// #0
     3d4:	d2800000 	mov	x0, #0x0                   	// #0
     3d8:	d0000024 	adrp	x4, 6000 <kprintf.constprop.0+0x68c>
     3dc:	9123a484 	add	x4, x4, #0x8e9
     3e0:	940018d9 	bl	6744 <trace_printf>
/media/home/beste/01_Pro/ld25x/bsp_hu/MYD-LD25X-Uboot-L2022.10-V1.0.0/GEN_FIP/myir-st-optee/ldelf/main.c:40
     3e4:	90000040 	adrp	x0, 8000 <_DYNAMIC>
     3e8:	91014264 	add	x4, x19, #0x50
     3ec:	f9402663 	ldr	x3, [x19, #72]
     3f0:	aa1403e2 	mov	x2, x20
     3f4:	f940fc05 	ldr	x5, [x0, #504]
     3f8:	90000001 	adrp	x1, 0 <_ldelf_start>
     3fc:	d2800000 	mov	x0, #0x0                   	// #0
     400:	910bc021 	add	x1, x1, #0x2f0
     404:	9400095e 	bl	297c <ta_elf_print_mappings>
/media/home/beste/01_Pro/ld25x/bsp_hu/MYD-LD25X-Uboot-L2022.10-V1.0.0/GEN_FIP/myir-st-optee/ldelf/main.c:43
     408:	39410260 	ldrb	w0, [x19, #64]
     40c:	34000080 	cbz	w0, 41c <dump_ta_state+0xe0>
/media/home/beste/01_Pro/ld25x/bsp_hu/MYD-LD25X-Uboot-L2022.10-V1.0.0/GEN_FIP/myir-st-optee/ldelf/main.c:44
     410:	aa1303e0 	mov	x0, x19
     414:	94000a13 	bl	2c60 <ta_elf_stack_trace_a32>
/media/home/beste/01_Pro/ld25x/bsp_hu/MYD-LD25X-Uboot-L2022.10-V1.0.0/GEN_FIP/myir-st-optee/ldelf/main.c:49
     418:	94000075 	bl	5ec <sys_return_cleanup>
/media/home/beste/01_Pro/ld25x/bsp_hu/MYD-LD25X-Uboot-L2022.10-V1.0.0/GEN_FIP/myir-st-optee/ldelf/main.c:46
     41c:	a9400660 	ldp	x0, x1, [x19]
     420:	f9400a62 	ldr	x2, [x19, #16]
     424:	94000a21 	bl	2ca8 <ta_elf_stack_trace_a64>
     428:	17fffffc 	b	418 <dump_ta_state+0xdc>

000000000000042c <ldelf>:
ldelf():
/media/home/beste/01_Pro/ld25x/bsp_hu/MYD-LD25X-Uboot-L2022.10-V1.0.0/GEN_FIP/myir-st-optee/ldelf/main.c:130
     42c:	a9bd7bfd 	stp	x29, x30, [sp, #-48]!
/media/home/beste/01_Pro/ld25x/bsp_hu/MYD-LD25X-Uboot-L2022.10-V1.0.0/GEN_FIP/myir-st-optee/ldelf/main.c:135
     430:	d2800004 	mov	x4, #0x0                   	// #0
     434:	d2800003 	mov	x3, #0x0                   	// #0
/media/home/beste/01_Pro/ld25x/bsp_hu/MYD-LD25X-Uboot-L2022.10-V1.0.0/GEN_FIP/myir-st-optee/ldelf/main.c:130
     438:	910003fd 	mov	x29, sp
/media/home/beste/01_Pro/ld25x/bsp_hu/MYD-LD25X-Uboot-L2022.10-V1.0.0/GEN_FIP/myir-st-optee/ldelf/main.c:135
     43c:	52800001 	mov	w1, #0x0                   	// #0
/media/home/beste/01_Pro/ld25x/bsp_hu/MYD-LD25X-Uboot-L2022.10-V1.0.0/GEN_FIP/myir-st-optee/ldelf/main.c:130
     440:	a90153f3 	stp	x19, x20, [sp, #16]
     444:	aa0003f3 	mov	x19, x0
/media/home/beste/01_Pro/ld25x/bsp_hu/MYD-LD25X-Uboot-L2022.10-V1.0.0/GEN_FIP/myir-st-optee/ldelf/main.c:135
     448:	90000054 	adrp	x20, 8000 <_DYNAMIC>
     44c:	d2880000 	mov	x0, #0x4000                	// #16384
     450:	9107e282 	add	x2, x20, #0x1f8
/media/home/beste/01_Pro/ld25x/bsp_hu/MYD-LD25X-Uboot-L2022.10-V1.0.0/GEN_FIP/myir-st-optee/ldelf/main.c:130
     454:	f90013f5 	str	x21, [sp, #32]
/media/home/beste/01_Pro/ld25x/bsp_hu/MYD-LD25X-Uboot-L2022.10-V1.0.0/GEN_FIP/myir-st-optee/ldelf/main.c:135
     458:	94000069 	bl	5fc <sys_map_zi>
/media/home/beste/01_Pro/ld25x/bsp_hu/MYD-LD25X-Uboot-L2022.10-V1.0.0/GEN_FIP/myir-st-optee/ldelf/main.c:136
     45c:	34000220 	cbz	w0, 4a0 <ldelf+0x74>
     460:	2a0003e6 	mov	w6, w0
/media/home/beste/01_Pro/ld25x/bsp_hu/MYD-LD25X-Uboot-L2022.10-V1.0.0/GEN_FIP/myir-st-optee/ldelf/main.c:137
     464:	d0000024 	adrp	x4, 6000 <kprintf.constprop.0+0x68c>
     468:	9123cc84 	add	x4, x4, #0x8f3
     46c:	d0000033 	adrp	x19, 6000 <kprintf.constprop.0+0x68c>
     470:	d2880005 	mov	x5, #0x4000                	// #16384
     474:	91247273 	add	x19, x19, #0x91c
     478:	52800023 	mov	w3, #0x1                   	// #1
     47c:	aa1303e0 	mov	x0, x19
     480:	52800022 	mov	w2, #0x1                   	// #1
     484:	52801121 	mov	w1, #0x89                  	// #137
     488:	940018af 	bl	6744 <trace_printf>
/media/home/beste/01_Pro/ld25x/bsp_hu/MYD-LD25X-Uboot-L2022.10-V1.0.0/GEN_FIP/myir-st-optee/ldelf/main.c:138
     48c:	d0000020 	adrp	x0, 6000 <kprintf.constprop.0+0x68c>
     490:	aa1303e2 	mov	x2, x19
     494:	9122d800 	add	x0, x0, #0x8b6
     498:	52801141 	mov	w1, #0x8a                  	// #138
     49c:	9400002d 	bl	550 <__panic>
/media/home/beste/01_Pro/ld25x/bsp_hu/MYD-LD25X-Uboot-L2022.10-V1.0.0/GEN_FIP/myir-st-optee/ldelf/main.c:140
     4a0:	f940fe80 	ldr	x0, [x20, #504]
     4a4:	d2880001 	mov	x1, #0x4000                	// #16384
     4a8:	9400148f 	bl	56e4 <malloc_add_pool>
/media/home/beste/01_Pro/ld25x/bsp_hu/MYD-LD25X-Uboot-L2022.10-V1.0.0/GEN_FIP/myir-st-optee/ldelf/main.c:143
     4ac:	91004261 	add	x1, x19, #0x10
     4b0:	aa1303e0 	mov	x0, x19
     4b4:	91005263 	add	x3, x19, #0x14
     4b8:	91008262 	add	x2, x19, #0x20
     4bc:	940007c1 	bl	23c0 <ta_elf_load_main>
/media/home/beste/01_Pro/ld25x/bsp_hu/MYD-LD25X-Uboot-L2022.10-V1.0.0/GEN_FIP/myir-st-optee/ldelf/main.c:151
     4c0:	90000041 	adrp	x1, 8000 <_DYNAMIC>
     4c4:	aa0103f5 	mov	x21, x1
     4c8:	f9409820 	ldr	x0, [x1, #304]
     4cc:	f9400014 	ldr	x20, [x0]
/media/home/beste/01_Pro/ld25x/bsp_hu/MYD-LD25X-Uboot-L2022.10-V1.0.0/GEN_FIP/myir-st-optee/ldelf/main.c:151 (discriminator 1)
     4d0:	b5000234 	cbnz	x20, 514 <ldelf+0xe8>
/media/home/beste/01_Pro/ld25x/bsp_hu/MYD-LD25X-Uboot-L2022.10-V1.0.0/GEN_FIP/myir-st-optee/ldelf/main.c:154
     4d4:	f9409aa0 	ldr	x0, [x21, #304]
     4d8:	f9400014 	ldr	x20, [x0]
/media/home/beste/01_Pro/ld25x/bsp_hu/MYD-LD25X-Uboot-L2022.10-V1.0.0/GEN_FIP/myir-st-optee/ldelf/main.c:154 (discriminator 1)
     4dc:	b50002b4 	cbnz	x20, 530 <ldelf+0x104>
/media/home/beste/01_Pro/ld25x/bsp_hu/MYD-LD25X-Uboot-L2022.10-V1.0.0/GEN_FIP/myir-st-optee/ldelf/main.c:159
     4e0:	91006260 	add	x0, x19, #0x18
     4e4:	94000b36 	bl	31bc <ta_elf_finalize_load_main>
/media/home/beste/01_Pro/ld25x/bsp_hu/MYD-LD25X-Uboot-L2022.10-V1.0.0/GEN_FIP/myir-st-optee/ldelf/main.c:167
     4e8:	f9409ab5 	ldr	x21, [x21, #304]
/media/home/beste/01_Pro/ld25x/bsp_hu/MYD-LD25X-Uboot-L2022.10-V1.0.0/GEN_FIP/myir-st-optee/ldelf/main.c:161
     4ec:	f9001a7f 	str	xzr, [x19, #48]
/media/home/beste/01_Pro/ld25x/bsp_hu/MYD-LD25X-Uboot-L2022.10-V1.0.0/GEN_FIP/myir-st-optee/ldelf/main.c:167
     4f0:	f94002a0 	ldr	x0, [x21]
/media/home/beste/01_Pro/ld25x/bsp_hu/MYD-LD25X-Uboot-L2022.10-V1.0.0/GEN_FIP/myir-st-optee/ldelf/main.c:167 (discriminator 1)
     4f4:	b50002a0 	cbnz	x0, 548 <ldelf+0x11c>
/media/home/beste/01_Pro/ld25x/bsp_hu/MYD-LD25X-Uboot-L2022.10-V1.0.0/GEN_FIP/myir-st-optee/ldelf/main.c:172
     4f8:	90000000 	adrp	x0, 0 <_ldelf_start>
     4fc:	910cf000 	add	x0, x0, #0x33c
     500:	f9001660 	str	x0, [x19, #40]
/media/home/beste/01_Pro/ld25x/bsp_hu/MYD-LD25X-Uboot-L2022.10-V1.0.0/GEN_FIP/myir-st-optee/ldelf/main.c:176
     504:	90000000 	adrp	x0, 0 <_ldelf_start>
     508:	910ad000 	add	x0, x0, #0x2b4
     50c:	f9001e60 	str	x0, [x19, #56]
/media/home/beste/01_Pro/ld25x/bsp_hu/MYD-LD25X-Uboot-L2022.10-V1.0.0/GEN_FIP/myir-st-optee/ldelf/main.c:178
     510:	94000037 	bl	5ec <sys_return_cleanup>
/media/home/beste/01_Pro/ld25x/bsp_hu/MYD-LD25X-Uboot-L2022.10-V1.0.0/GEN_FIP/myir-st-optee/ldelf/main.c:152 (discriminator 3)
     514:	b9401260 	ldr	w0, [x19, #16]
     518:	7100001f 	cmp	w0, #0x0
     51c:	aa1403e0 	mov	x0, x20
     520:	1a9f07e1 	cset	w1, ne	// ne = any
     524:	940008b7 	bl	2800 <ta_elf_load_dependency>
/media/home/beste/01_Pro/ld25x/bsp_hu/MYD-LD25X-Uboot-L2022.10-V1.0.0/GEN_FIP/myir-st-optee/ldelf/main.c:151 (discriminator 3)
     528:	f9409294 	ldr	x20, [x20, #288]
     52c:	17ffffe9 	b	4d0 <ldelf+0xa4>
/media/home/beste/01_Pro/ld25x/bsp_hu/MYD-LD25X-Uboot-L2022.10-V1.0.0/GEN_FIP/myir-st-optee/ldelf/main.c:155 (discriminator 3)
     530:	aa1403e0 	mov	x0, x20
     534:	94000d71 	bl	3af8 <ta_elf_relocate>
/media/home/beste/01_Pro/ld25x/bsp_hu/MYD-LD25X-Uboot-L2022.10-V1.0.0/GEN_FIP/myir-st-optee/ldelf/main.c:156 (discriminator 3)
     538:	aa1403e0 	mov	x0, x20
     53c:	940008ec 	bl	28ec <ta_elf_finalize_mappings>
/media/home/beste/01_Pro/ld25x/bsp_hu/MYD-LD25X-Uboot-L2022.10-V1.0.0/GEN_FIP/myir-st-optee/ldelf/main.c:154 (discriminator 3)
     540:	f9409294 	ldr	x20, [x20, #288]
     544:	17ffffe6 	b	4dc <ldelf+0xb0>
/media/home/beste/01_Pro/ld25x/bsp_hu/MYD-LD25X-Uboot-L2022.10-V1.0.0/GEN_FIP/myir-st-optee/ldelf/main.c:167 (discriminator 3)
     548:	f9409000 	ldr	x0, [x0, #288]
     54c:	17ffffea 	b	4f4 <ldelf+0xc8>

0000000000000550 <__panic>:
__panic():
/media/home/beste/01_Pro/ld25x/bsp_hu/MYD-LD25X-Uboot-L2022.10-V1.0.0/GEN_FIP/myir-st-optee/ldelf/sys.c:17
     550:	d10083ff 	sub	sp, sp, #0x20
     554:	aa0003e5 	mov	x5, x0
/media/home/beste/01_Pro/ld25x/bsp_hu/MYD-LD25X-Uboot-L2022.10-V1.0.0/GEN_FIP/myir-st-optee/ldelf/sys.c:18
     558:	aa020000 	orr	x0, x0, x2
/media/home/beste/01_Pro/ld25x/bsp_hu/MYD-LD25X-Uboot-L2022.10-V1.0.0/GEN_FIP/myir-st-optee/ldelf/sys.c:17
     55c:	a9017bfd 	stp	x29, x30, [sp, #16]
     560:	910043fd 	add	x29, sp, #0x10
/media/home/beste/01_Pro/ld25x/bsp_hu/MYD-LD25X-Uboot-L2022.10-V1.0.0/GEN_FIP/myir-st-optee/ldelf/sys.c:18
     564:	b5000140 	cbnz	x0, 58c <__panic+0x3c>
/media/home/beste/01_Pro/ld25x/bsp_hu/MYD-LD25X-Uboot-L2022.10-V1.0.0/GEN_FIP/myir-st-optee/ldelf/sys.c:19
     568:	d0000024 	adrp	x4, 6000 <kprintf.constprop.0+0x68c>
     56c:	52800023 	mov	w3, #0x1                   	// #1
     570:	9124a084 	add	x4, x4, #0x928
     574:	52800022 	mov	w2, #0x1                   	// #1
     578:	52800001 	mov	w1, #0x0                   	// #0
     57c:	94001872 	bl	6744 <trace_printf>
/media/home/beste/01_Pro/ld25x/bsp_hu/MYD-LD25X-Uboot-L2022.10-V1.0.0/GEN_FIP/myir-st-optee/ldelf/sys.c:25
     580:	d2800020 	mov	x0, #0x1                   	// #1
     584:	97fffef1 	bl	148 <_ldelf_panic>
/media/home/beste/01_Pro/ld25x/bsp_hu/MYD-LD25X-Uboot-L2022.10-V1.0.0/GEN_FIP/myir-st-optee/ldelf/sys.c:27 (discriminator 1)
     588:	14000000 	b	588 <__panic+0x38>
     58c:	2a0103e6 	mov	w6, w1
/media/home/beste/01_Pro/ld25x/bsp_hu/MYD-LD25X-Uboot-L2022.10-V1.0.0/GEN_FIP/myir-st-optee/ldelf/sys.c:21
     590:	b5000085 	cbnz	x5, 5a0 <__panic+0x50>
     594:	d0000025 	adrp	x5, 6000 <kprintf.constprop.0+0x68c>
     598:	912488a5 	add	x5, x5, #0x922
     59c:	52800006 	mov	w6, #0x0                   	// #0
/media/home/beste/01_Pro/ld25x/bsp_hu/MYD-LD25X-Uboot-L2022.10-V1.0.0/GEN_FIP/myir-st-optee/ldelf/sys.c:21 (discriminator 8)
     5a0:	b50001c2 	cbnz	x2, 5d8 <__panic+0x88>
/media/home/beste/01_Pro/ld25x/bsp_hu/MYD-LD25X-Uboot-L2022.10-V1.0.0/GEN_FIP/myir-st-optee/ldelf/sys.c:21
     5a4:	d0000022 	adrp	x2, 6000 <kprintf.constprop.0+0x68c>
     5a8:	912c4442 	add	x2, x2, #0xb11
     5ac:	aa0203e7 	mov	x7, x2
     5b0:	aa0203e0 	mov	x0, x2
/media/home/beste/01_Pro/ld25x/bsp_hu/MYD-LD25X-Uboot-L2022.10-V1.0.0/GEN_FIP/myir-st-optee/ldelf/sys.c:21 (discriminator 20)
     5b4:	a90003e2 	stp	x2, x0, [sp]
     5b8:	d0000024 	adrp	x4, 6000 <kprintf.constprop.0+0x68c>
     5bc:	52800023 	mov	w3, #0x1                   	// #1
     5c0:	9124b884 	add	x4, x4, #0x92e
     5c4:	52800001 	mov	w1, #0x0                   	// #0
     5c8:	52800022 	mov	w2, #0x1                   	// #1
     5cc:	d2800000 	mov	x0, #0x0                   	// #0
     5d0:	9400185d 	bl	6744 <trace_printf>
     5d4:	17ffffeb 	b	580 <__panic+0x30>
/media/home/beste/01_Pro/ld25x/bsp_hu/MYD-LD25X-Uboot-L2022.10-V1.0.0/GEN_FIP/myir-st-optee/ldelf/sys.c:21
     5d8:	d0000027 	adrp	x7, 6000 <kprintf.constprop.0+0x68c>
     5dc:	d0000020 	adrp	x0, 6000 <kprintf.constprop.0+0x68c>
     5e0:	912490e7 	add	x7, x7, #0x924
     5e4:	91249800 	add	x0, x0, #0x926
     5e8:	17fffff3 	b	5b4 <__panic+0x64>

00000000000005ec <sys_return_cleanup>:
sys_return_cleanup():
/media/home/beste/01_Pro/ld25x/bsp_hu/MYD-LD25X-Uboot-L2022.10-V1.0.0/GEN_FIP/myir-st-optee/ldelf/sys.c:32
     5ec:	a9bf7bfd 	stp	x29, x30, [sp, #-16]!
/media/home/beste/01_Pro/ld25x/bsp_hu/MYD-LD25X-Uboot-L2022.10-V1.0.0/GEN_FIP/myir-st-optee/ldelf/sys.c:33
     5f0:	d2800000 	mov	x0, #0x0                   	// #0
/media/home/beste/01_Pro/ld25x/bsp_hu/MYD-LD25X-Uboot-L2022.10-V1.0.0/GEN_FIP/myir-st-optee/ldelf/sys.c:32
     5f4:	910003fd 	mov	x29, sp
/media/home/beste/01_Pro/ld25x/bsp_hu/MYD-LD25X-Uboot-L2022.10-V1.0.0/GEN_FIP/myir-st-optee/ldelf/sys.c:33
     5f8:	97fffed7 	bl	154 <_ldelf_return>

00000000000005fc <sys_map_zi>:
sys_map_zi():
/media/home/beste/01_Pro/ld25x/bsp_hu/MYD-LD25X-Uboot-L2022.10-V1.0.0/GEN_FIP/myir-st-optee/ldelf/sys.c:41
     5fc:	aa0003e5 	mov	x5, x0
     600:	aa0203e0 	mov	x0, x2
     604:	aa0303e2 	mov	x2, x3
     608:	aa0403e3 	mov	x3, x4
/media/home/beste/01_Pro/ld25x/bsp_hu/MYD-LD25X-Uboot-L2022.10-V1.0.0/GEN_FIP/myir-st-optee/ldelf/sys.c:42
     60c:	2a0103e4 	mov	w4, w1
     610:	aa0503e1 	mov	x1, x5
     614:	17fffed9 	b	178 <_ldelf_map_zi>

0000000000000618 <sys_unmap>:
sys_unmap():
/media/home/beste/01_Pro/ld25x/bsp_hu/MYD-LD25X-Uboot-L2022.10-V1.0.0/GEN_FIP/myir-st-optee/ldelf/sys.c:47
     618:	17fffedb 	b	184 <_ldelf_unmap>

000000000000061c <sys_open_ta_bin>:
sys_open_ta_bin():
/media/home/beste/01_Pro/ld25x/bsp_hu/MYD-LD25X-Uboot-L2022.10-V1.0.0/GEN_FIP/myir-st-optee/ldelf/sys.c:52
     61c:	aa0103e2 	mov	x2, x1
     620:	d2800201 	mov	x1, #0x10                  	// #16
     624:	17fffedb 	b	190 <_ldelf_open_bin>

0000000000000628 <sys_close_ta_bin>:
sys_close_ta_bin():
/media/home/beste/01_Pro/ld25x/bsp_hu/MYD-LD25X-Uboot-L2022.10-V1.0.0/GEN_FIP/myir-st-optee/ldelf/sys.c:57
     628:	2a0003e0 	mov	w0, w0
     62c:	17fffedc 	b	19c <_ldelf_close_bin>

0000000000000630 <sys_map_ta_bin>:
sys_map_ta_bin():
/media/home/beste/01_Pro/ld25x/bsp_hu/MYD-LD25X-Uboot-L2022.10-V1.0.0/GEN_FIP/myir-st-optee/ldelf/sys.c:63
     630:	2a0303e7 	mov	w7, w3
     634:	aa0403e3 	mov	x3, x4
     638:	aa0503e4 	mov	x4, x5
     63c:	aa0603e5 	mov	x5, x6
/media/home/beste/01_Pro/ld25x/bsp_hu/MYD-LD25X-Uboot-L2022.10-V1.0.0/GEN_FIP/myir-st-optee/ldelf/sys.c:64
     640:	2a0203e6 	mov	w6, w2
     644:	2a0703e2 	mov	w2, w7
     648:	17fffed8 	b	1a8 <_ldelf_map_bin>

000000000000064c <sys_copy_from_ta_bin>:
sys_copy_from_ta_bin():
/media/home/beste/01_Pro/ld25x/bsp_hu/MYD-LD25X-Uboot-L2022.10-V1.0.0/GEN_FIP/myir-st-optee/ldelf/sys.c:71
     64c:	aa0103e4 	mov	x4, x1
     650:	aa0303e1 	mov	x1, x3
/media/home/beste/01_Pro/ld25x/bsp_hu/MYD-LD25X-Uboot-L2022.10-V1.0.0/GEN_FIP/myir-st-optee/ldelf/sys.c:72
     654:	2a0203e3 	mov	w3, w2
     658:	aa0403e2 	mov	x2, x4
     65c:	17fffed6 	b	1b4 <_ldelf_cp_from_bin>

0000000000000660 <sys_set_prot>:
sys_set_prot():
/media/home/beste/01_Pro/ld25x/bsp_hu/MYD-LD25X-Uboot-L2022.10-V1.0.0/GEN_FIP/myir-st-optee/ldelf/sys.c:77
     660:	2a0203e2 	mov	w2, w2
     664:	17fffed7 	b	1c0 <_ldelf_set_prot>

0000000000000668 <sys_remap>:
sys_remap():
/media/home/beste/01_Pro/ld25x/bsp_hu/MYD-LD25X-Uboot-L2022.10-V1.0.0/GEN_FIP/myir-st-optee/ldelf/sys.c:83
     668:	17fffed9 	b	1cc <_ldelf_remap>

000000000000066c <sys_gen_random_num>:
sys_gen_random_num():
/media/home/beste/01_Pro/ld25x/bsp_hu/MYD-LD25X-Uboot-L2022.10-V1.0.0/GEN_FIP/myir-st-optee/ldelf/sys.c:88
     66c:	17fffedb 	b	1d8 <_ldelf_gen_rnd_num>

0000000000000670 <check_range>:
check_range():
/media/home/beste/01_Pro/ld25x/bsp_hu/MYD-LD25X-Uboot-L2022.10-V1.0.0/GEN_FIP/myir-st-optee/ldelf/ta_elf.c:196
     670:	a9bf7bfd 	stp	x29, x30, [sp, #-16]!
     674:	aa0103e5 	mov	x5, x1
     678:	aa0203e6 	mov	x6, x2
     67c:	910003fd 	mov	x29, sp
/media/home/beste/01_Pro/ld25x/bsp_hu/MYD-LD25X-Uboot-L2022.10-V1.0.0/GEN_FIP/myir-st-optee/ldelf/ta_elf.c:199
     680:	f9400401 	ldr	x1, [x0, #8]
     684:	eb02003f 	cmp	x1, x2
     688:	54000169 	b.ls	6b4 <check_range+0x44>  // b.plast
/media/home/beste/01_Pro/ld25x/bsp_hu/MYD-LD25X-Uboot-L2022.10-V1.0.0/GEN_FIP/myir-st-optee/ldelf/ta_elf.c:200
     68c:	d0000024 	adrp	x4, 6000 <kprintf.constprop.0+0x68c>
     690:	f0000020 	adrp	x0, 7000 <trace_ext_prefix+0x6bc>
     694:	91251c84 	add	x4, x4, #0x947
     698:	91083400 	add	x0, x0, #0x20d
     69c:	52800023 	mov	w3, #0x1                   	// #1
     6a0:	52800022 	mov	w2, #0x1                   	// #1
     6a4:	52801901 	mov	w1, #0xc8                  	// #200
     6a8:	94001827 	bl	6744 <trace_printf>
/media/home/beste/01_Pro/ld25x/bsp_hu/MYD-LD25X-Uboot-L2022.10-V1.0.0/GEN_FIP/myir-st-optee/ldelf/ta_elf.c:203
     6ac:	129fff40 	mov	w0, #0xffff0005            	// #-65531
     6b0:	97fffea9 	bl	154 <_ldelf_return>
/media/home/beste/01_Pro/ld25x/bsp_hu/MYD-LD25X-Uboot-L2022.10-V1.0.0/GEN_FIP/myir-st-optee/ldelf/ta_elf.c:202
     6b4:	ab030047 	adds	x7, x2, x3
     6b8:	540001a2 	b.cs	6ec <check_range+0x7c>  // b.hs, b.nlast
/media/home/beste/01_Pro/ld25x/bsp_hu/MYD-LD25X-Uboot-L2022.10-V1.0.0/GEN_FIP/myir-st-optee/ldelf/ta_elf.c:205
     6bc:	f9400800 	ldr	x0, [x0, #16]
     6c0:	eb0000ff 	cmp	x7, x0
     6c4:	54000269 	b.ls	710 <check_range+0xa0>  // b.plast
/media/home/beste/01_Pro/ld25x/bsp_hu/MYD-LD25X-Uboot-L2022.10-V1.0.0/GEN_FIP/myir-st-optee/ldelf/ta_elf.c:206
     6c8:	d0000024 	adrp	x4, 6000 <kprintf.constprop.0+0x68c>
     6cc:	52800023 	mov	w3, #0x1                   	// #1
     6d0:	9125b084 	add	x4, x4, #0x96c
     6d4:	52800022 	mov	w2, #0x1                   	// #1
     6d8:	528019c1 	mov	w1, #0xce                  	// #206
     6dc:	f0000020 	adrp	x0, 7000 <trace_ext_prefix+0x6bc>
     6e0:	91083400 	add	x0, x0, #0x20d
     6e4:	94001818 	bl	6744 <trace_printf>
     6e8:	17fffff1 	b	6ac <check_range+0x3c>
/media/home/beste/01_Pro/ld25x/bsp_hu/MYD-LD25X-Uboot-L2022.10-V1.0.0/GEN_FIP/myir-st-optee/ldelf/ta_elf.c:203
     6ec:	d0000024 	adrp	x4, 6000 <kprintf.constprop.0+0x68c>
     6f0:	52800023 	mov	w3, #0x1                   	// #1
     6f4:	91256884 	add	x4, x4, #0x95a
     6f8:	52800022 	mov	w2, #0x1                   	// #1
     6fc:	52801961 	mov	w1, #0xcb                  	// #203
     700:	f0000020 	adrp	x0, 7000 <trace_ext_prefix+0x6bc>
     704:	91083400 	add	x0, x0, #0x20d
     708:	9400180f 	bl	6744 <trace_printf>
     70c:	17ffffe8 	b	6ac <check_range+0x3c>
/media/home/beste/01_Pro/ld25x/bsp_hu/MYD-LD25X-Uboot-L2022.10-V1.0.0/GEN_FIP/myir-st-optee/ldelf/ta_elf.c:208
     710:	a8c17bfd 	ldp	x29, x30, [sp], #16
     714:	d65f03c0 	ret

0000000000000718 <check_hashtab>:
check_hashtab():
/media/home/beste/01_Pro/ld25x/bsp_hu/MYD-LD25X-Uboot-L2022.10-V1.0.0/GEN_FIP/myir-st-optee/ldelf/ta_elf.c:212
     718:	aa0103e5 	mov	x5, x1
/media/home/beste/01_Pro/ld25x/bsp_hu/MYD-LD25X-Uboot-L2022.10-V1.0.0/GEN_FIP/myir-st-optee/ldelf/ta_elf.c:223
     71c:	f240043f 	tst	x1, #0x3
     720:	540001a0 	b.eq	754 <check_hashtab+0x3c>  // b.none
/media/home/beste/01_Pro/ld25x/bsp_hu/MYD-LD25X-Uboot-L2022.10-V1.0.0/GEN_FIP/myir-st-optee/ldelf/ta_elf.c:212
     724:	a9bf7bfd 	stp	x29, x30, [sp, #-16]!
/media/home/beste/01_Pro/ld25x/bsp_hu/MYD-LD25X-Uboot-L2022.10-V1.0.0/GEN_FIP/myir-st-optee/ldelf/ta_elf.c:224
     728:	d0000024 	adrp	x4, 6000 <kprintf.constprop.0+0x68c>
     72c:	91261484 	add	x4, x4, #0x985
     730:	52800023 	mov	w3, #0x1                   	// #1
     734:	52800022 	mov	w2, #0x1                   	// #1
     738:	52801c01 	mov	w1, #0xe0                  	// #224
/media/home/beste/01_Pro/ld25x/bsp_hu/MYD-LD25X-Uboot-L2022.10-V1.0.0/GEN_FIP/myir-st-optee/ldelf/ta_elf.c:212
     73c:	910003fd 	mov	x29, sp
/media/home/beste/01_Pro/ld25x/bsp_hu/MYD-LD25X-Uboot-L2022.10-V1.0.0/GEN_FIP/myir-st-optee/ldelf/ta_elf.c:224
     740:	f0000020 	adrp	x0, 7000 <trace_ext_prefix+0x6bc>
     744:	91072800 	add	x0, x0, #0x1ca
     748:	940017ff 	bl	6744 <trace_printf>
     74c:	129fff40 	mov	w0, #0xffff0005            	// #-65531
     750:	97fffe81 	bl	154 <_ldelf_return>
/media/home/beste/01_Pro/ld25x/bsp_hu/MYD-LD25X-Uboot-L2022.10-V1.0.0/GEN_FIP/myir-st-optee/ldelf/ta_elf.c:227
     754:	91000863 	add	x3, x3, #0x2
     758:	8b020063 	add	x3, x3, x2
/media/home/beste/01_Pro/ld25x/bsp_hu/MYD-LD25X-Uboot-L2022.10-V1.0.0/GEN_FIP/myir-st-optee/ldelf/ta_elf.c:231
     75c:	aa0103e2 	mov	x2, x1
     760:	d0000021 	adrp	x1, 6000 <kprintf.constprop.0+0x68c>
     764:	91268421 	add	x1, x1, #0x9a1
     768:	d37ef463 	lsl	x3, x3, #2
     76c:	17ffffc1 	b	670 <check_range>

0000000000000770 <queue_elf_helper>:
queue_elf_helper():
/media/home/beste/01_Pro/ld25x/bsp_hu/MYD-LD25X-Uboot-L2022.10-V1.0.0/GEN_FIP/myir-st-optee/ldelf/ta_elf.c:63
     770:	a9be7bfd 	stp	x29, x30, [sp, #-32]!
/media/home/beste/01_Pro/ld25x/bsp_hu/MYD-LD25X-Uboot-L2022.10-V1.0.0/GEN_FIP/myir-st-optee/ldelf/ta_elf.c:64
     774:	d2802601 	mov	x1, #0x130                 	// #304
/media/home/beste/01_Pro/ld25x/bsp_hu/MYD-LD25X-Uboot-L2022.10-V1.0.0/GEN_FIP/myir-st-optee/ldelf/ta_elf.c:63
     778:	910003fd 	mov	x29, sp
     77c:	a90153f3 	stp	x19, x20, [sp, #16]
     780:	aa0003f4 	mov	x20, x0
/media/home/beste/01_Pro/ld25x/bsp_hu/MYD-LD25X-Uboot-L2022.10-V1.0.0/GEN_FIP/myir-st-optee/ldelf/ta_elf.c:64
     784:	d2800020 	mov	x0, #0x1                   	// #1
     788:	940013c6 	bl	56a0 <calloc>
     78c:	aa0003f3 	mov	x19, x0
/media/home/beste/01_Pro/ld25x/bsp_hu/MYD-LD25X-Uboot-L2022.10-V1.0.0/GEN_FIP/myir-st-optee/ldelf/ta_elf.c:66
     790:	b40001c0 	cbz	x0, 7c8 <queue_elf_helper+0x58>
/media/home/beste/01_Pro/ld25x/bsp_hu/MYD-LD25X-Uboot-L2022.10-V1.0.0/GEN_FIP/myir-st-optee/ldelf/ta_elf.c:69
     794:	91028000 	add	x0, x0, #0xa0
     798:	f9005660 	str	x0, [x19, #168]
/media/home/beste/01_Pro/ld25x/bsp_hu/MYD-LD25X-Uboot-L2022.10-V1.0.0/GEN_FIP/myir-st-optee/ldelf/ta_elf.c:71
     79c:	aa1403e1 	mov	x1, x20
     7a0:	91044260 	add	x0, x19, #0x110
     7a4:	d2800202 	mov	x2, #0x10                  	// #16
     7a8:	97fffe32 	bl	70 <memcpy>
/media/home/beste/01_Pro/ld25x/bsp_hu/MYD-LD25X-Uboot-L2022.10-V1.0.0/GEN_FIP/myir-st-optee/ldelf/ta_elf.c:72
     7ac:	90000040 	adrp	x0, 8000 <_DYNAMIC>
     7b0:	91058000 	add	x0, x0, #0x160
     7b4:	f9400401 	ldr	x1, [x0, #8]
     7b8:	a912067f 	stp	xzr, x1, [x19, #288]
     7bc:	f9000033 	str	x19, [x1]
     7c0:	91048261 	add	x1, x19, #0x120
     7c4:	f9000401 	str	x1, [x0, #8]
/media/home/beste/01_Pro/ld25x/bsp_hu/MYD-LD25X-Uboot-L2022.10-V1.0.0/GEN_FIP/myir-st-optee/ldelf/ta_elf.c:74
     7c8:	aa1303e0 	mov	x0, x19
     7cc:	a94153f3 	ldp	x19, x20, [sp, #16]
     7d0:	a8c27bfd 	ldp	x29, x30, [sp], #32
     7d4:	d65f03c0 	ret

00000000000007d8 <add_segment>:
add_segment():
/media/home/beste/01_Pro/ld25x/bsp_hu/MYD-LD25X-Uboot-L2022.10-V1.0.0/GEN_FIP/myir-st-optee/ldelf/ta_elf.c:502
     7d8:	a9bb7bfd 	stp	x29, x30, [sp, #-80]!
     7dc:	910003fd 	mov	x29, sp
     7e0:	a90153f3 	stp	x19, x20, [sp, #16]
     7e4:	aa0003f3 	mov	x19, x0
     7e8:	aa0403f4 	mov	x20, x4
/media/home/beste/01_Pro/ld25x/bsp_hu/MYD-LD25X-Uboot-L2022.10-V1.0.0/GEN_FIP/myir-st-optee/ldelf/ta_elf.c:503
     7ec:	d2800020 	mov	x0, #0x1                   	// #1
/media/home/beste/01_Pro/ld25x/bsp_hu/MYD-LD25X-Uboot-L2022.10-V1.0.0/GEN_FIP/myir-st-optee/ldelf/ta_elf.c:502
     7f0:	a9025bf5 	stp	x21, x22, [sp, #32]
     7f4:	aa0303f5 	mov	x21, x3
     7f8:	aa0603f6 	mov	x22, x6
     7fc:	a90363f7 	stp	x23, x24, [sp, #48]
     800:	aa0203f8 	mov	x24, x2
     804:	aa0503f7 	mov	x23, x5
     808:	f90023f9 	str	x25, [sp, #64]
     80c:	aa0103f9 	mov	x25, x1
/media/home/beste/01_Pro/ld25x/bsp_hu/MYD-LD25X-Uboot-L2022.10-V1.0.0/GEN_FIP/myir-st-optee/ldelf/ta_elf.c:503
     810:	d2800901 	mov	x1, #0x48                  	// #72
     814:	940013a3 	bl	56a0 <calloc>
/media/home/beste/01_Pro/ld25x/bsp_hu/MYD-LD25X-Uboot-L2022.10-V1.0.0/GEN_FIP/myir-st-optee/ldelf/ta_elf.c:505
     818:	b5000160 	cbnz	x0, 844 <add_segment+0x6c>
/media/home/beste/01_Pro/ld25x/bsp_hu/MYD-LD25X-Uboot-L2022.10-V1.0.0/GEN_FIP/myir-st-optee/ldelf/ta_elf.c:506
     81c:	d0000024 	adrp	x4, 6000 <kprintf.constprop.0+0x68c>
     820:	52800023 	mov	w3, #0x1                   	// #1
     824:	9126a484 	add	x4, x4, #0x9a9
     828:	52800022 	mov	w2, #0x1                   	// #1
     82c:	52803f41 	mov	w1, #0x1fa                 	// #506
     830:	f0000020 	adrp	x0, 7000 <trace_ext_prefix+0x6bc>
     834:	9109b000 	add	x0, x0, #0x26c
     838:	940017c3 	bl	6744 <trace_printf>
     83c:	129ffe60 	mov	w0, #0xffff000c            	// #-65524
/media/home/beste/01_Pro/ld25x/bsp_hu/MYD-LD25X-Uboot-L2022.10-V1.0.0/GEN_FIP/myir-st-optee/ldelf/ta_elf.c:509
     840:	97fffe45 	bl	154 <_ldelf_return>
/media/home/beste/01_Pro/ld25x/bsp_hu/MYD-LD25X-Uboot-L2022.10-V1.0.0/GEN_FIP/myir-st-optee/ldelf/ta_elf.c:508
     844:	eb15029f 	cmp	x20, x21
     848:	54000162 	b.cs	874 <add_segment+0x9c>  // b.hs, b.nlast
/media/home/beste/01_Pro/ld25x/bsp_hu/MYD-LD25X-Uboot-L2022.10-V1.0.0/GEN_FIP/myir-st-optee/ldelf/ta_elf.c:509
     84c:	d0000024 	adrp	x4, 6000 <kprintf.constprop.0+0x68c>
     850:	52800023 	mov	w3, #0x1                   	// #1
     854:	9126c084 	add	x4, x4, #0x9b0
     858:	52800022 	mov	w2, #0x1                   	// #1
     85c:	52803fa1 	mov	w1, #0x1fd                 	// #509
     860:	f0000020 	adrp	x0, 7000 <trace_ext_prefix+0x6bc>
     864:	9109b000 	add	x0, x0, #0x26c
     868:	940017b7 	bl	6744 <trace_printf>
     86c:	129fff40 	mov	w0, #0xffff0005            	// #-65531
     870:	17fffff4 	b	840 <add_segment+0x68>
/media/home/beste/01_Pro/ld25x/bsp_hu/MYD-LD25X-Uboot-L2022.10-V1.0.0/GEN_FIP/myir-st-optee/ldelf/ta_elf.c:518
     874:	f9405661 	ldr	x1, [x19, #168]
/media/home/beste/01_Pro/ld25x/bsp_hu/MYD-LD25X-Uboot-L2022.10-V1.0.0/GEN_FIP/myir-st-optee/ldelf/ta_elf.c:512
     878:	a9006019 	stp	x25, x24, [x0]
/media/home/beste/01_Pro/ld25x/bsp_hu/MYD-LD25X-Uboot-L2022.10-V1.0.0/GEN_FIP/myir-st-optee/ldelf/ta_elf.c:514
     87c:	a9015015 	stp	x21, x20, [x0, #16]
/media/home/beste/01_Pro/ld25x/bsp_hu/MYD-LD25X-Uboot-L2022.10-V1.0.0/GEN_FIP/myir-st-optee/ldelf/ta_elf.c:516
     880:	a9025817 	stp	x23, x22, [x0, #32]
/media/home/beste/01_Pro/ld25x/bsp_hu/MYD-LD25X-Uboot-L2022.10-V1.0.0/GEN_FIP/myir-st-optee/ldelf/ta_elf.c:518
     884:	a903841f 	stp	xzr, x1, [x0, #56]
/media/home/beste/01_Pro/ld25x/bsp_hu/MYD-LD25X-Uboot-L2022.10-V1.0.0/GEN_FIP/myir-st-optee/ldelf/ta_elf.c:519
     888:	a9425bf5 	ldp	x21, x22, [sp, #32]
     88c:	a94363f7 	ldp	x23, x24, [sp, #48]
     890:	f94023f9 	ldr	x25, [sp, #64]
/media/home/beste/01_Pro/ld25x/bsp_hu/MYD-LD25X-Uboot-L2022.10-V1.0.0/GEN_FIP/myir-st-optee/ldelf/ta_elf.c:518
     894:	f9000020 	str	x0, [x1]
     898:	9100e001 	add	x1, x0, #0x38
     89c:	f9005661 	str	x1, [x19, #168]
/media/home/beste/01_Pro/ld25x/bsp_hu/MYD-LD25X-Uboot-L2022.10-V1.0.0/GEN_FIP/myir-st-optee/ldelf/ta_elf.c:519
     8a0:	a94153f3 	ldp	x19, x20, [sp, #16]
     8a4:	a8c57bfd 	ldp	x29, x30, [sp], #80
     8a8:	d65f03c0 	ret

00000000000008ac <get_pad_begin>:
get_pad_begin():
/media/home/beste/01_Pro/ld25x/bsp_hu/MYD-LD25X-Uboot-L2022.10-V1.0.0/GEN_FIP/myir-st-optee/ldelf/ta_elf.c:722
     8ac:	a9be7bfd 	stp	x29, x30, [sp, #-32]!
/media/home/beste/01_Pro/ld25x/bsp_hu/MYD-LD25X-Uboot-L2022.10-V1.0.0/GEN_FIP/myir-st-optee/ldelf/ta_elf.c:733
     8b0:	d2800081 	mov	x1, #0x4                   	// #4
/media/home/beste/01_Pro/ld25x/bsp_hu/MYD-LD25X-Uboot-L2022.10-V1.0.0/GEN_FIP/myir-st-optee/ldelf/ta_elf.c:722
     8b4:	910003fd 	mov	x29, sp
/media/home/beste/01_Pro/ld25x/bsp_hu/MYD-LD25X-Uboot-L2022.10-V1.0.0/GEN_FIP/myir-st-optee/ldelf/ta_elf.c:733
     8b8:	910073e0 	add	x0, sp, #0x1c
/media/home/beste/01_Pro/ld25x/bsp_hu/MYD-LD25X-Uboot-L2022.10-V1.0.0/GEN_FIP/myir-st-optee/ldelf/ta_elf.c:727
     8bc:	b9001fff 	str	wzr, [sp, #28]
/media/home/beste/01_Pro/ld25x/bsp_hu/MYD-LD25X-Uboot-L2022.10-V1.0.0/GEN_FIP/myir-st-optee/ldelf/ta_elf.c:733
     8c0:	97ffff6b 	bl	66c <sys_gen_random_num>
/media/home/beste/01_Pro/ld25x/bsp_hu/MYD-LD25X-Uboot-L2022.10-V1.0.0/GEN_FIP/myir-st-optee/ldelf/ta_elf.c:734
     8c4:	350000a0 	cbnz	w0, 8d8 <get_pad_begin+0x2c>
/media/home/beste/01_Pro/ld25x/bsp_hu/MYD-LD25X-Uboot-L2022.10-V1.0.0/GEN_FIP/myir-st-optee/ldelf/ta_elf.c:741
     8c8:	b9401fe0 	ldr	w0, [sp, #28]
     8cc:	d3741800 	ubfiz	x0, x0, #12, #7
/media/home/beste/01_Pro/ld25x/bsp_hu/MYD-LD25X-Uboot-L2022.10-V1.0.0/GEN_FIP/myir-st-optee/ldelf/ta_elf.c:745
     8d0:	a8c27bfd 	ldp	x29, x30, [sp], #32
     8d4:	d65f03c0 	ret
/media/home/beste/01_Pro/ld25x/bsp_hu/MYD-LD25X-Uboot-L2022.10-V1.0.0/GEN_FIP/myir-st-optee/ldelf/ta_elf.c:736
     8d8:	d2800000 	mov	x0, #0x0                   	// #0
     8dc:	17fffffd 	b	8d0 <get_pad_begin+0x24>

00000000000008e0 <ta_elf_add_bti>:
ta_elf_add_bti():
/media/home/beste/01_Pro/ld25x/bsp_hu/MYD-LD25X-Uboot-L2022.10-V1.0.0/GEN_FIP/myir-st-optee/ldelf/ta_elf.c:880
     8e0:	a9bd7bfd 	stp	x29, x30, [sp, #-48]!
     8e4:	910003fd 	mov	x29, sp
     8e8:	a90153f3 	stp	x19, x20, [sp, #16]
     8ec:	aa0003f4 	mov	x20, x0
/media/home/beste/01_Pro/ld25x/bsp_hu/MYD-LD25X-Uboot-L2022.10-V1.0.0/GEN_FIP/myir-st-optee/ldelf/ta_elf.c:885
     8f0:	f9405013 	ldr	x19, [x0, #160]
/media/home/beste/01_Pro/ld25x/bsp_hu/MYD-LD25X-Uboot-L2022.10-V1.0.0/GEN_FIP/myir-st-optee/ldelf/ta_elf.c:880
     8f4:	f90013f5 	str	x21, [sp, #32]
/media/home/beste/01_Pro/ld25x/bsp_hu/MYD-LD25X-Uboot-L2022.10-V1.0.0/GEN_FIP/myir-st-optee/ldelf/ta_elf.c:885 (discriminator 1)
     8f8:	b50000b3 	cbnz	x19, 90c <ta_elf_add_bti+0x2c>
/media/home/beste/01_Pro/ld25x/bsp_hu/MYD-LD25X-Uboot-L2022.10-V1.0.0/GEN_FIP/myir-st-optee/ldelf/ta_elf.c:894
     8fc:	a94153f3 	ldp	x19, x20, [sp, #16]
     900:	f94013f5 	ldr	x21, [sp, #32]
     904:	a8c37bfd 	ldp	x29, x30, [sp], #48
     908:	d65f03c0 	ret
/media/home/beste/01_Pro/ld25x/bsp_hu/MYD-LD25X-Uboot-L2022.10-V1.0.0/GEN_FIP/myir-st-optee/ldelf/ta_elf.c:888
     90c:	f9401261 	ldr	x1, [x19, #32]
/media/home/beste/01_Pro/ld25x/bsp_hu/MYD-LD25X-Uboot-L2022.10-V1.0.0/GEN_FIP/myir-st-optee/ldelf/ta_elf.c:886
     910:	f9400660 	ldr	x0, [x19, #8]
     914:	f9400683 	ldr	x3, [x20, #8]
/media/home/beste/01_Pro/ld25x/bsp_hu/MYD-LD25X-Uboot-L2022.10-V1.0.0/GEN_FIP/myir-st-optee/ldelf/ta_elf.c:888
     918:	36000221 	tbz	w1, #0, 95c <ta_elf_add_bti+0x7c>
/media/home/beste/01_Pro/ld25x/bsp_hu/MYD-LD25X-Uboot-L2022.10-V1.0.0/GEN_FIP/myir-st-optee/ldelf/ta_elf.c:889
     91c:	f9400e61 	ldr	x1, [x19, #24]
     920:	8b000060 	add	x0, x3, x0
     924:	52800182 	mov	w2, #0xc                   	// #12
     928:	97ffff4e 	bl	660 <sys_set_prot>
     92c:	2a0003f5 	mov	w21, w0
/media/home/beste/01_Pro/ld25x/bsp_hu/MYD-LD25X-Uboot-L2022.10-V1.0.0/GEN_FIP/myir-st-optee/ldelf/ta_elf.c:890
     930:	34000160 	cbz	w0, 95c <ta_elf_add_bti+0x7c>
/media/home/beste/01_Pro/ld25x/bsp_hu/MYD-LD25X-Uboot-L2022.10-V1.0.0/GEN_FIP/myir-st-optee/ldelf/ta_elf.c:891
     934:	d0000024 	adrp	x4, 6000 <kprintf.constprop.0+0x68c>
     938:	91272884 	add	x4, x4, #0x9ca
     93c:	52800023 	mov	w3, #0x1                   	// #1
     940:	52800022 	mov	w2, #0x1                   	// #1
     944:	52806f61 	mov	w1, #0x37b                 	// #891
     948:	f0000020 	adrp	x0, 7000 <trace_ext_prefix+0x6bc>
     94c:	910ad000 	add	x0, x0, #0x2b4
     950:	9400177d 	bl	6744 <trace_printf>
     954:	2a1503e0 	mov	w0, w21
     958:	97fffdff 	bl	154 <_ldelf_return>
/media/home/beste/01_Pro/ld25x/bsp_hu/MYD-LD25X-Uboot-L2022.10-V1.0.0/GEN_FIP/myir-st-optee/ldelf/ta_elf.c:885
     95c:	f9401e73 	ldr	x19, [x19, #56]
     960:	17ffffe6 	b	8f8 <ta_elf_add_bti+0x18>

0000000000000964 <init_elf>:
init_elf():
/media/home/beste/01_Pro/ld25x/bsp_hu/MYD-LD25X-Uboot-L2022.10-V1.0.0/GEN_FIP/myir-st-optee/ldelf/ta_elf.c:445
     964:	a9bc7bfd 	stp	x29, x30, [sp, #-64]!
/media/home/beste/01_Pro/ld25x/bsp_hu/MYD-LD25X-Uboot-L2022.10-V1.0.0/GEN_FIP/myir-st-optee/ldelf/ta_elf.c:451
     968:	91040001 	add	x1, x0, #0x100
/media/home/beste/01_Pro/ld25x/bsp_hu/MYD-LD25X-Uboot-L2022.10-V1.0.0/GEN_FIP/myir-st-optee/ldelf/ta_elf.c:445
     96c:	910003fd 	mov	x29, sp
     970:	f90013f5 	str	x21, [sp, #32]
/media/home/beste/01_Pro/ld25x/bsp_hu/MYD-LD25X-Uboot-L2022.10-V1.0.0/GEN_FIP/myir-st-optee/ldelf/ta_elf.c:451
     974:	91044015 	add	x21, x0, #0x110
/media/home/beste/01_Pro/ld25x/bsp_hu/MYD-LD25X-Uboot-L2022.10-V1.0.0/GEN_FIP/myir-st-optee/ldelf/ta_elf.c:445
     978:	a90153f3 	stp	x19, x20, [sp, #16]
     97c:	aa0003f3 	mov	x19, x0
/media/home/beste/01_Pro/ld25x/bsp_hu/MYD-LD25X-Uboot-L2022.10-V1.0.0/GEN_FIP/myir-st-optee/ldelf/ta_elf.c:451
     980:	aa1503e0 	mov	x0, x21
/media/home/beste/01_Pro/ld25x/bsp_hu/MYD-LD25X-Uboot-L2022.10-V1.0.0/GEN_FIP/myir-st-optee/ldelf/ta_elf.c:447
     984:	f9001fff 	str	xzr, [sp, #56]
/media/home/beste/01_Pro/ld25x/bsp_hu/MYD-LD25X-Uboot-L2022.10-V1.0.0/GEN_FIP/myir-st-optee/ldelf/ta_elf.c:451
     988:	97ffff25 	bl	61c <sys_open_ta_bin>
/media/home/beste/01_Pro/ld25x/bsp_hu/MYD-LD25X-Uboot-L2022.10-V1.0.0/GEN_FIP/myir-st-optee/ldelf/ta_elf.c:452
     98c:	340001a0 	cbz	w0, 9c0 <init_elf+0x5c>
     990:	2a0003f4 	mov	w20, w0
/media/home/beste/01_Pro/ld25x/bsp_hu/MYD-LD25X-Uboot-L2022.10-V1.0.0/GEN_FIP/myir-st-optee/ldelf/ta_elf.c:453
     994:	d0000024 	adrp	x4, 6000 <kprintf.constprop.0+0x68c>
     998:	f0000020 	adrp	x0, 7000 <trace_ext_prefix+0x6bc>
     99c:	aa1503e5 	mov	x5, x21
     9a0:	91275c84 	add	x4, x4, #0x9d7
     9a4:	910a5c00 	add	x0, x0, #0x297
     9a8:	52800023 	mov	w3, #0x1                   	// #1
     9ac:	52800022 	mov	w2, #0x1                   	// #1
     9b0:	528038a1 	mov	w1, #0x1c5                 	// #453
     9b4:	94001764 	bl	6744 <trace_printf>
/media/home/beste/01_Pro/ld25x/bsp_hu/MYD-LD25X-Uboot-L2022.10-V1.0.0/GEN_FIP/myir-st-optee/ldelf/ta_elf.c:463
     9b8:	2a1403e0 	mov	w0, w20
     9bc:	97fffde6 	bl	154 <_ldelf_return>
/media/home/beste/01_Pro/ld25x/bsp_hu/MYD-LD25X-Uboot-L2022.10-V1.0.0/GEN_FIP/myir-st-optee/ldelf/ta_elf.c:459
     9c0:	39400260 	ldrb	w0, [x19]
/media/home/beste/01_Pro/ld25x/bsp_hu/MYD-LD25X-Uboot-L2022.10-V1.0.0/GEN_FIP/myir-st-optee/ldelf/ta_elf.c:448
     9c4:	52800035 	mov	w21, #0x1                   	// #1
/media/home/beste/01_Pro/ld25x/bsp_hu/MYD-LD25X-Uboot-L2022.10-V1.0.0/GEN_FIP/myir-st-optee/ldelf/ta_elf.c:461
     9c8:	b9410263 	ldr	w3, [x19, #256]
     9cc:	d2800006 	mov	x6, #0x0                   	// #0
/media/home/beste/01_Pro/ld25x/bsp_hu/MYD-LD25X-Uboot-L2022.10-V1.0.0/GEN_FIP/myir-st-optee/ldelf/ta_elf.c:448
     9d0:	7100001f 	cmp	w0, #0x0
/media/home/beste/01_Pro/ld25x/bsp_hu/MYD-LD25X-Uboot-L2022.10-V1.0.0/GEN_FIP/myir-st-optee/ldelf/ta_elf.c:461
     9d4:	d2800005 	mov	x5, #0x0                   	// #0
     9d8:	9100e3e0 	add	x0, sp, #0x38
     9dc:	d2800004 	mov	x4, #0x0                   	// #0
     9e0:	528000a2 	mov	w2, #0x5                   	// #5
     9e4:	d2820001 	mov	x1, #0x1000                	// #4096
     9e8:	1a950042 	csel	w2, w2, w21, eq	// eq = none
     9ec:	97ffff11 	bl	630 <sys_map_ta_bin>
     9f0:	2a0003f4 	mov	w20, w0
/media/home/beste/01_Pro/ld25x/bsp_hu/MYD-LD25X-Uboot-L2022.10-V1.0.0/GEN_FIP/myir-st-optee/ldelf/ta_elf.c:462
     9f4:	34000140 	cbz	w0, a1c <init_elf+0xb8>
/media/home/beste/01_Pro/ld25x/bsp_hu/MYD-LD25X-Uboot-L2022.10-V1.0.0/GEN_FIP/myir-st-optee/ldelf/ta_elf.c:463
     9f8:	2a1503e3 	mov	w3, w21
     9fc:	2a1503e2 	mov	w2, w21
     a00:	d0000024 	adrp	x4, 6000 <kprintf.constprop.0+0x68c>
     a04:	528039e1 	mov	w1, #0x1cf                 	// #463
     a08:	9127b484 	add	x4, x4, #0x9ed
     a0c:	f0000020 	adrp	x0, 7000 <trace_ext_prefix+0x6bc>
     a10:	910a5c00 	add	x0, x0, #0x297
     a14:	9400174c 	bl	6744 <trace_printf>
     a18:	17ffffe8 	b	9b8 <init_elf+0x54>
/media/home/beste/01_Pro/ld25x/bsp_hu/MYD-LD25X-Uboot-L2022.10-V1.0.0/GEN_FIP/myir-st-optee/ldelf/ta_elf.c:465
     a1c:	39400261 	ldrb	w1, [x19]
/media/home/beste/01_Pro/ld25x/bsp_hu/MYD-LD25X-Uboot-L2022.10-V1.0.0/GEN_FIP/myir-st-optee/ldelf/ta_elf.c:464
     a20:	f9401fe0 	ldr	x0, [sp, #56]
     a24:	f9001260 	str	x0, [x19, #32]
/media/home/beste/01_Pro/ld25x/bsp_hu/MYD-LD25X-Uboot-L2022.10-V1.0.0/GEN_FIP/myir-st-optee/ldelf/ta_elf.c:465
     a28:	350000a1 	cbnz	w1, a3c <init_elf+0xd8>
/media/home/beste/01_Pro/ld25x/bsp_hu/MYD-LD25X-Uboot-L2022.10-V1.0.0/GEN_FIP/myir-st-optee/ldelf/ta_elf.c:467
     a2c:	91400401 	add	x1, x0, #0x1, lsl #12
     a30:	a9008660 	stp	x0, x1, [x19, #8]
/media/home/beste/01_Pro/ld25x/bsp_hu/MYD-LD25X-Uboot-L2022.10-V1.0.0/GEN_FIP/myir-st-optee/ldelf/ta_elf.c:468
     a34:	d2820001 	mov	x1, #0x1000                	// #4096
     a38:	f9000e61 	str	x1, [x19, #24]
/media/home/beste/01_Pro/ld25x/bsp_hu/MYD-LD25X-Uboot-L2022.10-V1.0.0/GEN_FIP/myir-st-optee/ldelf/ta_elf.c:471
     a3c:	b9400002 	ldr	w2, [x0]
     a40:	5288afe1 	mov	w1, #0x457f                	// #17791
     a44:	72a8c981 	movk	w1, #0x464c, lsl #16
     a48:	6b01005f 	cmp	w2, w1
     a4c:	54000160 	b.eq	a78 <init_elf+0x114>  // b.none
/media/home/beste/01_Pro/ld25x/bsp_hu/MYD-LD25X-Uboot-L2022.10-V1.0.0/GEN_FIP/myir-st-optee/ldelf/ta_elf.c:472
     a50:	d0000024 	adrp	x4, 6000 <kprintf.constprop.0+0x68c>
     a54:	9127f084 	add	x4, x4, #0x9fc
     a58:	52800023 	mov	w3, #0x1                   	// #1
     a5c:	52800022 	mov	w2, #0x1                   	// #1
     a60:	52803b01 	mov	w1, #0x1d8                 	// #472
/media/home/beste/01_Pro/ld25x/bsp_hu/MYD-LD25X-Uboot-L2022.10-V1.0.0/GEN_FIP/myir-st-optee/ldelf/ta_elf.c:482
     a64:	f0000020 	adrp	x0, 7000 <trace_ext_prefix+0x6bc>
     a68:	910a5c00 	add	x0, x0, #0x297
     a6c:	94001736 	bl	6744 <trace_printf>
     a70:	129fff40 	mov	w0, #0xffff0005            	// #-65531
     a74:	17ffffd2 	b	9bc <init_elf+0x58>
e32_parse_ehdr():
/media/home/beste/01_Pro/ld25x/bsp_hu/MYD-LD25X-Uboot-L2022.10-V1.0.0/GEN_FIP/myir-st-optee/ldelf/ta_elf.c:103
     a78:	b9400402 	ldr	w2, [x0, #4]
     a7c:	52802021 	mov	w1, #0x101                 	// #257
     a80:	72a00021 	movk	w1, #0x1, lsl #16
     a84:	6b01005f 	cmp	w2, w1
     a88:	540005e1 	b.ne	b44 <init_elf+0x1e0>  // b.any
/media/home/beste/01_Pro/ld25x/bsp_hu/MYD-LD25X-Uboot-L2022.10-V1.0.0/GEN_FIP/myir-st-optee/ldelf/ta_elf.c:107
     a8c:	b9401002 	ldr	w2, [x0, #16]
     a90:	52800061 	mov	w1, #0x3                   	// #3
     a94:	72a00501 	movk	w1, #0x28, lsl #16
     a98:	6b01005f 	cmp	w2, w1
     a9c:	54000541 	b.ne	b44 <init_elf+0x1e0>  // b.any
/media/home/beste/01_Pro/ld25x/bsp_hu/MYD-LD25X-Uboot-L2022.10-V1.0.0/GEN_FIP/myir-st-optee/ldelf/ta_elf.c:108
     aa0:	b9402401 	ldr	w1, [x0, #36]
/media/home/beste/01_Pro/ld25x/bsp_hu/MYD-LD25X-Uboot-L2022.10-V1.0.0/GEN_FIP/myir-st-optee/ldelf/ta_elf.c:107
     aa4:	52a0a002 	mov	w2, #0x5000000             	// #83886080
/media/home/beste/01_Pro/ld25x/bsp_hu/MYD-LD25X-Uboot-L2022.10-V1.0.0/GEN_FIP/myir-st-optee/ldelf/ta_elf.c:108
     aa8:	12081c21 	and	w1, w1, #0xff000000
/media/home/beste/01_Pro/ld25x/bsp_hu/MYD-LD25X-Uboot-L2022.10-V1.0.0/GEN_FIP/myir-st-optee/ldelf/ta_elf.c:107
     aac:	6b02003f 	cmp	w1, w2
     ab0:	540004a1 	b.ne	b44 <init_elf+0x1e0>  // b.any
/media/home/beste/01_Pro/ld25x/bsp_hu/MYD-LD25X-Uboot-L2022.10-V1.0.0/GEN_FIP/myir-st-optee/ldelf/ta_elf.c:108
     ab4:	79405401 	ldrh	w1, [x0, #42]
     ab8:	7100803f 	cmp	w1, #0x20
     abc:	54000441 	b.ne	b44 <init_elf+0x1e0>  // b.any
/media/home/beste/01_Pro/ld25x/bsp_hu/MYD-LD25X-Uboot-L2022.10-V1.0.0/GEN_FIP/myir-st-optee/ldelf/ta_elf.c:112
     ac0:	79405c02 	ldrh	w2, [x0, #46]
     ac4:	7100a05f 	cmp	w2, #0x28
     ac8:	540003e1 	b.ne	b44 <init_elf+0x1e0>  // b.any
/media/home/beste/01_Pro/ld25x/bsp_hu/MYD-LD25X-Uboot-L2022.10-V1.0.0/GEN_FIP/myir-st-optee/ldelf/ta_elf.c:116
     acc:	52800023 	mov	w3, #0x1                   	// #1
     ad0:	39000663 	strb	w3, [x19, #1]
/media/home/beste/01_Pro/ld25x/bsp_hu/MYD-LD25X-Uboot-L2022.10-V1.0.0/GEN_FIP/myir-st-optee/ldelf/ta_elf.c:117
     ad4:	b9401803 	ldr	w3, [x0, #24]
     ad8:	f9001663 	str	x3, [x19, #40]
/media/home/beste/01_Pro/ld25x/bsp_hu/MYD-LD25X-Uboot-L2022.10-V1.0.0/GEN_FIP/myir-st-optee/ldelf/ta_elf.c:118
     adc:	b9401c03 	ldr	w3, [x0, #28]
     ae0:	f9001a63 	str	x3, [x19, #48]
/media/home/beste/01_Pro/ld25x/bsp_hu/MYD-LD25X-Uboot-L2022.10-V1.0.0/GEN_FIP/myir-st-optee/ldelf/ta_elf.c:119
     ae4:	b9402003 	ldr	w3, [x0, #32]
     ae8:	f9001e63 	str	x3, [x19, #56]
/media/home/beste/01_Pro/ld25x/bsp_hu/MYD-LD25X-Uboot-L2022.10-V1.0.0/GEN_FIP/myir-st-optee/ldelf/ta_elf.c:120
     aec:	79405803 	ldrh	w3, [x0, #44]
     af0:	b9004263 	str	w3, [x19, #64]
/media/home/beste/01_Pro/ld25x/bsp_hu/MYD-LD25X-Uboot-L2022.10-V1.0.0/GEN_FIP/myir-st-optee/ldelf/ta_elf.c:121
     af4:	79406003 	ldrh	w3, [x0, #48]
     af8:	b9004663 	str	w3, [x19, #68]
init_elf():
/media/home/beste/01_Pro/ld25x/bsp_hu/MYD-LD25X-Uboot-L2022.10-V1.0.0/GEN_FIP/myir-st-optee/ldelf/ta_elf.c:480
     afc:	b9404263 	ldr	w3, [x19, #64]
e32_parse_ehdr():
/media/home/beste/01_Pro/ld25x/bsp_hu/MYD-LD25X-Uboot-L2022.10-V1.0.0/GEN_FIP/myir-st-optee/ldelf/ta_elf.c:123
     b00:	29090a61 	stp	w1, w2, [x19, #72]
init_elf():
/media/home/beste/01_Pro/ld25x/bsp_hu/MYD-LD25X-Uboot-L2022.10-V1.0.0/GEN_FIP/myir-st-optee/ldelf/ta_elf.c:481
     b04:	f9401a62 	ldr	x2, [x19, #48]
/media/home/beste/01_Pro/ld25x/bsp_hu/MYD-LD25X-Uboot-L2022.10-V1.0.0/GEN_FIP/myir-st-optee/ldelf/ta_elf.c:480
     b08:	9ba37c21 	umull	x1, w1, w3
/media/home/beste/01_Pro/ld25x/bsp_hu/MYD-LD25X-Uboot-L2022.10-V1.0.0/GEN_FIP/myir-st-optee/ldelf/ta_elf.c:481
     b0c:	ab020021 	adds	x1, x1, x2
     b10:	54000662 	b.cs	bdc <init_elf+0x278>  // b.hs, b.nlast
/media/home/beste/01_Pro/ld25x/bsp_hu/MYD-LD25X-Uboot-L2022.10-V1.0.0/GEN_FIP/myir-st-optee/ldelf/ta_elf.c:484
     b14:	f140043f 	cmp	x1, #0x1, lsl #12
     b18:	540006e9 	b.ls	bf4 <init_elf+0x290>  // b.plast
/media/home/beste/01_Pro/ld25x/bsp_hu/MYD-LD25X-Uboot-L2022.10-V1.0.0/GEN_FIP/myir-st-optee/ldelf/ta_elf.c:485
     b1c:	d0000024 	adrp	x4, 6000 <kprintf.constprop.0+0x68c>
     b20:	52800023 	mov	w3, #0x1                   	// #1
     b24:	9128f084 	add	x4, x4, #0xa3c
     b28:	52800022 	mov	w2, #0x1                   	// #1
     b2c:	52803ca1 	mov	w1, #0x1e5                 	// #485
     b30:	f0000020 	adrp	x0, 7000 <trace_ext_prefix+0x6bc>
     b34:	910a5c00 	add	x0, x0, #0x297
     b38:	94001703 	bl	6744 <trace_printf>
     b3c:	129ffea0 	mov	w0, #0xffff000a            	// #-65526
     b40:	17ffff9f 	b	9bc <init_elf+0x58>
e64_parse_ehdr():
/media/home/beste/01_Pro/ld25x/bsp_hu/MYD-LD25X-Uboot-L2022.10-V1.0.0/GEN_FIP/myir-st-optee/ldelf/ta_elf.c:133
     b44:	f9400001 	ldr	x1, [x0]
/media/home/beste/01_Pro/ld25x/bsp_hu/MYD-LD25X-Uboot-L2022.10-V1.0.0/GEN_FIP/myir-st-optee/ldelf/ta_elf.c:131
     b48:	d2c02042 	mov	x2, #0x10200000000         	// #1108101562368
     b4c:	f2e00022 	movk	x2, #0x1, lsl #48
/media/home/beste/01_Pro/ld25x/bsp_hu/MYD-LD25X-Uboot-L2022.10-V1.0.0/GEN_FIP/myir-st-optee/ldelf/ta_elf.c:133
     b50:	92607c21 	and	x1, x1, #0xffffffff00000000
/media/home/beste/01_Pro/ld25x/bsp_hu/MYD-LD25X-Uboot-L2022.10-V1.0.0/GEN_FIP/myir-st-optee/ldelf/ta_elf.c:131
     b54:	eb02003f 	cmp	x1, x2
     b58:	54000361 	b.ne	bc4 <init_elf+0x260>  // b.any
/media/home/beste/01_Pro/ld25x/bsp_hu/MYD-LD25X-Uboot-L2022.10-V1.0.0/GEN_FIP/myir-st-optee/ldelf/ta_elf.c:135
     b5c:	b9401002 	ldr	w2, [x0, #16]
     b60:	d2800061 	mov	x1, #0x3                   	// #3
     b64:	f2a016e1 	movk	x1, #0xb7, lsl #16
     b68:	eb01005f 	cmp	x2, x1
     b6c:	540002c1 	b.ne	bc4 <init_elf+0x260>  // b.any
/media/home/beste/01_Pro/ld25x/bsp_hu/MYD-LD25X-Uboot-L2022.10-V1.0.0/GEN_FIP/myir-st-optee/ldelf/ta_elf.c:136
     b70:	f9401801 	ldr	x1, [x0, #48]
     b74:	d2e00702 	mov	x2, #0x38000000000000      	// #15762598695796736
     b78:	9250bc21 	and	x1, x1, #0xffff0000ffffffff
     b7c:	eb02003f 	cmp	x1, x2
     b80:	54000221 	b.ne	bc4 <init_elf+0x260>  // b.any
     b84:	79407402 	ldrh	w2, [x0, #58]
     b88:	7101005f 	cmp	w2, #0x40
     b8c:	540001c1 	b.ne	bc4 <init_elf+0x260>  // b.any
/media/home/beste/01_Pro/ld25x/bsp_hu/MYD-LD25X-Uboot-L2022.10-V1.0.0/GEN_FIP/myir-st-optee/ldelf/ta_elf.c:142
     b90:	f9400c01 	ldr	x1, [x0, #24]
     b94:	f9001661 	str	x1, [x19, #40]
/media/home/beste/01_Pro/ld25x/bsp_hu/MYD-LD25X-Uboot-L2022.10-V1.0.0/GEN_FIP/myir-st-optee/ldelf/ta_elf.c:143
     b98:	f9401001 	ldr	x1, [x0, #32]
     b9c:	f9001a61 	str	x1, [x19, #48]
/media/home/beste/01_Pro/ld25x/bsp_hu/MYD-LD25X-Uboot-L2022.10-V1.0.0/GEN_FIP/myir-st-optee/ldelf/ta_elf.c:144
     ba0:	f9401401 	ldr	x1, [x0, #40]
     ba4:	f9001e61 	str	x1, [x19, #56]
/media/home/beste/01_Pro/ld25x/bsp_hu/MYD-LD25X-Uboot-L2022.10-V1.0.0/GEN_FIP/myir-st-optee/ldelf/ta_elf.c:145
     ba8:	79407001 	ldrh	w1, [x0, #56]
     bac:	b9004261 	str	w1, [x19, #64]
/media/home/beste/01_Pro/ld25x/bsp_hu/MYD-LD25X-Uboot-L2022.10-V1.0.0/GEN_FIP/myir-st-optee/ldelf/ta_elf.c:146
     bb0:	79407801 	ldrh	w1, [x0, #60]
/media/home/beste/01_Pro/ld25x/bsp_hu/MYD-LD25X-Uboot-L2022.10-V1.0.0/GEN_FIP/myir-st-optee/ldelf/ta_elf.c:141
     bb4:	3900067f 	strb	wzr, [x19, #1]
/media/home/beste/01_Pro/ld25x/bsp_hu/MYD-LD25X-Uboot-L2022.10-V1.0.0/GEN_FIP/myir-st-optee/ldelf/ta_elf.c:146
     bb8:	b9004661 	str	w1, [x19, #68]
/media/home/beste/01_Pro/ld25x/bsp_hu/MYD-LD25X-Uboot-L2022.10-V1.0.0/GEN_FIP/myir-st-optee/ldelf/ta_elf.c:147
     bbc:	79406c01 	ldrh	w1, [x0, #54]
init_elf():
/media/home/beste/01_Pro/ld25x/bsp_hu/MYD-LD25X-Uboot-L2022.10-V1.0.0/GEN_FIP/myir-st-optee/ldelf/ta_elf.c:477
     bc0:	17ffffcf 	b	afc <init_elf+0x198>
/media/home/beste/01_Pro/ld25x/bsp_hu/MYD-LD25X-Uboot-L2022.10-V1.0.0/GEN_FIP/myir-st-optee/ldelf/ta_elf.c:478
     bc4:	d0000024 	adrp	x4, 6000 <kprintf.constprop.0+0x68c>
     bc8:	52800023 	mov	w3, #0x1                   	// #1
     bcc:	91283484 	add	x4, x4, #0xa0d
     bd0:	52800022 	mov	w2, #0x1                   	// #1
     bd4:	52803bc1 	mov	w1, #0x1de                 	// #478
     bd8:	17ffffa3 	b	a64 <init_elf+0x100>
/media/home/beste/01_Pro/ld25x/bsp_hu/MYD-LD25X-Uboot-L2022.10-V1.0.0/GEN_FIP/myir-st-optee/ldelf/ta_elf.c:482
     bdc:	d0000024 	adrp	x4, 6000 <kprintf.constprop.0+0x68c>
     be0:	52800023 	mov	w3, #0x1                   	// #1
     be4:	91287884 	add	x4, x4, #0xa1e
     be8:	52800022 	mov	w2, #0x1                   	// #1
     bec:	52803c41 	mov	w1, #0x1e2                 	// #482
     bf0:	17ffff9d 	b	a64 <init_elf+0x100>
/media/home/beste/01_Pro/ld25x/bsp_hu/MYD-LD25X-Uboot-L2022.10-V1.0.0/GEN_FIP/myir-st-optee/ldelf/ta_elf.c:488
     bf4:	f94013f5 	ldr	x21, [sp, #32]
/media/home/beste/01_Pro/ld25x/bsp_hu/MYD-LD25X-Uboot-L2022.10-V1.0.0/GEN_FIP/myir-st-optee/ldelf/ta_elf.c:487
     bf8:	8b020000 	add	x0, x0, x2
     bfc:	f9002a60 	str	x0, [x19, #80]
/media/home/beste/01_Pro/ld25x/bsp_hu/MYD-LD25X-Uboot-L2022.10-V1.0.0/GEN_FIP/myir-st-optee/ldelf/ta_elf.c:488
     c00:	a94153f3 	ldp	x19, x20, [sp, #16]
     c04:	a8c47bfd 	ldp	x29, x30, [sp], #64
     c08:	d65f03c0 	ret

0000000000000c0c <close_handle>:
close_handle():
/media/home/beste/01_Pro/ld25x/bsp_hu/MYD-LD25X-Uboot-L2022.10-V1.0.0/GEN_FIP/myir-st-optee/ldelf/ta_elf.c:1096
     c0c:	a9be7bfd 	stp	x29, x30, [sp, #-32]!
     c10:	910003fd 	mov	x29, sp
     c14:	a90153f3 	stp	x19, x20, [sp, #16]
     c18:	aa0003f3 	mov	x19, x0
/media/home/beste/01_Pro/ld25x/bsp_hu/MYD-LD25X-Uboot-L2022.10-V1.0.0/GEN_FIP/myir-st-optee/ldelf/ta_elf.c:1097
     c1c:	b9410000 	ldr	w0, [x0, #256]
     c20:	97fffe82 	bl	628 <sys_close_ta_bin>
/media/home/beste/01_Pro/ld25x/bsp_hu/MYD-LD25X-Uboot-L2022.10-V1.0.0/GEN_FIP/myir-st-optee/ldelf/ta_elf.c:1099
     c24:	34000180 	cbz	w0, c54 <close_handle+0x48>
/media/home/beste/01_Pro/ld25x/bsp_hu/MYD-LD25X-Uboot-L2022.10-V1.0.0/GEN_FIP/myir-st-optee/ldelf/ta_elf.c:1100
     c28:	d0000024 	adrp	x4, 6000 <kprintf.constprop.0+0x68c>
     c2c:	91296084 	add	x4, x4, #0xa58
     c30:	52800023 	mov	w3, #0x1                   	// #1
     c34:	52800022 	mov	w2, #0x1                   	// #1
     c38:	52808981 	mov	w1, #0x44c                 	// #1100
     c3c:	2a0003f4 	mov	w20, w0
     c40:	f0000020 	adrp	x0, 7000 <trace_ext_prefix+0x6bc>
     c44:	91064800 	add	x0, x0, #0x192
     c48:	940016bf 	bl	6744 <trace_printf>
     c4c:	2a1403e0 	mov	w0, w20
     c50:	97fffd41 	bl	154 <_ldelf_return>
/media/home/beste/01_Pro/ld25x/bsp_hu/MYD-LD25X-Uboot-L2022.10-V1.0.0/GEN_FIP/myir-st-optee/ldelf/ta_elf.c:1101
     c54:	12800000 	mov	w0, #0xffffffff            	// #-1
     c58:	b9010260 	str	w0, [x19, #256]
/media/home/beste/01_Pro/ld25x/bsp_hu/MYD-LD25X-Uboot-L2022.10-V1.0.0/GEN_FIP/myir-st-optee/ldelf/ta_elf.c:1102
     c5c:	a94153f3 	ldp	x19, x20, [sp, #16]
     c60:	a8c27bfd 	ldp	x29, x30, [sp], #32
     c64:	d65f03c0 	ret

0000000000000c68 <print_wrapper>:
print_wrapper():
/media/home/beste/01_Pro/ld25x/bsp_hu/MYD-LD25X-Uboot-L2022.10-V1.0.0/GEN_FIP/myir-st-optee/ldelf/ta_elf.c:1313
     c68:	a9b87bfd 	stp	x29, x30, [sp, #-128]!
     c6c:	aa0103e8 	mov	x8, x1
     c70:	aa0203e1 	mov	x1, x2
     c74:	910003fd 	mov	x29, sp
/media/home/beste/01_Pro/ld25x/bsp_hu/MYD-LD25X-Uboot-L2022.10-V1.0.0/GEN_FIP/myir-st-optee/ldelf/ta_elf.c:1316
     c78:	910203e2 	add	x2, sp, #0x80
     c7c:	a9030be2 	stp	x2, x2, [sp, #48]
     c80:	910143e2 	add	x2, sp, #0x50
     c84:	f90023e2 	str	x2, [sp, #64]
     c88:	128004e2 	mov	w2, #0xffffffd8            	// #-40
     c8c:	b9004be2 	str	w2, [sp, #72]
     c90:	b9004fff 	str	wzr, [sp, #76]
/media/home/beste/01_Pro/ld25x/bsp_hu/MYD-LD25X-Uboot-L2022.10-V1.0.0/GEN_FIP/myir-st-optee/ldelf/ta_elf.c:1313
     c94:	a90593e3 	stp	x3, x4, [sp, #88]
/media/home/beste/01_Pro/ld25x/bsp_hu/MYD-LD25X-Uboot-L2022.10-V1.0.0/GEN_FIP/myir-st-optee/ldelf/ta_elf.c:1317
     c98:	a9430fe2 	ldp	x2, x3, [sp, #48]
     c9c:	a9010fe2 	stp	x2, x3, [sp, #16]
     ca0:	a9440fe2 	ldp	x2, x3, [sp, #64]
     ca4:	a9020fe2 	stp	x2, x3, [sp, #32]
/media/home/beste/01_Pro/ld25x/bsp_hu/MYD-LD25X-Uboot-L2022.10-V1.0.0/GEN_FIP/myir-st-optee/ldelf/ta_elf.c:1313
     ca8:	a9069be5 	stp	x5, x6, [sp, #104]
/media/home/beste/01_Pro/ld25x/bsp_hu/MYD-LD25X-Uboot-L2022.10-V1.0.0/GEN_FIP/myir-st-optee/ldelf/ta_elf.c:1317
     cac:	910043e2 	add	x2, sp, #0x10
/media/home/beste/01_Pro/ld25x/bsp_hu/MYD-LD25X-Uboot-L2022.10-V1.0.0/GEN_FIP/myir-st-optee/ldelf/ta_elf.c:1313
     cb0:	f9003fe7 	str	x7, [sp, #120]
/media/home/beste/01_Pro/ld25x/bsp_hu/MYD-LD25X-Uboot-L2022.10-V1.0.0/GEN_FIP/myir-st-optee/ldelf/ta_elf.c:1317
     cb4:	d63f0100 	blr	x8
/media/home/beste/01_Pro/ld25x/bsp_hu/MYD-LD25X-Uboot-L2022.10-V1.0.0/GEN_FIP/myir-st-optee/ldelf/ta_elf.c:1319
     cb8:	a8c87bfd 	ldp	x29, x30, [sp], #128
     cbc:	d65f03c0 	ret

0000000000000cc0 <check_phdr_in_range.constprop.0>:
check_phdr_in_range():
/media/home/beste/01_Pro/ld25x/bsp_hu/MYD-LD25X-Uboot-L2022.10-V1.0.0/GEN_FIP/myir-st-optee/ldelf/ta_elf.c:160
     cc0:	a9bf7bfd 	stp	x29, x30, [sp, #-16]!
/media/home/beste/01_Pro/ld25x/bsp_hu/MYD-LD25X-Uboot-L2022.10-V1.0.0/GEN_FIP/myir-st-optee/ldelf/ta_elf.c:165
     cc4:	ab020021 	adds	x1, x1, x2
/media/home/beste/01_Pro/ld25x/bsp_hu/MYD-LD25X-Uboot-L2022.10-V1.0.0/GEN_FIP/myir-st-optee/ldelf/ta_elf.c:160
     cc8:	910003fd 	mov	x29, sp
/media/home/beste/01_Pro/ld25x/bsp_hu/MYD-LD25X-Uboot-L2022.10-V1.0.0/GEN_FIP/myir-st-optee/ldelf/ta_elf.c:165
     ccc:	54000182 	b.cs	cfc <check_phdr_in_range.constprop.0+0x3c>  // b.hs, b.nlast
/media/home/beste/01_Pro/ld25x/bsp_hu/MYD-LD25X-Uboot-L2022.10-V1.0.0/GEN_FIP/myir-st-optee/ldelf/ta_elf.c:173
     cd0:	a9408800 	ldp	x0, x2, [x0, #8]
     cd4:	cb000040 	sub	x0, x2, x0
     cd8:	eb00003f 	cmp	x1, x0
     cdc:	54000269 	b.ls	d28 <check_phdr_in_range.constprop.0+0x68>  // b.plast
/media/home/beste/01_Pro/ld25x/bsp_hu/MYD-LD25X-Uboot-L2022.10-V1.0.0/GEN_FIP/myir-st-optee/ldelf/ta_elf.c:174
     ce0:	d0000024 	adrp	x4, 6000 <kprintf.constprop.0+0x68c>
     ce4:	52800045 	mov	w5, #0x2                   	// #2
     ce8:	912a1484 	add	x4, x4, #0xa85
     cec:	52800023 	mov	w3, #0x1                   	// #1
     cf0:	52800022 	mov	w2, #0x1                   	// #1
     cf4:	528015c1 	mov	w1, #0xae                  	// #174
     cf8:	14000007 	b	d14 <check_phdr_in_range.constprop.0+0x54>
/media/home/beste/01_Pro/ld25x/bsp_hu/MYD-LD25X-Uboot-L2022.10-V1.0.0/GEN_FIP/myir-st-optee/ldelf/ta_elf.c:166
     cfc:	d0000024 	adrp	x4, 6000 <kprintf.constprop.0+0x68c>
     d00:	9129a484 	add	x4, x4, #0xa69
     d04:	52800045 	mov	w5, #0x2                   	// #2
     d08:	52800023 	mov	w3, #0x1                   	// #1
     d0c:	52800022 	mov	w2, #0x1                   	// #1
     d10:	528014c1 	mov	w1, #0xa6                  	// #166
/media/home/beste/01_Pro/ld25x/bsp_hu/MYD-LD25X-Uboot-L2022.10-V1.0.0/GEN_FIP/myir-st-optee/ldelf/ta_elf.c:174
     d14:	f0000020 	adrp	x0, 7000 <trace_ext_prefix+0x6bc>
     d18:	91086400 	add	x0, x0, #0x219
     d1c:	9400168a 	bl	6744 <trace_printf>
     d20:	129fff40 	mov	w0, #0xffff0005            	// #-65531
     d24:	97fffd0c 	bl	154 <_ldelf_return>
/media/home/beste/01_Pro/ld25x/bsp_hu/MYD-LD25X-Uboot-L2022.10-V1.0.0/GEN_FIP/myir-st-optee/ldelf/ta_elf.c:176
     d28:	a8c17bfd 	ldp	x29, x30, [sp], #16
     d2c:	d65f03c0 	ret

0000000000000d30 <_assert_trap.constprop.0>:
_assert_trap():
/media/home/beste/01_Pro/ld25x/bsp_hu/MYD-LD25X-Uboot-L2022.10-V1.0.0/GEN_FIP/myir-st-optee/lib/libutils/isoc/include/assert.h:19
     d30:	aa0203e3 	mov	x3, x2
     d34:	2a0103e2 	mov	w2, w1
     d38:	d0000021 	adrp	x1, 6000 <kprintf.constprop.0+0x68c>
     d3c:	912a9821 	add	x1, x1, #0xaa6
/media/home/beste/01_Pro/ld25x/bsp_hu/MYD-LD25X-Uboot-L2022.10-V1.0.0/GEN_FIP/myir-st-optee/lib/libutils/isoc/include/assert.h:15
     d40:	a9bf7bfd 	stp	x29, x30, [sp, #-16]!
     d44:	910003fd 	mov	x29, sp
/media/home/beste/01_Pro/ld25x/bsp_hu/MYD-LD25X-Uboot-L2022.10-V1.0.0/GEN_FIP/myir-st-optee/lib/libutils/isoc/include/assert.h:19
     d48:	94000f50 	bl	4a88 <_assert_log>
/media/home/beste/01_Pro/ld25x/bsp_hu/MYD-LD25X-Uboot-L2022.10-V1.0.0/GEN_FIP/myir-st-optee/lib/libutils/isoc/include/assert.h:20
     d4c:	94000f60 	bl	4acc <_assert_break>

0000000000000d50 <print_seg>:
print_seg():
/media/home/beste/01_Pro/ld25x/bsp_hu/MYD-LD25X-Uboot-L2022.10-V1.0.0/GEN_FIP/myir-st-optee/ldelf/ta_elf.c:1325
     d50:	d10243ff 	sub	sp, sp, #0x90
     d54:	a9027bfd 	stp	x29, x30, [sp, #32]
     d58:	910083fd 	add	x29, sp, #0x20
     d5c:	a9045bf5 	stp	x21, x22, [sp, #64]
     d60:	aa0003f6 	mov	x22, x0
/media/home/beste/01_Pro/ld25x/bsp_hu/MYD-LD25X-Uboot-L2022.10-V1.0.0/GEN_FIP/myir-st-optee/ldelf/ta_elf.c:1329
     d64:	5285a5a0 	mov	w0, #0x2d2d                	// #11565
     d68:	72a5a5a0 	movk	w0, #0x2d2d, lsl #16
/media/home/beste/01_Pro/ld25x/bsp_hu/MYD-LD25X-Uboot-L2022.10-V1.0.0/GEN_FIP/myir-st-optee/ldelf/ta_elf.c:1325
     d6c:	a90353f3 	stp	x19, x20, [sp, #48]
     d70:	aa0403f5 	mov	x21, x4
     d74:	a90563f7 	stp	x23, x24, [sp, #80]
     d78:	2a0703f3 	mov	w19, w7
     d7c:	aa0103f7 	mov	x23, x1
     d80:	a9066bf9 	stp	x25, x26, [sp, #96]
     d84:	aa0203f8 	mov	x24, x2
     d88:	aa0503f9 	mov	x25, x5
/media/home/beste/01_Pro/ld25x/bsp_hu/MYD-LD25X-Uboot-L2022.10-V1.0.0/GEN_FIP/myir-st-optee/ldelf/ta_elf.c:1329
     d8c:	b9007be0 	str	w0, [sp, #120]
/media/home/beste/01_Pro/ld25x/bsp_hu/MYD-LD25X-Uboot-L2022.10-V1.0.0/GEN_FIP/myir-st-optee/ldelf/ta_elf.c:1325
     d90:	aa0603fa 	mov	x26, x6
/media/home/beste/01_Pro/ld25x/bsp_hu/MYD-LD25X-Uboot-L2022.10-V1.0.0/GEN_FIP/myir-st-optee/ldelf/ta_elf.c:1329
     d94:	3901f3ff 	strb	wzr, [sp, #124]
     d98:	910203f4 	add	x20, sp, #0x80
/media/home/beste/01_Pro/ld25x/bsp_hu/MYD-LD25X-Uboot-L2022.10-V1.0.0/GEN_FIP/myir-st-optee/ldelf/ta_elf.c:1328
     d9c:	f90043ff 	str	xzr, [sp, #128]
     da0:	b9008bff 	str	wzr, [sp, #136]
     da4:	79011bff 	strh	wzr, [sp, #140]
/media/home/beste/01_Pro/ld25x/bsp_hu/MYD-LD25X-Uboot-L2022.10-V1.0.0/GEN_FIP/myir-st-optee/ldelf/ta_elf.c:1331
     da8:	37f804c3 	tbnz	w3, #31, e40 <print_seg+0xf0>
/media/home/beste/01_Pro/ld25x/bsp_hu/MYD-LD25X-Uboot-L2022.10-V1.0.0/GEN_FIP/myir-st-optee/ldelf/ta_elf.c:1332
     dac:	d0000022 	adrp	x2, 6000 <kprintf.constprop.0+0x68c>
     db0:	aa1403e0 	mov	x0, x20
     db4:	912ad442 	add	x2, x2, #0xab5
     db8:	d28001c1 	mov	x1, #0xe                   	// #14
     dbc:	94001259 	bl	5720 <snprintf>
/media/home/beste/01_Pro/ld25x/bsp_hu/MYD-LD25X-Uboot-L2022.10-V1.0.0/GEN_FIP/myir-st-optee/ldelf/ta_elf.c:1349
     dc0:	36000073 	tbz	w19, #0, dcc <print_seg+0x7c>
/media/home/beste/01_Pro/ld25x/bsp_hu/MYD-LD25X-Uboot-L2022.10-V1.0.0/GEN_FIP/myir-st-optee/ldelf/ta_elf.c:1350
     dc4:	52800e40 	mov	w0, #0x72                  	// #114
     dc8:	3901e3e0 	strb	w0, [sp, #120]
/media/home/beste/01_Pro/ld25x/bsp_hu/MYD-LD25X-Uboot-L2022.10-V1.0.0/GEN_FIP/myir-st-optee/ldelf/ta_elf.c:1351
     dcc:	36080073 	tbz	w19, #1, dd8 <print_seg+0x88>
/media/home/beste/01_Pro/ld25x/bsp_hu/MYD-LD25X-Uboot-L2022.10-V1.0.0/GEN_FIP/myir-st-optee/ldelf/ta_elf.c:1352
     dd0:	52800ee0 	mov	w0, #0x77                  	// #119
     dd4:	3901e7e0 	strb	w0, [sp, #121]
/media/home/beste/01_Pro/ld25x/bsp_hu/MYD-LD25X-Uboot-L2022.10-V1.0.0/GEN_FIP/myir-st-optee/ldelf/ta_elf.c:1353
     dd8:	36100073 	tbz	w19, #2, de4 <print_seg+0x94>
/media/home/beste/01_Pro/ld25x/bsp_hu/MYD-LD25X-Uboot-L2022.10-V1.0.0/GEN_FIP/myir-st-optee/ldelf/ta_elf.c:1354
     ddc:	52800f00 	mov	w0, #0x78                  	// #120
     de0:	3901ebe0 	strb	w0, [sp, #122]
/media/home/beste/01_Pro/ld25x/bsp_hu/MYD-LD25X-Uboot-L2022.10-V1.0.0/GEN_FIP/myir-st-optee/ldelf/ta_elf.c:1355
     de4:	36180073 	tbz	w19, #3, df0 <print_seg+0xa0>
/media/home/beste/01_Pro/ld25x/bsp_hu/MYD-LD25X-Uboot-L2022.10-V1.0.0/GEN_FIP/myir-st-optee/ldelf/ta_elf.c:1356
     de8:	52800e60 	mov	w0, #0x73                  	// #115
     dec:	3901efe0 	strb	w0, [sp, #123]
/media/home/beste/01_Pro/ld25x/bsp_hu/MYD-LD25X-Uboot-L2022.10-V1.0.0/GEN_FIP/myir-st-optee/ldelf/ta_elf.c:1358
     df0:	9101e3e0 	add	x0, sp, #0x78
     df4:	a90003fa 	stp	x26, x0, [sp]
     df8:	aa1903e7 	mov	x7, x25
     dfc:	f9000bf4 	str	x20, [sp, #16]
     e00:	aa1503e5 	mov	x5, x21
     e04:	aa1803e3 	mov	x3, x24
     e08:	aa1703e1 	mov	x1, x23
     e0c:	aa1603e0 	mov	x0, x22
     e10:	52800106 	mov	w6, #0x8                   	// #8
     e14:	d0000022 	adrp	x2, 6000 <kprintf.constprop.0+0x68c>
     e18:	2a0603e4 	mov	w4, w6
     e1c:	912b5842 	add	x2, x2, #0xad6
     e20:	97ffff92 	bl	c68 <print_wrapper>
/media/home/beste/01_Pro/ld25x/bsp_hu/MYD-LD25X-Uboot-L2022.10-V1.0.0/GEN_FIP/myir-st-optee/ldelf/ta_elf.c:1361
     e24:	a9427bfd 	ldp	x29, x30, [sp, #32]
     e28:	a94353f3 	ldp	x19, x20, [sp, #48]
     e2c:	a9445bf5 	ldp	x21, x22, [sp, #64]
     e30:	a94563f7 	ldp	x23, x24, [sp, #80]
     e34:	a9466bf9 	ldp	x25, x26, [sp, #96]
     e38:	910243ff 	add	sp, sp, #0x90
     e3c:	d65f03c0 	ret
/media/home/beste/01_Pro/ld25x/bsp_hu/MYD-LD25X-Uboot-L2022.10-V1.0.0/GEN_FIP/myir-st-optee/ldelf/ta_elf.c:1335
     e40:	362000b3 	tbz	w19, #4, e54 <print_seg+0x104>
/media/home/beste/01_Pro/ld25x/bsp_hu/MYD-LD25X-Uboot-L2022.10-V1.0.0/GEN_FIP/myir-st-optee/ldelf/ta_elf.c:1336
     e44:	d0000021 	adrp	x1, 6000 <kprintf.constprop.0+0x68c>
     e48:	aa1403e0 	mov	x0, x20
     e4c:	912aec21 	add	x1, x1, #0xabb
     e50:	9400126b 	bl	57fc <strcpy>
/media/home/beste/01_Pro/ld25x/bsp_hu/MYD-LD25X-Uboot-L2022.10-V1.0.0/GEN_FIP/myir-st-optee/ldelf/ta_elf.c:1339
     e54:	363800b3 	tbz	w19, #7, e68 <print_seg+0x118>
/media/home/beste/01_Pro/ld25x/bsp_hu/MYD-LD25X-Uboot-L2022.10-V1.0.0/GEN_FIP/myir-st-optee/ldelf/ta_elf.c:1340
     e58:	d0000021 	adrp	x1, 6000 <kprintf.constprop.0+0x68c>
     e5c:	aa1403e0 	mov	x0, x20
     e60:	912b1021 	add	x1, x1, #0xac4
     e64:	94001266 	bl	57fc <strcpy>
/media/home/beste/01_Pro/ld25x/bsp_hu/MYD-LD25X-Uboot-L2022.10-V1.0.0/GEN_FIP/myir-st-optee/ldelf/ta_elf.c:1343
     e68:	90000040 	adrp	x0, 8000 <_DYNAMIC>
     e6c:	f9410400 	ldr	x0, [x0, #520]
     e70:	eb15001f 	cmp	x0, x21
     e74:	54fffa61 	b.ne	dc0 <print_seg+0x70>  // b.any
/media/home/beste/01_Pro/ld25x/bsp_hu/MYD-LD25X-Uboot-L2022.10-V1.0.0/GEN_FIP/myir-st-optee/ldelf/ta_elf.c:1344
     e78:	aa1403e0 	mov	x0, x20
     e7c:	d0000021 	adrp	x1, 6000 <kprintf.constprop.0+0x68c>
     e80:	912b3421 	add	x1, x1, #0xacd
     e84:	9400125e 	bl	57fc <strcpy>
/media/home/beste/01_Pro/ld25x/bsp_hu/MYD-LD25X-Uboot-L2022.10-V1.0.0/GEN_FIP/myir-st-optee/ldelf/ta_elf.c:1345
     e88:	17ffffce 	b	dc0 <print_seg+0x70>

0000000000000e8c <copy_section_headers>:
copy_section_headers():
/media/home/beste/01_Pro/ld25x/bsp_hu/MYD-LD25X-Uboot-L2022.10-V1.0.0/GEN_FIP/myir-st-optee/ldelf/ta_elf.c:1062
     e8c:	a9bc7bfd 	stp	x29, x30, [sp, #-64]!
     e90:	910003fd 	mov	x29, sp
     e94:	a90153f3 	stp	x19, x20, [sp, #16]
     e98:	aa0003f4 	mov	x20, x0
     e9c:	a9025bf5 	stp	x21, x22, [sp, #32]
/media/home/beste/01_Pro/ld25x/bsp_hu/MYD-LD25X-Uboot-L2022.10-V1.0.0/GEN_FIP/myir-st-optee/ldelf/ta_elf.c:1067
     ea0:	b9404415 	ldr	w21, [x0, #68]
     ea4:	b9404c00 	ldr	w0, [x0, #76]
/media/home/beste/01_Pro/ld25x/bsp_hu/MYD-LD25X-Uboot-L2022.10-V1.0.0/GEN_FIP/myir-st-optee/ldelf/ta_elf.c:1062
     ea8:	f9001bf7 	str	x23, [sp, #48]
/media/home/beste/01_Pro/ld25x/bsp_hu/MYD-LD25X-Uboot-L2022.10-V1.0.0/GEN_FIP/myir-st-optee/ldelf/ta_elf.c:1067
     eac:	9ba07eb5 	umull	x21, w21, w0
/media/home/beste/01_Pro/ld25x/bsp_hu/MYD-LD25X-Uboot-L2022.10-V1.0.0/GEN_FIP/myir-st-optee/ldelf/ta_elf.c:1070
     eb0:	aa1503e0 	mov	x0, x21
     eb4:	940011f5 	bl	5688 <malloc>
     eb8:	f9002e80 	str	x0, [x20, #88]
/media/home/beste/01_Pro/ld25x/bsp_hu/MYD-LD25X-Uboot-L2022.10-V1.0.0/GEN_FIP/myir-st-optee/ldelf/ta_elf.c:1071
     ebc:	b5000160 	cbnz	x0, ee8 <copy_section_headers+0x5c>
/media/home/beste/01_Pro/ld25x/bsp_hu/MYD-LD25X-Uboot-L2022.10-V1.0.0/GEN_FIP/myir-st-optee/ldelf/ta_elf.c:1072
     ec0:	d0000024 	adrp	x4, 6000 <kprintf.constprop.0+0x68c>
     ec4:	52800023 	mov	w3, #0x1                   	// #1
     ec8:	912c4884 	add	x4, x4, #0xb12
     ecc:	52800022 	mov	w2, #0x1                   	// #1
     ed0:	52808601 	mov	w1, #0x430                 	// #1072
     ed4:	f0000020 	adrp	x0, 7000 <trace_ext_prefix+0x6bc>
     ed8:	9107e000 	add	x0, x0, #0x1f8
     edc:	9400161a 	bl	6744 <trace_printf>
     ee0:	129ffe60 	mov	w0, #0xffff000c            	// #-65524
/media/home/beste/01_Pro/ld25x/bsp_hu/MYD-LD25X-Uboot-L2022.10-V1.0.0/GEN_FIP/myir-st-optee/ldelf/ta_elf.c:1091
     ee4:	97fffc9c 	bl	154 <_ldelf_return>
/media/home/beste/01_Pro/ld25x/bsp_hu/MYD-LD25X-Uboot-L2022.10-V1.0.0/GEN_FIP/myir-st-optee/ldelf/ta_elf.c:1079
     ee8:	f9401e97 	ldr	x23, [x20, #56]
     eec:	aa0003f6 	mov	x22, x0
     ef0:	f13ffeff 	cmp	x23, #0xfff
     ef4:	54000488 	b.hi	f84 <copy_section_headers+0xf8>  // b.pmore
/media/home/beste/01_Pro/ld25x/bsp_hu/MYD-LD25X-Uboot-L2022.10-V1.0.0/GEN_FIP/myir-st-optee/ldelf/ta_elf.c:1080
     ef8:	39400281 	ldrb	w1, [x20]
     efc:	340000e1 	cbz	w1, f18 <copy_section_headers+0x8c>
/media/home/beste/01_Pro/ld25x/bsp_hu/MYD-LD25X-Uboot-L2022.10-V1.0.0/GEN_FIP/myir-st-optee/ldelf/ta_elf.c:1080 (discriminator 1)
     f00:	f0000022 	adrp	x2, 7000 <trace_ext_prefix+0x6bc>
     f04:	d0000020 	adrp	x0, 6000 <kprintf.constprop.0+0x68c>
     f08:	9107e042 	add	x2, x2, #0x1f8
     f0c:	912c6400 	add	x0, x0, #0xb19
     f10:	52808701 	mov	w1, #0x438                 	// #1080
     f14:	97ffff87 	bl	d30 <_assert_trap.constprop.0>
/media/home/beste/01_Pro/ld25x/bsp_hu/MYD-LD25X-Uboot-L2022.10-V1.0.0/GEN_FIP/myir-st-optee/ldelf/ta_elf.c:1081
     f18:	d2820013 	mov	x19, #0x1000                	// #4096
     f1c:	cb170273 	sub	x19, x19, x23
/media/home/beste/01_Pro/ld25x/bsp_hu/MYD-LD25X-Uboot-L2022.10-V1.0.0/GEN_FIP/myir-st-optee/ldelf/ta_elf.c:1082
     f20:	f9400681 	ldr	x1, [x20, #8]
/media/home/beste/01_Pro/ld25x/bsp_hu/MYD-LD25X-Uboot-L2022.10-V1.0.0/GEN_FIP/myir-st-optee/ldelf/ta_elf.c:1081
     f24:	eb15027f 	cmp	x19, x21
     f28:	9a959273 	csel	x19, x19, x21, ls	// ls = plast
/media/home/beste/01_Pro/ld25x/bsp_hu/MYD-LD25X-Uboot-L2022.10-V1.0.0/GEN_FIP/myir-st-optee/ldelf/ta_elf.c:1082
     f2c:	aa1303e2 	mov	x2, x19
     f30:	8b0102e1 	add	x1, x23, x1
     f34:	97fffc4f 	bl	70 <memcpy>
/media/home/beste/01_Pro/ld25x/bsp_hu/MYD-LD25X-Uboot-L2022.10-V1.0.0/GEN_FIP/myir-st-optee/ldelf/ta_elf.c:1086
     f38:	eb1302bf 	cmp	x21, x19
     f3c:	54000289 	b.ls	f8c <copy_section_headers+0x100>  // b.plast
/media/home/beste/01_Pro/ld25x/bsp_hu/MYD-LD25X-Uboot-L2022.10-V1.0.0/GEN_FIP/myir-st-optee/ldelf/ta_elf.c:1087
     f40:	b9410282 	ldr	w2, [x20, #256]
     f44:	8b1302e3 	add	x3, x23, x19
     f48:	cb1302a1 	sub	x1, x21, x19
     f4c:	8b1302c0 	add	x0, x22, x19
     f50:	97fffdbf 	bl	64c <sys_copy_from_ta_bin>
     f54:	2a0003f3 	mov	w19, w0
/media/home/beste/01_Pro/ld25x/bsp_hu/MYD-LD25X-Uboot-L2022.10-V1.0.0/GEN_FIP/myir-st-optee/ldelf/ta_elf.c:1090
     f58:	340001a0 	cbz	w0, f8c <copy_section_headers+0x100>
/media/home/beste/01_Pro/ld25x/bsp_hu/MYD-LD25X-Uboot-L2022.10-V1.0.0/GEN_FIP/myir-st-optee/ldelf/ta_elf.c:1091
     f5c:	d0000024 	adrp	x4, 6000 <kprintf.constprop.0+0x68c>
     f60:	52800023 	mov	w3, #0x1                   	// #1
     f64:	912c9c84 	add	x4, x4, #0xb27
     f68:	52800022 	mov	w2, #0x1                   	// #1
     f6c:	52808861 	mov	w1, #0x443                 	// #1091
     f70:	f0000020 	adrp	x0, 7000 <trace_ext_prefix+0x6bc>
     f74:	9107e000 	add	x0, x0, #0x1f8
     f78:	940015f3 	bl	6744 <trace_printf>
     f7c:	2a1303e0 	mov	w0, w19
     f80:	17ffffd9 	b	ee4 <copy_section_headers+0x58>
/media/home/beste/01_Pro/ld25x/bsp_hu/MYD-LD25X-Uboot-L2022.10-V1.0.0/GEN_FIP/myir-st-optee/ldelf/ta_elf.c:1065
     f84:	d2800013 	mov	x19, #0x0                   	// #0
     f88:	17ffffec 	b	f38 <copy_section_headers+0xac>
/media/home/beste/01_Pro/ld25x/bsp_hu/MYD-LD25X-Uboot-L2022.10-V1.0.0/GEN_FIP/myir-st-optee/ldelf/ta_elf.c:1093
     f8c:	a94153f3 	ldp	x19, x20, [sp, #16]
     f90:	a9425bf5 	ldp	x21, x22, [sp, #32]
     f94:	f9401bf7 	ldr	x23, [sp, #48]
     f98:	a8c47bfd 	ldp	x29, x30, [sp], #64
     f9c:	d65f03c0 	ret

0000000000000fa0 <populate_segments>:
populate_segments():
/media/home/beste/01_Pro/ld25x/bsp_hu/MYD-LD25X-Uboot-L2022.10-V1.0.0/GEN_FIP/myir-st-optee/ldelf/ta_elf.c:748
     fa0:	a9b97bfd 	stp	x29, x30, [sp, #-112]!
     fa4:	910003fd 	mov	x29, sp
     fa8:	a90153f3 	stp	x19, x20, [sp, #16]
     fac:	aa0003f3 	mov	x19, x0
/media/home/beste/01_Pro/ld25x/bsp_hu/MYD-LD25X-Uboot-L2022.10-V1.0.0/GEN_FIP/myir-st-optee/ldelf/ta_elf.c:754
     fb0:	39400800 	ldrb	w0, [x0, #2]
/media/home/beste/01_Pro/ld25x/bsp_hu/MYD-LD25X-Uboot-L2022.10-V1.0.0/GEN_FIP/myir-st-optee/ldelf/ta_elf.c:748
     fb4:	a9025bf5 	stp	x21, x22, [sp, #32]
     fb8:	a90363f7 	stp	x23, x24, [sp, #48]
     fbc:	a9046bf9 	stp	x25, x26, [sp, #64]
     fc0:	a90573fb 	stp	x27, x28, [sp, #80]
/media/home/beste/01_Pro/ld25x/bsp_hu/MYD-LD25X-Uboot-L2022.10-V1.0.0/GEN_FIP/myir-st-optee/ldelf/ta_elf.c:751
     fc4:	f90037ff 	str	xzr, [sp, #104]
/media/home/beste/01_Pro/ld25x/bsp_hu/MYD-LD25X-Uboot-L2022.10-V1.0.0/GEN_FIP/myir-st-optee/ldelf/ta_elf.c:754
     fc8:	340000e0 	cbz	w0, fe4 <populate_segments+0x44>
/media/home/beste/01_Pro/ld25x/bsp_hu/MYD-LD25X-Uboot-L2022.10-V1.0.0/GEN_FIP/myir-st-optee/ldelf/ta_elf.c:754 (discriminator 1)
     fcc:	f0000022 	adrp	x2, 7000 <trace_ext_prefix+0x6bc>
     fd0:	d0000020 	adrp	x0, 6000 <kprintf.constprop.0+0x68c>
     fd4:	910b5042 	add	x2, x2, #0x2d4
     fd8:	912cf000 	add	x0, x0, #0xb3c
     fdc:	52805e41 	mov	w1, #0x2f2                 	// #754
/media/home/beste/01_Pro/ld25x/bsp_hu/MYD-LD25X-Uboot-L2022.10-V1.0.0/GEN_FIP/myir-st-optee/ldelf/ta_elf.c:764 (discriminator 1)
     fe0:	97ffff54 	bl	d30 <_assert_trap.constprop.0>
/media/home/beste/01_Pro/ld25x/bsp_hu/MYD-LD25X-Uboot-L2022.10-V1.0.0/GEN_FIP/myir-st-optee/ldelf/ta_elf.c:755
     fe4:	f9405275 	ldr	x21, [x19, #160]
     fe8:	9101a3f6 	add	x22, sp, #0x68
/media/home/beste/01_Pro/ld25x/bsp_hu/MYD-LD25X-Uboot-L2022.10-V1.0.0/GEN_FIP/myir-st-optee/ldelf/ta_elf.c:755 (discriminator 1)
     fec:	b5000115 	cbnz	x21, 100c <populate_segments+0x6c>
/media/home/beste/01_Pro/ld25x/bsp_hu/MYD-LD25X-Uboot-L2022.10-V1.0.0/GEN_FIP/myir-st-optee/ldelf/ta_elf.c:877
     ff0:	a94153f3 	ldp	x19, x20, [sp, #16]
     ff4:	a9425bf5 	ldp	x21, x22, [sp, #32]
     ff8:	a94363f7 	ldp	x23, x24, [sp, #48]
     ffc:	a9446bf9 	ldp	x25, x26, [sp, #64]
    1000:	a94573fb 	ldp	x27, x28, [sp, #80]
    1004:	a8c77bfd 	ldp	x29, x30, [sp], #112
    1008:	d65f03c0 	ret
/media/home/beste/01_Pro/ld25x/bsp_hu/MYD-LD25X-Uboot-L2022.10-V1.0.0/GEN_FIP/myir-st-optee/ldelf/ta_elf.c:756
    100c:	f9405660 	ldr	x0, [x19, #168]
/media/home/beste/01_Pro/ld25x/bsp_hu/MYD-LD25X-Uboot-L2022.10-V1.0.0/GEN_FIP/myir-st-optee/ldelf/ta_elf.c:758
    1010:	f94006a3 	ldr	x3, [x21, #8]
/media/home/beste/01_Pro/ld25x/bsp_hu/MYD-LD25X-Uboot-L2022.10-V1.0.0/GEN_FIP/myir-st-optee/ldelf/ta_elf.c:756
    1014:	f9400400 	ldr	x0, [x0, #8]
/media/home/beste/01_Pro/ld25x/bsp_hu/MYD-LD25X-Uboot-L2022.10-V1.0.0/GEN_FIP/myir-st-optee/ldelf/ta_elf.c:758
    1018:	f9400eb9 	ldr	x25, [x21, #24]
/media/home/beste/01_Pro/ld25x/bsp_hu/MYD-LD25X-Uboot-L2022.10-V1.0.0/GEN_FIP/myir-st-optee/ldelf/ta_elf.c:756
    101c:	f9400000 	ldr	x0, [x0]
roundup():
/media/home/beste/01_Pro/ld25x/bsp_hu/MYD-LD25X-Uboot-L2022.10-V1.0.0/GEN_FIP/myir-st-optee/ldelf/ta_elf.c:492
    1020:	8b190062 	add	x2, x3, x25
    1024:	f9400418 	ldr	x24, [x0, #8]
    1028:	f9400c00 	ldr	x0, [x0, #24]
    102c:	8b000318 	add	x24, x24, x0
populate_segments():
/media/home/beste/01_Pro/ld25x/bsp_hu/MYD-LD25X-Uboot-L2022.10-V1.0.0/GEN_FIP/myir-st-optee/ldelf/ta_elf.c:760
    1030:	3940c2a0 	ldrb	w0, [x21, #48]
roundup():
/media/home/beste/01_Pro/ld25x/bsp_hu/MYD-LD25X-Uboot-L2022.10-V1.0.0/GEN_FIP/myir-st-optee/ldelf/ta_elf.c:492
    1034:	cb020318 	sub	x24, x24, x2
    1038:	913fff18 	add	x24, x24, #0xfff
    103c:	9274cf18 	and	x24, x24, #0xfffffffffffff000
populate_segments():
/media/home/beste/01_Pro/ld25x/bsp_hu/MYD-LD25X-Uboot-L2022.10-V1.0.0/GEN_FIP/myir-st-optee/ldelf/ta_elf.c:760
    1040:	34000b00 	cbz	w0, 11a0 <populate_segments+0x200>
roundup():
/media/home/beste/01_Pro/ld25x/bsp_hu/MYD-LD25X-Uboot-L2022.10-V1.0.0/GEN_FIP/myir-st-optee/ldelf/ta_elf.c:492
    1044:	913ffc54 	add	x20, x2, #0xfff
rounddown():
/media/home/beste/01_Pro/ld25x/bsp_hu/MYD-LD25X-Uboot-L2022.10-V1.0.0/GEN_FIP/myir-st-optee/ldelf/ta_elf.c:497
    1048:	9274cc60 	and	x0, x3, #0xfffffffffffff000
roundup():
/media/home/beste/01_Pro/ld25x/bsp_hu/MYD-LD25X-Uboot-L2022.10-V1.0.0/GEN_FIP/myir-st-optee/ldelf/ta_elf.c:492
    104c:	9274ce94 	and	x20, x20, #0xfffffffffffff000
populate_segments():
/media/home/beste/01_Pro/ld25x/bsp_hu/MYD-LD25X-Uboot-L2022.10-V1.0.0/GEN_FIP/myir-st-optee/ldelf/ta_elf.c:761
    1050:	cb000294 	sub	x20, x20, x0
/media/home/beste/01_Pro/ld25x/bsp_hu/MYD-LD25X-Uboot-L2022.10-V1.0.0/GEN_FIP/myir-st-optee/ldelf/ta_elf.c:764
    1054:	f9400660 	ldr	x0, [x19, #8]
    1058:	b50000e0 	cbnz	x0, 1074 <populate_segments+0xd4>
/media/home/beste/01_Pro/ld25x/bsp_hu/MYD-LD25X-Uboot-L2022.10-V1.0.0/GEN_FIP/myir-st-optee/ldelf/ta_elf.c:764 (discriminator 1)
    105c:	d0000022 	adrp	x2, 7000 <trace_ext_prefix+0x6bc>
    1060:	b0000020 	adrp	x0, 6000 <kprintf.constprop.0+0x68c>
    1064:	910b5042 	add	x2, x2, #0x2d4
    1068:	912d3000 	add	x0, x0, #0xb4c
    106c:	52805f81 	mov	w1, #0x2fc                 	// #764
    1070:	17ffffdc 	b	fe0 <populate_segments+0x40>
/media/home/beste/01_Pro/ld25x/bsp_hu/MYD-LD25X-Uboot-L2022.10-V1.0.0/GEN_FIP/myir-st-optee/ldelf/ta_elf.c:765
    1074:	8b000063 	add	x3, x3, x0
/media/home/beste/01_Pro/ld25x/bsp_hu/MYD-LD25X-Uboot-L2022.10-V1.0.0/GEN_FIP/myir-st-optee/ldelf/ta_elf.c:766
    1078:	f9400a60 	ldr	x0, [x19, #16]
rounddown():
/media/home/beste/01_Pro/ld25x/bsp_hu/MYD-LD25X-Uboot-L2022.10-V1.0.0/GEN_FIP/myir-st-optee/ldelf/ta_elf.c:497
    107c:	9274cc63 	and	x3, x3, #0xfffffffffffff000
populate_segments():
/media/home/beste/01_Pro/ld25x/bsp_hu/MYD-LD25X-Uboot-L2022.10-V1.0.0/GEN_FIP/myir-st-optee/ldelf/ta_elf.c:765
    1080:	f90037e3 	str	x3, [sp, #104]
/media/home/beste/01_Pro/ld25x/bsp_hu/MYD-LD25X-Uboot-L2022.10-V1.0.0/GEN_FIP/myir-st-optee/ldelf/ta_elf.c:766
    1084:	eb03001f 	cmp	x0, x3
    1088:	540000e9 	b.ls	10a4 <populate_segments+0x104>  // b.plast
/media/home/beste/01_Pro/ld25x/bsp_hu/MYD-LD25X-Uboot-L2022.10-V1.0.0/GEN_FIP/myir-st-optee/ldelf/ta_elf.c:766 (discriminator 1)
    108c:	d0000022 	adrp	x2, 7000 <trace_ext_prefix+0x6bc>
    1090:	b0000020 	adrp	x0, 6000 <kprintf.constprop.0+0x68c>
    1094:	910b5042 	add	x2, x2, #0x2d4
    1098:	912d6c00 	add	x0, x0, #0xb5b
    109c:	52805fc1 	mov	w1, #0x2fe                 	// #766
    10a0:	17ffffd0 	b	fe0 <populate_segments+0x40>
/media/home/beste/01_Pro/ld25x/bsp_hu/MYD-LD25X-Uboot-L2022.10-V1.0.0/GEN_FIP/myir-st-optee/ldelf/ta_elf.c:767
    10a4:	aa1803e4 	mov	x4, x24
    10a8:	aa1603e2 	mov	x2, x22
    10ac:	aa1403e0 	mov	x0, x20
    10b0:	d2800003 	mov	x3, #0x0                   	// #0
    10b4:	52800001 	mov	w1, #0x0                   	// #0
    10b8:	97fffd51 	bl	5fc <sys_map_zi>
    10bc:	2a0003f8 	mov	w24, w0
/media/home/beste/01_Pro/ld25x/bsp_hu/MYD-LD25X-Uboot-L2022.10-V1.0.0/GEN_FIP/myir-st-optee/ldelf/ta_elf.c:768
    10c0:	34000160 	cbz	w0, 10ec <populate_segments+0x14c>
/media/home/beste/01_Pro/ld25x/bsp_hu/MYD-LD25X-Uboot-L2022.10-V1.0.0/GEN_FIP/myir-st-optee/ldelf/ta_elf.c:769
    10c4:	b0000024 	adrp	x4, 6000 <kprintf.constprop.0+0x68c>
    10c8:	912dbc84 	add	x4, x4, #0xb6f
    10cc:	52800023 	mov	w3, #0x1                   	// #1
    10d0:	52800022 	mov	w2, #0x1                   	// #1
    10d4:	52806021 	mov	w1, #0x301                 	// #769
/media/home/beste/01_Pro/ld25x/bsp_hu/MYD-LD25X-Uboot-L2022.10-V1.0.0/GEN_FIP/myir-st-optee/ldelf/ta_elf.c:854
    10d8:	d0000020 	adrp	x0, 7000 <trace_ext_prefix+0x6bc>
    10dc:	910b5000 	add	x0, x0, #0x2d4
    10e0:	94001599 	bl	6744 <trace_printf>
    10e4:	2a1803e0 	mov	w0, w24
    10e8:	14000025 	b	117c <populate_segments+0x1dc>
copy_remapped_to():
/media/home/beste/01_Pro/ld25x/bsp_hu/MYD-LD25X-Uboot-L2022.10-V1.0.0/GEN_FIP/myir-st-optee/ldelf/ta_elf.c:564
    10ec:	a94012b8 	ldp	x24, x4, [x21]
    10f0:	f9400660 	ldr	x0, [x19, #8]
/media/home/beste/01_Pro/ld25x/bsp_hu/MYD-LD25X-Uboot-L2022.10-V1.0.0/GEN_FIP/myir-st-optee/ldelf/ta_elf.c:567
    10f4:	f9400aba 	ldr	x26, [x21, #16]
/media/home/beste/01_Pro/ld25x/bsp_hu/MYD-LD25X-Uboot-L2022.10-V1.0.0/GEN_FIP/myir-st-optee/ldelf/ta_elf.c:564
    10f8:	8b000084 	add	x4, x4, x0
/media/home/beste/01_Pro/ld25x/bsp_hu/MYD-LD25X-Uboot-L2022.10-V1.0.0/GEN_FIP/myir-st-optee/ldelf/ta_elf.c:569
    10fc:	f9400e60 	ldr	x0, [x19, #24]
    1100:	eb00031f 	cmp	x24, x0
    1104:	540001a2 	b.cs	1138 <populate_segments+0x198>  // b.hs, b.nlast
/media/home/beste/01_Pro/ld25x/bsp_hu/MYD-LD25X-Uboot-L2022.10-V1.0.0/GEN_FIP/myir-st-optee/ldelf/ta_elf.c:571
    1108:	f9400a61 	ldr	x1, [x19, #16]
/media/home/beste/01_Pro/ld25x/bsp_hu/MYD-LD25X-Uboot-L2022.10-V1.0.0/GEN_FIP/myir-st-optee/ldelf/ta_elf.c:570
    110c:	cb180019 	sub	x25, x0, x24
    1110:	eb1a033f 	cmp	x25, x26
    1114:	9a9a9339 	csel	x25, x25, x26, ls	// ls = plast
/media/home/beste/01_Pro/ld25x/bsp_hu/MYD-LD25X-Uboot-L2022.10-V1.0.0/GEN_FIP/myir-st-optee/ldelf/ta_elf.c:571
    1118:	cb000021 	sub	x1, x1, x0
    111c:	8b180021 	add	x1, x1, x24
    1120:	aa0403e0 	mov	x0, x4
    1124:	aa1903e2 	mov	x2, x25
/media/home/beste/01_Pro/ld25x/bsp_hu/MYD-LD25X-Uboot-L2022.10-V1.0.0/GEN_FIP/myir-st-optee/ldelf/ta_elf.c:574
    1128:	cb19035a 	sub	x26, x26, x25
/media/home/beste/01_Pro/ld25x/bsp_hu/MYD-LD25X-Uboot-L2022.10-V1.0.0/GEN_FIP/myir-st-optee/ldelf/ta_elf.c:571
    112c:	97fffbd1 	bl	70 <memcpy>
/media/home/beste/01_Pro/ld25x/bsp_hu/MYD-LD25X-Uboot-L2022.10-V1.0.0/GEN_FIP/myir-st-optee/ldelf/ta_elf.c:573
    1130:	8b190318 	add	x24, x24, x25
/media/home/beste/01_Pro/ld25x/bsp_hu/MYD-LD25X-Uboot-L2022.10-V1.0.0/GEN_FIP/myir-st-optee/ldelf/ta_elf.c:572
    1134:	8b190004 	add	x4, x0, x25
/media/home/beste/01_Pro/ld25x/bsp_hu/MYD-LD25X-Uboot-L2022.10-V1.0.0/GEN_FIP/myir-st-optee/ldelf/ta_elf.c:577
    1138:	b40002ba 	cbz	x26, 118c <populate_segments+0x1ec>
/media/home/beste/01_Pro/ld25x/bsp_hu/MYD-LD25X-Uboot-L2022.10-V1.0.0/GEN_FIP/myir-st-optee/ldelf/ta_elf.c:578
    113c:	b9410262 	ldr	w2, [x19, #256]
    1140:	aa1803e3 	mov	x3, x24
    1144:	aa1a03e1 	mov	x1, x26
    1148:	aa0403e0 	mov	x0, x4
    114c:	97fffd40 	bl	64c <sys_copy_from_ta_bin>
    1150:	2a0003f9 	mov	w25, w0
/media/home/beste/01_Pro/ld25x/bsp_hu/MYD-LD25X-Uboot-L2022.10-V1.0.0/GEN_FIP/myir-st-optee/ldelf/ta_elf.c:581
    1154:	34000160 	cbz	w0, 1180 <populate_segments+0x1e0>
/media/home/beste/01_Pro/ld25x/bsp_hu/MYD-LD25X-Uboot-L2022.10-V1.0.0/GEN_FIP/myir-st-optee/ldelf/ta_elf.c:582
    1158:	b0000024 	adrp	x4, 6000 <kprintf.constprop.0+0x68c>
    115c:	52800023 	mov	w3, #0x1                   	// #1
    1160:	912c9c84 	add	x4, x4, #0xb27
    1164:	52800022 	mov	w2, #0x1                   	// #1
    1168:	528048c1 	mov	w1, #0x246                 	// #582
    116c:	d0000020 	adrp	x0, 7000 <trace_ext_prefix+0x6bc>
    1170:	910b0c00 	add	x0, x0, #0x2c3
    1174:	94001574 	bl	6744 <trace_printf>
    1178:	2a1903e0 	mov	w0, w25
populate_segments():
/media/home/beste/01_Pro/ld25x/bsp_hu/MYD-LD25X-Uboot-L2022.10-V1.0.0/GEN_FIP/myir-st-optee/ldelf/ta_elf.c:868
    117c:	97fffbf6 	bl	154 <_ldelf_return>
copy_remapped_to():
/media/home/beste/01_Pro/ld25x/bsp_hu/MYD-LD25X-Uboot-L2022.10-V1.0.0/GEN_FIP/myir-st-optee/ldelf/ta_elf.c:583
    1180:	f9400e60 	ldr	x0, [x19, #24]
    1184:	8b180000 	add	x0, x0, x24
    1188:	f9000e60 	str	x0, [x19, #24]
populate_segments():
/media/home/beste/01_Pro/ld25x/bsp_hu/MYD-LD25X-Uboot-L2022.10-V1.0.0/GEN_FIP/myir-st-optee/ldelf/ta_elf.c:772
    118c:	f94037e0 	ldr	x0, [sp, #104]
    1190:	8b140000 	add	x0, x0, x20
/media/home/beste/01_Pro/ld25x/bsp_hu/MYD-LD25X-Uboot-L2022.10-V1.0.0/GEN_FIP/myir-st-optee/ldelf/ta_elf.c:810
    1194:	f9000a60 	str	x0, [x19, #16]
/media/home/beste/01_Pro/ld25x/bsp_hu/MYD-LD25X-Uboot-L2022.10-V1.0.0/GEN_FIP/myir-st-optee/ldelf/ta_elf.c:755 (discriminator 2)
    1198:	f9401eb5 	ldr	x21, [x21, #56]
    119c:	17ffff94 	b	fec <populate_segments+0x4c>
/media/home/beste/01_Pro/ld25x/bsp_hu/MYD-LD25X-Uboot-L2022.10-V1.0.0/GEN_FIP/myir-st-optee/ldelf/ta_elf.c:777
    11a0:	f94002ba 	ldr	x26, [x21]
/media/home/beste/01_Pro/ld25x/bsp_hu/MYD-LD25X-Uboot-L2022.10-V1.0.0/GEN_FIP/myir-st-optee/ldelf/ta_elf.c:780
    11a4:	f9400e60 	ldr	x0, [x19, #24]
/media/home/beste/01_Pro/ld25x/bsp_hu/MYD-LD25X-Uboot-L2022.10-V1.0.0/GEN_FIP/myir-st-optee/ldelf/ta_elf.c:775
    11a8:	f9400ab4 	ldr	x20, [x21, #16]
/media/home/beste/01_Pro/ld25x/bsp_hu/MYD-LD25X-Uboot-L2022.10-V1.0.0/GEN_FIP/myir-st-optee/ldelf/ta_elf.c:780
    11ac:	eb1a001f 	cmp	x0, x26
    11b0:	54000589 	b.ls	1260 <populate_segments+0x2c0>  // b.plast
/media/home/beste/01_Pro/ld25x/bsp_hu/MYD-LD25X-Uboot-L2022.10-V1.0.0/GEN_FIP/myir-st-optee/ldelf/ta_elf.c:786
    11b4:	8b140060 	add	x0, x3, x20
    11b8:	f13ffc1f 	cmp	x0, #0xfff
    11bc:	540004a8 	b.hi	1250 <populate_segments+0x2b0>  // b.pmore
/media/home/beste/01_Pro/ld25x/bsp_hu/MYD-LD25X-Uboot-L2022.10-V1.0.0/GEN_FIP/myir-st-optee/ldelf/ta_elf.c:793
    11c0:	f140045f 	cmp	x2, #0x1, lsl #12
    11c4:	54fffea9 	b.ls	1198 <populate_segments+0x1f8>  // b.plast
/media/home/beste/01_Pro/ld25x/bsp_hu/MYD-LD25X-Uboot-L2022.10-V1.0.0/GEN_FIP/myir-st-optee/ldelf/ta_elf.c:801
    11c8:	f9400a60 	ldr	x0, [x19, #16]
roundup():
/media/home/beste/01_Pro/ld25x/bsp_hu/MYD-LD25X-Uboot-L2022.10-V1.0.0/GEN_FIP/myir-st-optee/ldelf/ta_elf.c:492
    11cc:	913ffc54 	add	x20, x2, #0xfff
    11d0:	913ffc63 	add	x3, x3, #0xfff
    11d4:	9274ce94 	and	x20, x20, #0xfffffffffffff000
    11d8:	9274cc63 	and	x3, x3, #0xfffffffffffff000
populate_segments():
/media/home/beste/01_Pro/ld25x/bsp_hu/MYD-LD25X-Uboot-L2022.10-V1.0.0/GEN_FIP/myir-st-optee/ldelf/ta_elf.c:801
    11dc:	f90037e0 	str	x0, [sp, #104]
/media/home/beste/01_Pro/ld25x/bsp_hu/MYD-LD25X-Uboot-L2022.10-V1.0.0/GEN_FIP/myir-st-optee/ldelf/ta_elf.c:802
    11e0:	cb030294 	sub	x20, x20, x3
/media/home/beste/01_Pro/ld25x/bsp_hu/MYD-LD25X-Uboot-L2022.10-V1.0.0/GEN_FIP/myir-st-optee/ldelf/ta_elf.c:805
    11e4:	f1400694 	subs	x20, x20, #0x1, lsl #12
    11e8:	540000e1 	b.ne	1204 <populate_segments+0x264>  // b.any
/media/home/beste/01_Pro/ld25x/bsp_hu/MYD-LD25X-Uboot-L2022.10-V1.0.0/GEN_FIP/myir-st-optee/ldelf/ta_elf.c:805 (discriminator 1)
    11ec:	d0000022 	adrp	x2, 7000 <trace_ext_prefix+0x6bc>
    11f0:	b0000020 	adrp	x0, 6000 <kprintf.constprop.0+0x68c>
    11f4:	910b5042 	add	x2, x2, #0x2d4
    11f8:	912de800 	add	x0, x0, #0xb7a
    11fc:	528064a1 	mov	w1, #0x325                 	// #805
    1200:	17ffff78 	b	fe0 <populate_segments+0x40>
/media/home/beste/01_Pro/ld25x/bsp_hu/MYD-LD25X-Uboot-L2022.10-V1.0.0/GEN_FIP/myir-st-optee/ldelf/ta_elf.c:806
    1204:	aa1603e2 	mov	x2, x22
    1208:	aa1403e0 	mov	x0, x20
    120c:	d2800004 	mov	x4, #0x0                   	// #0
    1210:	d2800003 	mov	x3, #0x0                   	// #0
    1214:	52800001 	mov	w1, #0x0                   	// #0
    1218:	97fffcf9 	bl	5fc <sys_map_zi>
    121c:	2a0003f8 	mov	w24, w0
/media/home/beste/01_Pro/ld25x/bsp_hu/MYD-LD25X-Uboot-L2022.10-V1.0.0/GEN_FIP/myir-st-optee/ldelf/ta_elf.c:808
    1220:	340000e0 	cbz	w0, 123c <populate_segments+0x29c>
/media/home/beste/01_Pro/ld25x/bsp_hu/MYD-LD25X-Uboot-L2022.10-V1.0.0/GEN_FIP/myir-st-optee/ldelf/ta_elf.c:809
    1224:	b0000024 	adrp	x4, 6000 <kprintf.constprop.0+0x68c>
    1228:	52800023 	mov	w3, #0x1                   	// #1
    122c:	912dbc84 	add	x4, x4, #0xb6f
    1230:	52800022 	mov	w2, #0x1                   	// #1
    1234:	52806521 	mov	w1, #0x329                 	// #809
    1238:	17ffffa8 	b	10d8 <populate_segments+0x138>
roundup():
/media/home/beste/01_Pro/ld25x/bsp_hu/MYD-LD25X-Uboot-L2022.10-V1.0.0/GEN_FIP/myir-st-optee/ldelf/ta_elf.c:492
    123c:	f94037e0 	ldr	x0, [sp, #104]
    1240:	913ffc00 	add	x0, x0, #0xfff
    1244:	8b140000 	add	x0, x0, x20
    1248:	9274cc00 	and	x0, x0, #0xfffffffffffff000
    124c:	17ffffd2 	b	1194 <populate_segments+0x1f4>
populate_segments():
/media/home/beste/01_Pro/ld25x/bsp_hu/MYD-LD25X-Uboot-L2022.10-V1.0.0/GEN_FIP/myir-st-optee/ldelf/ta_elf.c:815
    1250:	91400463 	add	x3, x3, #0x1, lsl #12
/media/home/beste/01_Pro/ld25x/bsp_hu/MYD-LD25X-Uboot-L2022.10-V1.0.0/GEN_FIP/myir-st-optee/ldelf/ta_elf.c:816
    1254:	d1400694 	sub	x20, x20, #0x1, lsl #12
/media/home/beste/01_Pro/ld25x/bsp_hu/MYD-LD25X-Uboot-L2022.10-V1.0.0/GEN_FIP/myir-st-optee/ldelf/ta_elf.c:817
    1258:	d1400739 	sub	x25, x25, #0x1, lsl #12
/media/home/beste/01_Pro/ld25x/bsp_hu/MYD-LD25X-Uboot-L2022.10-V1.0.0/GEN_FIP/myir-st-optee/ldelf/ta_elf.c:818
    125c:	9140075a 	add	x26, x26, #0x1, lsl #12
/media/home/beste/01_Pro/ld25x/bsp_hu/MYD-LD25X-Uboot-L2022.10-V1.0.0/GEN_FIP/myir-st-optee/ldelf/ta_elf.c:821
    1260:	f9400660 	ldr	x0, [x19, #8]
    1264:	b5000280 	cbnz	x0, 12b4 <populate_segments+0x314>
/media/home/beste/01_Pro/ld25x/bsp_hu/MYD-LD25X-Uboot-L2022.10-V1.0.0/GEN_FIP/myir-st-optee/ldelf/ta_elf.c:822
    1268:	f90037ff 	str	xzr, [sp, #104]
/media/home/beste/01_Pro/ld25x/bsp_hu/MYD-LD25X-Uboot-L2022.10-V1.0.0/GEN_FIP/myir-st-optee/ldelf/ta_elf.c:823
    126c:	97fffd90 	bl	8ac <get_pad_begin>
    1270:	aa0003f7 	mov	x23, x0
/media/home/beste/01_Pro/ld25x/bsp_hu/MYD-LD25X-Uboot-L2022.10-V1.0.0/GEN_FIP/myir-st-optee/ldelf/ta_elf.c:834
    1274:	f94012a0 	ldr	x0, [x21, #32]
/media/home/beste/01_Pro/ld25x/bsp_hu/MYD-LD25X-Uboot-L2022.10-V1.0.0/GEN_FIP/myir-st-optee/ldelf/ta_elf.c:837
    1278:	5301041c 	ubfx	w28, w0, #1, #1
    127c:	1100079c 	add	w28, w28, #0x1
/media/home/beste/01_Pro/ld25x/bsp_hu/MYD-LD25X-Uboot-L2022.10-V1.0.0/GEN_FIP/myir-st-optee/ldelf/ta_elf.c:838
    1280:	36000040 	tbz	w0, #0, 1288 <populate_segments+0x2e8>
/media/home/beste/01_Pro/ld25x/bsp_hu/MYD-LD25X-Uboot-L2022.10-V1.0.0/GEN_FIP/myir-st-optee/ldelf/ta_elf.c:839
    1284:	321e039c 	orr	w28, w28, #0x4
/media/home/beste/01_Pro/ld25x/bsp_hu/MYD-LD25X-Uboot-L2022.10-V1.0.0/GEN_FIP/myir-st-optee/ldelf/ta_elf.c:840
    1288:	371001e0 	tbnz	w0, #2, 12c4 <populate_segments+0x324>
/media/home/beste/01_Pro/ld25x/bsp_hu/MYD-LD25X-Uboot-L2022.10-V1.0.0/GEN_FIP/myir-st-optee/ldelf/ta_elf.c:841
    128c:	b0000024 	adrp	x4, 6000 <kprintf.constprop.0+0x68c>
    1290:	52800023 	mov	w3, #0x1                   	// #1
    1294:	912e1084 	add	x4, x4, #0xb84
    1298:	52800022 	mov	w2, #0x1                   	// #1
    129c:	52806921 	mov	w1, #0x349                 	// #841
    12a0:	d0000020 	adrp	x0, 7000 <trace_ext_prefix+0x6bc>
    12a4:	910b5000 	add	x0, x0, #0x2d4
    12a8:	94001527 	bl	6744 <trace_printf>
    12ac:	129ffea0 	mov	w0, #0xffff000a            	// #-65526
    12b0:	17ffffb3 	b	117c <populate_segments+0x1dc>
/media/home/beste/01_Pro/ld25x/bsp_hu/MYD-LD25X-Uboot-L2022.10-V1.0.0/GEN_FIP/myir-st-optee/ldelf/ta_elf.c:830
    12b4:	8b030000 	add	x0, x0, x3
/media/home/beste/01_Pro/ld25x/bsp_hu/MYD-LD25X-Uboot-L2022.10-V1.0.0/GEN_FIP/myir-st-optee/ldelf/ta_elf.c:831
    12b8:	d2800017 	mov	x23, #0x0                   	// #0
/media/home/beste/01_Pro/ld25x/bsp_hu/MYD-LD25X-Uboot-L2022.10-V1.0.0/GEN_FIP/myir-st-optee/ldelf/ta_elf.c:830
    12bc:	f90037e0 	str	x0, [sp, #104]
/media/home/beste/01_Pro/ld25x/bsp_hu/MYD-LD25X-Uboot-L2022.10-V1.0.0/GEN_FIP/myir-st-optee/ldelf/ta_elf.c:831
    12c0:	17ffffed 	b	1274 <populate_segments+0x2d4>
/media/home/beste/01_Pro/ld25x/bsp_hu/MYD-LD25X-Uboot-L2022.10-V1.0.0/GEN_FIP/myir-st-optee/ldelf/ta_elf.c:843
    12c4:	3608057c 	tbz	w28, #1, 1370 <populate_segments+0x3d0>
/media/home/beste/01_Pro/ld25x/bsp_hu/MYD-LD25X-Uboot-L2022.10-V1.0.0/GEN_FIP/myir-st-optee/ldelf/ta_elf.c:844
    12c8:	aa1803e4 	mov	x4, x24
    12cc:	aa1703e3 	mov	x3, x23
    12d0:	aa1603e2 	mov	x2, x22
    12d4:	aa1903e0 	mov	x0, x25
    12d8:	52800001 	mov	w1, #0x0                   	// #0
    12dc:	97fffcc8 	bl	5fc <sys_map_zi>
/media/home/beste/01_Pro/ld25x/bsp_hu/MYD-LD25X-Uboot-L2022.10-V1.0.0/GEN_FIP/myir-st-optee/ldelf/ta_elf.c:846
    12e0:	f10002ff 	cmp	x23, #0x0
/media/home/beste/01_Pro/ld25x/bsp_hu/MYD-LD25X-Uboot-L2022.10-V1.0.0/GEN_FIP/myir-st-optee/ldelf/ta_elf.c:844
    12e4:	2a0003fb 	mov	w27, w0
/media/home/beste/01_Pro/ld25x/bsp_hu/MYD-LD25X-Uboot-L2022.10-V1.0.0/GEN_FIP/myir-st-optee/ldelf/ta_elf.c:846
    12e8:	129ffe60 	mov	w0, #0xffff000c            	// #-65524
    12ec:	7a401360 	ccmp	w27, w0, #0x0, ne	// ne = any
    12f0:	54000101 	b.ne	1310 <populate_segments+0x370>  // b.any
/media/home/beste/01_Pro/ld25x/bsp_hu/MYD-LD25X-Uboot-L2022.10-V1.0.0/GEN_FIP/myir-st-optee/ldelf/ta_elf.c:847
    12f4:	aa1803e4 	mov	x4, x24
    12f8:	aa1603e2 	mov	x2, x22
    12fc:	aa1903e0 	mov	x0, x25
    1300:	d2800003 	mov	x3, #0x0                   	// #0
    1304:	52800001 	mov	w1, #0x0                   	// #0
    1308:	97fffcbd 	bl	5fc <sys_map_zi>
    130c:	2a0003fb 	mov	w27, w0
/media/home/beste/01_Pro/ld25x/bsp_hu/MYD-LD25X-Uboot-L2022.10-V1.0.0/GEN_FIP/myir-st-optee/ldelf/ta_elf.c:849
    1310:	3400017b 	cbz	w27, 133c <populate_segments+0x39c>
/media/home/beste/01_Pro/ld25x/bsp_hu/MYD-LD25X-Uboot-L2022.10-V1.0.0/GEN_FIP/myir-st-optee/ldelf/ta_elf.c:850
    1314:	b0000024 	adrp	x4, 6000 <kprintf.constprop.0+0x68c>
    1318:	912dbc84 	add	x4, x4, #0xb6f
    131c:	52800023 	mov	w3, #0x1                   	// #1
    1320:	52800022 	mov	w2, #0x1                   	// #1
    1324:	52806a41 	mov	w1, #0x352                 	// #850
/media/home/beste/01_Pro/ld25x/bsp_hu/MYD-LD25X-Uboot-L2022.10-V1.0.0/GEN_FIP/myir-st-optee/ldelf/ta_elf.c:868
    1328:	d0000020 	adrp	x0, 7000 <trace_ext_prefix+0x6bc>
    132c:	910b5000 	add	x0, x0, #0x2d4
    1330:	94001505 	bl	6744 <trace_printf>
    1334:	2a1b03e0 	mov	w0, w27
    1338:	17ffff91 	b	117c <populate_segments+0x1dc>
/media/home/beste/01_Pro/ld25x/bsp_hu/MYD-LD25X-Uboot-L2022.10-V1.0.0/GEN_FIP/myir-st-optee/ldelf/ta_elf.c:851
    133c:	f94037e0 	ldr	x0, [sp, #104]
    1340:	aa1a03e3 	mov	x3, x26
    1344:	b9410262 	ldr	w2, [x19, #256]
    1348:	aa1403e1 	mov	x1, x20
    134c:	97fffcc0 	bl	64c <sys_copy_from_ta_bin>
    1350:	2a0003f8 	mov	w24, w0
/media/home/beste/01_Pro/ld25x/bsp_hu/MYD-LD25X-Uboot-L2022.10-V1.0.0/GEN_FIP/myir-st-optee/ldelf/ta_elf.c:853
    1354:	34000600 	cbz	w0, 1414 <populate_segments+0x474>
/media/home/beste/01_Pro/ld25x/bsp_hu/MYD-LD25X-Uboot-L2022.10-V1.0.0/GEN_FIP/myir-st-optee/ldelf/ta_elf.c:854
    1358:	b0000024 	adrp	x4, 6000 <kprintf.constprop.0+0x68c>
    135c:	52800023 	mov	w3, #0x1                   	// #1
    1360:	912c9c84 	add	x4, x4, #0xb27
    1364:	52800022 	mov	w2, #0x1                   	// #1
    1368:	52806ac1 	mov	w1, #0x356                 	// #854
    136c:	17ffff5b 	b	10d8 <populate_segments+0x138>
/media/home/beste/01_Pro/ld25x/bsp_hu/MYD-LD25X-Uboot-L2022.10-V1.0.0/GEN_FIP/myir-st-optee/ldelf/ta_elf.c:856
    1370:	eb19029f 	cmp	x20, x25
    1374:	54000160 	b.eq	13a0 <populate_segments+0x400>  // b.none
/media/home/beste/01_Pro/ld25x/bsp_hu/MYD-LD25X-Uboot-L2022.10-V1.0.0/GEN_FIP/myir-st-optee/ldelf/ta_elf.c:857
    1378:	b0000024 	adrp	x4, 6000 <kprintf.constprop.0+0x68c>
    137c:	52800023 	mov	w3, #0x1                   	// #1
    1380:	912e7484 	add	x4, x4, #0xb9d
    1384:	52800022 	mov	w2, #0x1                   	// #1
    1388:	52806b21 	mov	w1, #0x359                 	// #857
    138c:	d0000020 	adrp	x0, 7000 <trace_ext_prefix+0x6bc>
    1390:	910b5000 	add	x0, x0, #0x2d4
    1394:	940014ec 	bl	6744 <trace_printf>
    1398:	129fff40 	mov	w0, #0xffff0005            	// #-65531
    139c:	17ffff78 	b	117c <populate_segments+0x1dc>
/media/home/beste/01_Pro/ld25x/bsp_hu/MYD-LD25X-Uboot-L2022.10-V1.0.0/GEN_FIP/myir-st-optee/ldelf/ta_elf.c:859
    13a0:	b9410263 	ldr	w3, [x19, #256]
    13a4:	aa1803e6 	mov	x6, x24
    13a8:	aa1703e5 	mov	x5, x23
    13ac:	aa1a03e4 	mov	x4, x26
    13b0:	2a1c03e2 	mov	w2, w28
    13b4:	aa1403e1 	mov	x1, x20
    13b8:	aa1603e0 	mov	x0, x22
    13bc:	97fffc9d 	bl	630 <sys_map_ta_bin>
    13c0:	2a0003fb 	mov	w27, w0
/media/home/beste/01_Pro/ld25x/bsp_hu/MYD-LD25X-Uboot-L2022.10-V1.0.0/GEN_FIP/myir-st-optee/ldelf/ta_elf.c:862
    13c4:	f10002ff 	cmp	x23, #0x0
    13c8:	129ffe60 	mov	w0, #0xffff000c            	// #-65524
    13cc:	7a401360 	ccmp	w27, w0, #0x0, ne	// ne = any
    13d0:	54000141 	b.ne	13f8 <populate_segments+0x458>  // b.any
/media/home/beste/01_Pro/ld25x/bsp_hu/MYD-LD25X-Uboot-L2022.10-V1.0.0/GEN_FIP/myir-st-optee/ldelf/ta_elf.c:863
    13d4:	b9410263 	ldr	w3, [x19, #256]
    13d8:	aa1803e6 	mov	x6, x24
    13dc:	aa1a03e4 	mov	x4, x26
    13e0:	2a1c03e2 	mov	w2, w28
    13e4:	aa1403e1 	mov	x1, x20
    13e8:	aa1603e0 	mov	x0, x22
    13ec:	d2800005 	mov	x5, #0x0                   	// #0
    13f0:	97fffc90 	bl	630 <sys_map_ta_bin>
    13f4:	2a0003fb 	mov	w27, w0
/media/home/beste/01_Pro/ld25x/bsp_hu/MYD-LD25X-Uboot-L2022.10-V1.0.0/GEN_FIP/myir-st-optee/ldelf/ta_elf.c:867
    13f8:	340000fb 	cbz	w27, 1414 <populate_segments+0x474>
/media/home/beste/01_Pro/ld25x/bsp_hu/MYD-LD25X-Uboot-L2022.10-V1.0.0/GEN_FIP/myir-st-optee/ldelf/ta_elf.c:868
    13fc:	b0000024 	adrp	x4, 6000 <kprintf.constprop.0+0x68c>
    1400:	52800023 	mov	w3, #0x1                   	// #1
    1404:	9127b484 	add	x4, x4, #0x9ed
    1408:	52800022 	mov	w2, #0x1                   	// #1
    140c:	52806c81 	mov	w1, #0x364                 	// #868
    1410:	17ffffc6 	b	1328 <populate_segments+0x388>
/media/home/beste/01_Pro/ld25x/bsp_hu/MYD-LD25X-Uboot-L2022.10-V1.0.0/GEN_FIP/myir-st-optee/ldelf/ta_elf.c:871
    1414:	f9400660 	ldr	x0, [x19, #8]
/media/home/beste/01_Pro/ld25x/bsp_hu/MYD-LD25X-Uboot-L2022.10-V1.0.0/GEN_FIP/myir-st-optee/ldelf/ta_elf.c:872
    1418:	f94037e1 	ldr	x1, [sp, #104]
/media/home/beste/01_Pro/ld25x/bsp_hu/MYD-LD25X-Uboot-L2022.10-V1.0.0/GEN_FIP/myir-st-optee/ldelf/ta_elf.c:871
    141c:	b5000040 	cbnz	x0, 1424 <populate_segments+0x484>
/media/home/beste/01_Pro/ld25x/bsp_hu/MYD-LD25X-Uboot-L2022.10-V1.0.0/GEN_FIP/myir-st-optee/ldelf/ta_elf.c:872
    1420:	f9000661 	str	x1, [x19, #8]
/media/home/beste/01_Pro/ld25x/bsp_hu/MYD-LD25X-Uboot-L2022.10-V1.0.0/GEN_FIP/myir-st-optee/ldelf/ta_elf.c:874
    1424:	f9400e60 	ldr	x0, [x19, #24]
roundup():
/media/home/beste/01_Pro/ld25x/bsp_hu/MYD-LD25X-Uboot-L2022.10-V1.0.0/GEN_FIP/myir-st-optee/ldelf/ta_elf.c:492
    1428:	913ffc21 	add	x1, x1, #0xfff
    142c:	8b190021 	add	x1, x1, x25
    1430:	9274cc21 	and	x1, x1, #0xfffffffffffff000
populate_segments():
/media/home/beste/01_Pro/ld25x/bsp_hu/MYD-LD25X-Uboot-L2022.10-V1.0.0/GEN_FIP/myir-st-optee/ldelf/ta_elf.c:874
    1434:	8b140000 	add	x0, x0, x20
    1438:	a9010261 	stp	x1, x0, [x19, #16]
    143c:	17ffff57 	b	1198 <populate_segments+0x1f8>

0000000000001440 <map_segments>:
map_segments():
/media/home/beste/01_Pro/ld25x/bsp_hu/MYD-LD25X-Uboot-L2022.10-V1.0.0/GEN_FIP/myir-st-optee/ldelf/ta_elf.c:960
    1440:	a9bb7bfd 	stp	x29, x30, [sp, #-80]!
    1444:	910003fd 	mov	x29, sp
    1448:	a90153f3 	stp	x19, x20, [sp, #16]
    144c:	aa0003f3 	mov	x19, x0
parse_load_segments():
/media/home/beste/01_Pro/ld25x/bsp_hu/MYD-LD25X-Uboot-L2022.10-V1.0.0/GEN_FIP/myir-st-optee/ldelf/ta_elf.c:526
    1450:	f9402814 	ldr	x20, [x0, #80]
map_segments():
/media/home/beste/01_Pro/ld25x/bsp_hu/MYD-LD25X-Uboot-L2022.10-V1.0.0/GEN_FIP/myir-st-optee/ldelf/ta_elf.c:960
    1454:	a9025bf5 	stp	x21, x22, [sp, #32]
parse_load_segments():
/media/home/beste/01_Pro/ld25x/bsp_hu/MYD-LD25X-Uboot-L2022.10-V1.0.0/GEN_FIP/myir-st-optee/ldelf/ta_elf.c:525
    1458:	39400400 	ldrb	w0, [x0, #1]
map_segments():
/media/home/beste/01_Pro/ld25x/bsp_hu/MYD-LD25X-Uboot-L2022.10-V1.0.0/GEN_FIP/myir-st-optee/ldelf/ta_elf.c:960
    145c:	f9001bf7 	str	x23, [sp, #48]
parse_load_segments():
/media/home/beste/01_Pro/ld25x/bsp_hu/MYD-LD25X-Uboot-L2022.10-V1.0.0/GEN_FIP/myir-st-optee/ldelf/ta_elf.c:528
    1460:	d2800015 	mov	x21, #0x0                   	// #0
/media/home/beste/01_Pro/ld25x/bsp_hu/MYD-LD25X-Uboot-L2022.10-V1.0.0/GEN_FIP/myir-st-optee/ldelf/ta_elf.c:525
    1464:	35000200 	cbnz	w0, 14a4 <map_segments+0x64>
/media/home/beste/01_Pro/ld25x/bsp_hu/MYD-LD25X-Uboot-L2022.10-V1.0.0/GEN_FIP/myir-st-optee/ldelf/ta_elf.c:543
    1468:	b9404260 	ldr	w0, [x19, #64]
    146c:	eb0002bf 	cmp	x21, x0
    1470:	54000242 	b.cs	14b8 <map_segments+0x78>  // b.hs, b.nlast
/media/home/beste/01_Pro/ld25x/bsp_hu/MYD-LD25X-Uboot-L2022.10-V1.0.0/GEN_FIP/myir-st-optee/ldelf/ta_elf.c:544
    1474:	b9400280 	ldr	w0, [x20]
    1478:	7100041f 	cmp	w0, #0x1
    147c:	54000a01 	b.ne	15bc <map_segments+0x17c>  // b.any
/media/home/beste/01_Pro/ld25x/bsp_hu/MYD-LD25X-Uboot-L2022.10-V1.0.0/GEN_FIP/myir-st-optee/ldelf/ta_elf.c:545
    1480:	a9408a81 	ldp	x1, x2, [x20, #8]
    1484:	aa1303e0 	mov	x0, x19
    1488:	a9421283 	ldp	x3, x4, [x20, #32]
    148c:	f9401a86 	ldr	x6, [x20, #48]
    1490:	b9400685 	ldr	w5, [x20, #4]
    1494:	97fffcd1 	bl	7d8 <add_segment>
/media/home/beste/01_Pro/ld25x/bsp_hu/MYD-LD25X-Uboot-L2022.10-V1.0.0/GEN_FIP/myir-st-optee/ldelf/ta_elf.c:543
    1498:	910006b5 	add	x21, x21, #0x1
    149c:	9100e294 	add	x20, x20, #0x38
    14a0:	17fffff2 	b	1468 <map_segments+0x28>
/media/home/beste/01_Pro/ld25x/bsp_hu/MYD-LD25X-Uboot-L2022.10-V1.0.0/GEN_FIP/myir-st-optee/ldelf/ta_elf.c:534
    14a4:	52800036 	mov	w22, #0x1                   	// #1
    14a8:	72ae0016 	movk	w22, #0x7000, lsl #16
/media/home/beste/01_Pro/ld25x/bsp_hu/MYD-LD25X-Uboot-L2022.10-V1.0.0/GEN_FIP/myir-st-optee/ldelf/ta_elf.c:528
    14ac:	b9404260 	ldr	w0, [x19, #64]
    14b0:	eb0002bf 	cmp	x21, x0
    14b4:	540003c3 	b.cc	152c <map_segments+0xec>  // b.lo, b.ul, b.last
adjust_segments():
/media/home/beste/01_Pro/ld25x/bsp_hu/MYD-LD25X-Uboot-L2022.10-V1.0.0/GEN_FIP/myir-st-optee/ldelf/ta_elf.c:596
    14b8:	f9405264 	ldr	x4, [x19, #160]
/media/home/beste/01_Pro/ld25x/bsp_hu/MYD-LD25X-Uboot-L2022.10-V1.0.0/GEN_FIP/myir-st-optee/ldelf/ta_elf.c:592
    14bc:	d2800003 	mov	x3, #0x0                   	// #0
/media/home/beste/01_Pro/ld25x/bsp_hu/MYD-LD25X-Uboot-L2022.10-V1.0.0/GEN_FIP/myir-st-optee/ldelf/ta_elf.c:596
    14c0:	aa0403e0 	mov	x0, x4
    14c4:	b50008e0 	cbnz	x0, 15e0 <map_segments+0x1a0>
/media/home/beste/01_Pro/ld25x/bsp_hu/MYD-LD25X-Uboot-L2022.10-V1.0.0/GEN_FIP/myir-st-optee/ldelf/ta_elf.c:619
    14c8:	b40000a4 	cbz	x4, 14dc <map_segments+0x9c>
/media/home/beste/01_Pro/ld25x/bsp_hu/MYD-LD25X-Uboot-L2022.10-V1.0.0/GEN_FIP/myir-st-optee/ldelf/ta_elf.c:620
    14cc:	f9401c80 	ldr	x0, [x4, #56]
/media/home/beste/01_Pro/ld25x/bsp_hu/MYD-LD25X-Uboot-L2022.10-V1.0.0/GEN_FIP/myir-st-optee/ldelf/ta_elf.c:616
    14d0:	d1000475 	sub	x21, x3, #0x1
/media/home/beste/01_Pro/ld25x/bsp_hu/MYD-LD25X-Uboot-L2022.10-V1.0.0/GEN_FIP/myir-st-optee/ldelf/ta_elf.c:667
    14d4:	52800036 	mov	w22, #0x1                   	// #1
/media/home/beste/01_Pro/ld25x/bsp_hu/MYD-LD25X-Uboot-L2022.10-V1.0.0/GEN_FIP/myir-st-optee/ldelf/ta_elf.c:621
    14d8:	b50011c0 	cbnz	x0, 1710 <map_segments+0x2d0>
map_segments():
/media/home/beste/01_Pro/ld25x/bsp_hu/MYD-LD25X-Uboot-L2022.10-V1.0.0/GEN_FIP/myir-st-optee/ldelf/ta_elf.c:965
    14dc:	f9405260 	ldr	x0, [x19, #160]
    14e0:	f9400000 	ldr	x0, [x0]
    14e4:	f13ffc1f 	cmp	x0, #0xfff
    14e8:	54002068 	b.hi	18f4 <map_segments+0x4b4>  // b.pmore
/media/home/beste/01_Pro/ld25x/bsp_hu/MYD-LD25X-Uboot-L2022.10-V1.0.0/GEN_FIP/myir-st-optee/ldelf/ta_elf.c:967
    14ec:	a940d660 	ldp	x0, x21, [x19, #8]
    14f0:	cb0002b5 	sub	x21, x21, x0
/media/home/beste/01_Pro/ld25x/bsp_hu/MYD-LD25X-Uboot-L2022.10-V1.0.0/GEN_FIP/myir-st-optee/ldelf/ta_elf.c:968
    14f4:	f9405660 	ldr	x0, [x19, #168]
    14f8:	f9400400 	ldr	x0, [x0, #8]
    14fc:	f9400016 	ldr	x22, [x0]
/media/home/beste/01_Pro/ld25x/bsp_hu/MYD-LD25X-Uboot-L2022.10-V1.0.0/GEN_FIP/myir-st-optee/ldelf/ta_elf.c:966
    1500:	f90027ff 	str	xzr, [sp, #72]
/media/home/beste/01_Pro/ld25x/bsp_hu/MYD-LD25X-Uboot-L2022.10-V1.0.0/GEN_FIP/myir-st-optee/ldelf/ta_elf.c:969
    1504:	97fffcea 	bl	8ac <get_pad_begin>
    1508:	aa0003e3 	mov	x3, x0
/media/home/beste/01_Pro/ld25x/bsp_hu/MYD-LD25X-Uboot-L2022.10-V1.0.0/GEN_FIP/myir-st-optee/ldelf/ta_elf.c:975
    150c:	39400260 	ldrb	w0, [x19]
    1510:	340019c0 	cbz	w0, 1848 <map_segments+0x408>
    1514:	d0000022 	adrp	x2, 7000 <trace_ext_prefix+0x6bc>
    1518:	b0000020 	adrp	x0, 6000 <kprintf.constprop.0+0x68c>
    151c:	910a2842 	add	x2, x2, #0x28a
    1520:	912c6400 	add	x0, x0, #0xb19
    1524:	528079e1 	mov	w1, #0x3cf                 	// #975
    1528:	14000020 	b	15a8 <map_segments+0x168>
parse_load_segments():
/media/home/beste/01_Pro/ld25x/bsp_hu/MYD-LD25X-Uboot-L2022.10-V1.0.0/GEN_FIP/myir-st-optee/ldelf/ta_elf.c:529
    152c:	b9400280 	ldr	w0, [x20]
    1530:	7100041f 	cmp	w0, #0x1
    1534:	54000121 	b.ne	1558 <map_segments+0x118>  // b.any
/media/home/beste/01_Pro/ld25x/bsp_hu/MYD-LD25X-Uboot-L2022.10-V1.0.0/GEN_FIP/myir-st-optee/ldelf/ta_elf.c:530
    1538:	29408a81 	ldp	w1, w2, [x20, #4]
    153c:	aa1303e0 	mov	x0, x19
    1540:	29421283 	ldp	w3, w4, [x20, #16]
    1544:	29431a85 	ldp	w5, w6, [x20, #24]
    1548:	97fffca4 	bl	7d8 <add_segment>
/media/home/beste/01_Pro/ld25x/bsp_hu/MYD-LD25X-Uboot-L2022.10-V1.0.0/GEN_FIP/myir-st-optee/ldelf/ta_elf.c:528
    154c:	910006b5 	add	x21, x21, #0x1
    1550:	91008294 	add	x20, x20, #0x20
    1554:	17ffffd6 	b	14ac <map_segments+0x6c>
/media/home/beste/01_Pro/ld25x/bsp_hu/MYD-LD25X-Uboot-L2022.10-V1.0.0/GEN_FIP/myir-st-optee/ldelf/ta_elf.c:534
    1558:	6b16001f 	cmp	w0, w22
    155c:	540000c1 	b.ne	1574 <map_segments+0x134>  // b.any
/media/home/beste/01_Pro/ld25x/bsp_hu/MYD-LD25X-Uboot-L2022.10-V1.0.0/GEN_FIP/myir-st-optee/ldelf/ta_elf.c:535
    1560:	b9400a80 	ldr	w0, [x20, #8]
    1564:	f9005a60 	str	x0, [x19, #176]
/media/home/beste/01_Pro/ld25x/bsp_hu/MYD-LD25X-Uboot-L2022.10-V1.0.0/GEN_FIP/myir-st-optee/ldelf/ta_elf.c:536
    1568:	b9401280 	ldr	w0, [x20, #16]
    156c:	f9005e60 	str	x0, [x19, #184]
    1570:	17fffff7 	b	154c <map_segments+0x10c>
/media/home/beste/01_Pro/ld25x/bsp_hu/MYD-LD25X-Uboot-L2022.10-V1.0.0/GEN_FIP/myir-st-optee/ldelf/ta_elf.c:537
    1574:	71001c1f 	cmp	w0, #0x7
    1578:	54fffea1 	b.ne	154c <map_segments+0x10c>  // b.any
assign_tls_mod_id():
/media/home/beste/01_Pro/ld25x/bsp_hu/MYD-LD25X-Uboot-L2022.10-V1.0.0/GEN_FIP/myir-st-optee/ldelf/ta_elf.c:57
    157c:	39400262 	ldrb	w2, [x19]
/media/home/beste/01_Pro/ld25x/bsp_hu/MYD-LD25X-Uboot-L2022.10-V1.0.0/GEN_FIP/myir-st-optee/ldelf/ta_elf.c:58
    1580:	f0000021 	adrp	x1, 8000 <_DYNAMIC>
    1584:	f940a820 	ldr	x0, [x1, #336]
/media/home/beste/01_Pro/ld25x/bsp_hu/MYD-LD25X-Uboot-L2022.10-V1.0.0/GEN_FIP/myir-st-optee/ldelf/ta_elf.c:57
    1588:	34000122 	cbz	w2, 15ac <map_segments+0x16c>
/media/home/beste/01_Pro/ld25x/bsp_hu/MYD-LD25X-Uboot-L2022.10-V1.0.0/GEN_FIP/myir-st-optee/ldelf/ta_elf.c:58
    158c:	f100041f 	cmp	x0, #0x1
    1590:	540000e0 	b.eq	15ac <map_segments+0x16c>  // b.none
    1594:	d0000022 	adrp	x2, 7000 <trace_ext_prefix+0x6bc>
    1598:	b0000020 	adrp	x0, 6000 <kprintf.constprop.0+0x68c>
    159c:	9109e042 	add	x2, x2, #0x278
    15a0:	912edc00 	add	x0, x0, #0xbb7
    15a4:	52800741 	mov	w1, #0x3a                  	// #58
adjust_segments():
/media/home/beste/01_Pro/ld25x/bsp_hu/MYD-LD25X-Uboot-L2022.10-V1.0.0/GEN_FIP/myir-st-optee/ldelf/ta_elf.c:599
    15a8:	97fffde2 	bl	d30 <_assert_trap.constprop.0>
assign_tls_mod_id():
/media/home/beste/01_Pro/ld25x/bsp_hu/MYD-LD25X-Uboot-L2022.10-V1.0.0/GEN_FIP/myir-st-optee/ldelf/ta_elf.c:59
    15ac:	91000402 	add	x2, x0, #0x1
    15b0:	f900a822 	str	x2, [x1, #336]
    15b4:	f9006260 	str	x0, [x19, #192]
/media/home/beste/01_Pro/ld25x/bsp_hu/MYD-LD25X-Uboot-L2022.10-V1.0.0/GEN_FIP/myir-st-optee/ldelf/ta_elf.c:60
    15b8:	17ffffe5 	b	154c <map_segments+0x10c>
parse_load_segments():
/media/home/beste/01_Pro/ld25x/bsp_hu/MYD-LD25X-Uboot-L2022.10-V1.0.0/GEN_FIP/myir-st-optee/ldelf/ta_elf.c:549
    15bc:	71001c1f 	cmp	w0, #0x7
    15c0:	54fff6c1 	b.ne	1498 <map_segments+0x58>  // b.any
/media/home/beste/01_Pro/ld25x/bsp_hu/MYD-LD25X-Uboot-L2022.10-V1.0.0/GEN_FIP/myir-st-optee/ldelf/ta_elf.c:550
    15c4:	f9400a80 	ldr	x0, [x20, #16]
    15c8:	f9006660 	str	x0, [x19, #200]
/media/home/beste/01_Pro/ld25x/bsp_hu/MYD-LD25X-Uboot-L2022.10-V1.0.0/GEN_FIP/myir-st-optee/ldelf/ta_elf.c:551
    15cc:	f9401280 	ldr	x0, [x20, #32]
    15d0:	f9006a60 	str	x0, [x19, #208]
/media/home/beste/01_Pro/ld25x/bsp_hu/MYD-LD25X-Uboot-L2022.10-V1.0.0/GEN_FIP/myir-st-optee/ldelf/ta_elf.c:552
    15d4:	f9401680 	ldr	x0, [x20, #40]
    15d8:	f9006e60 	str	x0, [x19, #216]
    15dc:	17ffffaf 	b	1498 <map_segments+0x58>
adjust_segments():
/media/home/beste/01_Pro/ld25x/bsp_hu/MYD-LD25X-Uboot-L2022.10-V1.0.0/GEN_FIP/myir-st-optee/ldelf/ta_elf.c:599
    15e0:	f9401405 	ldr	x5, [x0, #40]
    15e4:	f13ffcbf 	cmp	x5, #0xfff
    15e8:	540000e8 	b.hi	1604 <map_segments+0x1c4>  // b.pmore
    15ec:	d0000022 	adrp	x2, 7000 <trace_ext_prefix+0x6bc>
    15f0:	b0000020 	adrp	x0, 6000 <kprintf.constprop.0+0x68c>
    15f4:	91097042 	add	x2, x2, #0x25c
    15f8:	912f3000 	add	x0, x0, #0xbcc
    15fc:	52804ae1 	mov	w1, #0x257                 	// #599
    1600:	17ffffea 	b	15a8 <map_segments+0x168>
/media/home/beste/01_Pro/ld25x/bsp_hu/MYD-LD25X-Uboot-L2022.10-V1.0.0/GEN_FIP/myir-st-optee/ldelf/ta_elf.c:600
    1604:	f9400402 	ldr	x2, [x0, #8]
    1608:	f9400c01 	ldr	x1, [x0, #24]
    160c:	ab010046 	adds	x6, x2, x1
    1610:	54000142 	b.cs	1638 <map_segments+0x1f8>  // b.hs, b.nlast
/media/home/beste/01_Pro/ld25x/bsp_hu/MYD-LD25X-Uboot-L2022.10-V1.0.0/GEN_FIP/myir-st-optee/ldelf/ta_elf.c:601
    1614:	f9400806 	ldr	x6, [x0, #16]
    1618:	eb06003f 	cmp	x1, x6
    161c:	540001a2 	b.cs	1650 <map_segments+0x210>  // b.hs, b.nlast
    1620:	d0000022 	adrp	x2, 7000 <trace_ext_prefix+0x6bc>
    1624:	b0000020 	adrp	x0, 6000 <kprintf.constprop.0+0x68c>
    1628:	91097042 	add	x2, x2, #0x25c
    162c:	91306000 	add	x0, x0, #0xc18
    1630:	52804b21 	mov	w1, #0x259                 	// #601
    1634:	17ffffdd 	b	15a8 <map_segments+0x168>
/media/home/beste/01_Pro/ld25x/bsp_hu/MYD-LD25X-Uboot-L2022.10-V1.0.0/GEN_FIP/myir-st-optee/ldelf/ta_elf.c:600
    1638:	d0000022 	adrp	x2, 7000 <trace_ext_prefix+0x6bc>
    163c:	b0000020 	adrp	x0, 6000 <kprintf.constprop.0+0x68c>
    1640:	91097042 	add	x2, x2, #0x25c
    1644:	912fa800 	add	x0, x0, #0xbea
    1648:	52804b01 	mov	w1, #0x258                 	// #600
    164c:	17ffffd7 	b	15a8 <map_segments+0x168>
/media/home/beste/01_Pro/ld25x/bsp_hu/MYD-LD25X-Uboot-L2022.10-V1.0.0/GEN_FIP/myir-st-optee/ldelf/ta_elf.c:602
    1650:	f9400007 	ldr	x7, [x0]
    1654:	ca070041 	eor	x1, x2, x7
    1658:	f2402c3f 	tst	x1, #0xfff
    165c:	540000e0 	b.eq	1678 <map_segments+0x238>  // b.none
    1660:	d0000022 	adrp	x2, 7000 <trace_ext_prefix+0x6bc>
    1664:	b0000020 	adrp	x0, 6000 <kprintf.constprop.0+0x68c>
    1668:	91097042 	add	x2, x2, #0x25c
    166c:	9130c800 	add	x0, x0, #0xc32
    1670:	52804b41 	mov	w1, #0x25a                 	// #602
    1674:	17ffffcd 	b	15a8 <map_segments+0x168>
/media/home/beste/01_Pro/ld25x/bsp_hu/MYD-LD25X-Uboot-L2022.10-V1.0.0/GEN_FIP/myir-st-optee/ldelf/ta_elf.c:605
    1678:	f9402001 	ldr	x1, [x0, #64]
    167c:	f9400421 	ldr	x1, [x1, #8]
    1680:	f9400021 	ldr	x1, [x1]
/media/home/beste/01_Pro/ld25x/bsp_hu/MYD-LD25X-Uboot-L2022.10-V1.0.0/GEN_FIP/myir-st-optee/ldelf/ta_elf.c:606
    1684:	b40002e1 	cbz	x1, 16e0 <map_segments+0x2a0>
/media/home/beste/01_Pro/ld25x/bsp_hu/MYD-LD25X-Uboot-L2022.10-V1.0.0/GEN_FIP/myir-st-optee/ldelf/ta_elf.c:607
    1688:	f9400426 	ldr	x6, [x1, #8]
    168c:	f9400c28 	ldr	x8, [x1, #24]
    1690:	8b0800c6 	add	x6, x6, x8
    1694:	eb06005f 	cmp	x2, x6
    1698:	540000e2 	b.cs	16b4 <map_segments+0x274>  // b.hs, b.nlast
    169c:	d0000022 	adrp	x2, 7000 <trace_ext_prefix+0x6bc>
    16a0:	b0000020 	adrp	x0, 6000 <kprintf.constprop.0+0x68c>
    16a4:	91097042 	add	x2, x2, #0x25c
    16a8:	9131d000 	add	x0, x0, #0xc74
    16ac:	52804be1 	mov	w1, #0x25f                 	// #607
    16b0:	17ffffbe 	b	15a8 <map_segments+0x168>
/media/home/beste/01_Pro/ld25x/bsp_hu/MYD-LD25X-Uboot-L2022.10-V1.0.0/GEN_FIP/myir-st-optee/ldelf/ta_elf.c:608
    16b4:	f9400022 	ldr	x2, [x1]
    16b8:	f9400821 	ldr	x1, [x1, #16]
    16bc:	8b010041 	add	x1, x2, x1
    16c0:	eb0100ff 	cmp	x7, x1
    16c4:	540000e2 	b.cs	16e0 <map_segments+0x2a0>  // b.hs, b.nlast
    16c8:	d0000022 	adrp	x2, 7000 <trace_ext_prefix+0x6bc>
    16cc:	b0000020 	adrp	x0, 6000 <kprintf.constprop.0+0x68c>
    16d0:	91097042 	add	x2, x2, #0x25c
    16d4:	91329000 	add	x0, x0, #0xca4
    16d8:	52804c01 	mov	w1, #0x260                 	// #608
    16dc:	17ffffb3 	b	15a8 <map_segments+0x168>
/media/home/beste/01_Pro/ld25x/bsp_hu/MYD-LD25X-Uboot-L2022.10-V1.0.0/GEN_FIP/myir-st-optee/ldelf/ta_elf.c:611
    16e0:	b4000123 	cbz	x3, 1704 <map_segments+0x2c4>
/media/home/beste/01_Pro/ld25x/bsp_hu/MYD-LD25X-Uboot-L2022.10-V1.0.0/GEN_FIP/myir-st-optee/ldelf/ta_elf.c:613
    16e4:	eb0300bf 	cmp	x5, x3
    16e8:	54000100 	b.eq	1708 <map_segments+0x2c8>  // b.none
    16ec:	d0000022 	adrp	x2, 7000 <trace_ext_prefix+0x6bc>
    16f0:	b0000020 	adrp	x0, 6000 <kprintf.constprop.0+0x68c>
    16f4:	91097042 	add	x2, x2, #0x25c
    16f8:	91335c00 	add	x0, x0, #0xcd7
    16fc:	52804ca1 	mov	w1, #0x265                 	// #613
    1700:	17ffffaa 	b	15a8 <map_segments+0x168>
    1704:	aa0503e3 	mov	x3, x5
/media/home/beste/01_Pro/ld25x/bsp_hu/MYD-LD25X-Uboot-L2022.10-V1.0.0/GEN_FIP/myir-st-optee/ldelf/ta_elf.c:596
    1708:	f9401c00 	ldr	x0, [x0, #56]
    170c:	17ffff6e 	b	14c4 <map_segments+0x84>
/media/home/beste/01_Pro/ld25x/bsp_hu/MYD-LD25X-Uboot-L2022.10-V1.0.0/GEN_FIP/myir-st-optee/ldelf/ta_elf.c:622
    1710:	f9402004 	ldr	x4, [x0, #64]
/media/home/beste/01_Pro/ld25x/bsp_hu/MYD-LD25X-Uboot-L2022.10-V1.0.0/GEN_FIP/myir-st-optee/ldelf/ta_elf.c:641
    1714:	f9400002 	ldr	x2, [x0]
/media/home/beste/01_Pro/ld25x/bsp_hu/MYD-LD25X-Uboot-L2022.10-V1.0.0/GEN_FIP/myir-st-optee/ldelf/ta_elf.c:622
    1718:	f9400481 	ldr	x1, [x4, #8]
    171c:	f9400034 	ldr	x20, [x1]
/media/home/beste/01_Pro/ld25x/bsp_hu/MYD-LD25X-Uboot-L2022.10-V1.0.0/GEN_FIP/myir-st-optee/ldelf/ta_elf.c:640
    1720:	f9400401 	ldr	x1, [x0, #8]
/media/home/beste/01_Pro/ld25x/bsp_hu/MYD-LD25X-Uboot-L2022.10-V1.0.0/GEN_FIP/myir-st-optee/ldelf/ta_elf.c:623
    1724:	f9400685 	ldr	x5, [x20, #8]
rounddown():
/media/home/beste/01_Pro/ld25x/bsp_hu/MYD-LD25X-Uboot-L2022.10-V1.0.0/GEN_FIP/myir-st-optee/ldelf/ta_elf.c:497
    1728:	9274cc23 	and	x3, x1, #0xfffffffffffff000
adjust_segments():
/media/home/beste/01_Pro/ld25x/bsp_hu/MYD-LD25X-Uboot-L2022.10-V1.0.0/GEN_FIP/myir-st-optee/ldelf/ta_elf.c:623
    172c:	f9400e86 	ldr	x6, [x20, #24]
    1730:	8b0600a7 	add	x7, x5, x6
/media/home/beste/01_Pro/ld25x/bsp_hu/MYD-LD25X-Uboot-L2022.10-V1.0.0/GEN_FIP/myir-st-optee/ldelf/ta_elf.c:640
    1734:	eb0300ff 	cmp	x7, x3
    1738:	54000529 	b.ls	17dc <map_segments+0x39c>  // b.plast
/media/home/beste/01_Pro/ld25x/bsp_hu/MYD-LD25X-Uboot-L2022.10-V1.0.0/GEN_FIP/myir-st-optee/ldelf/ta_elf.c:641
    173c:	ca020022 	eor	x2, x1, x2
    1740:	ea15005f 	tst	x2, x21
    1744:	540000e0 	b.eq	1760 <map_segments+0x320>  // b.none
    1748:	d0000022 	adrp	x2, 7000 <trace_ext_prefix+0x6bc>
    174c:	b0000020 	adrp	x0, 6000 <kprintf.constprop.0+0x68c>
    1750:	91097042 	add	x2, x2, #0x25c
    1754:	9133ac00 	add	x0, x0, #0xceb
    1758:	52805021 	mov	w1, #0x281                 	// #641
    175c:	17ffff93 	b	15a8 <map_segments+0x168>
/media/home/beste/01_Pro/ld25x/bsp_hu/MYD-LD25X-Uboot-L2022.10-V1.0.0/GEN_FIP/myir-st-optee/ldelf/ta_elf.c:642
    1760:	f9400a82 	ldr	x2, [x20, #16]
    1764:	eb0200df 	cmp	x6, x2
    1768:	540000e0 	b.eq	1784 <map_segments+0x344>  // b.none
    176c:	d0000022 	adrp	x2, 7000 <trace_ext_prefix+0x6bc>
    1770:	b0000020 	adrp	x0, 6000 <kprintf.constprop.0+0x68c>
    1774:	91097042 	add	x2, x2, #0x25c
    1778:	91345c00 	add	x0, x0, #0xd17
    177c:	52805041 	mov	w1, #0x282                 	// #642
    1780:	17ffff8a 	b	15a8 <map_segments+0x168>
/media/home/beste/01_Pro/ld25x/bsp_hu/MYD-LD25X-Uboot-L2022.10-V1.0.0/GEN_FIP/myir-st-optee/ldelf/ta_elf.c:649
    1784:	f9400802 	ldr	x2, [x0, #16]
    1788:	8b020022 	add	x2, x1, x2
    178c:	cb050042 	sub	x2, x2, x5
    1790:	f9000a82 	str	x2, [x20, #16]
/media/home/beste/01_Pro/ld25x/bsp_hu/MYD-LD25X-Uboot-L2022.10-V1.0.0/GEN_FIP/myir-st-optee/ldelf/ta_elf.c:651
    1794:	f9400c02 	ldr	x2, [x0, #24]
    1798:	8b020021 	add	x1, x1, x2
    179c:	cb050021 	sub	x1, x1, x5
/media/home/beste/01_Pro/ld25x/bsp_hu/MYD-LD25X-Uboot-L2022.10-V1.0.0/GEN_FIP/myir-st-optee/ldelf/ta_elf.c:653
    17a0:	f9401002 	ldr	x2, [x0, #32]
/media/home/beste/01_Pro/ld25x/bsp_hu/MYD-LD25X-Uboot-L2022.10-V1.0.0/GEN_FIP/myir-st-optee/ldelf/ta_elf.c:651
    17a4:	f9000e81 	str	x1, [x20, #24]
/media/home/beste/01_Pro/ld25x/bsp_hu/MYD-LD25X-Uboot-L2022.10-V1.0.0/GEN_FIP/myir-st-optee/ldelf/ta_elf.c:653
    17a8:	f9401281 	ldr	x1, [x20, #32]
    17ac:	aa020021 	orr	x1, x1, x2
    17b0:	f9001281 	str	x1, [x20, #32]
/media/home/beste/01_Pro/ld25x/bsp_hu/MYD-LD25X-Uboot-L2022.10-V1.0.0/GEN_FIP/myir-st-optee/ldelf/ta_elf.c:655
    17b4:	f9401c01 	ldr	x1, [x0, #56]
    17b8:	b40000e1 	cbz	x1, 17d4 <map_segments+0x394>
    17bc:	f9002024 	str	x4, [x1, #64]
    17c0:	f9402002 	ldr	x2, [x0, #64]
    17c4:	f9000041 	str	x1, [x2]
/media/home/beste/01_Pro/ld25x/bsp_hu/MYD-LD25X-Uboot-L2022.10-V1.0.0/GEN_FIP/myir-st-optee/ldelf/ta_elf.c:656
    17c8:	94000fc3 	bl	56d4 <free>
/media/home/beste/01_Pro/ld25x/bsp_hu/MYD-LD25X-Uboot-L2022.10-V1.0.0/GEN_FIP/myir-st-optee/ldelf/ta_elf.c:657
    17cc:	f9401e80 	ldr	x0, [x20, #56]
/media/home/beste/01_Pro/ld25x/bsp_hu/MYD-LD25X-Uboot-L2022.10-V1.0.0/GEN_FIP/myir-st-optee/ldelf/ta_elf.c:658
    17d0:	17ffff42 	b	14d8 <map_segments+0x98>
/media/home/beste/01_Pro/ld25x/bsp_hu/MYD-LD25X-Uboot-L2022.10-V1.0.0/GEN_FIP/myir-st-optee/ldelf/ta_elf.c:655
    17d4:	f9005664 	str	x4, [x19, #168]
    17d8:	17fffffa 	b	17c0 <map_segments+0x380>
rounddown():
/media/home/beste/01_Pro/ld25x/bsp_hu/MYD-LD25X-Uboot-L2022.10-V1.0.0/GEN_FIP/myir-st-optee/ldelf/ta_elf.c:497
    17dc:	9274cc44 	and	x4, x2, #0xfffffffffffff000
adjust_segments():
/media/home/beste/01_Pro/ld25x/bsp_hu/MYD-LD25X-Uboot-L2022.10-V1.0.0/GEN_FIP/myir-st-optee/ldelf/ta_elf.c:662
    17e0:	ea0202bf 	tst	x21, x2
    17e4:	540001e0 	b.eq	1820 <map_segments+0x3e0>  // b.none
/media/home/beste/01_Pro/ld25x/bsp_hu/MYD-LD25X-Uboot-L2022.10-V1.0.0/GEN_FIP/myir-st-optee/ldelf/ta_elf.c:664
    17e8:	f9400282 	ldr	x2, [x20]
    17ec:	f9400a85 	ldr	x5, [x20, #16]
    17f0:	8b050042 	add	x2, x2, x5
/media/home/beste/01_Pro/ld25x/bsp_hu/MYD-LD25X-Uboot-L2022.10-V1.0.0/GEN_FIP/myir-st-optee/ldelf/ta_elf.c:662
    17f4:	eb04005f 	cmp	x2, x4
    17f8:	54000149 	b.ls	1820 <map_segments+0x3e0>  // b.plast
/media/home/beste/01_Pro/ld25x/bsp_hu/MYD-LD25X-Uboot-L2022.10-V1.0.0/GEN_FIP/myir-st-optee/ldelf/ta_elf.c:666
    17fc:	f9401002 	ldr	x2, [x0, #32]
    1800:	370800e2 	tbnz	w2, #1, 181c <map_segments+0x3dc>
    1804:	d0000022 	adrp	x2, 7000 <trace_ext_prefix+0x6bc>
    1808:	b0000020 	adrp	x0, 6000 <kprintf.constprop.0+0x68c>
    180c:	91097042 	add	x2, x2, #0x25c
    1810:	9134ec00 	add	x0, x0, #0xd3b
    1814:	52805341 	mov	w1, #0x29a                 	// #666
    1818:	17ffff64 	b	15a8 <map_segments+0x168>
/media/home/beste/01_Pro/ld25x/bsp_hu/MYD-LD25X-Uboot-L2022.10-V1.0.0/GEN_FIP/myir-st-optee/ldelf/ta_elf.c:667
    181c:	3900c016 	strb	w22, [x0, #48]
/media/home/beste/01_Pro/ld25x/bsp_hu/MYD-LD25X-Uboot-L2022.10-V1.0.0/GEN_FIP/myir-st-optee/ldelf/ta_elf.c:674
    1820:	f9400802 	ldr	x2, [x0, #16]
    1824:	cb030021 	sub	x1, x1, x3
/media/home/beste/01_Pro/ld25x/bsp_hu/MYD-LD25X-Uboot-L2022.10-V1.0.0/GEN_FIP/myir-st-optee/ldelf/ta_elf.c:676
    1828:	a9000c04 	stp	x4, x3, [x0]
/media/home/beste/01_Pro/ld25x/bsp_hu/MYD-LD25X-Uboot-L2022.10-V1.0.0/GEN_FIP/myir-st-optee/ldelf/ta_elf.c:674
    182c:	8b010042 	add	x2, x2, x1
    1830:	f9000802 	str	x2, [x0, #16]
/media/home/beste/01_Pro/ld25x/bsp_hu/MYD-LD25X-Uboot-L2022.10-V1.0.0/GEN_FIP/myir-st-optee/ldelf/ta_elf.c:675
    1834:	f9400c02 	ldr	x2, [x0, #24]
    1838:	8b010041 	add	x1, x2, x1
    183c:	f9000c01 	str	x1, [x0, #24]
/media/home/beste/01_Pro/ld25x/bsp_hu/MYD-LD25X-Uboot-L2022.10-V1.0.0/GEN_FIP/myir-st-optee/ldelf/ta_elf.c:678
    1840:	f9401c00 	ldr	x0, [x0, #56]
    1844:	17ffff25 	b	14d8 <map_segments+0x98>
map_segments():
/media/home/beste/01_Pro/ld25x/bsp_hu/MYD-LD25X-Uboot-L2022.10-V1.0.0/GEN_FIP/myir-st-optee/ldelf/ta_elf.c:982
    1848:	f94006c4 	ldr	x4, [x22, #8]
    184c:	910123f7 	add	x23, sp, #0x48
    1850:	f9400ec0 	ldr	x0, [x22, #24]
    1854:	aa1503e2 	mov	x2, x21
    1858:	aa1703e1 	mov	x1, x23
    185c:	8b000084 	add	x4, x4, x0
    1860:	f9400660 	ldr	x0, [x19, #8]
roundup():
/media/home/beste/01_Pro/ld25x/bsp_hu/MYD-LD25X-Uboot-L2022.10-V1.0.0/GEN_FIP/myir-st-optee/ldelf/ta_elf.c:492
    1864:	913ffc84 	add	x4, x4, #0xfff
map_segments():
/media/home/beste/01_Pro/ld25x/bsp_hu/MYD-LD25X-Uboot-L2022.10-V1.0.0/GEN_FIP/myir-st-optee/ldelf/ta_elf.c:982
    1868:	9274cc84 	and	x4, x4, #0xfffffffffffff000
    186c:	97fffb7f 	bl	668 <sys_remap>
    1870:	2a0003f4 	mov	w20, w0
/media/home/beste/01_Pro/ld25x/bsp_hu/MYD-LD25X-Uboot-L2022.10-V1.0.0/GEN_FIP/myir-st-optee/ldelf/ta_elf.c:984
    1874:	129ffe60 	mov	w0, #0xffff000c            	// #-65524
    1878:	6b00029f 	cmp	w20, w0
    187c:	54000181 	b.ne	18ac <map_segments+0x46c>  // b.any
/media/home/beste/01_Pro/ld25x/bsp_hu/MYD-LD25X-Uboot-L2022.10-V1.0.0/GEN_FIP/myir-st-optee/ldelf/ta_elf.c:985
    1880:	f94006c4 	ldr	x4, [x22, #8]
    1884:	aa1503e2 	mov	x2, x21
    1888:	f9400ec0 	ldr	x0, [x22, #24]
    188c:	aa1703e1 	mov	x1, x23
    1890:	d2800003 	mov	x3, #0x0                   	// #0
    1894:	8b000084 	add	x4, x4, x0
    1898:	f9400660 	ldr	x0, [x19, #8]
roundup():
/media/home/beste/01_Pro/ld25x/bsp_hu/MYD-LD25X-Uboot-L2022.10-V1.0.0/GEN_FIP/myir-st-optee/ldelf/ta_elf.c:492
    189c:	913ffc84 	add	x4, x4, #0xfff
map_segments():
/media/home/beste/01_Pro/ld25x/bsp_hu/MYD-LD25X-Uboot-L2022.10-V1.0.0/GEN_FIP/myir-st-optee/ldelf/ta_elf.c:985
    18a0:	9274cc84 	and	x4, x4, #0xfffffffffffff000
    18a4:	97fffb71 	bl	668 <sys_remap>
    18a8:	2a0003f4 	mov	w20, w0
/media/home/beste/01_Pro/ld25x/bsp_hu/MYD-LD25X-Uboot-L2022.10-V1.0.0/GEN_FIP/myir-st-optee/ldelf/ta_elf.c:987
    18ac:	34000174 	cbz	w20, 18d8 <map_segments+0x498>
/media/home/beste/01_Pro/ld25x/bsp_hu/MYD-LD25X-Uboot-L2022.10-V1.0.0/GEN_FIP/myir-st-optee/ldelf/ta_elf.c:988
    18b0:	b0000024 	adrp	x4, 6000 <kprintf.constprop.0+0x68c>
    18b4:	91353484 	add	x4, x4, #0xd4d
    18b8:	52800023 	mov	w3, #0x1                   	// #1
    18bc:	52800022 	mov	w2, #0x1                   	// #1
    18c0:	52807b81 	mov	w1, #0x3dc                 	// #988
    18c4:	d0000020 	adrp	x0, 7000 <trace_ext_prefix+0x6bc>
    18c8:	910a2800 	add	x0, x0, #0x28a
    18cc:	9400139e 	bl	6744 <trace_printf>
    18d0:	2a1403e0 	mov	w0, w20
    18d4:	97fffa20 	bl	154 <_ldelf_return>
/media/home/beste/01_Pro/ld25x/bsp_hu/MYD-LD25X-Uboot-L2022.10-V1.0.0/GEN_FIP/myir-st-optee/ldelf/ta_elf.c:992
    18d8:	f9401a61 	ldr	x1, [x19, #48]
/media/home/beste/01_Pro/ld25x/bsp_hu/MYD-LD25X-Uboot-L2022.10-V1.0.0/GEN_FIP/myir-st-optee/ldelf/ta_elf.c:989
    18dc:	f94027e0 	ldr	x0, [sp, #72]
    18e0:	f9001260 	str	x0, [x19, #32]
/media/home/beste/01_Pro/ld25x/bsp_hu/MYD-LD25X-Uboot-L2022.10-V1.0.0/GEN_FIP/myir-st-optee/ldelf/ta_elf.c:991
    18e4:	8b0002b5 	add	x21, x21, x0
    18e8:	a900d660 	stp	x0, x21, [x19, #8]
/media/home/beste/01_Pro/ld25x/bsp_hu/MYD-LD25X-Uboot-L2022.10-V1.0.0/GEN_FIP/myir-st-optee/ldelf/ta_elf.c:992
    18ec:	8b000020 	add	x0, x1, x0
    18f0:	f9002a60 	str	x0, [x19, #80]
/media/home/beste/01_Pro/ld25x/bsp_hu/MYD-LD25X-Uboot-L2022.10-V1.0.0/GEN_FIP/myir-st-optee/ldelf/ta_elf.c:994
    18f4:	a94153f3 	ldp	x19, x20, [sp, #16]
    18f8:	a9425bf5 	ldp	x21, x22, [sp, #32]
    18fc:	f9401bf7 	ldr	x23, [sp, #48]
    1900:	a8c57bfd 	ldp	x29, x30, [sp], #80
    1904:	d65f03c0 	ret

0000000000001908 <get_next_in_order>:
get_next_in_order():
/media/home/beste/01_Pro/ld25x/bsp_hu/MYD-LD25X-Uboot-L2022.10-V1.0.0/GEN_FIP/myir-st-optee/ldelf/ta_elf.c:1375
    1908:	f9400024 	ldr	x4, [x1]
/media/home/beste/01_Pro/ld25x/bsp_hu/MYD-LD25X-Uboot-L2022.10-V1.0.0/GEN_FIP/myir-st-optee/ldelf/ta_elf.c:1376
    190c:	f9400045 	ldr	x5, [x2]
/media/home/beste/01_Pro/ld25x/bsp_hu/MYD-LD25X-Uboot-L2022.10-V1.0.0/GEN_FIP/myir-st-optee/ldelf/ta_elf.c:1377
    1910:	f100009f 	cmp	x4, #0x0
    1914:	1a9f07e7 	cset	w7, ne	// ne = any
    1918:	f10000bf 	cmp	x5, #0x0
    191c:	1a9f07e6 	cset	w6, ne	// ne = any
    1920:	6b0600ff 	cmp	w7, w6
    1924:	54000120 	b.eq	1948 <get_next_in_order+0x40>  // b.none
/media/home/beste/01_Pro/ld25x/bsp_hu/MYD-LD25X-Uboot-L2022.10-V1.0.0/GEN_FIP/myir-st-optee/ldelf/ta_elf.c:1366 (discriminator 1)
    1928:	a9bf7bfd 	stp	x29, x30, [sp, #-16]!
/media/home/beste/01_Pro/ld25x/bsp_hu/MYD-LD25X-Uboot-L2022.10-V1.0.0/GEN_FIP/myir-st-optee/ldelf/ta_elf.c:1377 (discriminator 1)
    192c:	d0000022 	adrp	x2, 7000 <trace_ext_prefix+0x6bc>
    1930:	b0000020 	adrp	x0, 6000 <kprintf.constprop.0+0x68c>
/media/home/beste/01_Pro/ld25x/bsp_hu/MYD-LD25X-Uboot-L2022.10-V1.0.0/GEN_FIP/myir-st-optee/ldelf/ta_elf.c:1366 (discriminator 1)
    1934:	910003fd 	mov	x29, sp
/media/home/beste/01_Pro/ld25x/bsp_hu/MYD-LD25X-Uboot-L2022.10-V1.0.0/GEN_FIP/myir-st-optee/ldelf/ta_elf.c:1377 (discriminator 1)
    1938:	91048042 	add	x2, x2, #0x120
    193c:	91355c00 	add	x0, x0, #0xd57
    1940:	5280ac21 	mov	w1, #0x561                 	// #1377
    1944:	97fffcfb 	bl	d30 <_assert_trap.constprop.0>
/media/home/beste/01_Pro/ld25x/bsp_hu/MYD-LD25X-Uboot-L2022.10-V1.0.0/GEN_FIP/myir-st-optee/ldelf/ta_elf.c:1379
    1948:	b40000c5 	cbz	x5, 1960 <get_next_in_order+0x58>
/media/home/beste/01_Pro/ld25x/bsp_hu/MYD-LD25X-Uboot-L2022.10-V1.0.0/GEN_FIP/myir-st-optee/ldelf/ta_elf.c:1380
    194c:	f9401ca5 	ldr	x5, [x5, #56]
/media/home/beste/01_Pro/ld25x/bsp_hu/MYD-LD25X-Uboot-L2022.10-V1.0.0/GEN_FIP/myir-st-optee/ldelf/ta_elf.c:1381
    1950:	b4000085 	cbz	x5, 1960 <get_next_in_order+0x58>
/media/home/beste/01_Pro/ld25x/bsp_hu/MYD-LD25X-Uboot-L2022.10-V1.0.0/GEN_FIP/myir-st-optee/ldelf/ta_elf.c:1382
    1954:	f9000045 	str	x5, [x2]
/media/home/beste/01_Pro/ld25x/bsp_hu/MYD-LD25X-Uboot-L2022.10-V1.0.0/GEN_FIP/myir-st-optee/ldelf/ta_elf.c:1383
    1958:	52800020 	mov	w0, #0x1                   	// #1
    195c:	d65f03c0 	ret
/media/home/beste/01_Pro/ld25x/bsp_hu/MYD-LD25X-Uboot-L2022.10-V1.0.0/GEN_FIP/myir-st-optee/ldelf/ta_elf.c:1387
    1960:	b40001a4 	cbz	x4, 1994 <get_next_in_order+0x8c>
/media/home/beste/01_Pro/ld25x/bsp_hu/MYD-LD25X-Uboot-L2022.10-V1.0.0/GEN_FIP/myir-st-optee/ldelf/ta_elf.c:1388
    1964:	f9400487 	ldr	x7, [x4, #8]
/media/home/beste/01_Pro/ld25x/bsp_hu/MYD-LD25X-Uboot-L2022.10-V1.0.0/GEN_FIP/myir-st-optee/ldelf/ta_elf.c:1372
    1968:	d2800006 	mov	x6, #0x0                   	// #0
/media/home/beste/01_Pro/ld25x/bsp_hu/MYD-LD25X-Uboot-L2022.10-V1.0.0/GEN_FIP/myir-st-optee/ldelf/ta_elf.c:1392
    196c:	f9400004 	ldr	x4, [x0]
/media/home/beste/01_Pro/ld25x/bsp_hu/MYD-LD25X-Uboot-L2022.10-V1.0.0/GEN_FIP/myir-st-optee/ldelf/ta_elf.c:1369
    1970:	d2800005 	mov	x5, #0x0                   	// #0
/media/home/beste/01_Pro/ld25x/bsp_hu/MYD-LD25X-Uboot-L2022.10-V1.0.0/GEN_FIP/myir-st-optee/ldelf/ta_elf.c:1391
    1974:	d2800000 	mov	x0, #0x0                   	// #0
/media/home/beste/01_Pro/ld25x/bsp_hu/MYD-LD25X-Uboot-L2022.10-V1.0.0/GEN_FIP/myir-st-optee/ldelf/ta_elf.c:1392 (discriminator 1)
    1978:	b5000124 	cbnz	x4, 199c <get_next_in_order+0x94>
/media/home/beste/01_Pro/ld25x/bsp_hu/MYD-LD25X-Uboot-L2022.10-V1.0.0/GEN_FIP/myir-st-optee/ldelf/ta_elf.c:1401
    197c:	b40002c0 	cbz	x0, 19d4 <get_next_in_order+0xcc>
/media/home/beste/01_Pro/ld25x/bsp_hu/MYD-LD25X-Uboot-L2022.10-V1.0.0/GEN_FIP/myir-st-optee/ldelf/ta_elf.c:1404
    1980:	f9000020 	str	x0, [x1]
/media/home/beste/01_Pro/ld25x/bsp_hu/MYD-LD25X-Uboot-L2022.10-V1.0.0/GEN_FIP/myir-st-optee/ldelf/ta_elf.c:1405
    1984:	f9405000 	ldr	x0, [x0, #160]
    1988:	f9000040 	str	x0, [x2]
/media/home/beste/01_Pro/ld25x/bsp_hu/MYD-LD25X-Uboot-L2022.10-V1.0.0/GEN_FIP/myir-st-optee/ldelf/ta_elf.c:1406
    198c:	f9000065 	str	x5, [x3]
/media/home/beste/01_Pro/ld25x/bsp_hu/MYD-LD25X-Uboot-L2022.10-V1.0.0/GEN_FIP/myir-st-optee/ldelf/ta_elf.c:1407
    1990:	17fffff2 	b	1958 <get_next_in_order+0x50>
/media/home/beste/01_Pro/ld25x/bsp_hu/MYD-LD25X-Uboot-L2022.10-V1.0.0/GEN_FIP/myir-st-optee/ldelf/ta_elf.c:1370
    1994:	d2800007 	mov	x7, #0x0                   	// #0
    1998:	17fffff4 	b	1968 <get_next_in_order+0x60>
/media/home/beste/01_Pro/ld25x/bsp_hu/MYD-LD25X-Uboot-L2022.10-V1.0.0/GEN_FIP/myir-st-optee/ldelf/ta_elf.c:1393
    199c:	f9400488 	ldr	x8, [x4, #8]
    19a0:	eb07011f 	cmp	x8, x7
    19a4:	540000c9 	b.ls	19bc <get_next_in_order+0xb4>  // b.plast
/media/home/beste/01_Pro/ld25x/bsp_hu/MYD-LD25X-Uboot-L2022.10-V1.0.0/GEN_FIP/myir-st-optee/ldelf/ta_elf.c:1394
    19a8:	b4000100 	cbz	x0, 19c8 <get_next_in_order+0xc0>
/media/home/beste/01_Pro/ld25x/bsp_hu/MYD-LD25X-Uboot-L2022.10-V1.0.0/GEN_FIP/myir-st-optee/ldelf/ta_elf.c:1394 (discriminator 1)
    19ac:	f9400409 	ldr	x9, [x0, #8]
/media/home/beste/01_Pro/ld25x/bsp_hu/MYD-LD25X-Uboot-L2022.10-V1.0.0/GEN_FIP/myir-st-optee/ldelf/ta_elf.c:1396 (discriminator 1)
    19b0:	eb09011f 	cmp	x8, x9
    19b4:	9a8620a5 	csel	x5, x5, x6, cs	// cs = hs, nlast
    19b8:	9a842000 	csel	x0, x0, x4, cs	// cs = hs, nlast
/media/home/beste/01_Pro/ld25x/bsp_hu/MYD-LD25X-Uboot-L2022.10-V1.0.0/GEN_FIP/myir-st-optee/ldelf/ta_elf.c:1392 (discriminator 2)
    19bc:	f9409084 	ldr	x4, [x4, #288]
/media/home/beste/01_Pro/ld25x/bsp_hu/MYD-LD25X-Uboot-L2022.10-V1.0.0/GEN_FIP/myir-st-optee/ldelf/ta_elf.c:1399 (discriminator 2)
    19c0:	910004c6 	add	x6, x6, #0x1
/media/home/beste/01_Pro/ld25x/bsp_hu/MYD-LD25X-Uboot-L2022.10-V1.0.0/GEN_FIP/myir-st-optee/ldelf/ta_elf.c:1392 (discriminator 2)
    19c4:	17ffffed 	b	1978 <get_next_in_order+0x70>
/media/home/beste/01_Pro/ld25x/bsp_hu/MYD-LD25X-Uboot-L2022.10-V1.0.0/GEN_FIP/myir-st-optee/ldelf/ta_elf.c:1396
    19c8:	aa0603e5 	mov	x5, x6
    19cc:	aa0403e0 	mov	x0, x4
    19d0:	17fffffb 	b	19bc <get_next_in_order+0xb4>
/media/home/beste/01_Pro/ld25x/bsp_hu/MYD-LD25X-Uboot-L2022.10-V1.0.0/GEN_FIP/myir-st-optee/ldelf/ta_elf.c:1402
    19d4:	52800000 	mov	w0, #0x0                   	// #0
/media/home/beste/01_Pro/ld25x/bsp_hu/MYD-LD25X-Uboot-L2022.10-V1.0.0/GEN_FIP/myir-st-optee/ldelf/ta_elf.c:1408
    19d8:	d65f03c0 	ret

00000000000019dc <read_dyn>:
read_dyn():
/media/home/beste/01_Pro/ld25x/bsp_hu/MYD-LD25X-Uboot-L2022.10-V1.0.0/GEN_FIP/myir-st-optee/ldelf/ta_elf.c:182
    19dc:	f9400405 	ldr	x5, [x0, #8]
/media/home/beste/01_Pro/ld25x/bsp_hu/MYD-LD25X-Uboot-L2022.10-V1.0.0/GEN_FIP/myir-st-optee/ldelf/ta_elf.c:181
    19e0:	39400400 	ldrb	w0, [x0, #1]
/media/home/beste/01_Pro/ld25x/bsp_hu/MYD-LD25X-Uboot-L2022.10-V1.0.0/GEN_FIP/myir-st-optee/ldelf/ta_elf.c:182
    19e4:	8b050021 	add	x1, x1, x5
/media/home/beste/01_Pro/ld25x/bsp_hu/MYD-LD25X-Uboot-L2022.10-V1.0.0/GEN_FIP/myir-st-optee/ldelf/ta_elf.c:181
    19e8:	34000100 	cbz	w0, 1a08 <read_dyn+0x2c>
/media/home/beste/01_Pro/ld25x/bsp_hu/MYD-LD25X-Uboot-L2022.10-V1.0.0/GEN_FIP/myir-st-optee/ldelf/ta_elf.c:184
    19ec:	d37df040 	lsl	x0, x2, #3
    19f0:	8b020c22 	add	x2, x1, x2, lsl #3
    19f4:	b8606820 	ldr	w0, [x1, x0]
    19f8:	b9000060 	str	w0, [x3]
/media/home/beste/01_Pro/ld25x/bsp_hu/MYD-LD25X-Uboot-L2022.10-V1.0.0/GEN_FIP/myir-st-optee/ldelf/ta_elf.c:185
    19fc:	b9400440 	ldr	w0, [x2, #4]
    1a00:	f9000080 	str	x0, [x4]
/media/home/beste/01_Pro/ld25x/bsp_hu/MYD-LD25X-Uboot-L2022.10-V1.0.0/GEN_FIP/myir-st-optee/ldelf/ta_elf.c:192
    1a04:	d65f03c0 	ret
/media/home/beste/01_Pro/ld25x/bsp_hu/MYD-LD25X-Uboot-L2022.10-V1.0.0/GEN_FIP/myir-st-optee/ldelf/ta_elf.c:189
    1a08:	d37cec40 	lsl	x0, x2, #4
    1a0c:	8b021022 	add	x2, x1, x2, lsl #4
    1a10:	f8606820 	ldr	x0, [x1, x0]
    1a14:	b9000060 	str	w0, [x3]
/media/home/beste/01_Pro/ld25x/bsp_hu/MYD-LD25X-Uboot-L2022.10-V1.0.0/GEN_FIP/myir-st-optee/ldelf/ta_elf.c:190
    1a18:	f9400440 	ldr	x0, [x2, #8]
    1a1c:	17fffff9 	b	1a00 <read_dyn+0x24>

0000000000001a20 <save_soname_from_segment>:
save_soname_from_segment():
/media/home/beste/01_Pro/ld25x/bsp_hu/MYD-LD25X-Uboot-L2022.10-V1.0.0/GEN_FIP/myir-st-optee/ldelf/ta_elf.c:307
    1a20:	a9be7bfd 	stp	x29, x30, [sp, #-32]!
    1a24:	910003fd 	mov	x29, sp
/media/home/beste/01_Pro/ld25x/bsp_hu/MYD-LD25X-Uboot-L2022.10-V1.0.0/GEN_FIP/myir-st-optee/ldelf/ta_elf.c:311
    1a28:	b90017ff 	str	wzr, [sp, #20]
/media/home/beste/01_Pro/ld25x/bsp_hu/MYD-LD25X-Uboot-L2022.10-V1.0.0/GEN_FIP/myir-st-optee/ldelf/ta_elf.c:312
    1a2c:	f9000fff 	str	xzr, [sp, #24]
/media/home/beste/01_Pro/ld25x/bsp_hu/MYD-LD25X-Uboot-L2022.10-V1.0.0/GEN_FIP/myir-st-optee/ldelf/ta_elf.c:315
    1a30:	7100083f 	cmp	w1, #0x2
    1a34:	54000601 	b.ne	1af4 <save_soname_from_segment+0xd4>  // b.any
    1a38:	aa0003e7 	mov	x7, x0
/media/home/beste/01_Pro/ld25x/bsp_hu/MYD-LD25X-Uboot-L2022.10-V1.0.0/GEN_FIP/myir-st-optee/ldelf/ta_elf.c:318
    1a3c:	39400400 	ldrb	w0, [x0, #1]
/media/home/beste/01_Pro/ld25x/bsp_hu/MYD-LD25X-Uboot-L2022.10-V1.0.0/GEN_FIP/myir-st-optee/ldelf/ta_elf.c:319
    1a40:	d2800206 	mov	x6, #0x10                  	// #16
/media/home/beste/01_Pro/ld25x/bsp_hu/MYD-LD25X-Uboot-L2022.10-V1.0.0/GEN_FIP/myir-st-optee/ldelf/ta_elf.c:326
    1a44:	d2800008 	mov	x8, #0x0                   	// #0
/media/home/beste/01_Pro/ld25x/bsp_hu/MYD-LD25X-Uboot-L2022.10-V1.0.0/GEN_FIP/myir-st-optee/ldelf/ta_elf.c:319
    1a48:	7100001f 	cmp	w0, #0x0
    1a4c:	d2800100 	mov	x0, #0x8                   	// #8
    1a50:	9a8000c6 	csel	x6, x6, x0, eq	// eq = none
/media/home/beste/01_Pro/ld25x/bsp_hu/MYD-LD25X-Uboot-L2022.10-V1.0.0/GEN_FIP/myir-st-optee/ldelf/ta_elf.c:323
    1a54:	9ac6086a 	udiv	x10, x3, x6
    1a58:	9b068d46 	msub	x6, x10, x6, x3
    1a5c:	b5000106 	cbnz	x6, 1a7c <save_soname_from_segment+0x5c>
    1a60:	aa0203e9 	mov	x9, x2
/media/home/beste/01_Pro/ld25x/bsp_hu/MYD-LD25X-Uboot-L2022.10-V1.0.0/GEN_FIP/myir-st-optee/ldelf/ta_elf.c:327
    1a64:	910063e4 	add	x4, sp, #0x18
    1a68:	910053e3 	add	x3, sp, #0x14
/media/home/beste/01_Pro/ld25x/bsp_hu/MYD-LD25X-Uboot-L2022.10-V1.0.0/GEN_FIP/myir-st-optee/ldelf/ta_elf.c:326 (discriminator 1)
    1a6c:	eb0a011f 	cmp	x8, x10
    1a70:	54000121 	b.ne	1a94 <save_soname_from_segment+0x74>  // b.any
/media/home/beste/01_Pro/ld25x/bsp_hu/MYD-LD25X-Uboot-L2022.10-V1.0.0/GEN_FIP/myir-st-optee/ldelf/ta_elf.c:313
    1a74:	d2800008 	mov	x8, #0x0                   	// #0
    1a78:	14000011 	b	1abc <save_soname_from_segment+0x9c>
/media/home/beste/01_Pro/ld25x/bsp_hu/MYD-LD25X-Uboot-L2022.10-V1.0.0/GEN_FIP/myir-st-optee/ldelf/ta_elf.c:323 (discriminator 1)
    1a7c:	d0000022 	adrp	x2, 7000 <trace_ext_prefix+0x6bc>
    1a80:	b0000020 	adrp	x0, 6000 <kprintf.constprop.0+0x68c>
    1a84:	91067c42 	add	x2, x2, #0x19f
    1a88:	91363000 	add	x0, x0, #0xd8c
    1a8c:	52802861 	mov	w1, #0x143                 	// #323
    1a90:	97fffca8 	bl	d30 <_assert_trap.constprop.0>
/media/home/beste/01_Pro/ld25x/bsp_hu/MYD-LD25X-Uboot-L2022.10-V1.0.0/GEN_FIP/myir-st-optee/ldelf/ta_elf.c:327
    1a94:	aa0703e0 	mov	x0, x7
    1a98:	aa0803e2 	mov	x2, x8
    1a9c:	aa0903e1 	mov	x1, x9
    1aa0:	97ffffcf 	bl	19dc <read_dyn>
/media/home/beste/01_Pro/ld25x/bsp_hu/MYD-LD25X-Uboot-L2022.10-V1.0.0/GEN_FIP/myir-st-optee/ldelf/ta_elf.c:328
    1aa4:	b94017e0 	ldr	w0, [sp, #20]
    1aa8:	7100141f 	cmp	w0, #0x5
    1aac:	54000281 	b.ne	1afc <save_soname_from_segment+0xdc>  // b.any
/media/home/beste/01_Pro/ld25x/bsp_hu/MYD-LD25X-Uboot-L2022.10-V1.0.0/GEN_FIP/myir-st-optee/ldelf/ta_elf.c:329
    1ab0:	f94004e8 	ldr	x8, [x7, #8]
    1ab4:	f9400fe0 	ldr	x0, [sp, #24]
    1ab8:	8b000108 	add	x8, x8, x0
/media/home/beste/01_Pro/ld25x/bsp_hu/MYD-LD25X-Uboot-L2022.10-V1.0.0/GEN_FIP/myir-st-optee/ldelf/ta_elf.c:334
    1abc:	910063e4 	add	x4, sp, #0x18
    1ac0:	910053e3 	add	x3, sp, #0x14
/media/home/beste/01_Pro/ld25x/bsp_hu/MYD-LD25X-Uboot-L2022.10-V1.0.0/GEN_FIP/myir-st-optee/ldelf/ta_elf.c:333 (discriminator 1)
    1ac4:	eb0a00df 	cmp	x6, x10
    1ac8:	54000160 	b.eq	1af4 <save_soname_from_segment+0xd4>  // b.none
/media/home/beste/01_Pro/ld25x/bsp_hu/MYD-LD25X-Uboot-L2022.10-V1.0.0/GEN_FIP/myir-st-optee/ldelf/ta_elf.c:334
    1acc:	aa0703e0 	mov	x0, x7
    1ad0:	aa0603e2 	mov	x2, x6
    1ad4:	aa0903e1 	mov	x1, x9
    1ad8:	97ffffc1 	bl	19dc <read_dyn>
/media/home/beste/01_Pro/ld25x/bsp_hu/MYD-LD25X-Uboot-L2022.10-V1.0.0/GEN_FIP/myir-st-optee/ldelf/ta_elf.c:335
    1adc:	b94017e0 	ldr	w0, [sp, #20]
    1ae0:	7100381f 	cmp	w0, #0xe
    1ae4:	54000101 	b.ne	1b04 <save_soname_from_segment+0xe4>  // b.any
/media/home/beste/01_Pro/ld25x/bsp_hu/MYD-LD25X-Uboot-L2022.10-V1.0.0/GEN_FIP/myir-st-optee/ldelf/ta_elf.c:336
    1ae8:	f9400fe0 	ldr	x0, [sp, #24]
    1aec:	8b000108 	add	x8, x8, x0
    1af0:	f9004ce8 	str	x8, [x7, #152]
/media/home/beste/01_Pro/ld25x/bsp_hu/MYD-LD25X-Uboot-L2022.10-V1.0.0/GEN_FIP/myir-st-optee/ldelf/ta_elf.c:340
    1af4:	a8c27bfd 	ldp	x29, x30, [sp], #32
    1af8:	d65f03c0 	ret
/media/home/beste/01_Pro/ld25x/bsp_hu/MYD-LD25X-Uboot-L2022.10-V1.0.0/GEN_FIP/myir-st-optee/ldelf/ta_elf.c:326 (discriminator 2)
    1afc:	91000508 	add	x8, x8, #0x1
    1b00:	17ffffdb 	b	1a6c <save_soname_from_segment+0x4c>
/media/home/beste/01_Pro/ld25x/bsp_hu/MYD-LD25X-Uboot-L2022.10-V1.0.0/GEN_FIP/myir-st-optee/ldelf/ta_elf.c:333 (discriminator 2)
    1b04:	910004c6 	add	x6, x6, #0x1
    1b08:	17ffffef 	b	1ac4 <save_soname_from_segment+0xa4>

0000000000001b0c <save_symtab>:
save_symtab():
/media/home/beste/01_Pro/ld25x/bsp_hu/MYD-LD25X-Uboot-L2022.10-V1.0.0/GEN_FIP/myir-st-optee/ldelf/ta_elf.c:416
    1b0c:	a9bd7bfd 	stp	x29, x30, [sp, #-48]!
    1b10:	910003fd 	mov	x29, sp
/media/home/beste/01_Pro/ld25x/bsp_hu/MYD-LD25X-Uboot-L2022.10-V1.0.0/GEN_FIP/myir-st-optee/ldelf/ta_elf.c:422
    1b14:	b9404401 	ldr	w1, [x0, #68]
/media/home/beste/01_Pro/ld25x/bsp_hu/MYD-LD25X-Uboot-L2022.10-V1.0.0/GEN_FIP/myir-st-optee/ldelf/ta_elf.c:416
    1b18:	a90153f3 	stp	x19, x20, [sp, #16]
    1b1c:	aa0003f3 	mov	x19, x0
    1b20:	a9025bf5 	stp	x21, x22, [sp, #32]
/media/home/beste/01_Pro/ld25x/bsp_hu/MYD-LD25X-Uboot-L2022.10-V1.0.0/GEN_FIP/myir-st-optee/ldelf/ta_elf.c:420
    1b24:	f9402c16 	ldr	x22, [x0, #88]
/media/home/beste/01_Pro/ld25x/bsp_hu/MYD-LD25X-Uboot-L2022.10-V1.0.0/GEN_FIP/myir-st-optee/ldelf/ta_elf.c:419
    1b28:	39400400 	ldrb	w0, [x0, #1]
    1b2c:	35000320 	cbnz	w0, 1b90 <save_symtab+0x84>
    1b30:	aa1603f5 	mov	x21, x22
/media/home/beste/01_Pro/ld25x/bsp_hu/MYD-LD25X-Uboot-L2022.10-V1.0.0/GEN_FIP/myir-st-optee/ldelf/ta_elf.c:431
    1b34:	d2800000 	mov	x0, #0x0                   	// #0
/media/home/beste/01_Pro/ld25x/bsp_hu/MYD-LD25X-Uboot-L2022.10-V1.0.0/GEN_FIP/myir-st-optee/ldelf/ta_elf.c:431 (discriminator 1)
    1b38:	eb01001f 	cmp	x0, x1
    1b3c:	54000322 	b.cs	1ba0 <save_symtab+0x94>  // b.hs, b.nlast
/media/home/beste/01_Pro/ld25x/bsp_hu/MYD-LD25X-Uboot-L2022.10-V1.0.0/GEN_FIP/myir-st-optee/ldelf/ta_elf.c:432
    1b40:	b94006a3 	ldr	w3, [x21, #4]
    1b44:	910102a2 	add	x2, x21, #0x40
    1b48:	71002c7f 	cmp	w3, #0xb
    1b4c:	540012a1 	b.ne	1da0 <save_symtab+0x294>  // b.any
e64_save_symtab():
/media/home/beste/01_Pro/ld25x/bsp_hu/MYD-LD25X-Uboot-L2022.10-V1.0.0/GEN_FIP/myir-st-optee/ldelf/ta_elf.c:392
    1b50:	f9400660 	ldr	x0, [x19, #8]
    1b54:	f9400aa2 	ldr	x2, [x21, #16]
/media/home/beste/01_Pro/ld25x/bsp_hu/MYD-LD25X-Uboot-L2022.10-V1.0.0/GEN_FIP/myir-st-optee/ldelf/ta_elf.c:390
    1b58:	b9402ab4 	ldr	w20, [x21, #40]
/media/home/beste/01_Pro/ld25x/bsp_hu/MYD-LD25X-Uboot-L2022.10-V1.0.0/GEN_FIP/myir-st-optee/ldelf/ta_elf.c:392
    1b5c:	8b000042 	add	x2, x2, x0
    1b60:	f9003262 	str	x2, [x19, #96]
/media/home/beste/01_Pro/ld25x/bsp_hu/MYD-LD25X-Uboot-L2022.10-V1.0.0/GEN_FIP/myir-st-optee/ldelf/ta_elf.c:395
    1b64:	f240085f 	tst	x2, #0x7
    1b68:	54000ca0 	b.eq	1cfc <save_symtab+0x1f0>  // b.none
/media/home/beste/01_Pro/ld25x/bsp_hu/MYD-LD25X-Uboot-L2022.10-V1.0.0/GEN_FIP/myir-st-optee/ldelf/ta_elf.c:396
    1b6c:	aa0203e5 	mov	x5, x2
    1b70:	b0000024 	adrp	x4, 6000 <kprintf.constprop.0+0x68c>
    1b74:	d0000020 	adrp	x0, 7000 <trace_ext_prefix+0x6bc>
    1b78:	9138a084 	add	x4, x4, #0xe28
    1b7c:	91076000 	add	x0, x0, #0x1d8
    1b80:	52800023 	mov	w3, #0x1                   	// #1
    1b84:	52800022 	mov	w2, #0x1                   	// #1
    1b88:	52803181 	mov	w1, #0x18c                 	// #396
    1b8c:	1400002c 	b	1c3c <save_symtab+0x130>
    1b90:	aa1603f4 	mov	x20, x22
save_symtab():
/media/home/beste/01_Pro/ld25x/bsp_hu/MYD-LD25X-Uboot-L2022.10-V1.0.0/GEN_FIP/myir-st-optee/ldelf/ta_elf.c:422
    1b94:	d2800000 	mov	x0, #0x0                   	// #0
/media/home/beste/01_Pro/ld25x/bsp_hu/MYD-LD25X-Uboot-L2022.10-V1.0.0/GEN_FIP/myir-st-optee/ldelf/ta_elf.c:422 (discriminator 1)
    1b98:	eb01001f 	cmp	x0, x1
    1b9c:	540002a3 	b.cc	1bf0 <save_symtab+0xe4>  // b.lo, b.ul, b.last
save_hashtab():
/media/home/beste/01_Pro/ld25x/bsp_hu/MYD-LD25X-Uboot-L2022.10-V1.0.0/GEN_FIP/myir-st-optee/ldelf/ta_elf.c:266
    1ba0:	39400661 	ldrb	w1, [x19, #1]
/media/home/beste/01_Pro/ld25x/bsp_hu/MYD-LD25X-Uboot-L2022.10-V1.0.0/GEN_FIP/myir-st-optee/ldelf/ta_elf.c:275
    1ba4:	529ffec5 	mov	w5, #0xfff6                	// #65526
/media/home/beste/01_Pro/ld25x/bsp_hu/MYD-LD25X-Uboot-L2022.10-V1.0.0/GEN_FIP/myir-st-optee/ldelf/ta_elf.c:267
    1ba8:	f9402e60 	ldr	x0, [x19, #88]
/media/home/beste/01_Pro/ld25x/bsp_hu/MYD-LD25X-Uboot-L2022.10-V1.0.0/GEN_FIP/myir-st-optee/ldelf/ta_elf.c:269
    1bac:	d2800002 	mov	x2, #0x0                   	// #0
    1bb0:	b9404663 	ldr	w3, [x19, #68]
/media/home/beste/01_Pro/ld25x/bsp_hu/MYD-LD25X-Uboot-L2022.10-V1.0.0/GEN_FIP/myir-st-optee/ldelf/ta_elf.c:275
    1bb4:	72adffe5 	movk	w5, #0x6fff, lsl #16
    1bb8:	91001000 	add	x0, x0, #0x4
/media/home/beste/01_Pro/ld25x/bsp_hu/MYD-LD25X-Uboot-L2022.10-V1.0.0/GEN_FIP/myir-st-optee/ldelf/ta_elf.c:266
    1bbc:	350010a1 	cbnz	w1, 1dd0 <save_symtab+0x2c4>
/media/home/beste/01_Pro/ld25x/bsp_hu/MYD-LD25X-Uboot-L2022.10-V1.0.0/GEN_FIP/myir-st-optee/ldelf/ta_elf.c:283
    1bc0:	eb03005f 	cmp	x2, x3
    1bc4:	540010a2 	b.cs	1dd8 <save_symtab+0x2cc>  // b.hs, b.nlast
/media/home/beste/01_Pro/ld25x/bsp_hu/MYD-LD25X-Uboot-L2022.10-V1.0.0/GEN_FIP/myir-st-optee/ldelf/ta_elf.c:284
    1bc8:	f9400664 	ldr	x4, [x19, #8]
    1bcc:	f840c001 	ldur	x1, [x0, #12]
    1bd0:	8b040021 	add	x1, x1, x4
/media/home/beste/01_Pro/ld25x/bsp_hu/MYD-LD25X-Uboot-L2022.10-V1.0.0/GEN_FIP/myir-st-optee/ldelf/ta_elf.c:287
    1bd4:	b9400004 	ldr	w4, [x0]
    1bd8:	7100149f 	cmp	w4, #0x5
    1bdc:	54001261 	b.ne	1e28 <save_symtab+0x31c>  // b.any
/media/home/beste/01_Pro/ld25x/bsp_hu/MYD-LD25X-Uboot-L2022.10-V1.0.0/GEN_FIP/myir-st-optee/ldelf/ta_elf.c:288
    1be0:	f9004261 	str	x1, [x19, #128]
/media/home/beste/01_Pro/ld25x/bsp_hu/MYD-LD25X-Uboot-L2022.10-V1.0.0/GEN_FIP/myir-st-optee/ldelf/ta_elf.c:283
    1be4:	91000442 	add	x2, x2, #0x1
    1be8:	91010000 	add	x0, x0, #0x40
    1bec:	17fffff5 	b	1bc0 <save_symtab+0xb4>
save_symtab():
/media/home/beste/01_Pro/ld25x/bsp_hu/MYD-LD25X-Uboot-L2022.10-V1.0.0/GEN_FIP/myir-st-optee/ldelf/ta_elf.c:423
    1bf0:	b9400683 	ldr	w3, [x20, #4]
    1bf4:	9100a282 	add	x2, x20, #0x28
    1bf8:	71002c7f 	cmp	w3, #0xb
    1bfc:	540007a1 	b.ne	1cf0 <save_symtab+0x1e4>  // b.any
e32_save_symtab():
/media/home/beste/01_Pro/ld25x/bsp_hu/MYD-LD25X-Uboot-L2022.10-V1.0.0/GEN_FIP/myir-st-optee/ldelf/ta_elf.c:368
    1c00:	f9400660 	ldr	x0, [x19, #8]
    1c04:	b9400e82 	ldr	w2, [x20, #12]
/media/home/beste/01_Pro/ld25x/bsp_hu/MYD-LD25X-Uboot-L2022.10-V1.0.0/GEN_FIP/myir-st-optee/ldelf/ta_elf.c:366
    1c08:	b9401a95 	ldr	w21, [x20, #24]
/media/home/beste/01_Pro/ld25x/bsp_hu/MYD-LD25X-Uboot-L2022.10-V1.0.0/GEN_FIP/myir-st-optee/ldelf/ta_elf.c:368
    1c0c:	8b000042 	add	x2, x2, x0
    1c10:	f9003262 	str	x2, [x19, #96]
/media/home/beste/01_Pro/ld25x/bsp_hu/MYD-LD25X-Uboot-L2022.10-V1.0.0/GEN_FIP/myir-st-optee/ldelf/ta_elf.c:369
    1c14:	f240045f 	tst	x2, #0x3
    1c18:	54000160 	b.eq	1c44 <save_symtab+0x138>  // b.none
/media/home/beste/01_Pro/ld25x/bsp_hu/MYD-LD25X-Uboot-L2022.10-V1.0.0/GEN_FIP/myir-st-optee/ldelf/ta_elf.c:370
    1c1c:	b0000024 	adrp	x4, 6000 <kprintf.constprop.0+0x68c>
    1c20:	d0000020 	adrp	x0, 7000 <trace_ext_prefix+0x6bc>
    1c24:	91368c84 	add	x4, x4, #0xda3
    1c28:	9107a000 	add	x0, x0, #0x1e8
    1c2c:	aa0203e5 	mov	x5, x2
    1c30:	52800023 	mov	w3, #0x1                   	// #1
    1c34:	52800022 	mov	w2, #0x1                   	// #1
    1c38:	52802e41 	mov	w1, #0x172                 	// #370
check_gnu_hashtab():
/media/home/beste/01_Pro/ld25x/bsp_hu/MYD-LD25X-Uboot-L2022.10-V1.0.0/GEN_FIP/myir-st-optee/ldelf/ta_elf.c:242
    1c3c:	940012c2 	bl	6744 <trace_printf>
    1c40:	14000011 	b	1c84 <save_symtab+0x178>
e32_save_symtab():
/media/home/beste/01_Pro/ld25x/bsp_hu/MYD-LD25X-Uboot-L2022.10-V1.0.0/GEN_FIP/myir-st-optee/ldelf/ta_elf.c:372
    1c44:	b9401683 	ldr	w3, [x20, #20]
    1c48:	aa1303e0 	mov	x0, x19
    1c4c:	b0000021 	adrp	x1, 6000 <kprintf.constprop.0+0x68c>
    1c50:	91370421 	add	x1, x1, #0xdc1
    1c54:	97fffa87 	bl	670 <check_range>
/media/home/beste/01_Pro/ld25x/bsp_hu/MYD-LD25X-Uboot-L2022.10-V1.0.0/GEN_FIP/myir-st-optee/ldelf/ta_elf.c:374
    1c58:	b9401680 	ldr	w0, [x20, #20]
    1c5c:	f2400c1f 	tst	x0, #0xf
    1c60:	54000160 	b.eq	1c8c <save_symtab+0x180>  // b.none
/media/home/beste/01_Pro/ld25x/bsp_hu/MYD-LD25X-Uboot-L2022.10-V1.0.0/GEN_FIP/myir-st-optee/ldelf/ta_elf.c:375
    1c64:	b0000024 	adrp	x4, 6000 <kprintf.constprop.0+0x68c>
    1c68:	91372c84 	add	x4, x4, #0xdcb
    1c6c:	52800023 	mov	w3, #0x1                   	// #1
    1c70:	52800022 	mov	w2, #0x1                   	// #1
    1c74:	52802ee1 	mov	w1, #0x177                 	// #375
    1c78:	d0000020 	adrp	x0, 7000 <trace_ext_prefix+0x6bc>
    1c7c:	9107a000 	add	x0, x0, #0x1e8
    1c80:	940012b1 	bl	6744 <trace_printf>
    1c84:	129fff40 	mov	w0, #0xffff0005            	// #-65531
    1c88:	97fff933 	bl	154 <_ldelf_return>
/media/home/beste/01_Pro/ld25x/bsp_hu/MYD-LD25X-Uboot-L2022.10-V1.0.0/GEN_FIP/myir-st-optee/ldelf/ta_elf.c:377
    1c8c:	53047c00 	lsr	w0, w0, #4
    1c90:	f9003660 	str	x0, [x19, #104]
/media/home/beste/01_Pro/ld25x/bsp_hu/MYD-LD25X-Uboot-L2022.10-V1.0.0/GEN_FIP/myir-st-optee/ldelf/ta_elf.c:379
    1c94:	b9404660 	ldr	w0, [x19, #68]
    1c98:	6b0002bf 	cmp	w21, w0
    1c9c:	540000e3 	b.cc	1cb8 <save_symtab+0x1ac>  // b.lo, b.ul, b.last
/media/home/beste/01_Pro/ld25x/bsp_hu/MYD-LD25X-Uboot-L2022.10-V1.0.0/GEN_FIP/myir-st-optee/ldelf/ta_elf.c:380
    1ca0:	b0000024 	adrp	x4, 6000 <kprintf.constprop.0+0x68c>
    1ca4:	52800023 	mov	w3, #0x1                   	// #1
    1ca8:	9137fc84 	add	x4, x4, #0xdff
    1cac:	52800022 	mov	w2, #0x1                   	// #1
    1cb0:	52802f81 	mov	w1, #0x17c                 	// #380
    1cb4:	17fffff1 	b	1c78 <save_symtab+0x16c>
/media/home/beste/01_Pro/ld25x/bsp_hu/MYD-LD25X-Uboot-L2022.10-V1.0.0/GEN_FIP/myir-st-optee/ldelf/ta_elf.c:381
    1cb8:	52800500 	mov	w0, #0x28                  	// #40
/media/home/beste/01_Pro/ld25x/bsp_hu/MYD-LD25X-Uboot-L2022.10-V1.0.0/GEN_FIP/myir-st-optee/ldelf/ta_elf.c:382
    1cbc:	b0000021 	adrp	x1, 6000 <kprintf.constprop.0+0x68c>
    1cc0:	91388421 	add	x1, x1, #0xe21
/media/home/beste/01_Pro/ld25x/bsp_hu/MYD-LD25X-Uboot-L2022.10-V1.0.0/GEN_FIP/myir-st-optee/ldelf/ta_elf.c:381
    1cc4:	9ba05ab5 	umaddl	x21, w21, w0, x22
    1cc8:	f9400660 	ldr	x0, [x19, #8]
    1ccc:	b9400ea2 	ldr	w2, [x21, #12]
/media/home/beste/01_Pro/ld25x/bsp_hu/MYD-LD25X-Uboot-L2022.10-V1.0.0/GEN_FIP/myir-st-optee/ldelf/ta_elf.c:382
    1cd0:	b94016a3 	ldr	w3, [x21, #20]
/media/home/beste/01_Pro/ld25x/bsp_hu/MYD-LD25X-Uboot-L2022.10-V1.0.0/GEN_FIP/myir-st-optee/ldelf/ta_elf.c:381
    1cd4:	8b000042 	add	x2, x2, x0
    1cd8:	f9003a62 	str	x2, [x19, #112]
/media/home/beste/01_Pro/ld25x/bsp_hu/MYD-LD25X-Uboot-L2022.10-V1.0.0/GEN_FIP/myir-st-optee/ldelf/ta_elf.c:382
    1cdc:	aa1303e0 	mov	x0, x19
    1ce0:	97fffa64 	bl	670 <check_range>
/media/home/beste/01_Pro/ld25x/bsp_hu/MYD-LD25X-Uboot-L2022.10-V1.0.0/GEN_FIP/myir-st-optee/ldelf/ta_elf.c:384
    1ce4:	b94016a0 	ldr	w0, [x21, #20]
e64_save_symtab():
/media/home/beste/01_Pro/ld25x/bsp_hu/MYD-LD25X-Uboot-L2022.10-V1.0.0/GEN_FIP/myir-st-optee/ldelf/ta_elf.c:412
    1ce8:	f9003e60 	str	x0, [x19, #120]
/media/home/beste/01_Pro/ld25x/bsp_hu/MYD-LD25X-Uboot-L2022.10-V1.0.0/GEN_FIP/myir-st-optee/ldelf/ta_elf.c:413
    1cec:	17ffffad 	b	1ba0 <save_symtab+0x94>
save_symtab():
/media/home/beste/01_Pro/ld25x/bsp_hu/MYD-LD25X-Uboot-L2022.10-V1.0.0/GEN_FIP/myir-st-optee/ldelf/ta_elf.c:422 (discriminator 2)
    1cf0:	91000400 	add	x0, x0, #0x1
    1cf4:	aa0203f4 	mov	x20, x2
    1cf8:	17ffffa8 	b	1b98 <save_symtab+0x8c>
e64_save_symtab():
/media/home/beste/01_Pro/ld25x/bsp_hu/MYD-LD25X-Uboot-L2022.10-V1.0.0/GEN_FIP/myir-st-optee/ldelf/ta_elf.c:398
    1cfc:	f94012a3 	ldr	x3, [x21, #32]
    1d00:	aa1303e0 	mov	x0, x19
    1d04:	b0000021 	adrp	x1, 6000 <kprintf.constprop.0+0x68c>
    1d08:	91392c21 	add	x1, x1, #0xe4b
    1d0c:	97fffa59 	bl	670 <check_range>
/media/home/beste/01_Pro/ld25x/bsp_hu/MYD-LD25X-Uboot-L2022.10-V1.0.0/GEN_FIP/myir-st-optee/ldelf/ta_elf.c:401
    1d10:	f94012a2 	ldr	x2, [x21, #32]
    1d14:	d2800300 	mov	x0, #0x18                  	// #24
    1d18:	9ac00841 	udiv	x1, x2, x0
    1d1c:	9b008820 	msub	x0, x1, x0, x2
    1d20:	b4000120 	cbz	x0, 1d44 <save_symtab+0x238>
/media/home/beste/01_Pro/ld25x/bsp_hu/MYD-LD25X-Uboot-L2022.10-V1.0.0/GEN_FIP/myir-st-optee/ldelf/ta_elf.c:402
    1d24:	b0000024 	adrp	x4, 6000 <kprintf.constprop.0+0x68c>
    1d28:	91396884 	add	x4, x4, #0xe5a
    1d2c:	52800023 	mov	w3, #0x1                   	// #1
    1d30:	52800022 	mov	w2, #0x1                   	// #1
    1d34:	52803241 	mov	w1, #0x192                 	// #402
/media/home/beste/01_Pro/ld25x/bsp_hu/MYD-LD25X-Uboot-L2022.10-V1.0.0/GEN_FIP/myir-st-optee/ldelf/ta_elf.c:407
    1d38:	d0000020 	adrp	x0, 7000 <trace_ext_prefix+0x6bc>
    1d3c:	91076000 	add	x0, x0, #0x1d8
    1d40:	17ffffd0 	b	1c80 <save_symtab+0x174>
/media/home/beste/01_Pro/ld25x/bsp_hu/MYD-LD25X-Uboot-L2022.10-V1.0.0/GEN_FIP/myir-st-optee/ldelf/ta_elf.c:406
    1d44:	b9404660 	ldr	w0, [x19, #68]
/media/home/beste/01_Pro/ld25x/bsp_hu/MYD-LD25X-Uboot-L2022.10-V1.0.0/GEN_FIP/myir-st-optee/ldelf/ta_elf.c:404
    1d48:	f9003661 	str	x1, [x19, #104]
/media/home/beste/01_Pro/ld25x/bsp_hu/MYD-LD25X-Uboot-L2022.10-V1.0.0/GEN_FIP/myir-st-optee/ldelf/ta_elf.c:406
    1d4c:	6b00029f 	cmp	w20, w0
    1d50:	540000e3 	b.cc	1d6c <save_symtab+0x260>  // b.lo, b.ul, b.last
/media/home/beste/01_Pro/ld25x/bsp_hu/MYD-LD25X-Uboot-L2022.10-V1.0.0/GEN_FIP/myir-st-optee/ldelf/ta_elf.c:407
    1d54:	b0000024 	adrp	x4, 6000 <kprintf.constprop.0+0x68c>
    1d58:	52800023 	mov	w3, #0x1                   	// #1
    1d5c:	913a4c84 	add	x4, x4, #0xe93
    1d60:	52800022 	mov	w2, #0x1                   	// #1
    1d64:	528032e1 	mov	w1, #0x197                 	// #407
    1d68:	17fffff4 	b	1d38 <save_symtab+0x22c>
/media/home/beste/01_Pro/ld25x/bsp_hu/MYD-LD25X-Uboot-L2022.10-V1.0.0/GEN_FIP/myir-st-optee/ldelf/ta_elf.c:409
    1d6c:	d37a7e94 	ubfiz	x20, x20, #6, #32
/media/home/beste/01_Pro/ld25x/bsp_hu/MYD-LD25X-Uboot-L2022.10-V1.0.0/GEN_FIP/myir-st-optee/ldelf/ta_elf.c:410
    1d70:	b0000021 	adrp	x1, 6000 <kprintf.constprop.0+0x68c>
/media/home/beste/01_Pro/ld25x/bsp_hu/MYD-LD25X-Uboot-L2022.10-V1.0.0/GEN_FIP/myir-st-optee/ldelf/ta_elf.c:409
    1d74:	8b1402d4 	add	x20, x22, x20
/media/home/beste/01_Pro/ld25x/bsp_hu/MYD-LD25X-Uboot-L2022.10-V1.0.0/GEN_FIP/myir-st-optee/ldelf/ta_elf.c:410
    1d78:	913af421 	add	x1, x1, #0xebd
/media/home/beste/01_Pro/ld25x/bsp_hu/MYD-LD25X-Uboot-L2022.10-V1.0.0/GEN_FIP/myir-st-optee/ldelf/ta_elf.c:409
    1d7c:	f9400660 	ldr	x0, [x19, #8]
    1d80:	f9400a82 	ldr	x2, [x20, #16]
/media/home/beste/01_Pro/ld25x/bsp_hu/MYD-LD25X-Uboot-L2022.10-V1.0.0/GEN_FIP/myir-st-optee/ldelf/ta_elf.c:410
    1d84:	f9401283 	ldr	x3, [x20, #32]
/media/home/beste/01_Pro/ld25x/bsp_hu/MYD-LD25X-Uboot-L2022.10-V1.0.0/GEN_FIP/myir-st-optee/ldelf/ta_elf.c:409
    1d88:	8b000042 	add	x2, x2, x0
    1d8c:	f9003a62 	str	x2, [x19, #112]
/media/home/beste/01_Pro/ld25x/bsp_hu/MYD-LD25X-Uboot-L2022.10-V1.0.0/GEN_FIP/myir-st-optee/ldelf/ta_elf.c:410
    1d90:	aa1303e0 	mov	x0, x19
    1d94:	97fffa37 	bl	670 <check_range>
/media/home/beste/01_Pro/ld25x/bsp_hu/MYD-LD25X-Uboot-L2022.10-V1.0.0/GEN_FIP/myir-st-optee/ldelf/ta_elf.c:412
    1d98:	f9401280 	ldr	x0, [x20, #32]
    1d9c:	17ffffd3 	b	1ce8 <save_symtab+0x1dc>
save_symtab():
/media/home/beste/01_Pro/ld25x/bsp_hu/MYD-LD25X-Uboot-L2022.10-V1.0.0/GEN_FIP/myir-st-optee/ldelf/ta_elf.c:431 (discriminator 2)
    1da0:	91000400 	add	x0, x0, #0x1
    1da4:	aa0203f5 	mov	x21, x2
    1da8:	17ffff64 	b	1b38 <save_symtab+0x2c>
save_hashtab():
/media/home/beste/01_Pro/ld25x/bsp_hu/MYD-LD25X-Uboot-L2022.10-V1.0.0/GEN_FIP/myir-st-optee/ldelf/ta_elf.c:270
    1dac:	f9400664 	ldr	x4, [x19, #8]
    1db0:	b9400801 	ldr	w1, [x0, #8]
    1db4:	8b040021 	add	x1, x1, x4
/media/home/beste/01_Pro/ld25x/bsp_hu/MYD-LD25X-Uboot-L2022.10-V1.0.0/GEN_FIP/myir-st-optee/ldelf/ta_elf.c:273
    1db8:	b9400004 	ldr	w4, [x0]
    1dbc:	7100149f 	cmp	w4, #0x5
    1dc0:	54000281 	b.ne	1e10 <save_symtab+0x304>  // b.any
/media/home/beste/01_Pro/ld25x/bsp_hu/MYD-LD25X-Uboot-L2022.10-V1.0.0/GEN_FIP/myir-st-optee/ldelf/ta_elf.c:274
    1dc4:	f9004261 	str	x1, [x19, #128]
/media/home/beste/01_Pro/ld25x/bsp_hu/MYD-LD25X-Uboot-L2022.10-V1.0.0/GEN_FIP/myir-st-optee/ldelf/ta_elf.c:269
    1dc8:	91000442 	add	x2, x2, #0x1
    1dcc:	9100a000 	add	x0, x0, #0x28
    1dd0:	eb03005f 	cmp	x2, x3
    1dd4:	54fffec3 	b.cc	1dac <save_symtab+0x2a0>  // b.lo, b.ul, b.last
/media/home/beste/01_Pro/ld25x/bsp_hu/MYD-LD25X-Uboot-L2022.10-V1.0.0/GEN_FIP/myir-st-optee/ldelf/ta_elf.c:296
    1dd8:	f9404261 	ldr	x1, [x19, #128]
    1ddc:	b5000321 	cbnz	x1, 1e40 <save_symtab+0x334>
/media/home/beste/01_Pro/ld25x/bsp_hu/MYD-LD25X-Uboot-L2022.10-V1.0.0/GEN_FIP/myir-st-optee/ldelf/ta_elf.c:301
    1de0:	f9404665 	ldr	x5, [x19, #136]
    1de4:	b4000785 	cbz	x5, 1ed4 <save_symtab+0x3c8>
check_gnu_hashtab():
/media/home/beste/01_Pro/ld25x/bsp_hu/MYD-LD25X-Uboot-L2022.10-V1.0.0/GEN_FIP/myir-st-optee/ldelf/ta_elf.c:241
    1de8:	f24004bf 	tst	x5, #0x3
    1dec:	540003c0 	b.eq	1e64 <save_symtab+0x358>  // b.none
/media/home/beste/01_Pro/ld25x/bsp_hu/MYD-LD25X-Uboot-L2022.10-V1.0.0/GEN_FIP/myir-st-optee/ldelf/ta_elf.c:242
    1df0:	b0000024 	adrp	x4, 6000 <kprintf.constprop.0+0x68c>
    1df4:	d0000020 	adrp	x0, 7000 <trace_ext_prefix+0x6bc>
    1df8:	913b3084 	add	x4, x4, #0xecc
    1dfc:	9106e000 	add	x0, x0, #0x1b8
    1e00:	52800023 	mov	w3, #0x1                   	// #1
    1e04:	52800022 	mov	w2, #0x1                   	// #1
    1e08:	52801e41 	mov	w1, #0xf2                  	// #242
    1e0c:	17ffff8c 	b	1c3c <save_symtab+0x130>
save_hashtab():
/media/home/beste/01_Pro/ld25x/bsp_hu/MYD-LD25X-Uboot-L2022.10-V1.0.0/GEN_FIP/myir-st-optee/ldelf/ta_elf.c:275
    1e10:	6b05009f 	cmp	w4, w5
    1e14:	54fffda1 	b.ne	1dc8 <save_symtab+0x2bc>  // b.any
/media/home/beste/01_Pro/ld25x/bsp_hu/MYD-LD25X-Uboot-L2022.10-V1.0.0/GEN_FIP/myir-st-optee/ldelf/ta_elf.c:276
    1e18:	f9004661 	str	x1, [x19, #136]
/media/home/beste/01_Pro/ld25x/bsp_hu/MYD-LD25X-Uboot-L2022.10-V1.0.0/GEN_FIP/myir-st-optee/ldelf/ta_elf.c:277
    1e1c:	b9401001 	ldr	w1, [x0, #16]
    1e20:	f9004a61 	str	x1, [x19, #144]
    1e24:	17ffffe9 	b	1dc8 <save_symtab+0x2bc>
/media/home/beste/01_Pro/ld25x/bsp_hu/MYD-LD25X-Uboot-L2022.10-V1.0.0/GEN_FIP/myir-st-optee/ldelf/ta_elf.c:289
    1e28:	6b05009f 	cmp	w4, w5
    1e2c:	54ffedc1 	b.ne	1be4 <save_symtab+0xd8>  // b.any
/media/home/beste/01_Pro/ld25x/bsp_hu/MYD-LD25X-Uboot-L2022.10-V1.0.0/GEN_FIP/myir-st-optee/ldelf/ta_elf.c:290
    1e30:	f9004661 	str	x1, [x19, #136]
/media/home/beste/01_Pro/ld25x/bsp_hu/MYD-LD25X-Uboot-L2022.10-V1.0.0/GEN_FIP/myir-st-optee/ldelf/ta_elf.c:291
    1e34:	f841c001 	ldur	x1, [x0, #28]
    1e38:	f9004a61 	str	x1, [x19, #144]
    1e3c:	17ffff6a 	b	1be4 <save_symtab+0xd8>
/media/home/beste/01_Pro/ld25x/bsp_hu/MYD-LD25X-Uboot-L2022.10-V1.0.0/GEN_FIP/myir-st-optee/ldelf/ta_elf.c:297
    1e40:	aa1303e0 	mov	x0, x19
    1e44:	d2800003 	mov	x3, #0x0                   	// #0
    1e48:	d2800002 	mov	x2, #0x0                   	// #0
    1e4c:	97fffa33 	bl	718 <check_hashtab>
/media/home/beste/01_Pro/ld25x/bsp_hu/MYD-LD25X-Uboot-L2022.10-V1.0.0/GEN_FIP/myir-st-optee/ldelf/ta_elf.c:298
    1e50:	f9404261 	ldr	x1, [x19, #128]
/media/home/beste/01_Pro/ld25x/bsp_hu/MYD-LD25X-Uboot-L2022.10-V1.0.0/GEN_FIP/myir-st-optee/ldelf/ta_elf.c:299
    1e54:	aa1303e0 	mov	x0, x19
    1e58:	29400c22 	ldp	w2, w3, [x1]
    1e5c:	97fffa2f 	bl	718 <check_hashtab>
    1e60:	17ffffe0 	b	1de0 <save_symtab+0x2d4>
check_gnu_hashtab():
/media/home/beste/01_Pro/ld25x/bsp_hu/MYD-LD25X-Uboot-L2022.10-V1.0.0/GEN_FIP/myir-st-optee/ldelf/ta_elf.c:245
    1e64:	f9404a62 	ldr	x2, [x19, #144]
    1e68:	f1003c5f 	cmp	x2, #0xf
    1e6c:	54000128 	b.hi	1e90 <save_symtab+0x384>  // b.pmore
/media/home/beste/01_Pro/ld25x/bsp_hu/MYD-LD25X-Uboot-L2022.10-V1.0.0/GEN_FIP/myir-st-optee/ldelf/ta_elf.c:246
    1e70:	b0000024 	adrp	x4, 6000 <kprintf.constprop.0+0x68c>
    1e74:	913bb084 	add	x4, x4, #0xeec
    1e78:	52800023 	mov	w3, #0x1                   	// #1
    1e7c:	52800022 	mov	w2, #0x1                   	// #1
    1e80:	52801ec1 	mov	w1, #0xf6                  	// #246
/media/home/beste/01_Pro/ld25x/bsp_hu/MYD-LD25X-Uboot-L2022.10-V1.0.0/GEN_FIP/myir-st-optee/ldelf/ta_elf.c:258
    1e84:	d0000020 	adrp	x0, 7000 <trace_ext_prefix+0x6bc>
    1e88:	9106e000 	add	x0, x0, #0x1b8
    1e8c:	17ffff7d 	b	1c80 <save_symtab+0x174>
/media/home/beste/01_Pro/ld25x/bsp_hu/MYD-LD25X-Uboot-L2022.10-V1.0.0/GEN_FIP/myir-st-optee/ldelf/ta_elf.c:251
    1e90:	b94008a0 	ldr	w0, [x5, #8]
/media/home/beste/01_Pro/ld25x/bsp_hu/MYD-LD25X-Uboot-L2022.10-V1.0.0/GEN_FIP/myir-st-optee/ldelf/ta_elf.c:250
    1e94:	39400663 	ldrb	w3, [x19, #1]
/media/home/beste/01_Pro/ld25x/bsp_hu/MYD-LD25X-Uboot-L2022.10-V1.0.0/GEN_FIP/myir-st-optee/ldelf/ta_elf.c:251
    1e98:	2a0003e1 	mov	w1, w0
    1e9c:	7100007f 	cmp	w3, #0x0
    1ea0:	531f7800 	lsl	w0, w0, #1
    1ea4:	9a810000 	csel	x0, x0, x1, eq	// eq = none
/media/home/beste/01_Pro/ld25x/bsp_hu/MYD-LD25X-Uboot-L2022.10-V1.0.0/GEN_FIP/myir-st-optee/ldelf/ta_elf.c:254
    1ea8:	b94000a1 	ldr	w1, [x5]
    1eac:	91001021 	add	x1, x1, #0x4
/media/home/beste/01_Pro/ld25x/bsp_hu/MYD-LD25X-Uboot-L2022.10-V1.0.0/GEN_FIP/myir-st-optee/ldelf/ta_elf.c:255
    1eb0:	8b000020 	add	x0, x1, x0
/media/home/beste/01_Pro/ld25x/bsp_hu/MYD-LD25X-Uboot-L2022.10-V1.0.0/GEN_FIP/myir-st-optee/ldelf/ta_elf.c:256
    1eb4:	eb00085f 	cmp	x2, x0, lsl #2
    1eb8:	540000e2 	b.cs	1ed4 <save_symtab+0x3c8>  // b.hs, b.nlast
/media/home/beste/01_Pro/ld25x/bsp_hu/MYD-LD25X-Uboot-L2022.10-V1.0.0/GEN_FIP/myir-st-optee/ldelf/ta_elf.c:258
    1ebc:	b0000024 	adrp	x4, 6000 <kprintf.constprop.0+0x68c>
    1ec0:	52800023 	mov	w3, #0x1                   	// #1
    1ec4:	913c0884 	add	x4, x4, #0xf02
    1ec8:	52800022 	mov	w2, #0x1                   	// #1
    1ecc:	52802041 	mov	w1, #0x102                 	// #258
    1ed0:	17ffffed 	b	1e84 <save_symtab+0x378>
save_soname():
/media/home/beste/01_Pro/ld25x/bsp_hu/MYD-LD25X-Uboot-L2022.10-V1.0.0/GEN_FIP/myir-st-optee/ldelf/ta_elf.c:346
    1ed4:	39400660 	ldrb	w0, [x19, #1]
/media/home/beste/01_Pro/ld25x/bsp_hu/MYD-LD25X-Uboot-L2022.10-V1.0.0/GEN_FIP/myir-st-optee/ldelf/ta_elf.c:349
    1ed8:	d2800015 	mov	x21, #0x0                   	// #0
/media/home/beste/01_Pro/ld25x/bsp_hu/MYD-LD25X-Uboot-L2022.10-V1.0.0/GEN_FIP/myir-st-optee/ldelf/ta_elf.c:347
    1edc:	f9402a74 	ldr	x20, [x19, #80]
/media/home/beste/01_Pro/ld25x/bsp_hu/MYD-LD25X-Uboot-L2022.10-V1.0.0/GEN_FIP/myir-st-optee/ldelf/ta_elf.c:346
    1ee0:	35000220 	cbnz	w0, 1f24 <save_symtab+0x418>
/media/home/beste/01_Pro/ld25x/bsp_hu/MYD-LD25X-Uboot-L2022.10-V1.0.0/GEN_FIP/myir-st-optee/ldelf/ta_elf.c:356
    1ee4:	b9404260 	ldr	w0, [x19, #64]
    1ee8:	eb0002bf 	cmp	x21, x0
    1eec:	54000222 	b.cs	1f30 <save_symtab+0x424>  // b.hs, b.nlast
/media/home/beste/01_Pro/ld25x/bsp_hu/MYD-LD25X-Uboot-L2022.10-V1.0.0/GEN_FIP/myir-st-optee/ldelf/ta_elf.c:357
    1ef0:	f9400a82 	ldr	x2, [x20, #16]
    1ef4:	aa1303e0 	mov	x0, x19
    1ef8:	f9401683 	ldr	x3, [x20, #40]
/media/home/beste/01_Pro/ld25x/bsp_hu/MYD-LD25X-Uboot-L2022.10-V1.0.0/GEN_FIP/myir-st-optee/ldelf/ta_elf.c:356
    1efc:	910006b5 	add	x21, x21, #0x1
/media/home/beste/01_Pro/ld25x/bsp_hu/MYD-LD25X-Uboot-L2022.10-V1.0.0/GEN_FIP/myir-st-optee/ldelf/ta_elf.c:357
    1f00:	b8438681 	ldr	w1, [x20], #56
    1f04:	97fffec7 	bl	1a20 <save_soname_from_segment>
/media/home/beste/01_Pro/ld25x/bsp_hu/MYD-LD25X-Uboot-L2022.10-V1.0.0/GEN_FIP/myir-st-optee/ldelf/ta_elf.c:356
    1f08:	17fffff7 	b	1ee4 <save_symtab+0x3d8>
/media/home/beste/01_Pro/ld25x/bsp_hu/MYD-LD25X-Uboot-L2022.10-V1.0.0/GEN_FIP/myir-st-optee/ldelf/ta_elf.c:350
    1f0c:	b9400a82 	ldr	w2, [x20, #8]
    1f10:	aa1303e0 	mov	x0, x19
    1f14:	b9401683 	ldr	w3, [x20, #20]
/media/home/beste/01_Pro/ld25x/bsp_hu/MYD-LD25X-Uboot-L2022.10-V1.0.0/GEN_FIP/myir-st-optee/ldelf/ta_elf.c:349
    1f18:	910006b5 	add	x21, x21, #0x1
/media/home/beste/01_Pro/ld25x/bsp_hu/MYD-LD25X-Uboot-L2022.10-V1.0.0/GEN_FIP/myir-st-optee/ldelf/ta_elf.c:350
    1f1c:	b8420681 	ldr	w1, [x20], #32
    1f20:	97fffec0 	bl	1a20 <save_soname_from_segment>
/media/home/beste/01_Pro/ld25x/bsp_hu/MYD-LD25X-Uboot-L2022.10-V1.0.0/GEN_FIP/myir-st-optee/ldelf/ta_elf.c:349
    1f24:	b9404260 	ldr	w0, [x19, #64]
    1f28:	eb0002bf 	cmp	x21, x0
    1f2c:	54ffff03 	b.cc	1f0c <save_symtab+0x400>  // b.lo, b.ul, b.last
save_symtab():
/media/home/beste/01_Pro/ld25x/bsp_hu/MYD-LD25X-Uboot-L2022.10-V1.0.0/GEN_FIP/myir-st-optee/ldelf/ta_elf.c:442
    1f30:	a94153f3 	ldp	x19, x20, [sp, #16]
    1f34:	a9425bf5 	ldp	x21, x22, [sp, #32]
    1f38:	a8c37bfd 	ldp	x29, x30, [sp], #48
    1f3c:	d65f03c0 	ret

0000000000001f40 <get_init_fini_array.constprop.0>:
get_init_fini_array():
/media/home/beste/01_Pro/ld25x/bsp_hu/MYD-LD25X-Uboot-L2022.10-V1.0.0/GEN_FIP/myir-st-optee/ldelf/ta_elf.c:1582
    1f40:	a9ba7bfd 	stp	x29, x30, [sp, #-96]!
    1f44:	910003fd 	mov	x29, sp
    1f48:	a90153f3 	stp	x19, x20, [sp, #16]
    1f4c:	aa0003f3 	mov	x19, x0
    1f50:	aa0103f4 	mov	x20, x1
    1f54:	a9025bf5 	stp	x21, x22, [sp, #32]
    1f58:	aa0303f5 	mov	x21, x3
    1f5c:	aa0403f6 	mov	x22, x4
    1f60:	a90363f7 	stp	x23, x24, [sp, #48]
    1f64:	aa0603f8 	mov	x24, x6
    1f68:	aa0503f7 	mov	x23, x5
    1f6c:	f90023f9 	str	x25, [sp, #64]
    1f70:	aa0203f9 	mov	x25, x2
/media/home/beste/01_Pro/ld25x/bsp_hu/MYD-LD25X-Uboot-L2022.10-V1.0.0/GEN_FIP/myir-st-optee/ldelf/ta_elf.c:1591
    1f74:	b90057ff 	str	wzr, [sp, #84]
/media/home/beste/01_Pro/ld25x/bsp_hu/MYD-LD25X-Uboot-L2022.10-V1.0.0/GEN_FIP/myir-st-optee/ldelf/ta_elf.c:1592
    1f78:	f9002fff 	str	xzr, [sp, #88]
/media/home/beste/01_Pro/ld25x/bsp_hu/MYD-LD25X-Uboot-L2022.10-V1.0.0/GEN_FIP/myir-st-optee/ldelf/ta_elf.c:1596
    1f7c:	97fffb51 	bl	cc0 <check_phdr_in_range.constprop.0>
/media/home/beste/01_Pro/ld25x/bsp_hu/MYD-LD25X-Uboot-L2022.10-V1.0.0/GEN_FIP/myir-st-optee/ldelf/ta_elf.c:1598
    1f80:	39400660 	ldrb	w0, [x19, #1]
/media/home/beste/01_Pro/ld25x/bsp_hu/MYD-LD25X-Uboot-L2022.10-V1.0.0/GEN_FIP/myir-st-optee/ldelf/ta_elf.c:1599
    1f84:	d2800108 	mov	x8, #0x8                   	// #8
    1f88:	d2800207 	mov	x7, #0x10                  	// #16
    1f8c:	7100001f 	cmp	w0, #0x0
    1f90:	d2800080 	mov	x0, #0x4                   	// #4
    1f94:	9a8800e7 	csel	x7, x7, x8, eq	// eq = none
    1f98:	9a800108 	csel	x8, x8, x0, eq	// eq = none
/media/home/beste/01_Pro/ld25x/bsp_hu/MYD-LD25X-Uboot-L2022.10-V1.0.0/GEN_FIP/myir-st-optee/ldelf/ta_elf.c:1606
    1f9c:	9ac70b26 	udiv	x6, x25, x7
    1fa0:	9b07e4c7 	msub	x7, x6, x7, x25
    1fa4:	b5000167 	cbnz	x7, 1fd0 <get_init_fini_array.constprop.0+0x90>
/media/home/beste/01_Pro/ld25x/bsp_hu/MYD-LD25X-Uboot-L2022.10-V1.0.0/GEN_FIP/myir-st-optee/ldelf/ta_elf.c:1610
    1fa8:	910163e4 	add	x4, sp, #0x58
    1fac:	910153e3 	add	x3, sp, #0x54
/media/home/beste/01_Pro/ld25x/bsp_hu/MYD-LD25X-Uboot-L2022.10-V1.0.0/GEN_FIP/myir-st-optee/ldelf/ta_elf.c:1609
    1fb0:	eb0700df 	cmp	x6, x7
    1fb4:	540001a1 	b.ne	1fe8 <get_init_fini_array.constprop.0+0xa8>  // b.any
/media/home/beste/01_Pro/ld25x/bsp_hu/MYD-LD25X-Uboot-L2022.10-V1.0.0/GEN_FIP/myir-st-optee/ldelf/ta_elf.c:1620
    1fb8:	a94153f3 	ldp	x19, x20, [sp, #16]
    1fbc:	a9425bf5 	ldp	x21, x22, [sp, #32]
    1fc0:	a94363f7 	ldp	x23, x24, [sp, #48]
    1fc4:	f94023f9 	ldr	x25, [sp, #64]
    1fc8:	a8c67bfd 	ldp	x29, x30, [sp], #96
    1fcc:	d65f03c0 	ret
/media/home/beste/01_Pro/ld25x/bsp_hu/MYD-LD25X-Uboot-L2022.10-V1.0.0/GEN_FIP/myir-st-optee/ldelf/ta_elf.c:1606
    1fd0:	d0000022 	adrp	x2, 7000 <trace_ext_prefix+0x6bc>
    1fd4:	b0000020 	adrp	x0, 6000 <kprintf.constprop.0+0x68c>
    1fd8:	91038842 	add	x2, x2, #0xe2
    1fdc:	91363000 	add	x0, x0, #0xd8c
    1fe0:	5280c8c1 	mov	w1, #0x646                 	// #1606
    1fe4:	97fffb53 	bl	d30 <_assert_trap.constprop.0>
/media/home/beste/01_Pro/ld25x/bsp_hu/MYD-LD25X-Uboot-L2022.10-V1.0.0/GEN_FIP/myir-st-optee/ldelf/ta_elf.c:1610
    1fe8:	aa1303e0 	mov	x0, x19
    1fec:	aa0703e2 	mov	x2, x7
    1ff0:	aa1403e1 	mov	x1, x20
    1ff4:	97fffe7a 	bl	19dc <read_dyn>
/media/home/beste/01_Pro/ld25x/bsp_hu/MYD-LD25X-Uboot-L2022.10-V1.0.0/GEN_FIP/myir-st-optee/ldelf/ta_elf.c:1611
    1ff8:	b94057e0 	ldr	w0, [sp, #84]
    1ffc:	7100641f 	cmp	w0, #0x19
    2000:	540000e1 	b.ne	201c <get_init_fini_array.constprop.0+0xdc>  // b.any
/media/home/beste/01_Pro/ld25x/bsp_hu/MYD-LD25X-Uboot-L2022.10-V1.0.0/GEN_FIP/myir-st-optee/ldelf/ta_elf.c:1612
    2004:	f9400660 	ldr	x0, [x19, #8]
    2008:	f9402fe1 	ldr	x1, [sp, #88]
    200c:	8b010000 	add	x0, x0, x1
    2010:	f90002a0 	str	x0, [x21]
/media/home/beste/01_Pro/ld25x/bsp_hu/MYD-LD25X-Uboot-L2022.10-V1.0.0/GEN_FIP/myir-st-optee/ldelf/ta_elf.c:1609
    2014:	910004e7 	add	x7, x7, #0x1
    2018:	17ffffe6 	b	1fb0 <get_init_fini_array.constprop.0+0x70>
/media/home/beste/01_Pro/ld25x/bsp_hu/MYD-LD25X-Uboot-L2022.10-V1.0.0/GEN_FIP/myir-st-optee/ldelf/ta_elf.c:1613
    201c:	7100681f 	cmp	w0, #0x1a
    2020:	540000c1 	b.ne	2038 <get_init_fini_array.constprop.0+0xf8>  // b.any
/media/home/beste/01_Pro/ld25x/bsp_hu/MYD-LD25X-Uboot-L2022.10-V1.0.0/GEN_FIP/myir-st-optee/ldelf/ta_elf.c:1614
    2024:	f9400660 	ldr	x0, [x19, #8]
    2028:	f9402fe1 	ldr	x1, [sp, #88]
    202c:	8b010000 	add	x0, x0, x1
    2030:	f90002e0 	str	x0, [x23]
    2034:	17fffff8 	b	2014 <get_init_fini_array.constprop.0+0xd4>
/media/home/beste/01_Pro/ld25x/bsp_hu/MYD-LD25X-Uboot-L2022.10-V1.0.0/GEN_FIP/myir-st-optee/ldelf/ta_elf.c:1615
    2038:	71006c1f 	cmp	w0, #0x1b
    203c:	540000a1 	b.ne	2050 <get_init_fini_array.constprop.0+0x110>  // b.any
/media/home/beste/01_Pro/ld25x/bsp_hu/MYD-LD25X-Uboot-L2022.10-V1.0.0/GEN_FIP/myir-st-optee/ldelf/ta_elf.c:1616
    2040:	f9402fe0 	ldr	x0, [sp, #88]
    2044:	9ac80800 	udiv	x0, x0, x8
    2048:	f90002c0 	str	x0, [x22]
    204c:	17fffff2 	b	2014 <get_init_fini_array.constprop.0+0xd4>
/media/home/beste/01_Pro/ld25x/bsp_hu/MYD-LD25X-Uboot-L2022.10-V1.0.0/GEN_FIP/myir-st-optee/ldelf/ta_elf.c:1617
    2050:	7100701f 	cmp	w0, #0x1c
    2054:	54fffe01 	b.ne	2014 <get_init_fini_array.constprop.0+0xd4>  // b.any
/media/home/beste/01_Pro/ld25x/bsp_hu/MYD-LD25X-Uboot-L2022.10-V1.0.0/GEN_FIP/myir-st-optee/ldelf/ta_elf.c:1618
    2058:	f9402fe0 	ldr	x0, [sp, #88]
    205c:	9ac80800 	udiv	x0, x0, x8
    2060:	f9000300 	str	x0, [x24]
    2064:	17ffffec 	b	2014 <get_init_fini_array.constprop.0+0xd4>

0000000000002068 <elf_get_init_fini_array.constprop.0>:
elf_get_init_fini_array():
/media/home/beste/01_Pro/ld25x/bsp_hu/MYD-LD25X-Uboot-L2022.10-V1.0.0/GEN_FIP/myir-st-optee/ldelf/ta_elf.c:1623
    2068:	aa0303e5 	mov	x5, x3
/media/home/beste/01_Pro/ld25x/bsp_hu/MYD-LD25X-Uboot-L2022.10-V1.0.0/GEN_FIP/myir-st-optee/ldelf/ta_elf.c:1629
    206c:	39400403 	ldrb	w3, [x0, #1]
/media/home/beste/01_Pro/ld25x/bsp_hu/MYD-LD25X-Uboot-L2022.10-V1.0.0/GEN_FIP/myir-st-optee/ldelf/ta_elf.c:1630
    2070:	f9402807 	ldr	x7, [x0, #80]
/media/home/beste/01_Pro/ld25x/bsp_hu/MYD-LD25X-Uboot-L2022.10-V1.0.0/GEN_FIP/myir-st-optee/ldelf/ta_elf.c:1623
    2074:	aa0403e6 	mov	x6, x4
/media/home/beste/01_Pro/ld25x/bsp_hu/MYD-LD25X-Uboot-L2022.10-V1.0.0/GEN_FIP/myir-st-optee/ldelf/ta_elf.c:1632
    2078:	b9404008 	ldr	w8, [x0, #64]
/media/home/beste/01_Pro/ld25x/bsp_hu/MYD-LD25X-Uboot-L2022.10-V1.0.0/GEN_FIP/myir-st-optee/ldelf/ta_elf.c:1629
    207c:	350001a3 	cbnz	w3, 20b0 <elf_get_init_fini_array.constprop.0+0x48>
/media/home/beste/01_Pro/ld25x/bsp_hu/MYD-LD25X-Uboot-L2022.10-V1.0.0/GEN_FIP/myir-st-optee/ldelf/ta_elf.c:1645
    2080:	d2800003 	mov	x3, #0x0                   	// #0
    2084:	eb08007f 	cmp	x3, x8
    2088:	540001a2 	b.cs	20bc <elf_get_init_fini_array.constprop.0+0x54>  // b.hs, b.nlast
/media/home/beste/01_Pro/ld25x/bsp_hu/MYD-LD25X-Uboot-L2022.10-V1.0.0/GEN_FIP/myir-st-optee/ldelf/ta_elf.c:1646
    208c:	aa0703e4 	mov	x4, x7
    2090:	b8438489 	ldr	w9, [x4], #56
    2094:	7100093f 	cmp	w9, #0x2
    2098:	540002c1 	b.ne	20f0 <elf_get_init_fini_array.constprop.0+0x88>  // b.any
/media/home/beste/01_Pro/ld25x/bsp_hu/MYD-LD25X-Uboot-L2022.10-V1.0.0/GEN_FIP/myir-st-optee/ldelf/ta_elf.c:1647
    209c:	aa0203e4 	mov	x4, x2
    20a0:	aa0103e3 	mov	x3, x1
    20a4:	f94008e1 	ldr	x1, [x7, #16]
    20a8:	f94014e2 	ldr	x2, [x7, #40]
    20ac:	1400000d 	b	20e0 <elf_get_init_fini_array.constprop.0+0x78>
/media/home/beste/01_Pro/ld25x/bsp_hu/MYD-LD25X-Uboot-L2022.10-V1.0.0/GEN_FIP/myir-st-optee/ldelf/ta_elf.c:1632
    20b0:	d2800003 	mov	x3, #0x0                   	// #0
    20b4:	eb08007f 	cmp	x3, x8
    20b8:	54000043 	b.cc	20c0 <elf_get_init_fini_array.constprop.0+0x58>  // b.lo, b.ul, b.last
/media/home/beste/01_Pro/ld25x/bsp_hu/MYD-LD25X-Uboot-L2022.10-V1.0.0/GEN_FIP/myir-st-optee/ldelf/ta_elf.c:1656
    20bc:	d65f03c0 	ret
/media/home/beste/01_Pro/ld25x/bsp_hu/MYD-LD25X-Uboot-L2022.10-V1.0.0/GEN_FIP/myir-st-optee/ldelf/ta_elf.c:1633
    20c0:	aa0703e4 	mov	x4, x7
    20c4:	b8420489 	ldr	w9, [x4], #32
    20c8:	7100093f 	cmp	w9, #0x2
    20cc:	540000c1 	b.ne	20e4 <elf_get_init_fini_array.constprop.0+0x7c>  // b.any
/media/home/beste/01_Pro/ld25x/bsp_hu/MYD-LD25X-Uboot-L2022.10-V1.0.0/GEN_FIP/myir-st-optee/ldelf/ta_elf.c:1634
    20d0:	aa0203e4 	mov	x4, x2
    20d4:	aa0103e3 	mov	x3, x1
    20d8:	b94014e2 	ldr	w2, [x7, #20]
    20dc:	b94008e1 	ldr	w1, [x7, #8]
/media/home/beste/01_Pro/ld25x/bsp_hu/MYD-LD25X-Uboot-L2022.10-V1.0.0/GEN_FIP/myir-st-optee/ldelf/ta_elf.c:1647
    20e0:	17ffff98 	b	1f40 <get_init_fini_array.constprop.0>
/media/home/beste/01_Pro/ld25x/bsp_hu/MYD-LD25X-Uboot-L2022.10-V1.0.0/GEN_FIP/myir-st-optee/ldelf/ta_elf.c:1632
    20e4:	91000463 	add	x3, x3, #0x1
    20e8:	aa0403e7 	mov	x7, x4
    20ec:	17fffff2 	b	20b4 <elf_get_init_fini_array.constprop.0+0x4c>
/media/home/beste/01_Pro/ld25x/bsp_hu/MYD-LD25X-Uboot-L2022.10-V1.0.0/GEN_FIP/myir-st-optee/ldelf/ta_elf.c:1645
    20f0:	91000463 	add	x3, x3, #0x1
    20f4:	aa0403e7 	mov	x7, x4
    20f8:	17ffffe3 	b	2084 <elf_get_init_fini_array.constprop.0+0x1c>

00000000000020fc <ta_elf_find_elf>:
ta_elf_find_elf():
/media/home/beste/01_Pro/ld25x/bsp_hu/MYD-LD25X-Uboot-L2022.10-V1.0.0/GEN_FIP/myir-st-optee/ldelf/ta_elf.c:91
    20fc:	a9be7bfd 	stp	x29, x30, [sp, #-32]!
    2100:	910003fd 	mov	x29, sp
    2104:	a90153f3 	stp	x19, x20, [sp, #16]
    2108:	aa0003f4 	mov	x20, x0
/media/home/beste/01_Pro/ld25x/bsp_hu/MYD-LD25X-Uboot-L2022.10-V1.0.0/GEN_FIP/myir-st-optee/ldelf/ta_elf.c:94
    210c:	d0000020 	adrp	x0, 8000 <_DYNAMIC>
    2110:	f940b013 	ldr	x19, [x0, #352]
/media/home/beste/01_Pro/ld25x/bsp_hu/MYD-LD25X-Uboot-L2022.10-V1.0.0/GEN_FIP/myir-st-optee/ldelf/ta_elf.c:94 (discriminator 1)
    2114:	b50000b3 	cbnz	x19, 2128 <ta_elf_find_elf+0x2c>
/media/home/beste/01_Pro/ld25x/bsp_hu/MYD-LD25X-Uboot-L2022.10-V1.0.0/GEN_FIP/myir-st-optee/ldelf/ta_elf.c:99
    2118:	aa1303e0 	mov	x0, x19
    211c:	a94153f3 	ldp	x19, x20, [sp, #16]
    2120:	a8c27bfd 	ldp	x29, x30, [sp], #32
    2124:	d65f03c0 	ret
/media/home/beste/01_Pro/ld25x/bsp_hu/MYD-LD25X-Uboot-L2022.10-V1.0.0/GEN_FIP/myir-st-optee/ldelf/ta_elf.c:95
    2128:	91044261 	add	x1, x19, #0x110
    212c:	aa1403e0 	mov	x0, x20
    2130:	d2800202 	mov	x2, #0x10                  	// #16
    2134:	94000d95 	bl	5788 <memcmp>
    2138:	34ffff00 	cbz	w0, 2118 <ta_elf_find_elf+0x1c>
/media/home/beste/01_Pro/ld25x/bsp_hu/MYD-LD25X-Uboot-L2022.10-V1.0.0/GEN_FIP/myir-st-optee/ldelf/ta_elf.c:94 (discriminator 2)
    213c:	f9409273 	ldr	x19, [x19, #288]
    2140:	17fffff5 	b	2114 <ta_elf_find_elf+0x18>

0000000000002144 <queue_elf>:
queue_elf():
/media/home/beste/01_Pro/ld25x/bsp_hu/MYD-LD25X-Uboot-L2022.10-V1.0.0/GEN_FIP/myir-st-optee/ldelf/ta_elf.c:77
    2144:	a9be7bfd 	stp	x29, x30, [sp, #-32]!
    2148:	910003fd 	mov	x29, sp
    214c:	f9000bf3 	str	x19, [sp, #16]
    2150:	aa0003f3 	mov	x19, x0
/media/home/beste/01_Pro/ld25x/bsp_hu/MYD-LD25X-Uboot-L2022.10-V1.0.0/GEN_FIP/myir-st-optee/ldelf/ta_elf.c:78
    2154:	97ffffea 	bl	20fc <ta_elf_find_elf>
/media/home/beste/01_Pro/ld25x/bsp_hu/MYD-LD25X-Uboot-L2022.10-V1.0.0/GEN_FIP/myir-st-optee/ldelf/ta_elf.c:80
    2158:	b50001c0 	cbnz	x0, 2190 <queue_elf+0x4c>
/media/home/beste/01_Pro/ld25x/bsp_hu/MYD-LD25X-Uboot-L2022.10-V1.0.0/GEN_FIP/myir-st-optee/ldelf/ta_elf.c:83
    215c:	aa1303e0 	mov	x0, x19
    2160:	97fff984 	bl	770 <queue_elf_helper>
/media/home/beste/01_Pro/ld25x/bsp_hu/MYD-LD25X-Uboot-L2022.10-V1.0.0/GEN_FIP/myir-st-optee/ldelf/ta_elf.c:84
    2164:	b5000180 	cbnz	x0, 2194 <queue_elf+0x50>
/media/home/beste/01_Pro/ld25x/bsp_hu/MYD-LD25X-Uboot-L2022.10-V1.0.0/GEN_FIP/myir-st-optee/ldelf/ta_elf.c:85
    2168:	90000024 	adrp	x4, 6000 <kprintf.constprop.0+0x68c>
    216c:	913c5c84 	add	x4, x4, #0xf17
    2170:	52800023 	mov	w3, #0x1                   	// #1
    2174:	52800022 	mov	w2, #0x1                   	// #1
    2178:	52800aa1 	mov	w1, #0x55                  	// #85
    217c:	b0000020 	adrp	x0, 7000 <trace_ext_prefix+0x6bc>
    2180:	910bc000 	add	x0, x0, #0x2f0
    2184:	94001170 	bl	6744 <trace_printf>
    2188:	129ffe60 	mov	w0, #0xffff000c            	// #-65524
    218c:	97fff7f2 	bl	154 <_ldelf_return>
/media/home/beste/01_Pro/ld25x/bsp_hu/MYD-LD25X-Uboot-L2022.10-V1.0.0/GEN_FIP/myir-st-optee/ldelf/ta_elf.c:81
    2190:	d2800000 	mov	x0, #0x0                   	// #0
/media/home/beste/01_Pro/ld25x/bsp_hu/MYD-LD25X-Uboot-L2022.10-V1.0.0/GEN_FIP/myir-st-optee/ldelf/ta_elf.c:88
    2194:	f9400bf3 	ldr	x19, [sp, #16]
    2198:	a8c27bfd 	ldp	x29, x30, [sp], #32
    219c:	d65f03c0 	ret

00000000000021a0 <add_deps_from_segment>:
add_deps_from_segment():
/media/home/beste/01_Pro/ld25x/bsp_hu/MYD-LD25X-Uboot-L2022.10-V1.0.0/GEN_FIP/myir-st-optee/ldelf/ta_elf.c:998
    21a0:	a9b87bfd 	stp	x29, x30, [sp, #-128]!
    21a4:	910003fd 	mov	x29, sp
    21a8:	a90153f3 	stp	x19, x20, [sp, #16]
    21ac:	a9025bf5 	stp	x21, x22, [sp, #32]
    21b0:	a90363f7 	stp	x23, x24, [sp, #48]
    21b4:	a9046bf9 	stp	x25, x26, [sp, #64]
    21b8:	f9002bfb 	str	x27, [sp, #80]
/media/home/beste/01_Pro/ld25x/bsp_hu/MYD-LD25X-Uboot-L2022.10-V1.0.0/GEN_FIP/myir-st-optee/ldelf/ta_elf.c:1002
    21bc:	b90067ff 	str	wzr, [sp, #100]
/media/home/beste/01_Pro/ld25x/bsp_hu/MYD-LD25X-Uboot-L2022.10-V1.0.0/GEN_FIP/myir-st-optee/ldelf/ta_elf.c:1003
    21c0:	f90037ff 	str	xzr, [sp, #104]
/media/home/beste/01_Pro/ld25x/bsp_hu/MYD-LD25X-Uboot-L2022.10-V1.0.0/GEN_FIP/myir-st-optee/ldelf/ta_elf.c:1004
    21c4:	a9077fff 	stp	xzr, xzr, [sp, #112]
/media/home/beste/01_Pro/ld25x/bsp_hu/MYD-LD25X-Uboot-L2022.10-V1.0.0/GEN_FIP/myir-st-optee/ldelf/ta_elf.c:1008
    21c8:	7100083f 	cmp	w1, #0x2
    21cc:	54000541 	b.ne	2274 <add_deps_from_segment+0xd4>  // b.any
    21d0:	aa0003f6 	mov	x22, x0
    21d4:	aa0203f7 	mov	x23, x2
    21d8:	aa0303f4 	mov	x20, x3
/media/home/beste/01_Pro/ld25x/bsp_hu/MYD-LD25X-Uboot-L2022.10-V1.0.0/GEN_FIP/myir-st-optee/ldelf/ta_elf.c:1011
    21dc:	aa0303e2 	mov	x2, x3
    21e0:	aa1703e1 	mov	x1, x23
    21e4:	97fffab7 	bl	cc0 <check_phdr_in_range.constprop.0>
/media/home/beste/01_Pro/ld25x/bsp_hu/MYD-LD25X-Uboot-L2022.10-V1.0.0/GEN_FIP/myir-st-optee/ldelf/ta_elf.c:1013
    21e8:	394006c0 	ldrb	w0, [x22, #1]
/media/home/beste/01_Pro/ld25x/bsp_hu/MYD-LD25X-Uboot-L2022.10-V1.0.0/GEN_FIP/myir-st-optee/ldelf/ta_elf.c:1014
    21ec:	d2800213 	mov	x19, #0x10                  	// #16
    21f0:	7100001f 	cmp	w0, #0x0
    21f4:	d2800100 	mov	x0, #0x8                   	// #8
    21f8:	9a800273 	csel	x19, x19, x0, eq	// eq = none
/media/home/beste/01_Pro/ld25x/bsp_hu/MYD-LD25X-Uboot-L2022.10-V1.0.0/GEN_FIP/myir-st-optee/ldelf/ta_elf.c:1018
    21fc:	9ad30a98 	udiv	x24, x20, x19
    2200:	9b13d313 	msub	x19, x24, x19, x20
    2204:	b40000f3 	cbz	x19, 2220 <add_deps_from_segment+0x80>
/media/home/beste/01_Pro/ld25x/bsp_hu/MYD-LD25X-Uboot-L2022.10-V1.0.0/GEN_FIP/myir-st-optee/ldelf/ta_elf.c:1018 (discriminator 1)
    2208:	b0000022 	adrp	x2, 7000 <trace_ext_prefix+0x6bc>
    220c:	90000020 	adrp	x0, 6000 <kprintf.constprop.0+0x68c>
    2210:	9108b442 	add	x2, x2, #0x22d
    2214:	91363000 	add	x0, x0, #0xd8c
    2218:	52807f41 	mov	w1, #0x3fa                 	// #1018
    221c:	97fffac5 	bl	d30 <_assert_trap.constprop.0>
/media/home/beste/01_Pro/ld25x/bsp_hu/MYD-LD25X-Uboot-L2022.10-V1.0.0/GEN_FIP/myir-st-optee/ldelf/ta_elf.c:1022
    2220:	9101a3e4 	add	x4, sp, #0x68
    2224:	910193e3 	add	x3, sp, #0x64
/media/home/beste/01_Pro/ld25x/bsp_hu/MYD-LD25X-Uboot-L2022.10-V1.0.0/GEN_FIP/myir-st-optee/ldelf/ta_elf.c:1006
    2228:	d2800015 	mov	x21, #0x0                   	// #0
/media/home/beste/01_Pro/ld25x/bsp_hu/MYD-LD25X-Uboot-L2022.10-V1.0.0/GEN_FIP/myir-st-optee/ldelf/ta_elf.c:1021
    222c:	d2800006 	mov	x6, #0x0                   	// #0
/media/home/beste/01_Pro/ld25x/bsp_hu/MYD-LD25X-Uboot-L2022.10-V1.0.0/GEN_FIP/myir-st-optee/ldelf/ta_elf.c:1005
    2230:	d2800014 	mov	x20, #0x0                   	// #0
/media/home/beste/01_Pro/ld25x/bsp_hu/MYD-LD25X-Uboot-L2022.10-V1.0.0/GEN_FIP/myir-st-optee/ldelf/ta_elf.c:1021 (discriminator 1)
    2234:	eb1800df 	cmp	x6, x24
    2238:	54000080 	b.eq	2248 <add_deps_from_segment+0xa8>  // b.none
/media/home/beste/01_Pro/ld25x/bsp_hu/MYD-LD25X-Uboot-L2022.10-V1.0.0/GEN_FIP/myir-st-optee/ldelf/ta_elf.c:1021 (discriminator 3)
    223c:	f100029f 	cmp	x20, #0x0
    2240:	fa401aa4 	ccmp	x21, #0x0, #0x4, ne	// ne = any
    2244:	54000260 	b.eq	2290 <add_deps_from_segment+0xf0>  // b.none
/media/home/beste/01_Pro/ld25x/bsp_hu/MYD-LD25X-Uboot-L2022.10-V1.0.0/GEN_FIP/myir-st-optee/ldelf/ta_elf.c:1031
    2248:	9101a3fa 	add	x26, sp, #0x68
    224c:	910193fb 	add	x27, sp, #0x64
/media/home/beste/01_Pro/ld25x/bsp_hu/MYD-LD25X-Uboot-L2022.10-V1.0.0/GEN_FIP/myir-st-optee/ldelf/ta_elf.c:1037
    2250:	9101c3f9 	add	x25, sp, #0x70
/media/home/beste/01_Pro/ld25x/bsp_hu/MYD-LD25X-Uboot-L2022.10-V1.0.0/GEN_FIP/myir-st-optee/ldelf/ta_elf.c:1028
    2254:	aa1503e3 	mov	x3, x21
    2258:	aa1403e2 	mov	x2, x20
    225c:	aa1603e0 	mov	x0, x22
    2260:	90000021 	adrp	x1, 6000 <kprintf.constprop.0+0x68c>
    2264:	913af421 	add	x1, x1, #0xebd
    2268:	97fff902 	bl	670 <check_range>
/media/home/beste/01_Pro/ld25x/bsp_hu/MYD-LD25X-Uboot-L2022.10-V1.0.0/GEN_FIP/myir-st-optee/ldelf/ta_elf.c:1030 (discriminator 1)
    226c:	eb18027f 	cmp	x19, x24
    2270:	54000301 	b.ne	22d0 <add_deps_from_segment+0x130>  // b.any
/media/home/beste/01_Pro/ld25x/bsp_hu/MYD-LD25X-Uboot-L2022.10-V1.0.0/GEN_FIP/myir-st-optee/ldelf/ta_elf.c:1040
    2274:	a94153f3 	ldp	x19, x20, [sp, #16]
    2278:	a9425bf5 	ldp	x21, x22, [sp, #32]
    227c:	a94363f7 	ldp	x23, x24, [sp, #48]
    2280:	a9446bf9 	ldp	x25, x26, [sp, #64]
    2284:	f9402bfb 	ldr	x27, [sp, #80]
    2288:	a8c87bfd 	ldp	x29, x30, [sp], #128
    228c:	d65f03c0 	ret
/media/home/beste/01_Pro/ld25x/bsp_hu/MYD-LD25X-Uboot-L2022.10-V1.0.0/GEN_FIP/myir-st-optee/ldelf/ta_elf.c:1022
    2290:	aa1603e0 	mov	x0, x22
    2294:	aa0603e2 	mov	x2, x6
    2298:	aa1703e1 	mov	x1, x23
    229c:	97fffdd0 	bl	19dc <read_dyn>
/media/home/beste/01_Pro/ld25x/bsp_hu/MYD-LD25X-Uboot-L2022.10-V1.0.0/GEN_FIP/myir-st-optee/ldelf/ta_elf.c:1023
    22a0:	b94067e0 	ldr	w0, [sp, #100]
    22a4:	7100141f 	cmp	w0, #0x5
    22a8:	540000c1 	b.ne	22c0 <add_deps_from_segment+0x120>  // b.any
/media/home/beste/01_Pro/ld25x/bsp_hu/MYD-LD25X-Uboot-L2022.10-V1.0.0/GEN_FIP/myir-st-optee/ldelf/ta_elf.c:1024
    22ac:	f94006d4 	ldr	x20, [x22, #8]
    22b0:	f94037e0 	ldr	x0, [sp, #104]
    22b4:	8b000294 	add	x20, x20, x0
/media/home/beste/01_Pro/ld25x/bsp_hu/MYD-LD25X-Uboot-L2022.10-V1.0.0/GEN_FIP/myir-st-optee/ldelf/ta_elf.c:1021 (discriminator 2)
    22b8:	910004c6 	add	x6, x6, #0x1
    22bc:	17ffffde 	b	2234 <add_deps_from_segment+0x94>
/media/home/beste/01_Pro/ld25x/bsp_hu/MYD-LD25X-Uboot-L2022.10-V1.0.0/GEN_FIP/myir-st-optee/ldelf/ta_elf.c:1025
    22c0:	7100281f 	cmp	w0, #0xa
    22c4:	54ffffa1 	b.ne	22b8 <add_deps_from_segment+0x118>  // b.any
/media/home/beste/01_Pro/ld25x/bsp_hu/MYD-LD25X-Uboot-L2022.10-V1.0.0/GEN_FIP/myir-st-optee/ldelf/ta_elf.c:1026
    22c8:	f94037f5 	ldr	x21, [sp, #104]
    22cc:	17fffffb 	b	22b8 <add_deps_from_segment+0x118>
/media/home/beste/01_Pro/ld25x/bsp_hu/MYD-LD25X-Uboot-L2022.10-V1.0.0/GEN_FIP/myir-st-optee/ldelf/ta_elf.c:1031
    22d0:	aa1303e2 	mov	x2, x19
    22d4:	aa1a03e4 	mov	x4, x26
    22d8:	aa1b03e3 	mov	x3, x27
    22dc:	aa1703e1 	mov	x1, x23
    22e0:	aa1603e0 	mov	x0, x22
    22e4:	97fffdbe 	bl	19dc <read_dyn>
/media/home/beste/01_Pro/ld25x/bsp_hu/MYD-LD25X-Uboot-L2022.10-V1.0.0/GEN_FIP/myir-st-optee/ldelf/ta_elf.c:1032
    22e8:	b94067e2 	ldr	w2, [sp, #100]
    22ec:	7100045f 	cmp	w2, #0x1
    22f0:	54000241 	b.ne	2338 <add_deps_from_segment+0x198>  // b.any
/media/home/beste/01_Pro/ld25x/bsp_hu/MYD-LD25X-Uboot-L2022.10-V1.0.0/GEN_FIP/myir-st-optee/ldelf/ta_elf.c:1034
    22f4:	f94037e1 	ldr	x1, [sp, #104]
    22f8:	eb15003f 	cmp	x1, x21
    22fc:	54000143 	b.cc	2324 <add_deps_from_segment+0x184>  // b.lo, b.ul, b.last
/media/home/beste/01_Pro/ld25x/bsp_hu/MYD-LD25X-Uboot-L2022.10-V1.0.0/GEN_FIP/myir-st-optee/ldelf/ta_elf.c:1035
    2300:	2a0203e3 	mov	w3, w2
    2304:	90000024 	adrp	x4, 6000 <kprintf.constprop.0+0x68c>
    2308:	913ca084 	add	x4, x4, #0xf28
    230c:	52808161 	mov	w1, #0x40b                 	// #1035
    2310:	b0000020 	adrp	x0, 7000 <trace_ext_prefix+0x6bc>
    2314:	9108b400 	add	x0, x0, #0x22d
    2318:	9400110b 	bl	6744 <trace_printf>
    231c:	129fff40 	mov	w0, #0xffff0005            	// #-65531
    2320:	97fff78d 	bl	154 <_ldelf_return>
/media/home/beste/01_Pro/ld25x/bsp_hu/MYD-LD25X-Uboot-L2022.10-V1.0.0/GEN_FIP/myir-st-optee/ldelf/ta_elf.c:1037
    2324:	8b010281 	add	x1, x20, x1
    2328:	aa1903e0 	mov	x0, x25
    232c:	94000a0e 	bl	4b64 <tee_uuid_from_str>
/media/home/beste/01_Pro/ld25x/bsp_hu/MYD-LD25X-Uboot-L2022.10-V1.0.0/GEN_FIP/myir-st-optee/ldelf/ta_elf.c:1038
    2330:	aa1903e0 	mov	x0, x25
    2334:	97ffff84 	bl	2144 <queue_elf>
/media/home/beste/01_Pro/ld25x/bsp_hu/MYD-LD25X-Uboot-L2022.10-V1.0.0/GEN_FIP/myir-st-optee/ldelf/ta_elf.c:1030 (discriminator 2)
    2338:	91000673 	add	x19, x19, #0x1
    233c:	17ffffcc 	b	226c <add_deps_from_segment+0xcc>

0000000000002340 <add_dependencies>:
add_dependencies():
/media/home/beste/01_Pro/ld25x/bsp_hu/MYD-LD25X-Uboot-L2022.10-V1.0.0/GEN_FIP/myir-st-optee/ldelf/ta_elf.c:1043
    2340:	a9bd7bfd 	stp	x29, x30, [sp, #-48]!
    2344:	910003fd 	mov	x29, sp
    2348:	a90153f3 	stp	x19, x20, [sp, #16]
    234c:	aa0003f4 	mov	x20, x0
/media/home/beste/01_Pro/ld25x/bsp_hu/MYD-LD25X-Uboot-L2022.10-V1.0.0/GEN_FIP/myir-st-optee/ldelf/ta_elf.c:1047
    2350:	f9402813 	ldr	x19, [x0, #80]
/media/home/beste/01_Pro/ld25x/bsp_hu/MYD-LD25X-Uboot-L2022.10-V1.0.0/GEN_FIP/myir-st-optee/ldelf/ta_elf.c:1046
    2354:	39400400 	ldrb	w0, [x0, #1]
/media/home/beste/01_Pro/ld25x/bsp_hu/MYD-LD25X-Uboot-L2022.10-V1.0.0/GEN_FIP/myir-st-optee/ldelf/ta_elf.c:1043
    2358:	f90013f5 	str	x21, [sp, #32]
/media/home/beste/01_Pro/ld25x/bsp_hu/MYD-LD25X-Uboot-L2022.10-V1.0.0/GEN_FIP/myir-st-optee/ldelf/ta_elf.c:1049
    235c:	d2800015 	mov	x21, #0x0                   	// #0
/media/home/beste/01_Pro/ld25x/bsp_hu/MYD-LD25X-Uboot-L2022.10-V1.0.0/GEN_FIP/myir-st-optee/ldelf/ta_elf.c:1046
    2360:	35000220 	cbnz	w0, 23a4 <add_dependencies+0x64>
/media/home/beste/01_Pro/ld25x/bsp_hu/MYD-LD25X-Uboot-L2022.10-V1.0.0/GEN_FIP/myir-st-optee/ldelf/ta_elf.c:1055 (discriminator 1)
    2364:	b9404280 	ldr	w0, [x20, #64]
    2368:	eb15001f 	cmp	x0, x21
    236c:	54000229 	b.ls	23b0 <add_dependencies+0x70>  // b.plast
/media/home/beste/01_Pro/ld25x/bsp_hu/MYD-LD25X-Uboot-L2022.10-V1.0.0/GEN_FIP/myir-st-optee/ldelf/ta_elf.c:1056 (discriminator 3)
    2370:	f9400a62 	ldr	x2, [x19, #16]
    2374:	aa1403e0 	mov	x0, x20
    2378:	f9401663 	ldr	x3, [x19, #40]
/media/home/beste/01_Pro/ld25x/bsp_hu/MYD-LD25X-Uboot-L2022.10-V1.0.0/GEN_FIP/myir-st-optee/ldelf/ta_elf.c:1055 (discriminator 3)
    237c:	910006b5 	add	x21, x21, #0x1
/media/home/beste/01_Pro/ld25x/bsp_hu/MYD-LD25X-Uboot-L2022.10-V1.0.0/GEN_FIP/myir-st-optee/ldelf/ta_elf.c:1056 (discriminator 3)
    2380:	b8438661 	ldr	w1, [x19], #56
    2384:	97ffff87 	bl	21a0 <add_deps_from_segment>
/media/home/beste/01_Pro/ld25x/bsp_hu/MYD-LD25X-Uboot-L2022.10-V1.0.0/GEN_FIP/myir-st-optee/ldelf/ta_elf.c:1055 (discriminator 3)
    2388:	17fffff7 	b	2364 <add_dependencies+0x24>
/media/home/beste/01_Pro/ld25x/bsp_hu/MYD-LD25X-Uboot-L2022.10-V1.0.0/GEN_FIP/myir-st-optee/ldelf/ta_elf.c:1050
    238c:	b9400a62 	ldr	w2, [x19, #8]
    2390:	aa1403e0 	mov	x0, x20
    2394:	b9401663 	ldr	w3, [x19, #20]
/media/home/beste/01_Pro/ld25x/bsp_hu/MYD-LD25X-Uboot-L2022.10-V1.0.0/GEN_FIP/myir-st-optee/ldelf/ta_elf.c:1049
    2398:	910006b5 	add	x21, x21, #0x1
/media/home/beste/01_Pro/ld25x/bsp_hu/MYD-LD25X-Uboot-L2022.10-V1.0.0/GEN_FIP/myir-st-optee/ldelf/ta_elf.c:1050
    239c:	b8420661 	ldr	w1, [x19], #32
    23a0:	97ffff80 	bl	21a0 <add_deps_from_segment>
/media/home/beste/01_Pro/ld25x/bsp_hu/MYD-LD25X-Uboot-L2022.10-V1.0.0/GEN_FIP/myir-st-optee/ldelf/ta_elf.c:1049
    23a4:	b9404280 	ldr	w0, [x20, #64]
    23a8:	eb0002bf 	cmp	x21, x0
    23ac:	54ffff03 	b.cc	238c <add_dependencies+0x4c>  // b.lo, b.ul, b.last
/media/home/beste/01_Pro/ld25x/bsp_hu/MYD-LD25X-Uboot-L2022.10-V1.0.0/GEN_FIP/myir-st-optee/ldelf/ta_elf.c:1059
    23b0:	a94153f3 	ldp	x19, x20, [sp, #16]
    23b4:	f94013f5 	ldr	x21, [sp, #32]
    23b8:	a8c37bfd 	ldp	x29, x30, [sp], #48
    23bc:	d65f03c0 	ret

00000000000023c0 <ta_elf_load_main>:
ta_elf_load_main():
/media/home/beste/01_Pro/ld25x/bsp_hu/MYD-LD25X-Uboot-L2022.10-V1.0.0/GEN_FIP/myir-st-optee/ldelf/ta_elf.c:1219
    23c0:	a9ba7bfd 	stp	x29, x30, [sp, #-96]!
    23c4:	910003fd 	mov	x29, sp
    23c8:	a90153f3 	stp	x19, x20, [sp, #16]
    23cc:	a9025bf5 	stp	x21, x22, [sp, #32]
    23d0:	aa0203f6 	mov	x22, x2
    23d4:	a90363f7 	stp	x23, x24, [sp, #48]
    23d8:	aa0103f8 	mov	x24, x1
    23dc:	aa0303f7 	mov	x23, x3
    23e0:	a9046bf9 	stp	x25, x26, [sp, #64]
/media/home/beste/01_Pro/ld25x/bsp_hu/MYD-LD25X-Uboot-L2022.10-V1.0.0/GEN_FIP/myir-st-optee/ldelf/ta_elf.c:1220
    23e4:	97ffff58 	bl	2144 <queue_elf>
/media/home/beste/01_Pro/ld25x/bsp_hu/MYD-LD25X-Uboot-L2022.10-V1.0.0/GEN_FIP/myir-st-optee/ldelf/ta_elf.c:1221
    23e8:	f9002bff 	str	xzr, [sp, #80]
/media/home/beste/01_Pro/ld25x/bsp_hu/MYD-LD25X-Uboot-L2022.10-V1.0.0/GEN_FIP/myir-st-optee/ldelf/ta_elf.c:1224
    23ec:	b50000e0 	cbnz	x0, 2408 <ta_elf_load_main+0x48>
/media/home/beste/01_Pro/ld25x/bsp_hu/MYD-LD25X-Uboot-L2022.10-V1.0.0/GEN_FIP/myir-st-optee/ldelf/ta_elf.c:1224 (discriminator 1)
    23f0:	b0000022 	adrp	x2, 7000 <trace_ext_prefix+0x6bc>
    23f4:	90000020 	adrp	x0, 6000 <kprintf.constprop.0+0x68c>
    23f8:	910be842 	add	x2, x2, #0x2fa
    23fc:	913d4000 	add	x0, x0, #0xf50
    2400:	52809901 	mov	w1, #0x4c8                 	// #1224
populate_segments_legacy():
/media/home/beste/01_Pro/ld25x/bsp_hu/MYD-LD25X-Uboot-L2022.10-V1.0.0/GEN_FIP/myir-st-optee/ldelf/ta_elf.c:689
    2404:	97fffa4b 	bl	d30 <_assert_trap.constprop.0>
ta_elf_load_main():
/media/home/beste/01_Pro/ld25x/bsp_hu/MYD-LD25X-Uboot-L2022.10-V1.0.0/GEN_FIP/myir-st-optee/ldelf/ta_elf.c:1225
    2408:	52800021 	mov	w1, #0x1                   	// #1
    240c:	39000001 	strb	w1, [x0]
    2410:	aa0003f3 	mov	x19, x0
load_main():
/media/home/beste/01_Pro/ld25x/bsp_hu/MYD-LD25X-Uboot-L2022.10-V1.0.0/GEN_FIP/myir-st-optee/ldelf/ta_elf.c:1165
    2414:	97fff954 	bl	964 <init_elf>
/media/home/beste/01_Pro/ld25x/bsp_hu/MYD-LD25X-Uboot-L2022.10-V1.0.0/GEN_FIP/myir-st-optee/ldelf/ta_elf.c:1166
    2418:	aa1303e0 	mov	x0, x19
    241c:	97fffc09 	bl	1440 <map_segments>
/media/home/beste/01_Pro/ld25x/bsp_hu/MYD-LD25X-Uboot-L2022.10-V1.0.0/GEN_FIP/myir-st-optee/ldelf/ta_elf.c:1167
    2420:	aa1303e0 	mov	x0, x19
    2424:	97fffadf 	bl	fa0 <populate_segments>
/media/home/beste/01_Pro/ld25x/bsp_hu/MYD-LD25X-Uboot-L2022.10-V1.0.0/GEN_FIP/myir-st-optee/ldelf/ta_elf.c:1168
    2428:	aa1303e0 	mov	x0, x19
    242c:	97ffffc5 	bl	2340 <add_dependencies>
/media/home/beste/01_Pro/ld25x/bsp_hu/MYD-LD25X-Uboot-L2022.10-V1.0.0/GEN_FIP/myir-st-optee/ldelf/ta_elf.c:1169
    2430:	aa1303e0 	mov	x0, x19
    2434:	97fffa96 	bl	e8c <copy_section_headers>
/media/home/beste/01_Pro/ld25x/bsp_hu/MYD-LD25X-Uboot-L2022.10-V1.0.0/GEN_FIP/myir-st-optee/ldelf/ta_elf.c:1170
    2438:	aa1303e0 	mov	x0, x19
    243c:	97fffdb4 	bl	1b0c <save_symtab>
/media/home/beste/01_Pro/ld25x/bsp_hu/MYD-LD25X-Uboot-L2022.10-V1.0.0/GEN_FIP/myir-st-optee/ldelf/ta_elf.c:1171
    2440:	aa1303e0 	mov	x0, x19
    2444:	97fff9f2 	bl	c0c <close_handle>
set_tls_offset():
/media/home/beste/01_Pro/ld25x/bsp_hu/MYD-LD25X-Uboot-L2022.10-V1.0.0/GEN_FIP/myir-st-optee/ldelf/ta_elf.c:1152
    2448:	f9406660 	ldr	x0, [x19, #200]
    244c:	b40000e0 	cbz	x0, 2468 <ta_elf_load_main+0xa8>
/media/home/beste/01_Pro/ld25x/bsp_hu/MYD-LD25X-Uboot-L2022.10-V1.0.0/GEN_FIP/myir-st-optee/ldelf/ta_elf.c:1156
    2450:	d0000021 	adrp	x1, 8000 <_DYNAMIC>
/media/home/beste/01_Pro/ld25x/bsp_hu/MYD-LD25X-Uboot-L2022.10-V1.0.0/GEN_FIP/myir-st-optee/ldelf/ta_elf.c:1157
    2454:	f9406e60 	ldr	x0, [x19, #216]
/media/home/beste/01_Pro/ld25x/bsp_hu/MYD-LD25X-Uboot-L2022.10-V1.0.0/GEN_FIP/myir-st-optee/ldelf/ta_elf.c:1156
    2458:	f940ac22 	ldr	x2, [x1, #344]
    245c:	f9007262 	str	x2, [x19, #224]
/media/home/beste/01_Pro/ld25x/bsp_hu/MYD-LD25X-Uboot-L2022.10-V1.0.0/GEN_FIP/myir-st-optee/ldelf/ta_elf.c:1157
    2460:	8b020000 	add	x0, x0, x2
    2464:	f900ac20 	str	x0, [x1, #344]
load_main():
/media/home/beste/01_Pro/ld25x/bsp_hu/MYD-LD25X-Uboot-L2022.10-V1.0.0/GEN_FIP/myir-st-optee/ldelf/ta_elf.c:1174
    2468:	39400e60 	ldrb	w0, [x19, #3]
    246c:	34000060 	cbz	w0, 2478 <ta_elf_load_main+0xb8>
/media/home/beste/01_Pro/ld25x/bsp_hu/MYD-LD25X-Uboot-L2022.10-V1.0.0/GEN_FIP/myir-st-optee/ldelf/ta_elf.c:1175
    2470:	aa1303e0 	mov	x0, x19
    2474:	97fff91b 	bl	8e0 <ta_elf_add_bti>
/media/home/beste/01_Pro/ld25x/bsp_hu/MYD-LD25X-Uboot-L2022.10-V1.0.0/GEN_FIP/myir-st-optee/ldelf/ta_elf.c:1177
    2478:	f9400660 	ldr	x0, [x19, #8]
    247c:	f9008660 	str	x0, [x19, #264]
/media/home/beste/01_Pro/ld25x/bsp_hu/MYD-LD25X-Uboot-L2022.10-V1.0.0/GEN_FIP/myir-st-optee/ldelf/ta_elf.c:1178
    2480:	f9400c00 	ldr	x0, [x0, #24]
    2484:	b100041f 	cmn	x0, #0x1
    2488:	540015a0 	b.eq	273c <ta_elf_load_main+0x37c>  // b.none
clean_elf_load_main():
/media/home/beste/01_Pro/ld25x/bsp_hu/MYD-LD25X-Uboot-L2022.10-V1.0.0/GEN_FIP/myir-st-optee/ldelf/ta_elf.c:1111
    248c:	f9401260 	ldr	x0, [x19, #32]
    2490:	d2820001 	mov	x1, #0x1000                	// #4096
    2494:	97fff861 	bl	618 <sys_unmap>
    2498:	2a0003f4 	mov	w20, w0
/media/home/beste/01_Pro/ld25x/bsp_hu/MYD-LD25X-Uboot-L2022.10-V1.0.0/GEN_FIP/myir-st-optee/ldelf/ta_elf.c:1112
    249c:	34000560 	cbz	w0, 2548 <ta_elf_load_main+0x188>
/media/home/beste/01_Pro/ld25x/bsp_hu/MYD-LD25X-Uboot-L2022.10-V1.0.0/GEN_FIP/myir-st-optee/ldelf/ta_elf.c:1113
    24a0:	90000024 	adrp	x4, 6000 <kprintf.constprop.0+0x68c>
    24a4:	b0000020 	adrp	x0, 7000 <trace_ext_prefix+0x6bc>
    24a8:	913d5084 	add	x4, x4, #0xf54
    24ac:	910a8000 	add	x0, x0, #0x2a0
    24b0:	52800023 	mov	w3, #0x1                   	// #1
    24b4:	52800022 	mov	w2, #0x1                   	// #1
    24b8:	52808b21 	mov	w1, #0x459                 	// #1113
ta_elf_load_main():
/media/home/beste/01_Pro/ld25x/bsp_hu/MYD-LD25X-Uboot-L2022.10-V1.0.0/GEN_FIP/myir-st-optee/ldelf/ta_elf.c:1232
    24bc:	940010a2 	bl	6744 <trace_printf>
    24c0:	2a1403e0 	mov	w0, w20
    24c4:	14000019 	b	2528 <ta_elf_load_main+0x168>
clean_elf_load_main():
/media/home/beste/01_Pro/ld25x/bsp_hu/MYD-LD25X-Uboot-L2022.10-V1.0.0/GEN_FIP/myir-st-optee/ldelf/ta_elf.c:1120
    24c8:	f9400660 	ldr	x0, [x19, #8]
    24cc:	f9400682 	ldr	x2, [x20, #8]
/media/home/beste/01_Pro/ld25x/bsp_hu/MYD-LD25X-Uboot-L2022.10-V1.0.0/GEN_FIP/myir-st-optee/ldelf/ta_elf.c:1121
    24d0:	3940c283 	ldrb	w3, [x20, #48]
/media/home/beste/01_Pro/ld25x/bsp_hu/MYD-LD25X-Uboot-L2022.10-V1.0.0/GEN_FIP/myir-st-optee/ldelf/ta_elf.c:1120
    24d4:	8b000040 	add	x0, x2, x0
/media/home/beste/01_Pro/ld25x/bsp_hu/MYD-LD25X-Uboot-L2022.10-V1.0.0/GEN_FIP/myir-st-optee/ldelf/ta_elf.c:1122
    24d8:	f9400e81 	ldr	x1, [x20, #24]
rounddown():
/media/home/beste/01_Pro/ld25x/bsp_hu/MYD-LD25X-Uboot-L2022.10-V1.0.0/GEN_FIP/myir-st-optee/ldelf/ta_elf.c:497
    24dc:	9274cc00 	and	x0, x0, #0xfffffffffffff000
clean_elf_load_main():
/media/home/beste/01_Pro/ld25x/bsp_hu/MYD-LD25X-Uboot-L2022.10-V1.0.0/GEN_FIP/myir-st-optee/ldelf/ta_elf.c:1121
    24e0:	340000c3 	cbz	w3, 24f8 <ta_elf_load_main+0x138>
/media/home/beste/01_Pro/ld25x/bsp_hu/MYD-LD25X-Uboot-L2022.10-V1.0.0/GEN_FIP/myir-st-optee/ldelf/ta_elf.c:1122
    24e4:	8b010041 	add	x1, x2, x1
rounddown():
/media/home/beste/01_Pro/ld25x/bsp_hu/MYD-LD25X-Uboot-L2022.10-V1.0.0/GEN_FIP/myir-st-optee/ldelf/ta_elf.c:497
    24e8:	9274cc42 	and	x2, x2, #0xfffffffffffff000
roundup():
/media/home/beste/01_Pro/ld25x/bsp_hu/MYD-LD25X-Uboot-L2022.10-V1.0.0/GEN_FIP/myir-st-optee/ldelf/ta_elf.c:492
    24ec:	913ffc21 	add	x1, x1, #0xfff
    24f0:	9274cc21 	and	x1, x1, #0xfffffffffffff000
clean_elf_load_main():
/media/home/beste/01_Pro/ld25x/bsp_hu/MYD-LD25X-Uboot-L2022.10-V1.0.0/GEN_FIP/myir-st-optee/ldelf/ta_elf.c:1122
    24f4:	cb020021 	sub	x1, x1, x2
/media/home/beste/01_Pro/ld25x/bsp_hu/MYD-LD25X-Uboot-L2022.10-V1.0.0/GEN_FIP/myir-st-optee/ldelf/ta_elf.c:1127
    24f8:	97fff848 	bl	618 <sys_unmap>
    24fc:	2a0003f5 	mov	w21, w0
/media/home/beste/01_Pro/ld25x/bsp_hu/MYD-LD25X-Uboot-L2022.10-V1.0.0/GEN_FIP/myir-st-optee/ldelf/ta_elf.c:1128
    2500:	34000160 	cbz	w0, 252c <ta_elf_load_main+0x16c>
/media/home/beste/01_Pro/ld25x/bsp_hu/MYD-LD25X-Uboot-L2022.10-V1.0.0/GEN_FIP/myir-st-optee/ldelf/ta_elf.c:1129
    2504:	90000024 	adrp	x4, 6000 <kprintf.constprop.0+0x68c>
    2508:	52800023 	mov	w3, #0x1                   	// #1
    250c:	913d5084 	add	x4, x4, #0xf54
    2510:	52800022 	mov	w2, #0x1                   	// #1
    2514:	52808d21 	mov	w1, #0x469                 	// #1129
    2518:	b0000020 	adrp	x0, 7000 <trace_ext_prefix+0x6bc>
    251c:	910a8000 	add	x0, x0, #0x2a0
    2520:	94001089 	bl	6744 <trace_printf>
    2524:	2a1503e0 	mov	w0, w21
ta_elf_load_main():
/media/home/beste/01_Pro/ld25x/bsp_hu/MYD-LD25X-Uboot-L2022.10-V1.0.0/GEN_FIP/myir-st-optee/ldelf/ta_elf.c:1235
    2528:	97fff70b 	bl	154 <_ldelf_return>
clean_elf_load_main():
/media/home/beste/01_Pro/ld25x/bsp_hu/MYD-LD25X-Uboot-L2022.10-V1.0.0/GEN_FIP/myir-st-optee/ldelf/ta_elf.c:1131
    252c:	a9438680 	ldp	x0, x1, [x20, #56]
    2530:	b40003e0 	cbz	x0, 25ac <ta_elf_load_main+0x1ec>
    2534:	f9002001 	str	x1, [x0, #64]
    2538:	f9402281 	ldr	x1, [x20, #64]
    253c:	f9000020 	str	x0, [x1]
/media/home/beste/01_Pro/ld25x/bsp_hu/MYD-LD25X-Uboot-L2022.10-V1.0.0/GEN_FIP/myir-st-optee/ldelf/ta_elf.c:1132
    2540:	aa1403e0 	mov	x0, x20
    2544:	94000c64 	bl	56d4 <free>
/media/home/beste/01_Pro/ld25x/bsp_hu/MYD-LD25X-Uboot-L2022.10-V1.0.0/GEN_FIP/myir-st-optee/ldelf/ta_elf.c:1115
    2548:	f9405274 	ldr	x20, [x19, #160]
    254c:	b5fffbf4 	cbnz	x20, 24c8 <ta_elf_load_main+0x108>
/media/home/beste/01_Pro/ld25x/bsp_hu/MYD-LD25X-Uboot-L2022.10-V1.0.0/GEN_FIP/myir-st-optee/ldelf/ta_elf.c:1135
    2550:	f9402e60 	ldr	x0, [x19, #88]
    2554:	94000c60 	bl	56d4 <free>
/media/home/beste/01_Pro/ld25x/bsp_hu/MYD-LD25X-Uboot-L2022.10-V1.0.0/GEN_FIP/myir-st-optee/ldelf/ta_elf.c:1136
    2558:	d28021e2 	mov	x2, #0x10f                 	// #271
    255c:	52800001 	mov	w1, #0x0                   	// #0
    2560:	91000660 	add	x0, x19, #0x1
    2564:	94000c96 	bl	57bc <memset>
/media/home/beste/01_Pro/ld25x/bsp_hu/MYD-LD25X-Uboot-L2022.10-V1.0.0/GEN_FIP/myir-st-optee/ldelf/ta_elf.c:1139
    2568:	91028260 	add	x0, x19, #0xa0
    256c:	f9005660 	str	x0, [x19, #168]
load_main():
/media/home/beste/01_Pro/ld25x/bsp_hu/MYD-LD25X-Uboot-L2022.10-V1.0.0/GEN_FIP/myir-st-optee/ldelf/ta_elf.c:1196
    2570:	52800020 	mov	w0, #0x1                   	// #1
    2574:	39000a60 	strb	w0, [x19, #2]
/media/home/beste/01_Pro/ld25x/bsp_hu/MYD-LD25X-Uboot-L2022.10-V1.0.0/GEN_FIP/myir-st-optee/ldelf/ta_elf.c:1197
    2578:	aa1303e0 	mov	x0, x19
    257c:	97fff8fa 	bl	964 <init_elf>
/media/home/beste/01_Pro/ld25x/bsp_hu/MYD-LD25X-Uboot-L2022.10-V1.0.0/GEN_FIP/myir-st-optee/ldelf/ta_elf.c:1198
    2580:	aa1303e0 	mov	x0, x19
    2584:	97fffbaf 	bl	1440 <map_segments>
populate_segments_legacy():
/media/home/beste/01_Pro/ld25x/bsp_hu/MYD-LD25X-Uboot-L2022.10-V1.0.0/GEN_FIP/myir-st-optee/ldelf/ta_elf.c:689
    2588:	39400a60 	ldrb	w0, [x19, #2]
/media/home/beste/01_Pro/ld25x/bsp_hu/MYD-LD25X-Uboot-L2022.10-V1.0.0/GEN_FIP/myir-st-optee/ldelf/ta_elf.c:687
    258c:	f9002fff 	str	xzr, [sp, #88]
/media/home/beste/01_Pro/ld25x/bsp_hu/MYD-LD25X-Uboot-L2022.10-V1.0.0/GEN_FIP/myir-st-optee/ldelf/ta_elf.c:689
    2590:	35000120 	cbnz	w0, 25b4 <ta_elf_load_main+0x1f4>
    2594:	b0000022 	adrp	x2, 7000 <trace_ext_prefix+0x6bc>
    2598:	90000020 	adrp	x0, 6000 <kprintf.constprop.0+0x68c>
    259c:	91090c42 	add	x2, x2, #0x243
    25a0:	912cf400 	add	x0, x0, #0xb3d
    25a4:	52805621 	mov	w1, #0x2b1                 	// #689
    25a8:	17ffff97 	b	2404 <ta_elf_load_main+0x44>
clean_elf_load_main():
/media/home/beste/01_Pro/ld25x/bsp_hu/MYD-LD25X-Uboot-L2022.10-V1.0.0/GEN_FIP/myir-st-optee/ldelf/ta_elf.c:1131
    25ac:	f9005661 	str	x1, [x19, #168]
    25b0:	17ffffe2 	b	2538 <ta_elf_load_main+0x178>
populate_segments_legacy():
/media/home/beste/01_Pro/ld25x/bsp_hu/MYD-LD25X-Uboot-L2022.10-V1.0.0/GEN_FIP/myir-st-optee/ldelf/ta_elf.c:690
    25b4:	f9405274 	ldr	x20, [x19, #160]
/media/home/beste/01_Pro/ld25x/bsp_hu/MYD-LD25X-Uboot-L2022.10-V1.0.0/GEN_FIP/myir-st-optee/ldelf/ta_elf.c:706
    25b8:	910163f9 	add	x25, sp, #0x58
/media/home/beste/01_Pro/ld25x/bsp_hu/MYD-LD25X-Uboot-L2022.10-V1.0.0/GEN_FIP/myir-st-optee/ldelf/ta_elf.c:690
    25bc:	b5000334 	cbnz	x20, 2620 <ta_elf_load_main+0x260>
load_main():
/media/home/beste/01_Pro/ld25x/bsp_hu/MYD-LD25X-Uboot-L2022.10-V1.0.0/GEN_FIP/myir-st-optee/ldelf/ta_elf.c:1200
    25c0:	aa1303e0 	mov	x0, x19
    25c4:	97ffff5f 	bl	2340 <add_dependencies>
/media/home/beste/01_Pro/ld25x/bsp_hu/MYD-LD25X-Uboot-L2022.10-V1.0.0/GEN_FIP/myir-st-optee/ldelf/ta_elf.c:1201
    25c8:	aa1303e0 	mov	x0, x19
    25cc:	97fffa30 	bl	e8c <copy_section_headers>
/media/home/beste/01_Pro/ld25x/bsp_hu/MYD-LD25X-Uboot-L2022.10-V1.0.0/GEN_FIP/myir-st-optee/ldelf/ta_elf.c:1202
    25d0:	aa1303e0 	mov	x0, x19
    25d4:	97fffd4e 	bl	1b0c <save_symtab>
/media/home/beste/01_Pro/ld25x/bsp_hu/MYD-LD25X-Uboot-L2022.10-V1.0.0/GEN_FIP/myir-st-optee/ldelf/ta_elf.c:1203
    25d8:	aa1303e0 	mov	x0, x19
    25dc:	97fff98c 	bl	c0c <close_handle>
/media/home/beste/01_Pro/ld25x/bsp_hu/MYD-LD25X-Uboot-L2022.10-V1.0.0/GEN_FIP/myir-st-optee/ldelf/ta_elf.c:1204
    25e0:	f9400660 	ldr	x0, [x19, #8]
    25e4:	f9008660 	str	x0, [x19, #264]
/media/home/beste/01_Pro/ld25x/bsp_hu/MYD-LD25X-Uboot-L2022.10-V1.0.0/GEN_FIP/myir-st-optee/ldelf/ta_elf.c:1209
    25e8:	f9400c00 	ldr	x0, [x0, #24]
    25ec:	b100041f 	cmn	x0, #0x1
    25f0:	54000a61 	b.ne	273c <ta_elf_load_main+0x37c>  // b.any
/media/home/beste/01_Pro/ld25x/bsp_hu/MYD-LD25X-Uboot-L2022.10-V1.0.0/GEN_FIP/myir-st-optee/ldelf/ta_elf.c:1210
    25f4:	91044265 	add	x5, x19, #0x110
    25f8:	90000024 	adrp	x4, 6000 <kprintf.constprop.0+0x68c>
    25fc:	52800023 	mov	w3, #0x1                   	// #1
    2600:	913d7884 	add	x4, x4, #0xf5e
    2604:	52800022 	mov	w2, #0x1                   	// #1
    2608:	52809741 	mov	w1, #0x4ba                 	// #1210
    260c:	b0000020 	adrp	x0, 7000 <trace_ext_prefix+0x6bc>
    2610:	910b9800 	add	x0, x0, #0x2e6
    2614:	9400104c 	bl	6744 <trace_printf>
    2618:	d2bfffe0 	mov	x0, #0xffff0000            	// #4294901760
    261c:	17ffffc3 	b	2528 <ta_elf_load_main+0x168>
populate_segments_legacy():
/media/home/beste/01_Pro/ld25x/bsp_hu/MYD-LD25X-Uboot-L2022.10-V1.0.0/GEN_FIP/myir-st-optee/ldelf/ta_elf.c:691
    2620:	f9405660 	ldr	x0, [x19, #168]
/media/home/beste/01_Pro/ld25x/bsp_hu/MYD-LD25X-Uboot-L2022.10-V1.0.0/GEN_FIP/myir-st-optee/ldelf/ta_elf.c:693
    2624:	f9400681 	ldr	x1, [x20, #8]
/media/home/beste/01_Pro/ld25x/bsp_hu/MYD-LD25X-Uboot-L2022.10-V1.0.0/GEN_FIP/myir-st-optee/ldelf/ta_elf.c:691
    2628:	f9400400 	ldr	x0, [x0, #8]
/media/home/beste/01_Pro/ld25x/bsp_hu/MYD-LD25X-Uboot-L2022.10-V1.0.0/GEN_FIP/myir-st-optee/ldelf/ta_elf.c:693
    262c:	f9400e95 	ldr	x21, [x20, #24]
/media/home/beste/01_Pro/ld25x/bsp_hu/MYD-LD25X-Uboot-L2022.10-V1.0.0/GEN_FIP/myir-st-optee/ldelf/ta_elf.c:691
    2630:	f9400000 	ldr	x0, [x0]
roundup():
/media/home/beste/01_Pro/ld25x/bsp_hu/MYD-LD25X-Uboot-L2022.10-V1.0.0/GEN_FIP/myir-st-optee/ldelf/ta_elf.c:492
    2634:	f9400404 	ldr	x4, [x0, #8]
    2638:	f9400c00 	ldr	x0, [x0, #24]
    263c:	8b000084 	add	x4, x4, x0
    2640:	8b150020 	add	x0, x1, x21
    2644:	cb000084 	sub	x4, x4, x0
    2648:	913ffeb5 	add	x21, x21, #0xfff
populate_segments_legacy():
/media/home/beste/01_Pro/ld25x/bsp_hu/MYD-LD25X-Uboot-L2022.10-V1.0.0/GEN_FIP/myir-st-optee/ldelf/ta_elf.c:696
    264c:	f9400660 	ldr	x0, [x19, #8]
roundup():
/media/home/beste/01_Pro/ld25x/bsp_hu/MYD-LD25X-Uboot-L2022.10-V1.0.0/GEN_FIP/myir-st-optee/ldelf/ta_elf.c:492
    2650:	913ffc84 	add	x4, x4, #0xfff
    2654:	9274cc84 	and	x4, x4, #0xfffffffffffff000
    2658:	9274ceb5 	and	x21, x21, #0xfffffffffffff000
populate_segments_legacy():
/media/home/beste/01_Pro/ld25x/bsp_hu/MYD-LD25X-Uboot-L2022.10-V1.0.0/GEN_FIP/myir-st-optee/ldelf/ta_elf.c:696
    265c:	b4000040 	cbz	x0, 2664 <ta_elf_load_main+0x2a4>
/media/home/beste/01_Pro/ld25x/bsp_hu/MYD-LD25X-Uboot-L2022.10-V1.0.0/GEN_FIP/myir-st-optee/ldelf/ta_elf.c:699
    2660:	8b010000 	add	x0, x0, x1
    2664:	f9002fe0 	str	x0, [sp, #88]
/media/home/beste/01_Pro/ld25x/bsp_hu/MYD-LD25X-Uboot-L2022.10-V1.0.0/GEN_FIP/myir-st-optee/ldelf/ta_elf.c:702
    2668:	f9401280 	ldr	x0, [x20, #32]
    266c:	37100160 	tbnz	w0, #2, 2698 <ta_elf_load_main+0x2d8>
/media/home/beste/01_Pro/ld25x/bsp_hu/MYD-LD25X-Uboot-L2022.10-V1.0.0/GEN_FIP/myir-st-optee/ldelf/ta_elf.c:703
    2670:	90000024 	adrp	x4, 6000 <kprintf.constprop.0+0x68c>
    2674:	52800023 	mov	w3, #0x1                   	// #1
    2678:	912e1084 	add	x4, x4, #0xb84
    267c:	52800022 	mov	w2, #0x1                   	// #1
    2680:	528057e1 	mov	w1, #0x2bf                 	// #703
    2684:	b0000020 	adrp	x0, 7000 <trace_ext_prefix+0x6bc>
    2688:	91090c00 	add	x0, x0, #0x243
    268c:	9400102e 	bl	6744 <trace_printf>
    2690:	129ffea0 	mov	w0, #0xffff000a            	// #-65526
    2694:	17ffffa5 	b	2528 <ta_elf_load_main+0x168>
/media/home/beste/01_Pro/ld25x/bsp_hu/MYD-LD25X-Uboot-L2022.10-V1.0.0/GEN_FIP/myir-st-optee/ldelf/ta_elf.c:706
    2698:	aa1903e2 	mov	x2, x25
    269c:	aa1503e0 	mov	x0, x21
    26a0:	d2800003 	mov	x3, #0x0                   	// #0
    26a4:	52800001 	mov	w1, #0x0                   	// #0
    26a8:	97fff7d5 	bl	5fc <sys_map_zi>
    26ac:	2a0003fa 	mov	w26, w0
/media/home/beste/01_Pro/ld25x/bsp_hu/MYD-LD25X-Uboot-L2022.10-V1.0.0/GEN_FIP/myir-st-optee/ldelf/ta_elf.c:707
    26b0:	34000160 	cbz	w0, 26dc <ta_elf_load_main+0x31c>
/media/home/beste/01_Pro/ld25x/bsp_hu/MYD-LD25X-Uboot-L2022.10-V1.0.0/GEN_FIP/myir-st-optee/ldelf/ta_elf.c:708
    26b4:	90000024 	adrp	x4, 6000 <kprintf.constprop.0+0x68c>
    26b8:	912dbc84 	add	x4, x4, #0xb6f
    26bc:	52800023 	mov	w3, #0x1                   	// #1
    26c0:	52800022 	mov	w2, #0x1                   	// #1
    26c4:	52805881 	mov	w1, #0x2c4                 	// #708
/media/home/beste/01_Pro/ld25x/bsp_hu/MYD-LD25X-Uboot-L2022.10-V1.0.0/GEN_FIP/myir-st-optee/ldelf/ta_elf.c:712
    26c8:	b0000020 	adrp	x0, 7000 <trace_ext_prefix+0x6bc>
    26cc:	91090c00 	add	x0, x0, #0x243
    26d0:	9400101d 	bl	6744 <trace_printf>
    26d4:	2a1a03e0 	mov	w0, w26
    26d8:	17ffff94 	b	2528 <ta_elf_load_main+0x168>
/media/home/beste/01_Pro/ld25x/bsp_hu/MYD-LD25X-Uboot-L2022.10-V1.0.0/GEN_FIP/myir-st-optee/ldelf/ta_elf.c:709
    26dc:	f9400283 	ldr	x3, [x20]
    26e0:	f9400a81 	ldr	x1, [x20, #16]
    26e4:	f9402fe0 	ldr	x0, [sp, #88]
    26e8:	b9410262 	ldr	w2, [x19, #256]
    26ec:	97fff7d8 	bl	64c <sys_copy_from_ta_bin>
    26f0:	2a0003fa 	mov	w26, w0
/media/home/beste/01_Pro/ld25x/bsp_hu/MYD-LD25X-Uboot-L2022.10-V1.0.0/GEN_FIP/myir-st-optee/ldelf/ta_elf.c:711
    26f4:	340000e0 	cbz	w0, 2710 <ta_elf_load_main+0x350>
/media/home/beste/01_Pro/ld25x/bsp_hu/MYD-LD25X-Uboot-L2022.10-V1.0.0/GEN_FIP/myir-st-optee/ldelf/ta_elf.c:712
    26f8:	90000024 	adrp	x4, 6000 <kprintf.constprop.0+0x68c>
    26fc:	52800023 	mov	w3, #0x1                   	// #1
    2700:	912c9c84 	add	x4, x4, #0xb27
    2704:	52800022 	mov	w2, #0x1                   	// #1
    2708:	52805901 	mov	w1, #0x2c8                 	// #712
    270c:	17ffffef 	b	26c8 <ta_elf_load_main+0x308>
/media/home/beste/01_Pro/ld25x/bsp_hu/MYD-LD25X-Uboot-L2022.10-V1.0.0/GEN_FIP/myir-st-optee/ldelf/ta_elf.c:714
    2710:	f9400661 	ldr	x1, [x19, #8]
/media/home/beste/01_Pro/ld25x/bsp_hu/MYD-LD25X-Uboot-L2022.10-V1.0.0/GEN_FIP/myir-st-optee/ldelf/ta_elf.c:715
    2714:	f9402fe0 	ldr	x0, [sp, #88]
/media/home/beste/01_Pro/ld25x/bsp_hu/MYD-LD25X-Uboot-L2022.10-V1.0.0/GEN_FIP/myir-st-optee/ldelf/ta_elf.c:714
    2718:	b5000041 	cbnz	x1, 2720 <ta_elf_load_main+0x360>
/media/home/beste/01_Pro/ld25x/bsp_hu/MYD-LD25X-Uboot-L2022.10-V1.0.0/GEN_FIP/myir-st-optee/ldelf/ta_elf.c:715
    271c:	f9000660 	str	x0, [x19, #8]
/media/home/beste/01_Pro/ld25x/bsp_hu/MYD-LD25X-Uboot-L2022.10-V1.0.0/GEN_FIP/myir-st-optee/ldelf/ta_elf.c:717
    2720:	f9400a81 	ldr	x1, [x20, #16]
/media/home/beste/01_Pro/ld25x/bsp_hu/MYD-LD25X-Uboot-L2022.10-V1.0.0/GEN_FIP/myir-st-optee/ldelf/ta_elf.c:716
    2724:	8b0002b5 	add	x21, x21, x0
/media/home/beste/01_Pro/ld25x/bsp_hu/MYD-LD25X-Uboot-L2022.10-V1.0.0/GEN_FIP/myir-st-optee/ldelf/ta_elf.c:717
    2728:	f9400280 	ldr	x0, [x20]
/media/home/beste/01_Pro/ld25x/bsp_hu/MYD-LD25X-Uboot-L2022.10-V1.0.0/GEN_FIP/myir-st-optee/ldelf/ta_elf.c:690
    272c:	f9401e94 	ldr	x20, [x20, #56]
/media/home/beste/01_Pro/ld25x/bsp_hu/MYD-LD25X-Uboot-L2022.10-V1.0.0/GEN_FIP/myir-st-optee/ldelf/ta_elf.c:717
    2730:	8b010000 	add	x0, x0, x1
    2734:	a9010275 	stp	x21, x0, [x19, #16]
/media/home/beste/01_Pro/ld25x/bsp_hu/MYD-LD25X-Uboot-L2022.10-V1.0.0/GEN_FIP/myir-st-optee/ldelf/ta_elf.c:690
    2738:	17ffffa1 	b	25bc <ta_elf_load_main+0x1fc>
ta_elf_load_main():
/media/home/beste/01_Pro/ld25x/bsp_hu/MYD-LD25X-Uboot-L2022.10-V1.0.0/GEN_FIP/myir-st-optee/ldelf/ta_elf.c:1229
    273c:	39400660 	ldrb	w0, [x19, #1]
/media/home/beste/01_Pro/ld25x/bsp_hu/MYD-LD25X-Uboot-L2022.10-V1.0.0/GEN_FIP/myir-st-optee/ldelf/ta_elf.c:1230
    2740:	910143e2 	add	x2, sp, #0x50
/media/home/beste/01_Pro/ld25x/bsp_hu/MYD-LD25X-Uboot-L2022.10-V1.0.0/GEN_FIP/myir-st-optee/ldelf/ta_elf.c:1229
    2744:	b9000300 	str	w0, [x24]
/media/home/beste/01_Pro/ld25x/bsp_hu/MYD-LD25X-Uboot-L2022.10-V1.0.0/GEN_FIP/myir-st-optee/ldelf/ta_elf.c:1230
    2748:	d2800004 	mov	x4, #0x0                   	// #0
    274c:	f9408660 	ldr	x0, [x19, #264]
    2750:	d2800003 	mov	x3, #0x0                   	// #0
    2754:	52800001 	mov	w1, #0x0                   	// #0
    2758:	b9401000 	ldr	w0, [x0, #16]
    275c:	97fff7a8 	bl	5fc <sys_map_zi>
    2760:	2a0003f4 	mov	w20, w0
/media/home/beste/01_Pro/ld25x/bsp_hu/MYD-LD25X-Uboot-L2022.10-V1.0.0/GEN_FIP/myir-st-optee/ldelf/ta_elf.c:1231
    2764:	34000120 	cbz	w0, 2788 <ta_elf_load_main+0x3c8>
/media/home/beste/01_Pro/ld25x/bsp_hu/MYD-LD25X-Uboot-L2022.10-V1.0.0/GEN_FIP/myir-st-optee/ldelf/ta_elf.c:1232
    2768:	90000024 	adrp	x4, 6000 <kprintf.constprop.0+0x68c>
    276c:	b0000020 	adrp	x0, 7000 <trace_ext_prefix+0x6bc>
    2770:	913e2084 	add	x4, x4, #0xf88
    2774:	910be800 	add	x0, x0, #0x2fa
    2778:	52800023 	mov	w3, #0x1                   	// #1
    277c:	52800022 	mov	w2, #0x1                   	// #1
    2780:	52809a01 	mov	w1, #0x4d0                 	// #1232
    2784:	17ffff4e 	b	24bc <ta_elf_load_main+0xfc>
/media/home/beste/01_Pro/ld25x/bsp_hu/MYD-LD25X-Uboot-L2022.10-V1.0.0/GEN_FIP/myir-st-optee/ldelf/ta_elf.c:1234
    2788:	f9408660 	ldr	x0, [x19, #264]
    278c:	b9401405 	ldr	w5, [x0, #20]
    2790:	711ffcbf 	cmp	w5, #0x7ff
    2794:	54000189 	b.ls	27c4 <ta_elf_load_main+0x404>  // b.plast
/media/home/beste/01_Pro/ld25x/bsp_hu/MYD-LD25X-Uboot-L2022.10-V1.0.0/GEN_FIP/myir-st-optee/ldelf/ta_elf.c:1235
    2798:	121550a5 	and	w5, w5, #0xfffff800
    279c:	90000024 	adrp	x4, 6000 <kprintf.constprop.0+0x68c>
    27a0:	52800023 	mov	w3, #0x1                   	// #1
    27a4:	913e6484 	add	x4, x4, #0xf99
    27a8:	52800022 	mov	w2, #0x1                   	// #1
    27ac:	52809a61 	mov	w1, #0x4d3                 	// #1235
    27b0:	b0000020 	adrp	x0, 7000 <trace_ext_prefix+0x6bc>
    27b4:	910be800 	add	x0, x0, #0x2fa
    27b8:	94000fe3 	bl	6744 <trace_printf>
    27bc:	129fff40 	mov	w0, #0xffff0005            	// #-65531
    27c0:	17ffff5a 	b	2528 <ta_elf_load_main+0x168>
/media/home/beste/01_Pro/ld25x/bsp_hu/MYD-LD25X-Uboot-L2022.10-V1.0.0/GEN_FIP/myir-st-optee/ldelf/ta_elf.c:1242
    27c4:	a94153f3 	ldp	x19, x20, [sp, #16]
    27c8:	a9446bf9 	ldp	x25, x26, [sp, #64]
/media/home/beste/01_Pro/ld25x/bsp_hu/MYD-LD25X-Uboot-L2022.10-V1.0.0/GEN_FIP/myir-st-optee/ldelf/ta_elf.c:1238
    27cc:	b90002e5 	str	w5, [x23]
/media/home/beste/01_Pro/ld25x/bsp_hu/MYD-LD25X-Uboot-L2022.10-V1.0.0/GEN_FIP/myir-st-optee/ldelf/ta_elf.c:1239
    27d0:	f9402be1 	ldr	x1, [sp, #80]
    27d4:	b9401000 	ldr	w0, [x0, #16]
/media/home/beste/01_Pro/ld25x/bsp_hu/MYD-LD25X-Uboot-L2022.10-V1.0.0/GEN_FIP/myir-st-optee/ldelf/ta_elf.c:1242
    27d8:	a94363f7 	ldp	x23, x24, [sp, #48]
/media/home/beste/01_Pro/ld25x/bsp_hu/MYD-LD25X-Uboot-L2022.10-V1.0.0/GEN_FIP/myir-st-optee/ldelf/ta_elf.c:1239
    27dc:	8b010002 	add	x2, x0, x1
    27e0:	f90002c2 	str	x2, [x22]
/media/home/beste/01_Pro/ld25x/bsp_hu/MYD-LD25X-Uboot-L2022.10-V1.0.0/GEN_FIP/myir-st-optee/ldelf/ta_elf.c:1240
    27e4:	d0000022 	adrp	x2, 8000 <_DYNAMIC>
/media/home/beste/01_Pro/ld25x/bsp_hu/MYD-LD25X-Uboot-L2022.10-V1.0.0/GEN_FIP/myir-st-optee/ldelf/ta_elf.c:1242
    27e8:	a9425bf5 	ldp	x21, x22, [sp, #32]
/media/home/beste/01_Pro/ld25x/bsp_hu/MYD-LD25X-Uboot-L2022.10-V1.0.0/GEN_FIP/myir-st-optee/ldelf/ta_elf.c:1240
    27ec:	f9010441 	str	x1, [x2, #520]
/media/home/beste/01_Pro/ld25x/bsp_hu/MYD-LD25X-Uboot-L2022.10-V1.0.0/GEN_FIP/myir-st-optee/ldelf/ta_elf.c:1241
    27f0:	d0000021 	adrp	x1, 8000 <_DYNAMIC>
    27f4:	f9010020 	str	x0, [x1, #512]
/media/home/beste/01_Pro/ld25x/bsp_hu/MYD-LD25X-Uboot-L2022.10-V1.0.0/GEN_FIP/myir-st-optee/ldelf/ta_elf.c:1242
    27f8:	a8c67bfd 	ldp	x29, x30, [sp], #96
    27fc:	d65f03c0 	ret

0000000000002800 <ta_elf_load_dependency>:
ta_elf_load_dependency():
/media/home/beste/01_Pro/ld25x/bsp_hu/MYD-LD25X-Uboot-L2022.10-V1.0.0/GEN_FIP/myir-st-optee/ldelf/ta_elf.c:1266
    2800:	a9be7bfd 	stp	x29, x30, [sp, #-32]!
    2804:	910003fd 	mov	x29, sp
    2808:	a90153f3 	stp	x19, x20, [sp, #16]
    280c:	12001c34 	and	w20, w1, #0xff
/media/home/beste/01_Pro/ld25x/bsp_hu/MYD-LD25X-Uboot-L2022.10-V1.0.0/GEN_FIP/myir-st-optee/ldelf/ta_elf.c:1267
    2810:	39400001 	ldrb	w1, [x0]
    2814:	35000661 	cbnz	w1, 28e0 <ta_elf_load_dependency+0xe0>
    2818:	aa0003f3 	mov	x19, x0
/media/home/beste/01_Pro/ld25x/bsp_hu/MYD-LD25X-Uboot-L2022.10-V1.0.0/GEN_FIP/myir-st-optee/ldelf/ta_elf.c:1270
    281c:	97fff852 	bl	964 <init_elf>
/media/home/beste/01_Pro/ld25x/bsp_hu/MYD-LD25X-Uboot-L2022.10-V1.0.0/GEN_FIP/myir-st-optee/ldelf/ta_elf.c:1271
    2820:	39400661 	ldrb	w1, [x19, #1]
    2824:	6b01029f 	cmp	w20, w1
    2828:	54000280 	b.eq	2878 <ta_elf_load_dependency+0x78>  // b.none
/media/home/beste/01_Pro/ld25x/bsp_hu/MYD-LD25X-Uboot-L2022.10-V1.0.0/GEN_FIP/myir-st-optee/ldelf/ta_elf.c:1272
    282c:	7100003f 	cmp	w1, #0x0
    2830:	90000020 	adrp	x0, 6000 <kprintf.constprop.0+0x68c>
    2834:	90000027 	adrp	x7, 6000 <kprintf.constprop.0+0x68c>
    2838:	913ec400 	add	x0, x0, #0xfb1
    283c:	9122cce7 	add	x7, x7, #0x8b3
    2840:	91044265 	add	x5, x19, #0x110
    2844:	9a8000e6 	csel	x6, x7, x0, eq	// eq = none
    2848:	7100029f 	cmp	w20, #0x0
    284c:	9a8000e7 	csel	x7, x7, x0, eq	// eq = none
    2850:	90000024 	adrp	x4, 6000 <kprintf.constprop.0+0x68c>
    2854:	913ed084 	add	x4, x4, #0xfb4
    2858:	52800023 	mov	w3, #0x1                   	// #1
    285c:	52800022 	mov	w2, #0x1                   	// #1
    2860:	52809f01 	mov	w1, #0x4f8                 	// #1272
    2864:	b0000020 	adrp	x0, 7000 <trace_ext_prefix+0x6bc>
    2868:	91058400 	add	x0, x0, #0x161
    286c:	94000fb6 	bl	6744 <trace_printf>
    2870:	129fff40 	mov	w0, #0xffff0005            	// #-65531
    2874:	97fff638 	bl	154 <_ldelf_return>
/media/home/beste/01_Pro/ld25x/bsp_hu/MYD-LD25X-Uboot-L2022.10-V1.0.0/GEN_FIP/myir-st-optee/ldelf/ta_elf.c:1276
    2878:	aa1303e0 	mov	x0, x19
    287c:	97fffaf1 	bl	1440 <map_segments>
/media/home/beste/01_Pro/ld25x/bsp_hu/MYD-LD25X-Uboot-L2022.10-V1.0.0/GEN_FIP/myir-st-optee/ldelf/ta_elf.c:1277
    2880:	aa1303e0 	mov	x0, x19
    2884:	97fff9c7 	bl	fa0 <populate_segments>
/media/home/beste/01_Pro/ld25x/bsp_hu/MYD-LD25X-Uboot-L2022.10-V1.0.0/GEN_FIP/myir-st-optee/ldelf/ta_elf.c:1278
    2888:	aa1303e0 	mov	x0, x19
    288c:	97fffead 	bl	2340 <add_dependencies>
/media/home/beste/01_Pro/ld25x/bsp_hu/MYD-LD25X-Uboot-L2022.10-V1.0.0/GEN_FIP/myir-st-optee/ldelf/ta_elf.c:1279
    2890:	aa1303e0 	mov	x0, x19
    2894:	97fff97e 	bl	e8c <copy_section_headers>
/media/home/beste/01_Pro/ld25x/bsp_hu/MYD-LD25X-Uboot-L2022.10-V1.0.0/GEN_FIP/myir-st-optee/ldelf/ta_elf.c:1280
    2898:	aa1303e0 	mov	x0, x19
    289c:	97fffc9c 	bl	1b0c <save_symtab>
/media/home/beste/01_Pro/ld25x/bsp_hu/MYD-LD25X-Uboot-L2022.10-V1.0.0/GEN_FIP/myir-st-optee/ldelf/ta_elf.c:1281
    28a0:	aa1303e0 	mov	x0, x19
    28a4:	97fff8da 	bl	c0c <close_handle>
set_tls_offset():
/media/home/beste/01_Pro/ld25x/bsp_hu/MYD-LD25X-Uboot-L2022.10-V1.0.0/GEN_FIP/myir-st-optee/ldelf/ta_elf.c:1152
    28a8:	f9406660 	ldr	x0, [x19, #200]
    28ac:	b40000e0 	cbz	x0, 28c8 <ta_elf_load_dependency+0xc8>
/media/home/beste/01_Pro/ld25x/bsp_hu/MYD-LD25X-Uboot-L2022.10-V1.0.0/GEN_FIP/myir-st-optee/ldelf/ta_elf.c:1156
    28b0:	d0000021 	adrp	x1, 8000 <_DYNAMIC>
/media/home/beste/01_Pro/ld25x/bsp_hu/MYD-LD25X-Uboot-L2022.10-V1.0.0/GEN_FIP/myir-st-optee/ldelf/ta_elf.c:1157
    28b4:	f9406e60 	ldr	x0, [x19, #216]
/media/home/beste/01_Pro/ld25x/bsp_hu/MYD-LD25X-Uboot-L2022.10-V1.0.0/GEN_FIP/myir-st-optee/ldelf/ta_elf.c:1156
    28b8:	f940ac22 	ldr	x2, [x1, #344]
    28bc:	f9007262 	str	x2, [x19, #224]
/media/home/beste/01_Pro/ld25x/bsp_hu/MYD-LD25X-Uboot-L2022.10-V1.0.0/GEN_FIP/myir-st-optee/ldelf/ta_elf.c:1157
    28c0:	8b020000 	add	x0, x0, x2
    28c4:	f900ac20 	str	x0, [x1, #344]
ta_elf_load_dependency():
/media/home/beste/01_Pro/ld25x/bsp_hu/MYD-LD25X-Uboot-L2022.10-V1.0.0/GEN_FIP/myir-st-optee/ldelf/ta_elf.c:1284
    28c8:	39400e60 	ldrb	w0, [x19, #3]
    28cc:	340000a0 	cbz	w0, 28e0 <ta_elf_load_dependency+0xe0>
/media/home/beste/01_Pro/ld25x/bsp_hu/MYD-LD25X-Uboot-L2022.10-V1.0.0/GEN_FIP/myir-st-optee/ldelf/ta_elf.c:1285
    28d0:	aa1303e0 	mov	x0, x19
/media/home/beste/01_Pro/ld25x/bsp_hu/MYD-LD25X-Uboot-L2022.10-V1.0.0/GEN_FIP/myir-st-optee/ldelf/ta_elf.c:1286
    28d4:	a94153f3 	ldp	x19, x20, [sp, #16]
    28d8:	a8c27bfd 	ldp	x29, x30, [sp], #32
/media/home/beste/01_Pro/ld25x/bsp_hu/MYD-LD25X-Uboot-L2022.10-V1.0.0/GEN_FIP/myir-st-optee/ldelf/ta_elf.c:1285
    28dc:	17fff801 	b	8e0 <ta_elf_add_bti>
/media/home/beste/01_Pro/ld25x/bsp_hu/MYD-LD25X-Uboot-L2022.10-V1.0.0/GEN_FIP/myir-st-optee/ldelf/ta_elf.c:1286
    28e0:	a94153f3 	ldp	x19, x20, [sp, #16]
    28e4:	a8c27bfd 	ldp	x29, x30, [sp], #32
    28e8:	d65f03c0 	ret

00000000000028ec <ta_elf_finalize_mappings>:
ta_elf_finalize_mappings():
/media/home/beste/01_Pro/ld25x/bsp_hu/MYD-LD25X-Uboot-L2022.10-V1.0.0/GEN_FIP/myir-st-optee/ldelf/ta_elf.c:1289
    28ec:	a9bd7bfd 	stp	x29, x30, [sp, #-48]!
    28f0:	910003fd 	mov	x29, sp
    28f4:	a90153f3 	stp	x19, x20, [sp, #16]
    28f8:	aa0003f4 	mov	x20, x0
/media/home/beste/01_Pro/ld25x/bsp_hu/MYD-LD25X-Uboot-L2022.10-V1.0.0/GEN_FIP/myir-st-optee/ldelf/ta_elf.c:1293
    28fc:	39400800 	ldrb	w0, [x0, #2]
/media/home/beste/01_Pro/ld25x/bsp_hu/MYD-LD25X-Uboot-L2022.10-V1.0.0/GEN_FIP/myir-st-optee/ldelf/ta_elf.c:1289
    2900:	f90013f5 	str	x21, [sp, #32]
/media/home/beste/01_Pro/ld25x/bsp_hu/MYD-LD25X-Uboot-L2022.10-V1.0.0/GEN_FIP/myir-st-optee/ldelf/ta_elf.c:1293
    2904:	34000060 	cbz	w0, 2910 <ta_elf_finalize_mappings+0x24>
/media/home/beste/01_Pro/ld25x/bsp_hu/MYD-LD25X-Uboot-L2022.10-V1.0.0/GEN_FIP/myir-st-optee/ldelf/ta_elf.c:1296
    2908:	f9405293 	ldr	x19, [x20, #160]
    290c:	b50000b3 	cbnz	x19, 2920 <ta_elf_finalize_mappings+0x34>
/media/home/beste/01_Pro/ld25x/bsp_hu/MYD-LD25X-Uboot-L2022.10-V1.0.0/GEN_FIP/myir-st-optee/ldelf/ta_elf.c:1309
    2910:	a94153f3 	ldp	x19, x20, [sp, #16]
    2914:	f94013f5 	ldr	x21, [sp, #32]
    2918:	a8c37bfd 	ldp	x29, x30, [sp], #48
    291c:	d65f03c0 	ret
/media/home/beste/01_Pro/ld25x/bsp_hu/MYD-LD25X-Uboot-L2022.10-V1.0.0/GEN_FIP/myir-st-optee/ldelf/ta_elf.c:1297
    2920:	f9400661 	ldr	x1, [x19, #8]
    2924:	f9400680 	ldr	x0, [x20, #8]
    2928:	8b010000 	add	x0, x0, x1
/media/home/beste/01_Pro/ld25x/bsp_hu/MYD-LD25X-Uboot-L2022.10-V1.0.0/GEN_FIP/myir-st-optee/ldelf/ta_elf.c:1300
    292c:	f9401261 	ldr	x1, [x19, #32]
    2930:	121f0022 	and	w2, w1, #0x2
/media/home/beste/01_Pro/ld25x/bsp_hu/MYD-LD25X-Uboot-L2022.10-V1.0.0/GEN_FIP/myir-st-optee/ldelf/ta_elf.c:1302
    2934:	36000041 	tbz	w1, #0, 293c <ta_elf_finalize_mappings+0x50>
/media/home/beste/01_Pro/ld25x/bsp_hu/MYD-LD25X-Uboot-L2022.10-V1.0.0/GEN_FIP/myir-st-optee/ldelf/ta_elf.c:1303
    2938:	321e0042 	orr	w2, w2, #0x4
/media/home/beste/01_Pro/ld25x/bsp_hu/MYD-LD25X-Uboot-L2022.10-V1.0.0/GEN_FIP/myir-st-optee/ldelf/ta_elf.c:1305
    293c:	f9400e61 	ldr	x1, [x19, #24]
    2940:	97fff748 	bl	660 <sys_set_prot>
    2944:	2a0003f5 	mov	w21, w0
/media/home/beste/01_Pro/ld25x/bsp_hu/MYD-LD25X-Uboot-L2022.10-V1.0.0/GEN_FIP/myir-st-optee/ldelf/ta_elf.c:1306
    2948:	34000160 	cbz	w0, 2974 <ta_elf_finalize_mappings+0x88>
/media/home/beste/01_Pro/ld25x/bsp_hu/MYD-LD25X-Uboot-L2022.10-V1.0.0/GEN_FIP/myir-st-optee/ldelf/ta_elf.c:1307
    294c:	90000024 	adrp	x4, 6000 <kprintf.constprop.0+0x68c>
    2950:	91272884 	add	x4, x4, #0x9ca
    2954:	52800023 	mov	w3, #0x1                   	// #1
    2958:	52800022 	mov	w2, #0x1                   	// #1
    295c:	5280a361 	mov	w1, #0x51b                 	// #1307
    2960:	b0000020 	adrp	x0, 7000 <trace_ext_prefix+0x6bc>
    2964:	91052000 	add	x0, x0, #0x148
    2968:	94000f77 	bl	6744 <trace_printf>
    296c:	2a1503e0 	mov	w0, w21
    2970:	97fff5f9 	bl	154 <_ldelf_return>
/media/home/beste/01_Pro/ld25x/bsp_hu/MYD-LD25X-Uboot-L2022.10-V1.0.0/GEN_FIP/myir-st-optee/ldelf/ta_elf.c:1296
    2974:	f9401e73 	ldr	x19, [x19, #56]
    2978:	17ffffe5 	b	290c <ta_elf_finalize_mappings+0x20>

000000000000297c <ta_elf_print_mappings>:
ta_elf_print_mappings():
/media/home/beste/01_Pro/ld25x/bsp_hu/MYD-LD25X-Uboot-L2022.10-V1.0.0/GEN_FIP/myir-st-optee/ldelf/ta_elf.c:1413
    297c:	a9b67bfd 	stp	x29, x30, [sp, #-160]!
    2980:	910003fd 	mov	x29, sp
    2984:	a90363f7 	stp	x23, x24, [sp, #48]
    2988:	aa0203f7 	mov	x23, x2
    298c:	aa0303f8 	mov	x24, x3
    2990:	a9046bf9 	stp	x25, x26, [sp, #64]
/media/home/beste/01_Pro/ld25x/bsp_hu/MYD-LD25X-Uboot-L2022.10-V1.0.0/GEN_FIP/myir-st-optee/ldelf/ta_elf.c:1425
    2994:	910263fa 	add	x26, sp, #0x98
    2998:	aa1a03e3 	mov	x3, x26
/media/home/beste/01_Pro/ld25x/bsp_hu/MYD-LD25X-Uboot-L2022.10-V1.0.0/GEN_FIP/myir-st-optee/ldelf/ta_elf.c:1413
    299c:	a90573fb 	stp	x27, x28, [sp, #80]
/media/home/beste/01_Pro/ld25x/bsp_hu/MYD-LD25X-Uboot-L2022.10-V1.0.0/GEN_FIP/myir-st-optee/ldelf/ta_elf.c:1425
    29a0:	910223fb 	add	x27, sp, #0x88
    29a4:	910243fc 	add	x28, sp, #0x90
    29a8:	aa1b03e2 	mov	x2, x27
/media/home/beste/01_Pro/ld25x/bsp_hu/MYD-LD25X-Uboot-L2022.10-V1.0.0/GEN_FIP/myir-st-optee/ldelf/ta_elf.c:1413
    29ac:	a90153f3 	stp	x19, x20, [sp, #16]
    29b0:	aa0403f4 	mov	x20, x4
    29b4:	a9025bf5 	stp	x21, x22, [sp, #32]
    29b8:	aa0003f5 	mov	x21, x0
    29bc:	aa0103f6 	mov	x22, x1
/media/home/beste/01_Pro/ld25x/bsp_hu/MYD-LD25X-Uboot-L2022.10-V1.0.0/GEN_FIP/myir-st-optee/ldelf/ta_elf.c:1425
    29c0:	aa1703e0 	mov	x0, x23
    29c4:	aa1c03e1 	mov	x1, x28
/media/home/beste/01_Pro/ld25x/bsp_hu/MYD-LD25X-Uboot-L2022.10-V1.0.0/GEN_FIP/myir-st-optee/ldelf/ta_elf.c:1413
    29c8:	f90033e5 	str	x5, [sp, #96]
/media/home/beste/01_Pro/ld25x/bsp_hu/MYD-LD25X-Uboot-L2022.10-V1.0.0/GEN_FIP/myir-st-optee/ldelf/ta_elf.c:1417
    29cc:	d2800019 	mov	x25, #0x0                   	// #0
/media/home/beste/01_Pro/ld25x/bsp_hu/MYD-LD25X-Uboot-L2022.10-V1.0.0/GEN_FIP/myir-st-optee/ldelf/ta_elf.c:1415
    29d0:	a908ffff 	stp	xzr, xzr, [sp, #136]
/media/home/beste/01_Pro/ld25x/bsp_hu/MYD-LD25X-Uboot-L2022.10-V1.0.0/GEN_FIP/myir-st-optee/ldelf/ta_elf.c:1416
    29d4:	f9004fff 	str	xzr, [sp, #152]
/media/home/beste/01_Pro/ld25x/bsp_hu/MYD-LD25X-Uboot-L2022.10-V1.0.0/GEN_FIP/myir-st-optee/ldelf/ta_elf.c:1425
    29d8:	97fffbcc 	bl	1908 <get_next_in_order>
/media/home/beste/01_Pro/ld25x/bsp_hu/MYD-LD25X-Uboot-L2022.10-V1.0.0/GEN_FIP/myir-st-optee/ldelf/ta_elf.c:1418
    29dc:	d280000a 	mov	x10, #0x0                   	// #0
/media/home/beste/01_Pro/ld25x/bsp_hu/MYD-LD25X-Uboot-L2022.10-V1.0.0/GEN_FIP/myir-st-optee/ldelf/ta_elf.c:1432
    29e0:	f94047eb 	ldr	x11, [sp, #136]
    29e4:	b4000c2b 	cbz	x11, 2b68 <ta_elf_print_mappings+0x1ec>
/media/home/beste/01_Pro/ld25x/bsp_hu/MYD-LD25X-Uboot-L2022.10-V1.0.0/GEN_FIP/myir-st-optee/ldelf/ta_elf.c:1433
    29e8:	f9404be1 	ldr	x1, [sp, #144]
    29ec:	f9400560 	ldr	x0, [x11, #8]
/media/home/beste/01_Pro/ld25x/bsp_hu/MYD-LD25X-Uboot-L2022.10-V1.0.0/GEN_FIP/myir-st-optee/ldelf/ta_elf.c:1434
    29f0:	f9400d73 	ldr	x19, [x11, #24]
/media/home/beste/01_Pro/ld25x/bsp_hu/MYD-LD25X-Uboot-L2022.10-V1.0.0/GEN_FIP/myir-st-optee/ldelf/ta_elf.c:1433
    29f4:	f9400428 	ldr	x8, [x1, #8]
/media/home/beste/01_Pro/ld25x/bsp_hu/MYD-LD25X-Uboot-L2022.10-V1.0.0/GEN_FIP/myir-st-optee/ldelf/ta_elf.c:1434
    29f8:	8b130013 	add	x19, x0, x19
roundup():
/media/home/beste/01_Pro/ld25x/bsp_hu/MYD-LD25X-Uboot-L2022.10-V1.0.0/GEN_FIP/myir-st-optee/ldelf/ta_elf.c:492
    29fc:	913ffe73 	add	x19, x19, #0xfff
ta_elf_print_mappings():
/media/home/beste/01_Pro/ld25x/bsp_hu/MYD-LD25X-Uboot-L2022.10-V1.0.0/GEN_FIP/myir-st-optee/ldelf/ta_elf.c:1433
    2a00:	8b080008 	add	x8, x0, x8
roundup():
/media/home/beste/01_Pro/ld25x/bsp_hu/MYD-LD25X-Uboot-L2022.10-V1.0.0/GEN_FIP/myir-st-optee/ldelf/ta_elf.c:492
    2a04:	9274ce73 	and	x19, x19, #0xfffffffffffff000
rounddown():
/media/home/beste/01_Pro/ld25x/bsp_hu/MYD-LD25X-Uboot-L2022.10-V1.0.0/GEN_FIP/myir-st-optee/ldelf/ta_elf.c:497
    2a08:	9274cc00 	and	x0, x0, #0xfffffffffffff000
    2a0c:	9274cd08 	and	x8, x8, #0xfffffffffffff000
ta_elf_print_mappings():
/media/home/beste/01_Pro/ld25x/bsp_hu/MYD-LD25X-Uboot-L2022.10-V1.0.0/GEN_FIP/myir-st-optee/ldelf/ta_elf.c:1434
    2a10:	cb000273 	sub	x19, x19, x0
/media/home/beste/01_Pro/ld25x/bsp_hu/MYD-LD25X-Uboot-L2022.10-V1.0.0/GEN_FIP/myir-st-optee/ldelf/ta_elf.c:1438
    2a14:	eb18015f 	cmp	x10, x24
    2a18:	540000c2 	b.cs	2a30 <ta_elf_print_mappings+0xb4>  // b.hs, b.nlast
/media/home/beste/01_Pro/ld25x/bsp_hu/MYD-LD25X-Uboot-L2022.10-V1.0.0/GEN_FIP/myir-st-optee/ldelf/ta_elf.c:1438 (discriminator 1)
    2a1c:	d37be940 	lsl	x0, x10, #5
    2a20:	8b0a1681 	add	x1, x20, x10, lsl #5
    2a24:	f8606a84 	ldr	x4, [x20, x0]
    2a28:	eb08009f 	cmp	x4, x8
    2a2c:	540003c9 	b.ls	2aa4 <ta_elf_print_mappings+0x128>  // b.plast
/media/home/beste/01_Pro/ld25x/bsp_hu/MYD-LD25X-Uboot-L2022.10-V1.0.0/GEN_FIP/myir-st-optee/ldelf/ta_elf.c:1478
    2a30:	b4000a2b 	cbz	x11, 2b74 <ta_elf_print_mappings+0x1f8>
/media/home/beste/01_Pro/ld25x/bsp_hu/MYD-LD25X-Uboot-L2022.10-V1.0.0/GEN_FIP/myir-st-optee/ldelf/ta_elf.c:1482
    2a34:	f9401160 	ldr	x0, [x11, #32]
rounddown():
/media/home/beste/01_Pro/ld25x/bsp_hu/MYD-LD25X-Uboot-L2022.10-V1.0.0/GEN_FIP/myir-st-optee/ldelf/ta_elf.c:497
    2a38:	f9400165 	ldr	x5, [x11]
ta_elf_print_mappings():
/media/home/beste/01_Pro/ld25x/bsp_hu/MYD-LD25X-Uboot-L2022.10-V1.0.0/GEN_FIP/myir-st-optee/ldelf/ta_elf.c:1483
    2a3c:	53020807 	ubfx	w7, w0, #2, #1
rounddown():
/media/home/beste/01_Pro/ld25x/bsp_hu/MYD-LD25X-Uboot-L2022.10-V1.0.0/GEN_FIP/myir-st-optee/ldelf/ta_elf.c:497
    2a40:	9274cca5 	and	x5, x5, #0xfffffffffffff000
ta_elf_print_mappings():
/media/home/beste/01_Pro/ld25x/bsp_hu/MYD-LD25X-Uboot-L2022.10-V1.0.0/GEN_FIP/myir-st-optee/ldelf/ta_elf.c:1483
    2a44:	110020e7 	add	w7, w7, #0x8
/media/home/beste/01_Pro/ld25x/bsp_hu/MYD-LD25X-Uboot-L2022.10-V1.0.0/GEN_FIP/myir-st-optee/ldelf/ta_elf.c:1484
    2a48:	36080040 	tbz	w0, #1, 2a50 <ta_elf_print_mappings+0xd4>
/media/home/beste/01_Pro/ld25x/bsp_hu/MYD-LD25X-Uboot-L2022.10-V1.0.0/GEN_FIP/myir-st-optee/ldelf/ta_elf.c:1485
    2a4c:	321f00e7 	orr	w7, w7, #0x2
/media/home/beste/01_Pro/ld25x/bsp_hu/MYD-LD25X-Uboot-L2022.10-V1.0.0/GEN_FIP/myir-st-optee/ldelf/ta_elf.c:1486
    2a50:	36000040 	tbz	w0, #0, 2a58 <ta_elf_print_mappings+0xdc>
/media/home/beste/01_Pro/ld25x/bsp_hu/MYD-LD25X-Uboot-L2022.10-V1.0.0/GEN_FIP/myir-st-optee/ldelf/ta_elf.c:1487
    2a54:	321e00e7 	orr	w7, w7, #0x4
/media/home/beste/01_Pro/ld25x/bsp_hu/MYD-LD25X-Uboot-L2022.10-V1.0.0/GEN_FIP/myir-st-optee/ldelf/ta_elf.c:1489
    2a58:	b9409be3 	ldr	w3, [sp, #152]
    2a5c:	aa1303e6 	mov	x6, x19
    2a60:	aa0803e4 	mov	x4, x8
    2a64:	aa1903e2 	mov	x2, x25
    2a68:	aa1603e1 	mov	x1, x22
    2a6c:	aa1503e0 	mov	x0, x21
    2a70:	f90037ea 	str	x10, [sp, #104]
/media/home/beste/01_Pro/ld25x/bsp_hu/MYD-LD25X-Uboot-L2022.10-V1.0.0/GEN_FIP/myir-st-optee/ldelf/ta_elf.c:1490
    2a74:	91000739 	add	x25, x25, #0x1
/media/home/beste/01_Pro/ld25x/bsp_hu/MYD-LD25X-Uboot-L2022.10-V1.0.0/GEN_FIP/myir-st-optee/ldelf/ta_elf.c:1489
    2a78:	97fff8b6 	bl	d50 <print_seg>
/media/home/beste/01_Pro/ld25x/bsp_hu/MYD-LD25X-Uboot-L2022.10-V1.0.0/GEN_FIP/myir-st-optee/ldelf/ta_elf.c:1492
    2a7c:	aa1a03e3 	mov	x3, x26
    2a80:	aa1b03e2 	mov	x2, x27
    2a84:	aa1c03e1 	mov	x1, x28
    2a88:	aa1703e0 	mov	x0, x23
    2a8c:	97fffb9f 	bl	1908 <get_next_in_order>
    2a90:	72001c1f 	tst	w0, #0xff
    2a94:	f94037ea 	ldr	x10, [sp, #104]
    2a98:	54fffa41 	b.ne	29e0 <ta_elf_print_mappings+0x64>  // b.any
/media/home/beste/01_Pro/ld25x/bsp_hu/MYD-LD25X-Uboot-L2022.10-V1.0.0/GEN_FIP/myir-st-optee/ldelf/ta_elf.c:1493
    2a9c:	f90047ff 	str	xzr, [sp, #136]
    2aa0:	17ffffd0 	b	29e0 <ta_elf_print_mappings+0x64>
/media/home/beste/01_Pro/ld25x/bsp_hu/MYD-LD25X-Uboot-L2022.10-V1.0.0/GEN_FIP/myir-st-optee/ldelf/ta_elf.c:1450
    2aa4:	f9400826 	ldr	x6, [x1, #16]
/media/home/beste/01_Pro/ld25x/bsp_hu/MYD-LD25X-Uboot-L2022.10-V1.0.0/GEN_FIP/myir-st-optee/ldelf/ta_elf.c:1449
    2aa8:	9100054c 	add	x12, x10, #0x1
/media/home/beste/01_Pro/ld25x/bsp_hu/MYD-LD25X-Uboot-L2022.10-V1.0.0/GEN_FIP/myir-st-optee/ldelf/ta_elf.c:1442
    2aac:	540003c1 	b.ne	2b24 <ta_elf_print_mappings+0x1a8>  // b.any
/media/home/beste/01_Pro/ld25x/bsp_hu/MYD-LD25X-Uboot-L2022.10-V1.0.0/GEN_FIP/myir-st-optee/ldelf/ta_elf.c:1449
    2ab0:	eb18019f 	cmp	x12, x24
    2ab4:	54000282 	b.cs	2b04 <ta_elf_print_mappings+0x188>  // b.hs, b.nlast
/media/home/beste/01_Pro/ld25x/bsp_hu/MYD-LD25X-Uboot-L2022.10-V1.0.0/GEN_FIP/myir-st-optee/ldelf/ta_elf.c:1449 (discriminator 1)
    2ab8:	f14004df 	cmp	x6, #0x1, lsl #12
    2abc:	54000241 	b.ne	2b04 <ta_elf_print_mappings+0x188>  // b.any
/media/home/beste/01_Pro/ld25x/bsp_hu/MYD-LD25X-Uboot-L2022.10-V1.0.0/GEN_FIP/myir-st-optee/ldelf/ta_elf.c:1454
    2ac0:	91008000 	add	x0, x0, #0x20
/media/home/beste/01_Pro/ld25x/bsp_hu/MYD-LD25X-Uboot-L2022.10-V1.0.0/GEN_FIP/myir-st-optee/ldelf/ta_elf.c:1451
    2ac4:	91400502 	add	x2, x8, #0x1, lsl #12
/media/home/beste/01_Pro/ld25x/bsp_hu/MYD-LD25X-Uboot-L2022.10-V1.0.0/GEN_FIP/myir-st-optee/ldelf/ta_elf.c:1454
    2ac8:	8b000283 	add	x3, x20, x0
/media/home/beste/01_Pro/ld25x/bsp_hu/MYD-LD25X-Uboot-L2022.10-V1.0.0/GEN_FIP/myir-st-optee/ldelf/ta_elf.c:1456
    2acc:	f8606a84 	ldr	x4, [x20, x0]
    2ad0:	eb02009f 	cmp	x4, x2
    2ad4:	54000181 	b.ne	2b04 <ta_elf_print_mappings+0x188>  // b.any
/media/home/beste/01_Pro/ld25x/bsp_hu/MYD-LD25X-Uboot-L2022.10-V1.0.0/GEN_FIP/myir-st-optee/ldelf/ta_elf.c:1453 (discriminator 1)
    2ad8:	f9400860 	ldr	x0, [x3, #16]
    2adc:	91400400 	add	x0, x0, #0x1, lsl #12
/media/home/beste/01_Pro/ld25x/bsp_hu/MYD-LD25X-Uboot-L2022.10-V1.0.0/GEN_FIP/myir-st-optee/ldelf/ta_elf.c:1456 (discriminator 1)
    2ae0:	eb13001f 	cmp	x0, x19
    2ae4:	54000101 	b.ne	2b04 <ta_elf_print_mappings+0x188>  // b.any
/media/home/beste/01_Pro/ld25x/bsp_hu/MYD-LD25X-Uboot-L2022.10-V1.0.0/GEN_FIP/myir-st-optee/ldelf/ta_elf.c:1457
    2ae8:	b9401821 	ldr	w1, [x1, #24]
    2aec:	b9401860 	ldr	w0, [x3, #24]
    2af0:	6b00003f 	cmp	w1, w0
    2af4:	54000081 	b.ne	2b04 <ta_elf_print_mappings+0x188>  // b.any
/media/home/beste/01_Pro/ld25x/bsp_hu/MYD-LD25X-Uboot-L2022.10-V1.0.0/GEN_FIP/myir-st-optee/ldelf/ta_elf.c:1461 (discriminator 1)
    2af8:	9100094c 	add	x12, x10, #0x2
/media/home/beste/01_Pro/ld25x/bsp_hu/MYD-LD25X-Uboot-L2022.10-V1.0.0/GEN_FIP/myir-st-optee/ldelf/ta_elf.c:1427
    2afc:	aa0c03ea 	mov	x10, x12
    2b00:	17ffffc5 	b	2a14 <ta_elf_print_mappings+0x98>
/media/home/beste/01_Pro/ld25x/bsp_hu/MYD-LD25X-Uboot-L2022.10-V1.0.0/GEN_FIP/myir-st-optee/ldelf/ta_elf.c:1465
    2b04:	eb06027f 	cmp	x19, x6
    2b08:	54ffffa0 	b.eq	2afc <ta_elf_print_mappings+0x180>  // b.none
/media/home/beste/01_Pro/ld25x/bsp_hu/MYD-LD25X-Uboot-L2022.10-V1.0.0/GEN_FIP/myir-st-optee/ldelf/ta_elf.c:1465 (discriminator 1)
    2b0c:	b0000022 	adrp	x2, 7000 <trace_ext_prefix+0x6bc>
    2b10:	90000020 	adrp	x0, 6000 <kprintf.constprop.0+0x68c>
    2b14:	9104c842 	add	x2, x2, #0x132
    2b18:	913f5c00 	add	x0, x0, #0xfd7
    2b1c:	5280b721 	mov	w1, #0x5b9                 	// #1465
    2b20:	97fff884 	bl	d30 <_assert_trap.constprop.0>
/media/home/beste/01_Pro/ld25x/bsp_hu/MYD-LD25X-Uboot-L2022.10-V1.0.0/GEN_FIP/myir-st-optee/ldelf/ta_elf.c:1467
    2b24:	f94033e0 	ldr	x0, [sp, #96]
/media/home/beste/01_Pro/ld25x/bsp_hu/MYD-LD25X-Uboot-L2022.10-V1.0.0/GEN_FIP/myir-st-optee/ldelf/ta_elf.c:1469
    2b28:	aa1903e2 	mov	x2, x25
    2b2c:	f9400425 	ldr	x5, [x1, #8]
/media/home/beste/01_Pro/ld25x/bsp_hu/MYD-LD25X-Uboot-L2022.10-V1.0.0/GEN_FIP/myir-st-optee/ldelf/ta_elf.c:1467
    2b30:	eb00009f 	cmp	x4, x0
/media/home/beste/01_Pro/ld25x/bsp_hu/MYD-LD25X-Uboot-L2022.10-V1.0.0/GEN_FIP/myir-st-optee/ldelf/ta_elf.c:1469
    2b34:	b9401820 	ldr	w0, [x1, #24]
/media/home/beste/01_Pro/ld25x/bsp_hu/MYD-LD25X-Uboot-L2022.10-V1.0.0/GEN_FIP/myir-st-optee/ldelf/ta_elf.c:1467
    2b38:	1a9f17e7 	cset	w7, eq	// eq = none
/media/home/beste/01_Pro/ld25x/bsp_hu/MYD-LD25X-Uboot-L2022.10-V1.0.0/GEN_FIP/myir-st-optee/ldelf/ta_elf.c:1469
    2b3c:	aa1603e1 	mov	x1, x22
    2b40:	12800003 	mov	w3, #0xffffffff            	// #-1
    2b44:	a906b3eb 	stp	x11, x12, [sp, #104]
/media/home/beste/01_Pro/ld25x/bsp_hu/MYD-LD25X-Uboot-L2022.10-V1.0.0/GEN_FIP/myir-st-optee/ldelf/ta_elf.c:1473
    2b48:	91000739 	add	x25, x25, #0x1
/media/home/beste/01_Pro/ld25x/bsp_hu/MYD-LD25X-Uboot-L2022.10-V1.0.0/GEN_FIP/myir-st-optee/ldelf/ta_elf.c:1469
    2b4c:	2a071c07 	orr	w7, w0, w7, lsl #7
    2b50:	aa1503e0 	mov	x0, x21
    2b54:	f9003fe8 	str	x8, [sp, #120]
    2b58:	97fff87e 	bl	d50 <print_seg>
/media/home/beste/01_Pro/ld25x/bsp_hu/MYD-LD25X-Uboot-L2022.10-V1.0.0/GEN_FIP/myir-st-optee/ldelf/ta_elf.c:1475
    2b5c:	a946b3eb 	ldp	x11, x12, [sp, #104]
    2b60:	f9403fe8 	ldr	x8, [sp, #120]
    2b64:	17ffffe6 	b	2afc <ta_elf_print_mappings+0x180>
/media/home/beste/01_Pro/ld25x/bsp_hu/MYD-LD25X-Uboot-L2022.10-V1.0.0/GEN_FIP/myir-st-optee/ldelf/ta_elf.c:1428
    2b68:	d2800013 	mov	x19, #0x0                   	// #0
/media/home/beste/01_Pro/ld25x/bsp_hu/MYD-LD25X-Uboot-L2022.10-V1.0.0/GEN_FIP/myir-st-optee/ldelf/ta_elf.c:1427
    2b6c:	92800008 	mov	x8, #0xffffffffffffffff    	// #-1
    2b70:	17ffffa9 	b	2a14 <ta_elf_print_mappings+0x98>
/media/home/beste/01_Pro/ld25x/bsp_hu/MYD-LD25X-Uboot-L2022.10-V1.0.0/GEN_FIP/myir-st-optee/ldelf/ta_elf.c:1497
    2b74:	f94002f3 	ldr	x19, [x23]
/media/home/beste/01_Pro/ld25x/bsp_hu/MYD-LD25X-Uboot-L2022.10-V1.0.0/GEN_FIP/myir-st-optee/ldelf/ta_elf.c:1498
    2b78:	90000037 	adrp	x23, 6000 <kprintf.constprop.0+0x68c>
    2b7c:	913fbaf7 	add	x23, x23, #0xfee
/media/home/beste/01_Pro/ld25x/bsp_hu/MYD-LD25X-Uboot-L2022.10-V1.0.0/GEN_FIP/myir-st-optee/ldelf/ta_elf.c:1496
    2b80:	f9004fff 	str	xzr, [sp, #152]
/media/home/beste/01_Pro/ld25x/bsp_hu/MYD-LD25X-Uboot-L2022.10-V1.0.0/GEN_FIP/myir-st-optee/ldelf/ta_elf.c:1497 (discriminator 1)
    2b84:	f9004bf3 	str	x19, [sp, #144]
    2b88:	b5000113 	cbnz	x19, 2ba8 <ta_elf_print_mappings+0x22c>
/media/home/beste/01_Pro/ld25x/bsp_hu/MYD-LD25X-Uboot-L2022.10-V1.0.0/GEN_FIP/myir-st-optee/ldelf/ta_elf.c:1503
    2b8c:	a94153f3 	ldp	x19, x20, [sp, #16]
    2b90:	a9425bf5 	ldp	x21, x22, [sp, #32]
    2b94:	a94363f7 	ldp	x23, x24, [sp, #48]
    2b98:	a9446bf9 	ldp	x25, x26, [sp, #64]
    2b9c:	a94573fb 	ldp	x27, x28, [sp, #80]
    2ba0:	a8ca7bfd 	ldp	x29, x30, [sp], #160
    2ba4:	d65f03c0 	ret
/media/home/beste/01_Pro/ld25x/bsp_hu/MYD-LD25X-Uboot-L2022.10-V1.0.0/GEN_FIP/myir-st-optee/ldelf/ta_elf.c:1498 (discriminator 3)
    2ba8:	f9400666 	ldr	x6, [x19, #8]
    2bac:	91044264 	add	x4, x19, #0x110
    2bb0:	f9404ff4 	ldr	x20, [sp, #152]
    2bb4:	aa1703e2 	mov	x2, x23
    2bb8:	aa1603e1 	mov	x1, x22
    2bbc:	aa1503e0 	mov	x0, x21
    2bc0:	aa1403e3 	mov	x3, x20
    2bc4:	52800105 	mov	w5, #0x8                   	// #8
/media/home/beste/01_Pro/ld25x/bsp_hu/MYD-LD25X-Uboot-L2022.10-V1.0.0/GEN_FIP/myir-st-optee/ldelf/ta_elf.c:1501 (discriminator 3)
    2bc8:	91000694 	add	x20, x20, #0x1
/media/home/beste/01_Pro/ld25x/bsp_hu/MYD-LD25X-Uboot-L2022.10-V1.0.0/GEN_FIP/myir-st-optee/ldelf/ta_elf.c:1498 (discriminator 3)
    2bcc:	97fff827 	bl	c68 <print_wrapper>
/media/home/beste/01_Pro/ld25x/bsp_hu/MYD-LD25X-Uboot-L2022.10-V1.0.0/GEN_FIP/myir-st-optee/ldelf/ta_elf.c:1497 (discriminator 3)
    2bd0:	f9409273 	ldr	x19, [x19, #288]
/media/home/beste/01_Pro/ld25x/bsp_hu/MYD-LD25X-Uboot-L2022.10-V1.0.0/GEN_FIP/myir-st-optee/ldelf/ta_elf.c:1501 (discriminator 3)
    2bd4:	f9004ff4 	str	x20, [sp, #152]
/media/home/beste/01_Pro/ld25x/bsp_hu/MYD-LD25X-Uboot-L2022.10-V1.0.0/GEN_FIP/myir-st-optee/ldelf/ta_elf.c:1497 (discriminator 3)
    2bd8:	17ffffeb 	b	2b84 <ta_elf_print_mappings+0x208>

0000000000002bdc <find_exidx>:
find_exidx():
/media/home/beste/01_Pro/ld25x/bsp_hu/MYD-LD25X-Uboot-L2022.10-V1.0.0/GEN_FIP/myir-st-optee/ldelf/ta_elf.c:1513
    2bdc:	d0000023 	adrp	x3, 8000 <_DYNAMIC>
    2be0:	f940b063 	ldr	x3, [x3, #352]
/media/home/beste/01_Pro/ld25x/bsp_hu/MYD-LD25X-Uboot-L2022.10-V1.0.0/GEN_FIP/myir-st-optee/ldelf/ta_elf.c:1513 (discriminator 1)
    2be4:	b5000063 	cbnz	x3, 2bf0 <find_exidx+0x14>
/media/home/beste/01_Pro/ld25x/bsp_hu/MYD-LD25X-Uboot-L2022.10-V1.0.0/GEN_FIP/myir-st-optee/ldelf/ta_elf.c:1529
    2be8:	52800000 	mov	w0, #0x0                   	// #0
    2bec:	1400001a 	b	2c54 <find_exidx+0x78>
/media/home/beste/01_Pro/ld25x/bsp_hu/MYD-LD25X-Uboot-L2022.10-V1.0.0/GEN_FIP/myir-st-optee/ldelf/ta_elf.c:1514
    2bf0:	f9400466 	ldr	x6, [x3, #8]
    2bf4:	eb0000df 	cmp	x6, x0
    2bf8:	54000088 	b.hi	2c08 <find_exidx+0x2c>  // b.pmore
/media/home/beste/01_Pro/ld25x/bsp_hu/MYD-LD25X-Uboot-L2022.10-V1.0.0/GEN_FIP/myir-st-optee/ldelf/ta_elf.c:1517
    2bfc:	f9405064 	ldr	x4, [x3, #160]
/media/home/beste/01_Pro/ld25x/bsp_hu/MYD-LD25X-Uboot-L2022.10-V1.0.0/GEN_FIP/myir-st-optee/ldelf/ta_elf.c:1516
    2c00:	cb060007 	sub	x7, x0, x6
/media/home/beste/01_Pro/ld25x/bsp_hu/MYD-LD25X-Uboot-L2022.10-V1.0.0/GEN_FIP/myir-st-optee/ldelf/ta_elf.c:1517 (discriminator 1)
    2c04:	b5000064 	cbnz	x4, 2c10 <find_exidx+0x34>
/media/home/beste/01_Pro/ld25x/bsp_hu/MYD-LD25X-Uboot-L2022.10-V1.0.0/GEN_FIP/myir-st-optee/ldelf/ta_elf.c:1513 (discriminator 2)
    2c08:	f9409063 	ldr	x3, [x3, #288]
    2c0c:	17fffff6 	b	2be4 <find_exidx+0x8>
/media/home/beste/01_Pro/ld25x/bsp_hu/MYD-LD25X-Uboot-L2022.10-V1.0.0/GEN_FIP/myir-st-optee/ldelf/ta_elf.c:1518
    2c10:	f9400485 	ldr	x5, [x4, #8]
    2c14:	eb0700bf 	cmp	x5, x7
    2c18:	54000208 	b.hi	2c58 <find_exidx+0x7c>  // b.pmore
/media/home/beste/01_Pro/ld25x/bsp_hu/MYD-LD25X-Uboot-L2022.10-V1.0.0/GEN_FIP/myir-st-optee/ldelf/ta_elf.c:1520
    2c1c:	f9400888 	ldr	x8, [x4, #16]
    2c20:	cb0500e5 	sub	x5, x7, x5
    2c24:	eb0800bf 	cmp	x5, x8
    2c28:	54000182 	b.cs	2c58 <find_exidx+0x7c>  // b.hs, b.nlast
/media/home/beste/01_Pro/ld25x/bsp_hu/MYD-LD25X-Uboot-L2022.10-V1.0.0/GEN_FIP/myir-st-optee/ldelf/ta_elf.c:1521
    2c2c:	f9405860 	ldr	x0, [x3, #176]
    2c30:	8b060000 	add	x0, x0, x6
    2c34:	f9000020 	str	x0, [x1]
/media/home/beste/01_Pro/ld25x/bsp_hu/MYD-LD25X-Uboot-L2022.10-V1.0.0/GEN_FIP/myir-st-optee/ldelf/ta_elf.c:1522
    2c38:	f9400461 	ldr	x1, [x3, #8]
    2c3c:	f9405860 	ldr	x0, [x3, #176]
    2c40:	8b010000 	add	x0, x0, x1
    2c44:	f9405c61 	ldr	x1, [x3, #184]
    2c48:	8b010000 	add	x0, x0, x1
    2c4c:	f9000040 	str	x0, [x2]
/media/home/beste/01_Pro/ld25x/bsp_hu/MYD-LD25X-Uboot-L2022.10-V1.0.0/GEN_FIP/myir-st-optee/ldelf/ta_elf.c:1524
    2c50:	52800020 	mov	w0, #0x1                   	// #1
/media/home/beste/01_Pro/ld25x/bsp_hu/MYD-LD25X-Uboot-L2022.10-V1.0.0/GEN_FIP/myir-st-optee/ldelf/ta_elf.c:1530
    2c54:	d65f03c0 	ret
/media/home/beste/01_Pro/ld25x/bsp_hu/MYD-LD25X-Uboot-L2022.10-V1.0.0/GEN_FIP/myir-st-optee/ldelf/ta_elf.c:1517 (discriminator 2)
    2c58:	f9401c84 	ldr	x4, [x4, #56]
    2c5c:	17ffffea 	b	2c04 <find_exidx+0x28>

0000000000002c60 <ta_elf_stack_trace_a32>:
ta_elf_stack_trace_a32():
/media/home/beste/01_Pro/ld25x/bsp_hu/MYD-LD25X-Uboot-L2022.10-V1.0.0/GEN_FIP/myir-st-optee/ldelf/ta_elf.c:1533
    2c60:	a9b97bfd 	stp	x29, x30, [sp, #-112]!
/media/home/beste/01_Pro/ld25x/bsp_hu/MYD-LD25X-Uboot-L2022.10-V1.0.0/GEN_FIP/myir-st-optee/ldelf/ta_elf.c:1536
    2c64:	aa0003e1 	mov	x1, x0
    2c68:	d2800802 	mov	x2, #0x40                  	// #64
    2c6c:	910043e3 	add	x3, sp, #0x10
/media/home/beste/01_Pro/ld25x/bsp_hu/MYD-LD25X-Uboot-L2022.10-V1.0.0/GEN_FIP/myir-st-optee/ldelf/ta_elf.c:1533
    2c70:	910003fd 	mov	x29, sp
/media/home/beste/01_Pro/ld25x/bsp_hu/MYD-LD25X-Uboot-L2022.10-V1.0.0/GEN_FIP/myir-st-optee/ldelf/ta_elf.c:1536
    2c74:	aa0303e0 	mov	x0, x3
/media/home/beste/01_Pro/ld25x/bsp_hu/MYD-LD25X-Uboot-L2022.10-V1.0.0/GEN_FIP/myir-st-optee/ldelf/ta_elf.c:1534
    2c78:	a9057fff 	stp	xzr, xzr, [sp, #80]
    2c7c:	a9067fff 	stp	xzr, xzr, [sp, #96]
/media/home/beste/01_Pro/ld25x/bsp_hu/MYD-LD25X-Uboot-L2022.10-V1.0.0/GEN_FIP/myir-st-optee/ldelf/ta_elf.c:1536
    2c80:	97fff4fc 	bl	70 <memcpy>
    2c84:	aa0003e3 	mov	x3, x0
/media/home/beste/01_Pro/ld25x/bsp_hu/MYD-LD25X-Uboot-L2022.10-V1.0.0/GEN_FIP/myir-st-optee/ldelf/ta_elf.c:1537
    2c88:	d0000020 	adrp	x0, 8000 <_DYNAMIC>
    2c8c:	f9410002 	ldr	x2, [x0, #512]
    2c90:	d0000020 	adrp	x0, 8000 <_DYNAMIC>
    2c94:	f9410401 	ldr	x1, [x0, #520]
    2c98:	aa0303e0 	mov	x0, x3
    2c9c:	9400070d 	bl	48d0 <print_stack_arm32>
/media/home/beste/01_Pro/ld25x/bsp_hu/MYD-LD25X-Uboot-L2022.10-V1.0.0/GEN_FIP/myir-st-optee/ldelf/ta_elf.c:1538
    2ca0:	a8c77bfd 	ldp	x29, x30, [sp], #112
    2ca4:	d65f03c0 	ret

0000000000002ca8 <ta_elf_stack_trace_a64>:
ta_elf_stack_trace_a64():
/media/home/beste/01_Pro/ld25x/bsp_hu/MYD-LD25X-Uboot-L2022.10-V1.0.0/GEN_FIP/myir-st-optee/ldelf/ta_elf.c:1541
    2ca8:	a9bd7bfd 	stp	x29, x30, [sp, #-48]!
    2cac:	910003fd 	mov	x29, sp
/media/home/beste/01_Pro/ld25x/bsp_hu/MYD-LD25X-Uboot-L2022.10-V1.0.0/GEN_FIP/myir-st-optee/ldelf/ta_elf.c:1542
    2cb0:	a90187e0 	stp	x0, x1, [sp, #24]
/media/home/beste/01_Pro/ld25x/bsp_hu/MYD-LD25X-Uboot-L2022.10-V1.0.0/GEN_FIP/myir-st-optee/ldelf/ta_elf.c:1544
    2cb4:	d0000020 	adrp	x0, 8000 <_DYNAMIC>
/media/home/beste/01_Pro/ld25x/bsp_hu/MYD-LD25X-Uboot-L2022.10-V1.0.0/GEN_FIP/myir-st-optee/ldelf/ta_elf.c:1542
    2cb8:	f90017e2 	str	x2, [sp, #40]
/media/home/beste/01_Pro/ld25x/bsp_hu/MYD-LD25X-Uboot-L2022.10-V1.0.0/GEN_FIP/myir-st-optee/ldelf/ta_elf.c:1544
    2cbc:	f9410002 	ldr	x2, [x0, #512]
    2cc0:	d0000020 	adrp	x0, 8000 <_DYNAMIC>
    2cc4:	f9410401 	ldr	x1, [x0, #520]
    2cc8:	910063e0 	add	x0, sp, #0x18
    2ccc:	9400074b 	bl	49f8 <print_stack_arm64>
/media/home/beste/01_Pro/ld25x/bsp_hu/MYD-LD25X-Uboot-L2022.10-V1.0.0/GEN_FIP/myir-st-optee/ldelf/ta_elf.c:1545
    2cd0:	a8c37bfd 	ldp	x29, x30, [sp], #48
    2cd4:	d65f03c0 	ret

0000000000002cd8 <ta_elf_set_init_fini_info_compat>:
ta_elf_set_init_fini_info_compat():
/media/home/beste/01_Pro/ld25x/bsp_hu/MYD-LD25X-Uboot-L2022.10-V1.0.0/GEN_FIP/myir-st-optee/ldelf/ta_elf.c:1793
    2cd8:	a9b67bfd 	stp	x29, x30, [sp, #-160]!
/media/home/beste/01_Pro/ld25x/bsp_hu/MYD-LD25X-Uboot-L2022.10-V1.0.0/GEN_FIP/myir-st-optee/ldelf/ta_elf.c:1800
    2cdc:	d2800003 	mov	x3, #0x0                   	// #0
    2ce0:	d2800002 	mov	x2, #0x0                   	// #0
/media/home/beste/01_Pro/ld25x/bsp_hu/MYD-LD25X-Uboot-L2022.10-V1.0.0/GEN_FIP/myir-st-optee/ldelf/ta_elf.c:1793
    2ce4:	910003fd 	mov	x29, sp
/media/home/beste/01_Pro/ld25x/bsp_hu/MYD-LD25X-Uboot-L2022.10-V1.0.0/GEN_FIP/myir-st-optee/ldelf/ta_elf.c:1800
    2ce8:	9101e3e1 	add	x1, sp, #0x78
/media/home/beste/01_Pro/ld25x/bsp_hu/MYD-LD25X-Uboot-L2022.10-V1.0.0/GEN_FIP/myir-st-optee/ldelf/ta_elf.c:1793
    2cec:	a90153f3 	stp	x19, x20, [sp, #16]
    2cf0:	a9025bf5 	stp	x21, x22, [sp, #32]
    2cf4:	12001c16 	and	w22, w0, #0xff
/media/home/beste/01_Pro/ld25x/bsp_hu/MYD-LD25X-Uboot-L2022.10-V1.0.0/GEN_FIP/myir-st-optee/ldelf/ta_elf.c:1800
    2cf8:	b0000020 	adrp	x0, 7000 <trace_ext_prefix+0x6bc>
    2cfc:	91001400 	add	x0, x0, #0x5
/media/home/beste/01_Pro/ld25x/bsp_hu/MYD-LD25X-Uboot-L2022.10-V1.0.0/GEN_FIP/myir-st-optee/ldelf/ta_elf.c:1793
    2d00:	a90363f7 	stp	x23, x24, [sp, #48]
    2d04:	a9046bf9 	stp	x25, x26, [sp, #64]
    2d08:	a90573fb 	stp	x27, x28, [sp, #80]
/media/home/beste/01_Pro/ld25x/bsp_hu/MYD-LD25X-Uboot-L2022.10-V1.0.0/GEN_FIP/myir-st-optee/ldelf/ta_elf.c:1797
    2d0c:	f9003fff 	str	xzr, [sp, #120]
/media/home/beste/01_Pro/ld25x/bsp_hu/MYD-LD25X-Uboot-L2022.10-V1.0.0/GEN_FIP/myir-st-optee/ldelf/ta_elf.c:1800
    2d10:	940002e5 	bl	38a4 <ta_elf_resolve_sym>
/media/home/beste/01_Pro/ld25x/bsp_hu/MYD-LD25X-Uboot-L2022.10-V1.0.0/GEN_FIP/myir-st-optee/ldelf/ta_elf.c:1801
    2d14:	34000180 	cbz	w0, 2d44 <ta_elf_set_init_fini_info_compat+0x6c>
/media/home/beste/01_Pro/ld25x/bsp_hu/MYD-LD25X-Uboot-L2022.10-V1.0.0/GEN_FIP/myir-st-optee/ldelf/ta_elf.c:1802
    2d18:	129ffee1 	mov	w1, #0xffff0008            	// #-65528
    2d1c:	6b01001f 	cmp	w0, w1
    2d20:	54000041 	b.ne	2d28 <ta_elf_set_init_fini_info_compat+0x50>  // b.any
/media/home/beste/01_Pro/ld25x/bsp_hu/MYD-LD25X-Uboot-L2022.10-V1.0.0/GEN_FIP/myir-st-optee/ldelf/ta_elf.c:1807
    2d24:	52800000 	mov	w0, #0x0                   	// #0
/media/home/beste/01_Pro/ld25x/bsp_hu/MYD-LD25X-Uboot-L2022.10-V1.0.0/GEN_FIP/myir-st-optee/ldelf/ta_elf.c:1837
    2d28:	a94153f3 	ldp	x19, x20, [sp, #16]
    2d2c:	a9425bf5 	ldp	x21, x22, [sp, #32]
    2d30:	a94363f7 	ldp	x23, x24, [sp, #48]
    2d34:	a9446bf9 	ldp	x25, x26, [sp, #64]
    2d38:	a94573fb 	ldp	x27, x28, [sp, #80]
    2d3c:	a8ca7bfd 	ldp	x29, x30, [sp], #160
    2d40:	d65f03c0 	ret
/media/home/beste/01_Pro/ld25x/bsp_hu/MYD-LD25X-Uboot-L2022.10-V1.0.0/GEN_FIP/myir-st-optee/ldelf/ta_elf.c:1811
    2d44:	f9403ff3 	ldr	x19, [sp, #120]
    2d48:	b50000f3 	cbnz	x19, 2d64 <ta_elf_set_init_fini_info_compat+0x8c>
/media/home/beste/01_Pro/ld25x/bsp_hu/MYD-LD25X-Uboot-L2022.10-V1.0.0/GEN_FIP/myir-st-optee/ldelf/ta_elf.c:1811 (discriminator 1)
    2d4c:	b0000022 	adrp	x2, 7000 <trace_ext_prefix+0x6bc>
    2d50:	b0000020 	adrp	x0, 7000 <trace_ext_prefix+0x6bc>
    2d54:	9103fc42 	add	x2, x2, #0xff
    2d58:	91005800 	add	x0, x0, #0x16
    2d5c:	5280e261 	mov	w1, #0x713                 	// #1811
/media/home/beste/01_Pro/ld25x/bsp_hu/MYD-LD25X-Uboot-L2022.10-V1.0.0/GEN_FIP/myir-st-optee/ldelf/ta_elf.c:1821 (discriminator 1)
    2d60:	97fff7f4 	bl	d30 <_assert_trap.constprop.0>
/media/home/beste/01_Pro/ld25x/bsp_hu/MYD-LD25X-Uboot-L2022.10-V1.0.0/GEN_FIP/myir-st-optee/ldelf/ta_elf.c:1814
    2d64:	b9400260 	ldr	w0, [x19]
    2d68:	350010a0 	cbnz	w0, 2f7c <ta_elf_set_init_fini_info_compat+0x2a4>
/media/home/beste/01_Pro/ld25x/bsp_hu/MYD-LD25X-Uboot-L2022.10-V1.0.0/GEN_FIP/myir-st-optee/ldelf/ta_elf.c:1817
    2d6c:	d0000037 	adrp	x23, 8000 <_DYNAMIC>
/media/home/beste/01_Pro/ld25x/bsp_hu/MYD-LD25X-Uboot-L2022.10-V1.0.0/GEN_FIP/myir-st-optee/ldelf/ta_elf.c:1798
    2d70:	d2800014 	mov	x20, #0x0                   	// #0
/media/home/beste/01_Pro/ld25x/bsp_hu/MYD-LD25X-Uboot-L2022.10-V1.0.0/GEN_FIP/myir-st-optee/ldelf/ta_elf.c:1817
    2d74:	f940b2e0 	ldr	x0, [x23, #352]
/media/home/beste/01_Pro/ld25x/bsp_hu/MYD-LD25X-Uboot-L2022.10-V1.0.0/GEN_FIP/myir-st-optee/ldelf/ta_elf.c:1817 (discriminator 1)
    2d78:	b5000100 	cbnz	x0, 2d98 <ta_elf_set_init_fini_info_compat+0xc0>
/media/home/beste/01_Pro/ld25x/bsp_hu/MYD-LD25X-Uboot-L2022.10-V1.0.0/GEN_FIP/myir-st-optee/ldelf/ta_elf.c:1821
    2d7c:	b5000154 	cbnz	x20, 2da4 <ta_elf_set_init_fini_info_compat+0xcc>
/media/home/beste/01_Pro/ld25x/bsp_hu/MYD-LD25X-Uboot-L2022.10-V1.0.0/GEN_FIP/myir-st-optee/ldelf/ta_elf.c:1821 (discriminator 1)
    2d80:	b0000022 	adrp	x2, 7000 <trace_ext_prefix+0x6bc>
    2d84:	b0000020 	adrp	x0, 7000 <trace_ext_prefix+0x6bc>
    2d88:	9103fc42 	add	x2, x2, #0xff
    2d8c:	91007800 	add	x0, x0, #0x1e
    2d90:	5280e3a1 	mov	w1, #0x71d                 	// #1821
    2d94:	17fffff3 	b	2d60 <ta_elf_set_init_fini_info_compat+0x88>
/media/home/beste/01_Pro/ld25x/bsp_hu/MYD-LD25X-Uboot-L2022.10-V1.0.0/GEN_FIP/myir-st-optee/ldelf/ta_elf.c:1817 (discriminator 3)
    2d98:	f9409000 	ldr	x0, [x0, #288]
/media/home/beste/01_Pro/ld25x/bsp_hu/MYD-LD25X-Uboot-L2022.10-V1.0.0/GEN_FIP/myir-st-optee/ldelf/ta_elf.c:1818 (discriminator 3)
    2d9c:	91000694 	add	x20, x20, #0x1
/media/home/beste/01_Pro/ld25x/bsp_hu/MYD-LD25X-Uboot-L2022.10-V1.0.0/GEN_FIP/myir-st-optee/ldelf/ta_elf.c:1817 (discriminator 3)
    2da0:	17fffff6 	b	2d78 <ta_elf_set_init_fini_info_compat+0xa0>
realloc_ifs():
/media/home/beste/01_Pro/ld25x/bsp_hu/MYD-LD25X-Uboot-L2022.10-V1.0.0/GEN_FIP/myir-st-optee/ldelf/ta_elf.c:1712
    2da4:	340004b6 	cbz	w22, 2e38 <ta_elf_set_init_fini_info_compat+0x160>
/media/home/beste/01_Pro/ld25x/bsp_hu/MYD-LD25X-Uboot-L2022.10-V1.0.0/GEN_FIP/myir-st-optee/ldelf/ta_elf.c:1714
    2da8:	b9400a60 	ldr	w0, [x19, #8]
    2dac:	d37cee81 	lsl	x1, x20, #4
    2db0:	94000a43 	bl	56bc <realloc>
    2db4:	aa0003f5 	mov	x21, x0
/media/home/beste/01_Pro/ld25x/bsp_hu/MYD-LD25X-Uboot-L2022.10-V1.0.0/GEN_FIP/myir-st-optee/ldelf/ta_elf.c:1715
    2db8:	b4000640 	cbz	x0, 2e80 <ta_elf_set_init_fini_info_compat+0x1a8>
/media/home/beste/01_Pro/ld25x/bsp_hu/MYD-LD25X-Uboot-L2022.10-V1.0.0/GEN_FIP/myir-st-optee/ldelf/ta_elf.c:1718
    2dbc:	79400a60 	ldrh	w0, [x19, #4]
/media/home/beste/01_Pro/ld25x/bsp_hu/MYD-LD25X-Uboot-L2022.10-V1.0.0/GEN_FIP/myir-st-optee/ldelf/ta_elf.c:1719
    2dc0:	eb00029f 	cmp	x20, x0
    2dc4:	540000c9 	b.ls	2ddc <ta_elf_set_init_fini_info_compat+0x104>  // b.plast
/media/home/beste/01_Pro/ld25x/bsp_hu/MYD-LD25X-Uboot-L2022.10-V1.0.0/GEN_FIP/myir-st-optee/ldelf/ta_elf.c:1721
    2dc8:	cb000282 	sub	x2, x20, x0
/media/home/beste/01_Pro/ld25x/bsp_hu/MYD-LD25X-Uboot-L2022.10-V1.0.0/GEN_FIP/myir-st-optee/ldelf/ta_elf.c:1720
    2dcc:	52800001 	mov	w1, #0x0                   	// #0
    2dd0:	8b0012a0 	add	x0, x21, x0, lsl #4
    2dd4:	d37cec42 	lsl	x2, x2, #4
    2dd8:	94000a79 	bl	57bc <memset>
/media/home/beste/01_Pro/ld25x/bsp_hu/MYD-LD25X-Uboot-L2022.10-V1.0.0/GEN_FIP/myir-st-optee/ldelf/ta_elf.c:1722
    2ddc:	b9000a75 	str	w21, [x19, #8]
/media/home/beste/01_Pro/ld25x/bsp_hu/MYD-LD25X-Uboot-L2022.10-V1.0.0/GEN_FIP/myir-st-optee/ldelf/ta_elf.c:1734
    2de0:	79000a74 	strh	w20, [x19, #4]
fill_ifs():
/media/home/beste/01_Pro/ld25x/bsp_hu/MYD-LD25X-Uboot-L2022.10-V1.0.0/GEN_FIP/myir-st-optee/ldelf/ta_elf.c:1775
    2de4:	910223f8 	add	x24, sp, #0x88
ta_elf_set_init_fini_info_compat():
/media/home/beste/01_Pro/ld25x/bsp_hu/MYD-LD25X-Uboot-L2022.10-V1.0.0/GEN_FIP/myir-st-optee/ldelf/ta_elf.c:1828
    2de8:	f940b2f4 	ldr	x20, [x23, #352]
fill_ifs():
/media/home/beste/01_Pro/ld25x/bsp_hu/MYD-LD25X-Uboot-L2022.10-V1.0.0/GEN_FIP/myir-st-optee/ldelf/ta_elf.c:1775
    2dec:	910263f9 	add	x25, sp, #0x98
    2df0:	910203fa 	add	x26, sp, #0x80
    2df4:	910243fb 	add	x27, sp, #0x90
ta_elf_set_init_fini_info_compat():
/media/home/beste/01_Pro/ld25x/bsp_hu/MYD-LD25X-Uboot-L2022.10-V1.0.0/GEN_FIP/myir-st-optee/ldelf/ta_elf.c:1827
    2df8:	d2800013 	mov	x19, #0x0                   	// #0
fill_ifs():
/media/home/beste/01_Pro/ld25x/bsp_hu/MYD-LD25X-Uboot-L2022.10-V1.0.0/GEN_FIP/myir-st-optee/ldelf/ta_elf.c:1770
    2dfc:	d280031c 	mov	x28, #0x18                  	// #24
ta_elf_set_init_fini_info_compat():
/media/home/beste/01_Pro/ld25x/bsp_hu/MYD-LD25X-Uboot-L2022.10-V1.0.0/GEN_FIP/myir-st-optee/ldelf/ta_elf.c:1828 (discriminator 1)
    2e00:	b4fff934 	cbz	x20, 2d24 <ta_elf_set_init_fini_info_compat+0x4c>
fill_ifs():
/media/home/beste/01_Pro/ld25x/bsp_hu/MYD-LD25X-Uboot-L2022.10-V1.0.0/GEN_FIP/myir-st-optee/ldelf/ta_elf.c:1742 (discriminator 3)
    2e04:	f9403fe0 	ldr	x0, [sp, #120]
/media/home/beste/01_Pro/ld25x/bsp_hu/MYD-LD25X-Uboot-L2022.10-V1.0.0/GEN_FIP/myir-st-optee/ldelf/ta_elf.c:1747 (discriminator 3)
    2e08:	a9087fff 	stp	xzr, xzr, [sp, #128]
/media/home/beste/01_Pro/ld25x/bsp_hu/MYD-LD25X-Uboot-L2022.10-V1.0.0/GEN_FIP/myir-st-optee/ldelf/ta_elf.c:1749 (discriminator 3)
    2e0c:	a9097fff 	stp	xzr, xzr, [sp, #144]
/media/home/beste/01_Pro/ld25x/bsp_hu/MYD-LD25X-Uboot-L2022.10-V1.0.0/GEN_FIP/myir-st-optee/ldelf/ta_elf.c:1752 (discriminator 3)
    2e10:	79400801 	ldrh	w1, [x0, #4]
    2e14:	eb01027f 	cmp	x19, x1
/media/home/beste/01_Pro/ld25x/bsp_hu/MYD-LD25X-Uboot-L2022.10-V1.0.0/GEN_FIP/myir-st-optee/ldelf/ta_elf.c:1751 (discriminator 3)
    2e18:	34000736 	cbz	w22, 2efc <ta_elf_set_init_fini_info_compat+0x224>
/media/home/beste/01_Pro/ld25x/bsp_hu/MYD-LD25X-Uboot-L2022.10-V1.0.0/GEN_FIP/myir-st-optee/ldelf/ta_elf.c:1752
    2e1c:	540003a3 	b.cc	2e90 <ta_elf_set_init_fini_info_compat+0x1b8>  // b.lo, b.ul, b.last
    2e20:	b0000022 	adrp	x2, 7000 <trace_ext_prefix+0x6bc>
    2e24:	b0000020 	adrp	x0, 7000 <trace_ext_prefix+0x6bc>
    2e28:	9103d842 	add	x2, x2, #0xf6
    2e2c:	91008800 	add	x0, x0, #0x22
    2e30:	5280db01 	mov	w1, #0x6d8                 	// #1752
    2e34:	17ffffcb 	b	2d60 <ta_elf_set_init_fini_info_compat+0x88>
realloc_ifs():
/media/home/beste/01_Pro/ld25x/bsp_hu/MYD-LD25X-Uboot-L2022.10-V1.0.0/GEN_FIP/myir-st-optee/ldelf/ta_elf.c:1725
    2e38:	d2800318 	mov	x24, #0x18                  	// #24
    2e3c:	f9400660 	ldr	x0, [x19, #8]
    2e40:	9b187e81 	mul	x1, x20, x24
    2e44:	94000a1e 	bl	56bc <realloc>
    2e48:	aa0003f5 	mov	x21, x0
/media/home/beste/01_Pro/ld25x/bsp_hu/MYD-LD25X-Uboot-L2022.10-V1.0.0/GEN_FIP/myir-st-optee/ldelf/ta_elf.c:1726
    2e4c:	b40001a0 	cbz	x0, 2e80 <ta_elf_set_init_fini_info_compat+0x1a8>
/media/home/beste/01_Pro/ld25x/bsp_hu/MYD-LD25X-Uboot-L2022.10-V1.0.0/GEN_FIP/myir-st-optee/ldelf/ta_elf.c:1729
    2e50:	79400a61 	ldrh	w1, [x19, #4]
    2e54:	79400a60 	ldrh	w0, [x19, #4]
/media/home/beste/01_Pro/ld25x/bsp_hu/MYD-LD25X-Uboot-L2022.10-V1.0.0/GEN_FIP/myir-st-optee/ldelf/ta_elf.c:1730
    2e58:	eb01029f 	cmp	x20, x1
    2e5c:	540000e9 	b.ls	2e78 <ta_elf_set_init_fini_info_compat+0x1a0>  // b.plast
/media/home/beste/01_Pro/ld25x/bsp_hu/MYD-LD25X-Uboot-L2022.10-V1.0.0/GEN_FIP/myir-st-optee/ldelf/ta_elf.c:1732
    2e60:	cb010281 	sub	x1, x20, x1
/media/home/beste/01_Pro/ld25x/bsp_hu/MYD-LD25X-Uboot-L2022.10-V1.0.0/GEN_FIP/myir-st-optee/ldelf/ta_elf.c:1731
    2e64:	9bb87c00 	umull	x0, w0, w24
    2e68:	8b0002a0 	add	x0, x21, x0
    2e6c:	9b187c22 	mul	x2, x1, x24
    2e70:	52800001 	mov	w1, #0x0                   	// #0
    2e74:	94000a52 	bl	57bc <memset>
/media/home/beste/01_Pro/ld25x/bsp_hu/MYD-LD25X-Uboot-L2022.10-V1.0.0/GEN_FIP/myir-st-optee/ldelf/ta_elf.c:1733
    2e78:	f9000675 	str	x21, [x19, #8]
    2e7c:	17ffffd9 	b	2de0 <ta_elf_set_init_fini_info_compat+0x108>
ta_elf_set_init_fini_info_compat():
/media/home/beste/01_Pro/ld25x/bsp_hu/MYD-LD25X-Uboot-L2022.10-V1.0.0/GEN_FIP/myir-st-optee/ldelf/ta_elf.c:1835
    2e80:	aa1303e0 	mov	x0, x19
    2e84:	94000a14 	bl	56d4 <free>
/media/home/beste/01_Pro/ld25x/bsp_hu/MYD-LD25X-Uboot-L2022.10-V1.0.0/GEN_FIP/myir-st-optee/ldelf/ta_elf.c:1836
    2e88:	129ffe60 	mov	w0, #0xffff000c            	// #-65524
    2e8c:	17ffffa7 	b	2d28 <ta_elf_set_init_fini_info_compat+0x50>
fill_ifs():
/media/home/beste/01_Pro/ld25x/bsp_hu/MYD-LD25X-Uboot-L2022.10-V1.0.0/GEN_FIP/myir-st-optee/ldelf/ta_elf.c:1753
    2e90:	b9400815 	ldr	w21, [x0, #8]
    2e94:	d37cee65 	lsl	x5, x19, #4
/media/home/beste/01_Pro/ld25x/bsp_hu/MYD-LD25X-Uboot-L2022.10-V1.0.0/GEN_FIP/myir-st-optee/ldelf/ta_elf.c:1755
    2e98:	f90037e5 	str	x5, [sp, #104]
/media/home/beste/01_Pro/ld25x/bsp_hu/MYD-LD25X-Uboot-L2022.10-V1.0.0/GEN_FIP/myir-st-optee/ldelf/ta_elf.c:1753
    2e9c:	8b1312b7 	add	x23, x21, x19, lsl #4
/media/home/beste/01_Pro/ld25x/bsp_hu/MYD-LD25X-Uboot-L2022.10-V1.0.0/GEN_FIP/myir-st-optee/ldelf/ta_elf.c:1755
    2ea0:	b8656aa0 	ldr	w0, [x21, x5]
    2ea4:	37000260 	tbnz	w0, #0, 2ef0 <ta_elf_set_init_fini_info_compat+0x218>
/media/home/beste/01_Pro/ld25x/bsp_hu/MYD-LD25X-Uboot-L2022.10-V1.0.0/GEN_FIP/myir-st-optee/ldelf/ta_elf.c:1758
    2ea8:	aa1403e0 	mov	x0, x20
    2eac:	aa1803e4 	mov	x4, x24
    2eb0:	aa1903e3 	mov	x3, x25
    2eb4:	aa1a03e2 	mov	x2, x26
    2eb8:	aa1b03e1 	mov	x1, x27
    2ebc:	97fffc6b 	bl	2068 <elf_get_init_fini_array.constprop.0>
/media/home/beste/01_Pro/ld25x/bsp_hu/MYD-LD25X-Uboot-L2022.10-V1.0.0/GEN_FIP/myir-st-optee/ldelf/ta_elf.c:1767
    2ec0:	f94037e5 	ldr	x5, [sp, #104]
/media/home/beste/01_Pro/ld25x/bsp_hu/MYD-LD25X-Uboot-L2022.10-V1.0.0/GEN_FIP/myir-st-optee/ldelf/ta_elf.c:1761
    2ec4:	f9404be0 	ldr	x0, [sp, #144]
    2ec8:	b9000ae0 	str	w0, [x23, #8]
/media/home/beste/01_Pro/ld25x/bsp_hu/MYD-LD25X-Uboot-L2022.10-V1.0.0/GEN_FIP/myir-st-optee/ldelf/ta_elf.c:1762
    2ecc:	f94043e0 	ldr	x0, [sp, #128]
    2ed0:	79000ae0 	strh	w0, [x23, #4]
/media/home/beste/01_Pro/ld25x/bsp_hu/MYD-LD25X-Uboot-L2022.10-V1.0.0/GEN_FIP/myir-st-optee/ldelf/ta_elf.c:1764
    2ed4:	f9404fe0 	ldr	x0, [sp, #152]
    2ed8:	b9000ee0 	str	w0, [x23, #12]
/media/home/beste/01_Pro/ld25x/bsp_hu/MYD-LD25X-Uboot-L2022.10-V1.0.0/GEN_FIP/myir-st-optee/ldelf/ta_elf.c:1765
    2edc:	f94047e0 	ldr	x0, [sp, #136]
    2ee0:	79000ee0 	strh	w0, [x23, #6]
/media/home/beste/01_Pro/ld25x/bsp_hu/MYD-LD25X-Uboot-L2022.10-V1.0.0/GEN_FIP/myir-st-optee/ldelf/ta_elf.c:1767
    2ee4:	b8656aa0 	ldr	w0, [x21, x5]
    2ee8:	32000000 	orr	w0, w0, #0x1
    2eec:	b8256aa0 	str	w0, [x21, x5]
ta_elf_set_init_fini_info_compat():
/media/home/beste/01_Pro/ld25x/bsp_hu/MYD-LD25X-Uboot-L2022.10-V1.0.0/GEN_FIP/myir-st-optee/ldelf/ta_elf.c:1828
    2ef0:	f9409294 	ldr	x20, [x20, #288]
/media/home/beste/01_Pro/ld25x/bsp_hu/MYD-LD25X-Uboot-L2022.10-V1.0.0/GEN_FIP/myir-st-optee/ldelf/ta_elf.c:1830
    2ef4:	91000673 	add	x19, x19, #0x1
/media/home/beste/01_Pro/ld25x/bsp_hu/MYD-LD25X-Uboot-L2022.10-V1.0.0/GEN_FIP/myir-st-optee/ldelf/ta_elf.c:1828
    2ef8:	17ffffc2 	b	2e00 <ta_elf_set_init_fini_info_compat+0x128>
fill_ifs():
/media/home/beste/01_Pro/ld25x/bsp_hu/MYD-LD25X-Uboot-L2022.10-V1.0.0/GEN_FIP/myir-st-optee/ldelf/ta_elf.c:1769
    2efc:	540000e3 	b.cc	2f18 <ta_elf_set_init_fini_info_compat+0x240>  // b.lo, b.ul, b.last
    2f00:	b0000022 	adrp	x2, 7000 <trace_ext_prefix+0x6bc>
    2f04:	b0000020 	adrp	x0, 7000 <trace_ext_prefix+0x6bc>
    2f08:	9103d842 	add	x2, x2, #0xf6
    2f0c:	9100d400 	add	x0, x0, #0x35
    2f10:	5280dd21 	mov	w1, #0x6e9                 	// #1769
    2f14:	17ffff93 	b	2d60 <ta_elf_set_init_fini_info_compat+0x88>
/media/home/beste/01_Pro/ld25x/bsp_hu/MYD-LD25X-Uboot-L2022.10-V1.0.0/GEN_FIP/myir-st-optee/ldelf/ta_elf.c:1770
    2f18:	f9400417 	ldr	x23, [x0, #8]
    2f1c:	9b1c7e75 	mul	x21, x19, x28
    2f20:	8b1502e5 	add	x5, x23, x21
    2f24:	f90037e5 	str	x5, [sp, #104]
/media/home/beste/01_Pro/ld25x/bsp_hu/MYD-LD25X-Uboot-L2022.10-V1.0.0/GEN_FIP/myir-st-optee/ldelf/ta_elf.c:1772
    2f28:	b8756ae0 	ldr	w0, [x23, x21]
    2f2c:	3707fe20 	tbnz	w0, #0, 2ef0 <ta_elf_set_init_fini_info_compat+0x218>
/media/home/beste/01_Pro/ld25x/bsp_hu/MYD-LD25X-Uboot-L2022.10-V1.0.0/GEN_FIP/myir-st-optee/ldelf/ta_elf.c:1775
    2f30:	aa1403e0 	mov	x0, x20
    2f34:	aa1803e4 	mov	x4, x24
    2f38:	aa1903e3 	mov	x3, x25
    2f3c:	aa1a03e2 	mov	x2, x26
    2f40:	aa1b03e1 	mov	x1, x27
    2f44:	97fffc49 	bl	2068 <elf_get_init_fini_array.constprop.0>
/media/home/beste/01_Pro/ld25x/bsp_hu/MYD-LD25X-Uboot-L2022.10-V1.0.0/GEN_FIP/myir-st-optee/ldelf/ta_elf.c:1778
    2f48:	f94037e5 	ldr	x5, [sp, #104]
    2f4c:	f9404be0 	ldr	x0, [sp, #144]
    2f50:	f90004a0 	str	x0, [x5, #8]
/media/home/beste/01_Pro/ld25x/bsp_hu/MYD-LD25X-Uboot-L2022.10-V1.0.0/GEN_FIP/myir-st-optee/ldelf/ta_elf.c:1779
    2f54:	f94043e0 	ldr	x0, [sp, #128]
    2f58:	790008a0 	strh	w0, [x5, #4]
/media/home/beste/01_Pro/ld25x/bsp_hu/MYD-LD25X-Uboot-L2022.10-V1.0.0/GEN_FIP/myir-st-optee/ldelf/ta_elf.c:1781
    2f5c:	f9404fe0 	ldr	x0, [sp, #152]
    2f60:	f90008a0 	str	x0, [x5, #16]
/media/home/beste/01_Pro/ld25x/bsp_hu/MYD-LD25X-Uboot-L2022.10-V1.0.0/GEN_FIP/myir-st-optee/ldelf/ta_elf.c:1782
    2f64:	f94047e0 	ldr	x0, [sp, #136]
    2f68:	79000ca0 	strh	w0, [x5, #6]
/media/home/beste/01_Pro/ld25x/bsp_hu/MYD-LD25X-Uboot-L2022.10-V1.0.0/GEN_FIP/myir-st-optee/ldelf/ta_elf.c:1784
    2f6c:	b8756ae0 	ldr	w0, [x23, x21]
    2f70:	32000000 	orr	w0, w0, #0x1
    2f74:	b8356ae0 	str	w0, [x23, x21]
    2f78:	17ffffde 	b	2ef0 <ta_elf_set_init_fini_info_compat+0x218>
ta_elf_set_init_fini_info_compat():
/media/home/beste/01_Pro/ld25x/bsp_hu/MYD-LD25X-Uboot-L2022.10-V1.0.0/GEN_FIP/myir-st-optee/ldelf/ta_elf.c:1815
    2f7c:	129ffea0 	mov	w0, #0xffff000a            	// #-65526
    2f80:	17ffff6a 	b	2d28 <ta_elf_set_init_fini_info_compat+0x50>

0000000000002f84 <ta_elf_set_elf_phdr_info>:
ta_elf_set_elf_phdr_info():
/media/home/beste/01_Pro/ld25x/bsp_hu/MYD-LD25X-Uboot-L2022.10-V1.0.0/GEN_FIP/myir-st-optee/ldelf/ta_elf.c:1919
    2f84:	a9bb7bfd 	stp	x29, x30, [sp, #-80]!
/media/home/beste/01_Pro/ld25x/bsp_hu/MYD-LD25X-Uboot-L2022.10-V1.0.0/GEN_FIP/myir-st-optee/ldelf/ta_elf.c:1926
    2f88:	d2800003 	mov	x3, #0x0                   	// #0
    2f8c:	d2800002 	mov	x2, #0x0                   	// #0
/media/home/beste/01_Pro/ld25x/bsp_hu/MYD-LD25X-Uboot-L2022.10-V1.0.0/GEN_FIP/myir-st-optee/ldelf/ta_elf.c:1919
    2f90:	910003fd 	mov	x29, sp
/media/home/beste/01_Pro/ld25x/bsp_hu/MYD-LD25X-Uboot-L2022.10-V1.0.0/GEN_FIP/myir-st-optee/ldelf/ta_elf.c:1926
    2f94:	910123e1 	add	x1, sp, #0x48
/media/home/beste/01_Pro/ld25x/bsp_hu/MYD-LD25X-Uboot-L2022.10-V1.0.0/GEN_FIP/myir-st-optee/ldelf/ta_elf.c:1919
    2f98:	a90153f3 	stp	x19, x20, [sp, #16]
    2f9c:	a9025bf5 	stp	x21, x22, [sp, #32]
    2fa0:	12001c16 	and	w22, w0, #0xff
/media/home/beste/01_Pro/ld25x/bsp_hu/MYD-LD25X-Uboot-L2022.10-V1.0.0/GEN_FIP/myir-st-optee/ldelf/ta_elf.c:1926
    2fa4:	b0000020 	adrp	x0, 7000 <trace_ext_prefix+0x6bc>
    2fa8:	91011800 	add	x0, x0, #0x46
/media/home/beste/01_Pro/ld25x/bsp_hu/MYD-LD25X-Uboot-L2022.10-V1.0.0/GEN_FIP/myir-st-optee/ldelf/ta_elf.c:1919
    2fac:	a90363f7 	stp	x23, x24, [sp, #48]
/media/home/beste/01_Pro/ld25x/bsp_hu/MYD-LD25X-Uboot-L2022.10-V1.0.0/GEN_FIP/myir-st-optee/ldelf/ta_elf.c:1923
    2fb0:	f90027ff 	str	xzr, [sp, #72]
/media/home/beste/01_Pro/ld25x/bsp_hu/MYD-LD25X-Uboot-L2022.10-V1.0.0/GEN_FIP/myir-st-optee/ldelf/ta_elf.c:1926
    2fb4:	9400023c 	bl	38a4 <ta_elf_resolve_sym>
/media/home/beste/01_Pro/ld25x/bsp_hu/MYD-LD25X-Uboot-L2022.10-V1.0.0/GEN_FIP/myir-st-optee/ldelf/ta_elf.c:1927
    2fb8:	34000140 	cbz	w0, 2fe0 <ta_elf_set_elf_phdr_info+0x5c>
/media/home/beste/01_Pro/ld25x/bsp_hu/MYD-LD25X-Uboot-L2022.10-V1.0.0/GEN_FIP/myir-st-optee/ldelf/ta_elf.c:1928
    2fbc:	129ffee1 	mov	w1, #0xffff0008            	// #-65528
    2fc0:	6b01001f 	cmp	w0, w1
    2fc4:	54000041 	b.ne	2fcc <ta_elf_set_elf_phdr_info+0x48>  // b.any
/media/home/beste/01_Pro/ld25x/bsp_hu/MYD-LD25X-Uboot-L2022.10-V1.0.0/GEN_FIP/myir-st-optee/ldelf/ta_elf.c:1930
    2fc8:	52800000 	mov	w0, #0x0                   	// #0
/media/home/beste/01_Pro/ld25x/bsp_hu/MYD-LD25X-Uboot-L2022.10-V1.0.0/GEN_FIP/myir-st-optee/ldelf/ta_elf.c:1954
    2fcc:	a94153f3 	ldp	x19, x20, [sp, #16]
    2fd0:	a9425bf5 	ldp	x21, x22, [sp, #32]
    2fd4:	a94363f7 	ldp	x23, x24, [sp, #48]
    2fd8:	a8c57bfd 	ldp	x29, x30, [sp], #80
    2fdc:	d65f03c0 	ret
/media/home/beste/01_Pro/ld25x/bsp_hu/MYD-LD25X-Uboot-L2022.10-V1.0.0/GEN_FIP/myir-st-optee/ldelf/ta_elf.c:1934
    2fe0:	f94027f3 	ldr	x19, [sp, #72]
    2fe4:	b50000f3 	cbnz	x19, 3000 <ta_elf_set_elf_phdr_info+0x7c>
/media/home/beste/01_Pro/ld25x/bsp_hu/MYD-LD25X-Uboot-L2022.10-V1.0.0/GEN_FIP/myir-st-optee/ldelf/ta_elf.c:1934 (discriminator 1)
    2fe8:	b0000022 	adrp	x2, 7000 <trace_ext_prefix+0x6bc>
    2fec:	b0000020 	adrp	x0, 7000 <trace_ext_prefix+0x6bc>
    2ff0:	91032442 	add	x2, x2, #0xc9
    2ff4:	91005800 	add	x0, x0, #0x16
    2ff8:	5280f1c1 	mov	w1, #0x78e                 	// #1934
fill_elf_phdr_info():
/media/home/beste/01_Pro/ld25x/bsp_hu/MYD-LD25X-Uboot-L2022.10-V1.0.0/GEN_FIP/myir-st-optee/ldelf/ta_elf.c:1885
    2ffc:	97fff74d 	bl	d30 <_assert_trap.constprop.0>
ta_elf_set_elf_phdr_info():
/media/home/beste/01_Pro/ld25x/bsp_hu/MYD-LD25X-Uboot-L2022.10-V1.0.0/GEN_FIP/myir-st-optee/ldelf/ta_elf.c:1937
    3000:	b9400260 	ldr	w0, [x19]
    3004:	35000d80 	cbnz	w0, 31b4 <ta_elf_set_elf_phdr_info+0x230>
/media/home/beste/01_Pro/ld25x/bsp_hu/MYD-LD25X-Uboot-L2022.10-V1.0.0/GEN_FIP/myir-st-optee/ldelf/ta_elf.c:1940
    3008:	b0000037 	adrp	x23, 8000 <_DYNAMIC>
/media/home/beste/01_Pro/ld25x/bsp_hu/MYD-LD25X-Uboot-L2022.10-V1.0.0/GEN_FIP/myir-st-optee/ldelf/ta_elf.c:1924
    300c:	d2800014 	mov	x20, #0x0                   	// #0
/media/home/beste/01_Pro/ld25x/bsp_hu/MYD-LD25X-Uboot-L2022.10-V1.0.0/GEN_FIP/myir-st-optee/ldelf/ta_elf.c:1940
    3010:	f940b2e0 	ldr	x0, [x23, #352]
/media/home/beste/01_Pro/ld25x/bsp_hu/MYD-LD25X-Uboot-L2022.10-V1.0.0/GEN_FIP/myir-st-optee/ldelf/ta_elf.c:1940 (discriminator 1)
    3014:	b5000140 	cbnz	x0, 303c <ta_elf_set_elf_phdr_info+0xb8>
realloc_elf_phdr_info():
/media/home/beste/01_Pro/ld25x/bsp_hu/MYD-LD25X-Uboot-L2022.10-V1.0.0/GEN_FIP/myir-st-optee/ldelf/ta_elf.c:1848
    3018:	34000536 	cbz	w22, 30bc <ta_elf_set_elf_phdr_info+0x138>
/media/home/beste/01_Pro/ld25x/bsp_hu/MYD-LD25X-Uboot-L2022.10-V1.0.0/GEN_FIP/myir-st-optee/ldelf/ta_elf.c:1850
    301c:	d2800518 	mov	x24, #0x28                  	// #40
    3020:	b9400a60 	ldr	w0, [x19, #8]
    3024:	9b187e81 	mul	x1, x20, x24
    3028:	940009a5 	bl	56bc <realloc>
    302c:	aa0003f5 	mov	x21, x0
/media/home/beste/01_Pro/ld25x/bsp_hu/MYD-LD25X-Uboot-L2022.10-V1.0.0/GEN_FIP/myir-st-optee/ldelf/ta_elf.c:1851
    3030:	b50000c0 	cbnz	x0, 3048 <ta_elf_set_elf_phdr_info+0xc4>
/media/home/beste/01_Pro/ld25x/bsp_hu/MYD-LD25X-Uboot-L2022.10-V1.0.0/GEN_FIP/myir-st-optee/ldelf/ta_elf.c:1852
    3034:	129ffe60 	mov	w0, #0xffff000c            	// #-65524
    3038:	17ffffe5 	b	2fcc <ta_elf_set_elf_phdr_info+0x48>
ta_elf_set_elf_phdr_info():
/media/home/beste/01_Pro/ld25x/bsp_hu/MYD-LD25X-Uboot-L2022.10-V1.0.0/GEN_FIP/myir-st-optee/ldelf/ta_elf.c:1940 (discriminator 3)
    303c:	f9409000 	ldr	x0, [x0, #288]
/media/home/beste/01_Pro/ld25x/bsp_hu/MYD-LD25X-Uboot-L2022.10-V1.0.0/GEN_FIP/myir-st-optee/ldelf/ta_elf.c:1941 (discriminator 3)
    3040:	91000694 	add	x20, x20, #0x1
/media/home/beste/01_Pro/ld25x/bsp_hu/MYD-LD25X-Uboot-L2022.10-V1.0.0/GEN_FIP/myir-st-optee/ldelf/ta_elf.c:1940 (discriminator 3)
    3044:	17fffff4 	b	3014 <ta_elf_set_elf_phdr_info+0x90>
realloc_elf_phdr_info():
/media/home/beste/01_Pro/ld25x/bsp_hu/MYD-LD25X-Uboot-L2022.10-V1.0.0/GEN_FIP/myir-st-optee/ldelf/ta_elf.c:1854
    3048:	79400a61 	ldrh	w1, [x19, #4]
    304c:	79400a60 	ldrh	w0, [x19, #4]
/media/home/beste/01_Pro/ld25x/bsp_hu/MYD-LD25X-Uboot-L2022.10-V1.0.0/GEN_FIP/myir-st-optee/ldelf/ta_elf.c:1855
    3050:	eb01029f 	cmp	x20, x1
    3054:	540000e9 	b.ls	3070 <ta_elf_set_elf_phdr_info+0xec>  // b.plast
/media/home/beste/01_Pro/ld25x/bsp_hu/MYD-LD25X-Uboot-L2022.10-V1.0.0/GEN_FIP/myir-st-optee/ldelf/ta_elf.c:1857
    3058:	cb010281 	sub	x1, x20, x1
/media/home/beste/01_Pro/ld25x/bsp_hu/MYD-LD25X-Uboot-L2022.10-V1.0.0/GEN_FIP/myir-st-optee/ldelf/ta_elf.c:1856
    305c:	9bb87c00 	umull	x0, w0, w24
    3060:	8b0002a0 	add	x0, x21, x0
    3064:	9b187c22 	mul	x2, x1, x24
    3068:	52800001 	mov	w1, #0x0                   	// #0
    306c:	940009d4 	bl	57bc <memset>
/media/home/beste/01_Pro/ld25x/bsp_hu/MYD-LD25X-Uboot-L2022.10-V1.0.0/GEN_FIP/myir-st-optee/ldelf/ta_elf.c:1858
    3070:	b9000a75 	str	w21, [x19, #8]
fill_elf_phdr_info():
/media/home/beste/01_Pro/ld25x/bsp_hu/MYD-LD25X-Uboot-L2022.10-V1.0.0/GEN_FIP/myir-st-optee/ldelf/ta_elf.c:1879
    3074:	f94027e3 	ldr	x3, [sp, #72]
ta_elf_set_elf_phdr_info():
/media/home/beste/01_Pro/ld25x/bsp_hu/MYD-LD25X-Uboot-L2022.10-V1.0.0/GEN_FIP/myir-st-optee/ldelf/ta_elf.c:1947
    3078:	d2800001 	mov	x1, #0x0                   	// #0
/media/home/beste/01_Pro/ld25x/bsp_hu/MYD-LD25X-Uboot-L2022.10-V1.0.0/GEN_FIP/myir-st-optee/ldelf/ta_elf.c:1948
    307c:	f940b2e0 	ldr	x0, [x23, #352]
fill_elf_phdr_info():
/media/home/beste/01_Pro/ld25x/bsp_hu/MYD-LD25X-Uboot-L2022.10-V1.0.0/GEN_FIP/myir-st-optee/ldelf/ta_elf.c:1907
    3080:	91001c65 	add	x5, x3, #0x7
/media/home/beste/01_Pro/ld25x/bsp_hu/MYD-LD25X-Uboot-L2022.10-V1.0.0/GEN_FIP/myir-st-optee/ldelf/ta_elf.c:1910
    3084:	d2800026 	mov	x6, #0x1                   	// #1
/media/home/beste/01_Pro/ld25x/bsp_hu/MYD-LD25X-Uboot-L2022.10-V1.0.0/GEN_FIP/myir-st-optee/ldelf/ta_elf.c:1886
    3088:	d2800508 	mov	x8, #0x28                  	// #40
realloc_elf_phdr_info():
/media/home/beste/01_Pro/ld25x/bsp_hu/MYD-LD25X-Uboot-L2022.10-V1.0.0/GEN_FIP/myir-st-optee/ldelf/ta_elf.c:1870
    308c:	79000a74 	strh	w20, [x19, #4]
ta_elf_set_elf_phdr_info():
/media/home/beste/01_Pro/ld25x/bsp_hu/MYD-LD25X-Uboot-L2022.10-V1.0.0/GEN_FIP/myir-st-optee/ldelf/ta_elf.c:1948 (discriminator 1)
    3090:	b4fff9c0 	cbz	x0, 2fc8 <ta_elf_set_elf_phdr_info+0x44>
fill_elf_phdr_info():
/media/home/beste/01_Pro/ld25x/bsp_hu/MYD-LD25X-Uboot-L2022.10-V1.0.0/GEN_FIP/myir-st-optee/ldelf/ta_elf.c:1885 (discriminator 3)
    3094:	79400862 	ldrh	w2, [x3, #4]
    3098:	eb02003f 	cmp	x1, x2
/media/home/beste/01_Pro/ld25x/bsp_hu/MYD-LD25X-Uboot-L2022.10-V1.0.0/GEN_FIP/myir-st-optee/ldelf/ta_elf.c:1884 (discriminator 3)
    309c:	34000596 	cbz	w22, 314c <ta_elf_set_elf_phdr_info+0x1c8>
/media/home/beste/01_Pro/ld25x/bsp_hu/MYD-LD25X-Uboot-L2022.10-V1.0.0/GEN_FIP/myir-st-optee/ldelf/ta_elf.c:1885
    30a0:	540002c3 	b.cc	30f8 <ta_elf_set_elf_phdr_info+0x174>  // b.lo, b.ul, b.last
    30a4:	90000022 	adrp	x2, 7000 <trace_ext_prefix+0x6bc>
    30a8:	90000020 	adrp	x0, 7000 <trace_ext_prefix+0x6bc>
    30ac:	9102d842 	add	x2, x2, #0xb6
    30b0:	91015800 	add	x0, x0, #0x56
    30b4:	5280eba1 	mov	w1, #0x75d                 	// #1885
    30b8:	17ffffd1 	b	2ffc <ta_elf_set_elf_phdr_info+0x78>
realloc_elf_phdr_info():
/media/home/beste/01_Pro/ld25x/bsp_hu/MYD-LD25X-Uboot-L2022.10-V1.0.0/GEN_FIP/myir-st-optee/ldelf/ta_elf.c:1861
    30bc:	f9400660 	ldr	x0, [x19, #8]
    30c0:	d37ae681 	lsl	x1, x20, #6
    30c4:	9400097e 	bl	56bc <realloc>
    30c8:	aa0003f5 	mov	x21, x0
/media/home/beste/01_Pro/ld25x/bsp_hu/MYD-LD25X-Uboot-L2022.10-V1.0.0/GEN_FIP/myir-st-optee/ldelf/ta_elf.c:1862
    30cc:	b4fffb40 	cbz	x0, 3034 <ta_elf_set_elf_phdr_info+0xb0>
/media/home/beste/01_Pro/ld25x/bsp_hu/MYD-LD25X-Uboot-L2022.10-V1.0.0/GEN_FIP/myir-st-optee/ldelf/ta_elf.c:1865
    30d0:	79400a60 	ldrh	w0, [x19, #4]
/media/home/beste/01_Pro/ld25x/bsp_hu/MYD-LD25X-Uboot-L2022.10-V1.0.0/GEN_FIP/myir-st-optee/ldelf/ta_elf.c:1866
    30d4:	eb00029f 	cmp	x20, x0
    30d8:	540000c9 	b.ls	30f0 <ta_elf_set_elf_phdr_info+0x16c>  // b.plast
/media/home/beste/01_Pro/ld25x/bsp_hu/MYD-LD25X-Uboot-L2022.10-V1.0.0/GEN_FIP/myir-st-optee/ldelf/ta_elf.c:1868
    30dc:	cb000282 	sub	x2, x20, x0
/media/home/beste/01_Pro/ld25x/bsp_hu/MYD-LD25X-Uboot-L2022.10-V1.0.0/GEN_FIP/myir-st-optee/ldelf/ta_elf.c:1867
    30e0:	52800001 	mov	w1, #0x0                   	// #0
    30e4:	8b001aa0 	add	x0, x21, x0, lsl #6
    30e8:	d37ae442 	lsl	x2, x2, #6
    30ec:	940009b4 	bl	57bc <memset>
/media/home/beste/01_Pro/ld25x/bsp_hu/MYD-LD25X-Uboot-L2022.10-V1.0.0/GEN_FIP/myir-st-optee/ldelf/ta_elf.c:1869
    30f0:	f9000675 	str	x21, [x19, #8]
    30f4:	17ffffe0 	b	3074 <ta_elf_set_elf_phdr_info+0xf0>
fill_elf_phdr_info():
/media/home/beste/01_Pro/ld25x/bsp_hu/MYD-LD25X-Uboot-L2022.10-V1.0.0/GEN_FIP/myir-st-optee/ldelf/ta_elf.c:1886
    30f8:	b9400867 	ldr	w7, [x3, #8]
    30fc:	9b087c24 	mul	x4, x1, x8
/media/home/beste/01_Pro/ld25x/bsp_hu/MYD-LD25X-Uboot-L2022.10-V1.0.0/GEN_FIP/myir-st-optee/ldelf/ta_elf.c:1888
    3100:	f9400409 	ldr	x9, [x0, #8]
/media/home/beste/01_Pro/ld25x/bsp_hu/MYD-LD25X-Uboot-L2022.10-V1.0.0/GEN_FIP/myir-st-optee/ldelf/ta_elf.c:1886
    3104:	8b0400e2 	add	x2, x7, x4
/media/home/beste/01_Pro/ld25x/bsp_hu/MYD-LD25X-Uboot-L2022.10-V1.0.0/GEN_FIP/myir-st-optee/ldelf/ta_elf.c:1888
    3108:	b82468e9 	str	w9, [x7, x4]
/media/home/beste/01_Pro/ld25x/bsp_hu/MYD-LD25X-Uboot-L2022.10-V1.0.0/GEN_FIP/myir-st-optee/ldelf/ta_elf.c:1889
    310c:	f9404c04 	ldr	x4, [x0, #152]
/media/home/beste/01_Pro/ld25x/bsp_hu/MYD-LD25X-Uboot-L2022.10-V1.0.0/GEN_FIP/myir-st-optee/ldelf/ta_elf.c:1890
    3110:	f100009f 	cmp	x4, #0x0
    3114:	9a8400a4 	csel	x4, x5, x4, eq	// eq = none
    3118:	b9000444 	str	w4, [x2, #4]
/media/home/beste/01_Pro/ld25x/bsp_hu/MYD-LD25X-Uboot-L2022.10-V1.0.0/GEN_FIP/myir-st-optee/ldelf/ta_elf.c:1893
    311c:	f9402804 	ldr	x4, [x0, #80]
    3120:	b9000844 	str	w4, [x2, #8]
/media/home/beste/01_Pro/ld25x/bsp_hu/MYD-LD25X-Uboot-L2022.10-V1.0.0/GEN_FIP/myir-st-optee/ldelf/ta_elf.c:1894
    3124:	b9404004 	ldr	w4, [x0, #64]
    3128:	79001844 	strh	w4, [x2, #12]
/media/home/beste/01_Pro/ld25x/bsp_hu/MYD-LD25X-Uboot-L2022.10-V1.0.0/GEN_FIP/myir-st-optee/ldelf/ta_elf.c:1897
    312c:	f9406004 	ldr	x4, [x0, #192]
    3130:	b9002044 	str	w4, [x2, #32]
/media/home/beste/01_Pro/ld25x/bsp_hu/MYD-LD25X-Uboot-L2022.10-V1.0.0/GEN_FIP/myir-st-optee/ldelf/ta_elf.c:1898
    3134:	f9406404 	ldr	x4, [x0, #200]
/media/home/beste/01_Pro/ld25x/bsp_hu/MYD-LD25X-Uboot-L2022.10-V1.0.0/GEN_FIP/myir-st-optee/ldelf/ta_elf.c:1896
    3138:	a9017c46 	stp	x6, xzr, [x2, #16]
/media/home/beste/01_Pro/ld25x/bsp_hu/MYD-LD25X-Uboot-L2022.10-V1.0.0/GEN_FIP/myir-st-optee/ldelf/ta_elf.c:1898
    313c:	b9002444 	str	w4, [x2, #36]
ta_elf_set_elf_phdr_info():
/media/home/beste/01_Pro/ld25x/bsp_hu/MYD-LD25X-Uboot-L2022.10-V1.0.0/GEN_FIP/myir-st-optee/ldelf/ta_elf.c:1948
    3140:	f9409000 	ldr	x0, [x0, #288]
/media/home/beste/01_Pro/ld25x/bsp_hu/MYD-LD25X-Uboot-L2022.10-V1.0.0/GEN_FIP/myir-st-optee/ldelf/ta_elf.c:1950
    3144:	91000421 	add	x1, x1, #0x1
/media/home/beste/01_Pro/ld25x/bsp_hu/MYD-LD25X-Uboot-L2022.10-V1.0.0/GEN_FIP/myir-st-optee/ldelf/ta_elf.c:1948
    3148:	17ffffd2 	b	3090 <ta_elf_set_elf_phdr_info+0x10c>
fill_elf_phdr_info():
/media/home/beste/01_Pro/ld25x/bsp_hu/MYD-LD25X-Uboot-L2022.10-V1.0.0/GEN_FIP/myir-st-optee/ldelf/ta_elf.c:1900
    314c:	540000e3 	b.cc	3168 <ta_elf_set_elf_phdr_info+0x1e4>  // b.lo, b.ul, b.last
    3150:	90000022 	adrp	x2, 7000 <trace_ext_prefix+0x6bc>
    3154:	90000020 	adrp	x0, 7000 <trace_ext_prefix+0x6bc>
    3158:	9102d842 	add	x2, x2, #0xb6
    315c:	9101a800 	add	x0, x0, #0x6a
    3160:	5280ed81 	mov	w1, #0x76c                 	// #1900
    3164:	17ffffa6 	b	2ffc <ta_elf_set_elf_phdr_info+0x78>
/media/home/beste/01_Pro/ld25x/bsp_hu/MYD-LD25X-Uboot-L2022.10-V1.0.0/GEN_FIP/myir-st-optee/ldelf/ta_elf.c:1901
    3168:	f9400467 	ldr	x7, [x3, #8]
    316c:	d37ae424 	lsl	x4, x1, #6
/media/home/beste/01_Pro/ld25x/bsp_hu/MYD-LD25X-Uboot-L2022.10-V1.0.0/GEN_FIP/myir-st-optee/ldelf/ta_elf.c:1903
    3170:	f9400409 	ldr	x9, [x0, #8]
    3174:	f82468e9 	str	x9, [x7, x4]
/media/home/beste/01_Pro/ld25x/bsp_hu/MYD-LD25X-Uboot-L2022.10-V1.0.0/GEN_FIP/myir-st-optee/ldelf/ta_elf.c:1901
    3178:	8b0118e2 	add	x2, x7, x1, lsl #6
/media/home/beste/01_Pro/ld25x/bsp_hu/MYD-LD25X-Uboot-L2022.10-V1.0.0/GEN_FIP/myir-st-optee/ldelf/ta_elf.c:1904
    317c:	f9404c04 	ldr	x4, [x0, #152]
/media/home/beste/01_Pro/ld25x/bsp_hu/MYD-LD25X-Uboot-L2022.10-V1.0.0/GEN_FIP/myir-st-optee/ldelf/ta_elf.c:1907
    3180:	f100009f 	cmp	x4, #0x0
    3184:	9a851084 	csel	x4, x4, x5, ne	// ne = any
    3188:	f9000444 	str	x4, [x2, #8]
/media/home/beste/01_Pro/ld25x/bsp_hu/MYD-LD25X-Uboot-L2022.10-V1.0.0/GEN_FIP/myir-st-optee/ldelf/ta_elf.c:1908
    318c:	f9402804 	ldr	x4, [x0, #80]
    3190:	f9000844 	str	x4, [x2, #16]
/media/home/beste/01_Pro/ld25x/bsp_hu/MYD-LD25X-Uboot-L2022.10-V1.0.0/GEN_FIP/myir-st-optee/ldelf/ta_elf.c:1909
    3194:	b9404004 	ldr	w4, [x0, #64]
    3198:	79003044 	strh	w4, [x2, #24]
/media/home/beste/01_Pro/ld25x/bsp_hu/MYD-LD25X-Uboot-L2022.10-V1.0.0/GEN_FIP/myir-st-optee/ldelf/ta_elf.c:1912
    319c:	f9406004 	ldr	x4, [x0, #192]
    31a0:	f9001844 	str	x4, [x2, #48]
/media/home/beste/01_Pro/ld25x/bsp_hu/MYD-LD25X-Uboot-L2022.10-V1.0.0/GEN_FIP/myir-st-optee/ldelf/ta_elf.c:1913
    31a4:	f9406404 	ldr	x4, [x0, #200]
/media/home/beste/01_Pro/ld25x/bsp_hu/MYD-LD25X-Uboot-L2022.10-V1.0.0/GEN_FIP/myir-st-optee/ldelf/ta_elf.c:1911
    31a8:	a9027c46 	stp	x6, xzr, [x2, #32]
/media/home/beste/01_Pro/ld25x/bsp_hu/MYD-LD25X-Uboot-L2022.10-V1.0.0/GEN_FIP/myir-st-optee/ldelf/ta_elf.c:1913
    31ac:	f9001c44 	str	x4, [x2, #56]
    31b0:	17ffffe4 	b	3140 <ta_elf_set_elf_phdr_info+0x1bc>
ta_elf_set_elf_phdr_info():
/media/home/beste/01_Pro/ld25x/bsp_hu/MYD-LD25X-Uboot-L2022.10-V1.0.0/GEN_FIP/myir-st-optee/ldelf/ta_elf.c:1938
    31b4:	129ffea0 	mov	w0, #0xffff000a            	// #-65526
    31b8:	17ffff85 	b	2fcc <ta_elf_set_elf_phdr_info+0x48>

00000000000031bc <ta_elf_finalize_load_main>:
ta_elf_finalize_load_main():
/media/home/beste/01_Pro/ld25x/bsp_hu/MYD-LD25X-Uboot-L2022.10-V1.0.0/GEN_FIP/myir-st-optee/ldelf/ta_elf.c:1245
    31bc:	a9bd7bfd 	stp	x29, x30, [sp, #-48]!
    31c0:	910003fd 	mov	x29, sp
    31c4:	f90013f5 	str	x21, [sp, #32]
    31c8:	aa0003f5 	mov	x21, x0
/media/home/beste/01_Pro/ld25x/bsp_hu/MYD-LD25X-Uboot-L2022.10-V1.0.0/GEN_FIP/myir-st-optee/ldelf/ta_elf.c:1246
    31cc:	b0000020 	adrp	x0, 8000 <_DYNAMIC>
/media/home/beste/01_Pro/ld25x/bsp_hu/MYD-LD25X-Uboot-L2022.10-V1.0.0/GEN_FIP/myir-st-optee/ldelf/ta_elf.c:1245
    31d0:	a90153f3 	stp	x19, x20, [sp, #16]
/media/home/beste/01_Pro/ld25x/bsp_hu/MYD-LD25X-Uboot-L2022.10-V1.0.0/GEN_FIP/myir-st-optee/ldelf/ta_elf.c:1246
    31d4:	f940b013 	ldr	x19, [x0, #352]
/media/home/beste/01_Pro/ld25x/bsp_hu/MYD-LD25X-Uboot-L2022.10-V1.0.0/GEN_FIP/myir-st-optee/ldelf/ta_elf.c:1249
    31d8:	39400260 	ldrb	w0, [x19]
    31dc:	350000e0 	cbnz	w0, 31f8 <ta_elf_finalize_load_main+0x3c>
/media/home/beste/01_Pro/ld25x/bsp_hu/MYD-LD25X-Uboot-L2022.10-V1.0.0/GEN_FIP/myir-st-optee/ldelf/ta_elf.c:1249 (discriminator 1)
    31e0:	90000022 	adrp	x2, 7000 <trace_ext_prefix+0x6bc>
    31e4:	f0000000 	adrp	x0, 6000 <kprintf.constprop.0+0x68c>
    31e8:	9105e042 	add	x2, x2, #0x178
    31ec:	91232800 	add	x0, x0, #0x8ca
    31f0:	52809c21 	mov	w1, #0x4e1                 	// #1249
    31f4:	97fff6cf 	bl	d30 <_assert_trap.constprop.0>
/media/home/beste/01_Pro/ld25x/bsp_hu/MYD-LD25X-Uboot-L2022.10-V1.0.0/GEN_FIP/myir-st-optee/ldelf/ta_elf.c:1251
    31f8:	39400660 	ldrb	w0, [x19, #1]
    31fc:	97fffeb7 	bl	2cd8 <ta_elf_set_init_fini_info_compat>
    3200:	2a0003f4 	mov	w20, w0
/media/home/beste/01_Pro/ld25x/bsp_hu/MYD-LD25X-Uboot-L2022.10-V1.0.0/GEN_FIP/myir-st-optee/ldelf/ta_elf.c:1252
    3204:	34000160 	cbz	w0, 3230 <ta_elf_finalize_load_main+0x74>
/media/home/beste/01_Pro/ld25x/bsp_hu/MYD-LD25X-Uboot-L2022.10-V1.0.0/GEN_FIP/myir-st-optee/ldelf/ta_elf.c:1253
    3208:	90000024 	adrp	x4, 7000 <trace_ext_prefix+0x6bc>
    320c:	9101f084 	add	x4, x4, #0x7c
    3210:	52800023 	mov	w3, #0x1                   	// #1
    3214:	52800022 	mov	w2, #0x1                   	// #1
    3218:	52809ca1 	mov	w1, #0x4e5                 	// #1253
/media/home/beste/01_Pro/ld25x/bsp_hu/MYD-LD25X-Uboot-L2022.10-V1.0.0/GEN_FIP/myir-st-optee/ldelf/ta_elf.c:1256
    321c:	90000020 	adrp	x0, 7000 <trace_ext_prefix+0x6bc>
    3220:	9105e000 	add	x0, x0, #0x178
    3224:	94000d48 	bl	6744 <trace_printf>
    3228:	2a1403e0 	mov	w0, w20
    322c:	97fff3ca 	bl	154 <_ldelf_return>
/media/home/beste/01_Pro/ld25x/bsp_hu/MYD-LD25X-Uboot-L2022.10-V1.0.0/GEN_FIP/myir-st-optee/ldelf/ta_elf.c:1254
    3230:	39400660 	ldrb	w0, [x19, #1]
    3234:	97ffff54 	bl	2f84 <ta_elf_set_elf_phdr_info>
    3238:	2a0003f4 	mov	w20, w0
/media/home/beste/01_Pro/ld25x/bsp_hu/MYD-LD25X-Uboot-L2022.10-V1.0.0/GEN_FIP/myir-st-optee/ldelf/ta_elf.c:1255
    323c:	340000e0 	cbz	w0, 3258 <ta_elf_finalize_load_main+0x9c>
/media/home/beste/01_Pro/ld25x/bsp_hu/MYD-LD25X-Uboot-L2022.10-V1.0.0/GEN_FIP/myir-st-optee/ldelf/ta_elf.c:1256
    3240:	90000024 	adrp	x4, 7000 <trace_ext_prefix+0x6bc>
    3244:	52800023 	mov	w3, #0x1                   	// #1
    3248:	91027484 	add	x4, x4, #0x9d
    324c:	52800022 	mov	w2, #0x1                   	// #1
    3250:	52809d01 	mov	w1, #0x4e8                 	// #1256
    3254:	17fffff2 	b	321c <ta_elf_finalize_load_main+0x60>
/media/home/beste/01_Pro/ld25x/bsp_hu/MYD-LD25X-Uboot-L2022.10-V1.0.0/GEN_FIP/myir-st-optee/ldelf/ta_elf.c:1258
    3258:	39400a60 	ldrb	w0, [x19, #2]
    325c:	34000100 	cbz	w0, 327c <ta_elf_finalize_load_main+0xc0>
/media/home/beste/01_Pro/ld25x/bsp_hu/MYD-LD25X-Uboot-L2022.10-V1.0.0/GEN_FIP/myir-st-optee/ldelf/ta_elf.c:1259
    3260:	f9408660 	ldr	x0, [x19, #264]
    3264:	f9400c01 	ldr	x1, [x0, #24]
/media/home/beste/01_Pro/ld25x/bsp_hu/MYD-LD25X-Uboot-L2022.10-V1.0.0/GEN_FIP/myir-st-optee/ldelf/ta_elf.c:1262
    3268:	a94153f3 	ldp	x19, x20, [sp, #16]
    326c:	f90002a1 	str	x1, [x21]
    3270:	f94013f5 	ldr	x21, [sp, #32]
    3274:	a8c37bfd 	ldp	x29, x30, [sp], #48
    3278:	d65f03c0 	ret
/media/home/beste/01_Pro/ld25x/bsp_hu/MYD-LD25X-Uboot-L2022.10-V1.0.0/GEN_FIP/myir-st-optee/ldelf/ta_elf.c:1261
    327c:	f9400660 	ldr	x0, [x19, #8]
    3280:	f9401661 	ldr	x1, [x19, #40]
    3284:	8b000021 	add	x1, x1, x0
    3288:	17fffff8 	b	3268 <ta_elf_finalize_load_main+0xac>

000000000000328c <ta_elf_add_library>:
ta_elf_add_library():
/media/home/beste/01_Pro/ld25x/bsp_hu/MYD-LD25X-Uboot-L2022.10-V1.0.0/GEN_FIP/myir-st-optee/ldelf/ta_elf.c:1549
    328c:	a9bd7bfd 	stp	x29, x30, [sp, #-48]!
    3290:	910003fd 	mov	x29, sp
    3294:	a90153f3 	stp	x19, x20, [sp, #16]
    3298:	aa0003f3 	mov	x19, x0
    329c:	f90013f5 	str	x21, [sp, #32]
/media/home/beste/01_Pro/ld25x/bsp_hu/MYD-LD25X-Uboot-L2022.10-V1.0.0/GEN_FIP/myir-st-optee/ldelf/ta_elf.c:1552
    32a0:	97fffb97 	bl	20fc <ta_elf_find_elf>
/media/home/beste/01_Pro/ld25x/bsp_hu/MYD-LD25X-Uboot-L2022.10-V1.0.0/GEN_FIP/myir-st-optee/ldelf/ta_elf.c:1555
    32a4:	b50003c0 	cbnz	x0, 331c <ta_elf_add_library+0x90>
/media/home/beste/01_Pro/ld25x/bsp_hu/MYD-LD25X-Uboot-L2022.10-V1.0.0/GEN_FIP/myir-st-optee/ldelf/ta_elf.c:1551
    32a8:	b0000020 	adrp	x0, 8000 <_DYNAMIC>
    32ac:	f940b015 	ldr	x21, [x0, #352]
/media/home/beste/01_Pro/ld25x/bsp_hu/MYD-LD25X-Uboot-L2022.10-V1.0.0/GEN_FIP/myir-st-optee/ldelf/ta_elf.c:1558
    32b0:	aa1303e0 	mov	x0, x19
    32b4:	97fff52f 	bl	770 <queue_elf_helper>
    32b8:	aa0003f3 	mov	x19, x0
/media/home/beste/01_Pro/ld25x/bsp_hu/MYD-LD25X-Uboot-L2022.10-V1.0.0/GEN_FIP/myir-st-optee/ldelf/ta_elf.c:1559
    32bc:	b40003a0 	cbz	x0, 3330 <ta_elf_add_library+0xa4>
    32c0:	aa0003f4 	mov	x20, x0
/media/home/beste/01_Pro/ld25x/bsp_hu/MYD-LD25X-Uboot-L2022.10-V1.0.0/GEN_FIP/myir-st-optee/ldelf/ta_elf.c:1563 (discriminator 3)
    32c4:	394006a1 	ldrb	w1, [x21, #1]
    32c8:	aa1403e0 	mov	x0, x20
    32cc:	97fffd4d 	bl	2800 <ta_elf_load_dependency>
/media/home/beste/01_Pro/ld25x/bsp_hu/MYD-LD25X-Uboot-L2022.10-V1.0.0/GEN_FIP/myir-st-optee/ldelf/ta_elf.c:1562 (discriminator 3)
    32d0:	f9409294 	ldr	x20, [x20, #288]
    32d4:	b5ffff94 	cbnz	x20, 32c4 <ta_elf_add_library+0x38>
    32d8:	aa1303f4 	mov	x20, x19
/media/home/beste/01_Pro/ld25x/bsp_hu/MYD-LD25X-Uboot-L2022.10-V1.0.0/GEN_FIP/myir-st-optee/ldelf/ta_elf.c:1566 (discriminator 3)
    32dc:	aa1403e0 	mov	x0, x20
    32e0:	94000206 	bl	3af8 <ta_elf_relocate>
/media/home/beste/01_Pro/ld25x/bsp_hu/MYD-LD25X-Uboot-L2022.10-V1.0.0/GEN_FIP/myir-st-optee/ldelf/ta_elf.c:1567 (discriminator 3)
    32e4:	aa1403e0 	mov	x0, x20
    32e8:	97fffd81 	bl	28ec <ta_elf_finalize_mappings>
/media/home/beste/01_Pro/ld25x/bsp_hu/MYD-LD25X-Uboot-L2022.10-V1.0.0/GEN_FIP/myir-st-optee/ldelf/ta_elf.c:1565 (discriminator 3)
    32ec:	f9409294 	ldr	x20, [x20, #288]
    32f0:	b5ffff74 	cbnz	x20, 32dc <ta_elf_add_library+0x50>
/media/home/beste/01_Pro/ld25x/bsp_hu/MYD-LD25X-Uboot-L2022.10-V1.0.0/GEN_FIP/myir-st-optee/ldelf/ta_elf.c:1570 (discriminator 3)
    32f4:	f9409273 	ldr	x19, [x19, #288]
    32f8:	b5fffff3 	cbnz	x19, 32f4 <ta_elf_add_library+0x68>
/media/home/beste/01_Pro/ld25x/bsp_hu/MYD-LD25X-Uboot-L2022.10-V1.0.0/GEN_FIP/myir-st-optee/ldelf/ta_elf.c:1574
    32fc:	394006a0 	ldrb	w0, [x21, #1]
    3300:	97fffe76 	bl	2cd8 <ta_elf_set_init_fini_info_compat>
/media/home/beste/01_Pro/ld25x/bsp_hu/MYD-LD25X-Uboot-L2022.10-V1.0.0/GEN_FIP/myir-st-optee/ldelf/ta_elf.c:1575
    3304:	350000e0 	cbnz	w0, 3320 <ta_elf_add_library+0x94>
/media/home/beste/01_Pro/ld25x/bsp_hu/MYD-LD25X-Uboot-L2022.10-V1.0.0/GEN_FIP/myir-st-optee/ldelf/ta_elf.c:1579
    3308:	a94153f3 	ldp	x19, x20, [sp, #16]
/media/home/beste/01_Pro/ld25x/bsp_hu/MYD-LD25X-Uboot-L2022.10-V1.0.0/GEN_FIP/myir-st-optee/ldelf/ta_elf.c:1578
    330c:	394006a0 	ldrb	w0, [x21, #1]
/media/home/beste/01_Pro/ld25x/bsp_hu/MYD-LD25X-Uboot-L2022.10-V1.0.0/GEN_FIP/myir-st-optee/ldelf/ta_elf.c:1579
    3310:	f94013f5 	ldr	x21, [sp, #32]
    3314:	a8c37bfd 	ldp	x29, x30, [sp], #48
/media/home/beste/01_Pro/ld25x/bsp_hu/MYD-LD25X-Uboot-L2022.10-V1.0.0/GEN_FIP/myir-st-optee/ldelf/ta_elf.c:1578
    3318:	17ffff1b 	b	2f84 <ta_elf_set_elf_phdr_info>
/media/home/beste/01_Pro/ld25x/bsp_hu/MYD-LD25X-Uboot-L2022.10-V1.0.0/GEN_FIP/myir-st-optee/ldelf/ta_elf.c:1556
    331c:	52800000 	mov	w0, #0x0                   	// #0
/media/home/beste/01_Pro/ld25x/bsp_hu/MYD-LD25X-Uboot-L2022.10-V1.0.0/GEN_FIP/myir-st-optee/ldelf/ta_elf.c:1579
    3320:	a94153f3 	ldp	x19, x20, [sp, #16]
    3324:	f94013f5 	ldr	x21, [sp, #32]
    3328:	a8c37bfd 	ldp	x29, x30, [sp], #48
    332c:	d65f03c0 	ret
/media/home/beste/01_Pro/ld25x/bsp_hu/MYD-LD25X-Uboot-L2022.10-V1.0.0/GEN_FIP/myir-st-optee/ldelf/ta_elf.c:1560
    3330:	129ffe60 	mov	w0, #0xffff000c            	// #-65524
    3334:	17fffffb 	b	3320 <ta_elf_add_library+0x94>

0000000000003338 <check_found_sym>:
check_found_sym():
/media/home/beste/01_Pro/ld25x/bsp_hu/MYD-LD25X-Uboot-L2022.10-V1.0.0/GEN_FIP/myir-st-optee/ldelf/ta_elf_rel.c:94
    3338:	a9bb7bfd 	stp	x29, x30, [sp, #-80]!
    333c:	910003fd 	mov	x29, sp
    3340:	a90153f3 	stp	x19, x20, [sp, #16]
    3344:	aa0003f3 	mov	x19, x0
    3348:	aa0103e0 	mov	x0, x1
    334c:	a9025bf5 	stp	x21, x22, [sp, #32]
/media/home/beste/01_Pro/ld25x/bsp_hu/MYD-LD25X-Uboot-L2022.10-V1.0.0/GEN_FIP/myir-st-optee/ldelf/ta_elf_rel.c:103
    3350:	f9403661 	ldr	x1, [x19, #104]
/media/home/beste/01_Pro/ld25x/bsp_hu/MYD-LD25X-Uboot-L2022.10-V1.0.0/GEN_FIP/myir-st-optee/ldelf/ta_elf_rel.c:94
    3354:	a90363f7 	stp	x23, x24, [sp, #48]
    3358:	f90023f9 	str	x25, [sp, #64]
/media/home/beste/01_Pro/ld25x/bsp_hu/MYD-LD25X-Uboot-L2022.10-V1.0.0/GEN_FIP/myir-st-optee/ldelf/ta_elf_rel.c:103
    335c:	eb04003f 	cmp	x1, x4
    3360:	54000168 	b.hi	338c <check_found_sym+0x54>  // b.pmore
/media/home/beste/01_Pro/ld25x/bsp_hu/MYD-LD25X-Uboot-L2022.10-V1.0.0/GEN_FIP/myir-st-optee/ldelf/ta_elf_rel.c:104
    3364:	90000024 	adrp	x4, 7000 <trace_ext_prefix+0x6bc>
    3368:	90000020 	adrp	x0, 7000 <trace_ext_prefix+0x6bc>
    336c:	910c2c84 	add	x4, x4, #0x30b
    3370:	91182800 	add	x0, x0, #0x60a
    3374:	52800023 	mov	w3, #0x1                   	// #1
    3378:	52800022 	mov	w2, #0x1                   	// #1
    337c:	52800d01 	mov	w1, #0x68                  	// #104
sym_compare():
/media/home/beste/01_Pro/ld25x/bsp_hu/MYD-LD25X-Uboot-L2022.10-V1.0.0/GEN_FIP/myir-st-optee/ldelf/ta_elf_rel.c:56
    3380:	94000cf1 	bl	6744 <trace_printf>
    3384:	129fff40 	mov	w0, #0xffff0005            	// #-65531
    3388:	97fff373 	bl	154 <_ldelf_return>
confine_array_index():
/media/home/beste/01_Pro/ld25x/bsp_hu/MYD-LD25X-Uboot-L2022.10-V1.0.0/GEN_FIP/myir-st-optee/lib/libutils/ext/include/confine_array_index.h:76
    338c:	eb01009f 	cmp	x4, x1
    3390:	9a9f3084 	csel	x4, x4, xzr, cc	// cc = lo, ul, last
    3394:	d503229f 	csdb
check_found_sym():
/media/home/beste/01_Pro/ld25x/bsp_hu/MYD-LD25X-Uboot-L2022.10-V1.0.0/GEN_FIP/myir-st-optee/ldelf/ta_elf_rel.c:114
    3398:	39400661 	ldrb	w1, [x19, #1]
    339c:	aa0203f6 	mov	x22, x2
/media/home/beste/01_Pro/ld25x/bsp_hu/MYD-LD25X-Uboot-L2022.10-V1.0.0/GEN_FIP/myir-st-optee/ldelf/ta_elf_rel.c:115
    33a0:	f9403262 	ldr	x2, [x19, #96]
    33a4:	12001c75 	and	w21, w3, #0xff
/media/home/beste/01_Pro/ld25x/bsp_hu/MYD-LD25X-Uboot-L2022.10-V1.0.0/GEN_FIP/myir-st-optee/ldelf/ta_elf_rel.c:114
    33a8:	340002a1 	cbz	w1, 33fc <check_found_sym+0xc4>
/media/home/beste/01_Pro/ld25x/bsp_hu/MYD-LD25X-Uboot-L2022.10-V1.0.0/GEN_FIP/myir-st-optee/ldelf/ta_elf_rel.c:116
    33ac:	d37cec81 	lsl	x1, x4, #4
    33b0:	8b041044 	add	x4, x2, x4, lsl #4
    33b4:	39403094 	ldrb	w20, [x4, #12]
/media/home/beste/01_Pro/ld25x/bsp_hu/MYD-LD25X-Uboot-L2022.10-V1.0.0/GEN_FIP/myir-st-optee/ldelf/ta_elf_rel.c:118
    33b8:	79401c98 	ldrh	w24, [x4, #14]
/media/home/beste/01_Pro/ld25x/bsp_hu/MYD-LD25X-Uboot-L2022.10-V1.0.0/GEN_FIP/myir-st-optee/ldelf/ta_elf_rel.c:119
    33bc:	b8616842 	ldr	w2, [x2, x1]
/media/home/beste/01_Pro/ld25x/bsp_hu/MYD-LD25X-Uboot-L2022.10-V1.0.0/GEN_FIP/myir-st-optee/ldelf/ta_elf_rel.c:120
    33c0:	b9400497 	ldr	w23, [x4, #4]
/media/home/beste/01_Pro/ld25x/bsp_hu/MYD-LD25X-Uboot-L2022.10-V1.0.0/GEN_FIP/myir-st-optee/ldelf/ta_elf_rel.c:116
    33c4:	53047e99 	lsr	w25, w20, #4
/media/home/beste/01_Pro/ld25x/bsp_hu/MYD-LD25X-Uboot-L2022.10-V1.0.0/GEN_FIP/myir-st-optee/ldelf/ta_elf_rel.c:117
    33c8:	12000e94 	and	w20, w20, #0xf
sym_compare():
/media/home/beste/01_Pro/ld25x/bsp_hu/MYD-LD25X-Uboot-L2022.10-V1.0.0/GEN_FIP/myir-st-optee/ldelf/ta_elf_rel.c:53
    33cc:	b4000a02 	cbz	x2, 350c <check_found_sym+0x1d4>
/media/home/beste/01_Pro/ld25x/bsp_hu/MYD-LD25X-Uboot-L2022.10-V1.0.0/GEN_FIP/myir-st-optee/ldelf/ta_elf_rel.c:55
    33d0:	f9403e61 	ldr	x1, [x19, #120]
    33d4:	eb01005f 	cmp	x2, x1
    33d8:	54000269 	b.ls	3424 <check_found_sym+0xec>  // b.plast
/media/home/beste/01_Pro/ld25x/bsp_hu/MYD-LD25X-Uboot-L2022.10-V1.0.0/GEN_FIP/myir-st-optee/ldelf/ta_elf_rel.c:56
    33dc:	90000024 	adrp	x4, 7000 <trace_ext_prefix+0x6bc>
    33e0:	910c7884 	add	x4, x4, #0x31e
    33e4:	52800023 	mov	w3, #0x1                   	// #1
    33e8:	52800022 	mov	w2, #0x1                   	// #1
    33ec:	52800701 	mov	w1, #0x38                  	// #56
    33f0:	90000020 	adrp	x0, 7000 <trace_ext_prefix+0x6bc>
    33f4:	9117f800 	add	x0, x0, #0x5fe
    33f8:	17ffffe2 	b	3380 <check_found_sym+0x48>
check_found_sym():
/media/home/beste/01_Pro/ld25x/bsp_hu/MYD-LD25X-Uboot-L2022.10-V1.0.0/GEN_FIP/myir-st-optee/ldelf/ta_elf_rel.c:123
    33fc:	d2800301 	mov	x1, #0x18                  	// #24
    3400:	9b017c84 	mul	x4, x4, x1
    3404:	8b040041 	add	x1, x2, x4
/media/home/beste/01_Pro/ld25x/bsp_hu/MYD-LD25X-Uboot-L2022.10-V1.0.0/GEN_FIP/myir-st-optee/ldelf/ta_elf_rel.c:126
    3408:	b8646842 	ldr	w2, [x2, x4]
/media/home/beste/01_Pro/ld25x/bsp_hu/MYD-LD25X-Uboot-L2022.10-V1.0.0/GEN_FIP/myir-st-optee/ldelf/ta_elf_rel.c:123
    340c:	39401034 	ldrb	w20, [x1, #4]
/media/home/beste/01_Pro/ld25x/bsp_hu/MYD-LD25X-Uboot-L2022.10-V1.0.0/GEN_FIP/myir-st-optee/ldelf/ta_elf_rel.c:127
    3410:	f9400437 	ldr	x23, [x1, #8]
/media/home/beste/01_Pro/ld25x/bsp_hu/MYD-LD25X-Uboot-L2022.10-V1.0.0/GEN_FIP/myir-st-optee/ldelf/ta_elf_rel.c:123
    3414:	53047e99 	lsr	w25, w20, #4
/media/home/beste/01_Pro/ld25x/bsp_hu/MYD-LD25X-Uboot-L2022.10-V1.0.0/GEN_FIP/myir-st-optee/ldelf/ta_elf_rel.c:125
    3418:	79400c38 	ldrh	w24, [x1, #6]
/media/home/beste/01_Pro/ld25x/bsp_hu/MYD-LD25X-Uboot-L2022.10-V1.0.0/GEN_FIP/myir-st-optee/ldelf/ta_elf_rel.c:124
    341c:	12000e94 	and	w20, w20, #0xf
/media/home/beste/01_Pro/ld25x/bsp_hu/MYD-LD25X-Uboot-L2022.10-V1.0.0/GEN_FIP/myir-st-optee/ldelf/ta_elf_rel.c:127
    3420:	17ffffeb 	b	33cc <check_found_sym+0x94>
sym_compare():
/media/home/beste/01_Pro/ld25x/bsp_hu/MYD-LD25X-Uboot-L2022.10-V1.0.0/GEN_FIP/myir-st-optee/ldelf/ta_elf_rel.c:57
    3424:	f9403a61 	ldr	x1, [x19, #112]
    3428:	8b020021 	add	x1, x1, x2
    342c:	940008eb 	bl	57d8 <strcmp>
    3430:	350006e0 	cbnz	w0, 350c <check_found_sym+0x1d4>
/media/home/beste/01_Pro/ld25x/bsp_hu/MYD-LD25X-Uboot-L2022.10-V1.0.0/GEN_FIP/myir-st-optee/ldelf/ta_elf_rel.c:59
    3434:	7100073f 	cmp	w25, #0x1
    3438:	540002a1 	b.ne	348c <check_found_sym+0x154>  // b.any
/media/home/beste/01_Pro/ld25x/bsp_hu/MYD-LD25X-Uboot-L2022.10-V1.0.0/GEN_FIP/myir-st-optee/ldelf/ta_elf_rel.c:63
    343c:	f100031f 	cmp	x24, #0x0
    3440:	1a9f17e0 	cset	w0, eq	// eq = none
/media/home/beste/01_Pro/ld25x/bsp_hu/MYD-LD25X-Uboot-L2022.10-V1.0.0/GEN_FIP/myir-st-optee/ldelf/ta_elf_rel.c:68
    3444:	7100001f 	cmp	w0, #0x0
    3448:	d29fffe0 	mov	x0, #0xffff                	// #65535
    344c:	fa400304 	ccmp	x24, x0, #0x4, eq	// eq = none
    3450:	540005e0 	b.eq	350c <check_found_sym+0x1d4>  // b.none
/media/home/beste/01_Pro/ld25x/bsp_hu/MYD-LD25X-Uboot-L2022.10-V1.0.0/GEN_FIP/myir-st-optee/ldelf/ta_elf_rel.c:71
    3454:	71000a9f 	cmp	w20, #0x2
    3458:	540003a9 	b.ls	34cc <check_found_sym+0x194>  // b.plast
    345c:	71001a9f 	cmp	w20, #0x6
    3460:	54000520 	b.eq	3504 <check_found_sym+0x1cc>  // b.none
/media/home/beste/01_Pro/ld25x/bsp_hu/MYD-LD25X-Uboot-L2022.10-V1.0.0/GEN_FIP/myir-st-optee/ldelf/ta_elf_rel.c:86
    3464:	90000024 	adrp	x4, 7000 <trace_ext_prefix+0x6bc>
    3468:	52800023 	mov	w3, #0x1                   	// #1
    346c:	910d5084 	add	x4, x4, #0x354
    3470:	52800022 	mov	w2, #0x1                   	// #1
    3474:	52800ac1 	mov	w1, #0x56                  	// #86
    3478:	90000020 	adrp	x0, 7000 <trace_ext_prefix+0x6bc>
    347c:	9117f800 	add	x0, x0, #0x5fe
    3480:	94000cb1 	bl	6744 <trace_printf>
    3484:	129ffea0 	mov	w0, #0xffff000a            	// #-65526
    3488:	17ffffc0 	b	3388 <check_found_sym+0x50>
/media/home/beste/01_Pro/ld25x/bsp_hu/MYD-LD25X-Uboot-L2022.10-V1.0.0/GEN_FIP/myir-st-optee/ldelf/ta_elf_rel.c:59
    348c:	71000b3f 	cmp	w25, #0x2
    3490:	1a9f17e0 	cset	w0, eq	// eq = none
    3494:	6a0002a0 	ands	w0, w21, w0
    3498:	540000a0 	b.eq	34ac <check_found_sym+0x174>  // b.none
/media/home/beste/01_Pro/ld25x/bsp_hu/MYD-LD25X-Uboot-L2022.10-V1.0.0/GEN_FIP/myir-st-optee/ldelf/ta_elf_rel.c:63
    349c:	b5000158 	cbnz	x24, 34c4 <check_found_sym+0x18c>
/media/home/beste/01_Pro/ld25x/bsp_hu/MYD-LD25X-Uboot-L2022.10-V1.0.0/GEN_FIP/myir-st-optee/ldelf/ta_elf_rel.c:64
    34a0:	b4000056 	cbz	x22, 34a8 <check_found_sym+0x170>
/media/home/beste/01_Pro/ld25x/bsp_hu/MYD-LD25X-Uboot-L2022.10-V1.0.0/GEN_FIP/myir-st-optee/ldelf/ta_elf_rel.c:65
    34a4:	f90002df 	str	xzr, [x22]
/media/home/beste/01_Pro/ld25x/bsp_hu/MYD-LD25X-Uboot-L2022.10-V1.0.0/GEN_FIP/myir-st-optee/ldelf/ta_elf_rel.c:66
    34a8:	52800020 	mov	w0, #0x1                   	// #1
check_found_sym():
/media/home/beste/01_Pro/ld25x/bsp_hu/MYD-LD25X-Uboot-L2022.10-V1.0.0/GEN_FIP/myir-st-optee/ldelf/ta_elf_rel.c:132
    34ac:	a94153f3 	ldp	x19, x20, [sp, #16]
    34b0:	a9425bf5 	ldp	x21, x22, [sp, #32]
    34b4:	a94363f7 	ldp	x23, x24, [sp, #48]
    34b8:	f94023f9 	ldr	x25, [sp, #64]
    34bc:	a8c57bfd 	ldp	x29, x30, [sp], #80
    34c0:	d65f03c0 	ret
sym_compare():
/media/home/beste/01_Pro/ld25x/bsp_hu/MYD-LD25X-Uboot-L2022.10-V1.0.0/GEN_FIP/myir-st-optee/ldelf/ta_elf_rel.c:63
    34c4:	52800000 	mov	w0, #0x0                   	// #0
    34c8:	17ffffdf 	b	3444 <check_found_sym+0x10c>
/media/home/beste/01_Pro/ld25x/bsp_hu/MYD-LD25X-Uboot-L2022.10-V1.0.0/GEN_FIP/myir-st-optee/ldelf/ta_elf_rel.c:75
    34cc:	a9408261 	ldp	x1, x0, [x19, #8]
    34d0:	cb010000 	sub	x0, x0, x1
    34d4:	eb0002ff 	cmp	x23, x0
    34d8:	540000e9 	b.ls	34f4 <check_found_sym+0x1bc>  // b.plast
/media/home/beste/01_Pro/ld25x/bsp_hu/MYD-LD25X-Uboot-L2022.10-V1.0.0/GEN_FIP/myir-st-optee/ldelf/ta_elf_rel.c:76
    34dc:	90000024 	adrp	x4, 7000 <trace_ext_prefix+0x6bc>
    34e0:	52800023 	mov	w3, #0x1                   	// #1
    34e4:	910cdc84 	add	x4, x4, #0x337
    34e8:	52800022 	mov	w2, #0x1                   	// #1
    34ec:	52800981 	mov	w1, #0x4c                  	// #76
    34f0:	17ffffc0 	b	33f0 <check_found_sym+0xb8>
/media/home/beste/01_Pro/ld25x/bsp_hu/MYD-LD25X-Uboot-L2022.10-V1.0.0/GEN_FIP/myir-st-optee/ldelf/ta_elf_rel.c:78
    34f4:	b4fffdb6 	cbz	x22, 34a8 <check_found_sym+0x170>
/media/home/beste/01_Pro/ld25x/bsp_hu/MYD-LD25X-Uboot-L2022.10-V1.0.0/GEN_FIP/myir-st-optee/ldelf/ta_elf_rel.c:79
    34f8:	8b0102f7 	add	x23, x23, x1
/media/home/beste/01_Pro/ld25x/bsp_hu/MYD-LD25X-Uboot-L2022.10-V1.0.0/GEN_FIP/myir-st-optee/ldelf/ta_elf_rel.c:83
    34fc:	f90002d7 	str	x23, [x22]
    3500:	17ffffea 	b	34a8 <check_found_sym+0x170>
/media/home/beste/01_Pro/ld25x/bsp_hu/MYD-LD25X-Uboot-L2022.10-V1.0.0/GEN_FIP/myir-st-optee/ldelf/ta_elf_rel.c:82
    3504:	b5ffffd6 	cbnz	x22, 34fc <check_found_sym+0x1c4>
    3508:	17ffffe8 	b	34a8 <check_found_sym+0x170>
/media/home/beste/01_Pro/ld25x/bsp_hu/MYD-LD25X-Uboot-L2022.10-V1.0.0/GEN_FIP/myir-st-optee/ldelf/ta_elf_rel.c:54
    350c:	52800000 	mov	w0, #0x0                   	// #0
    3510:	17ffffe7 	b	34ac <check_found_sym+0x174>

0000000000003514 <resolve_sym_helper>:
resolve_sym_helper():
/media/home/beste/01_Pro/ld25x/bsp_hu/MYD-LD25X-Uboot-L2022.10-V1.0.0/GEN_FIP/myir-st-optee/ldelf/ta_elf_rel.c:136
    3514:	a9b97bfd 	stp	x29, x30, [sp, #-112]!
    3518:	910003fd 	mov	x29, sp
    351c:	a90363f7 	stp	x23, x24, [sp, #48]
    3520:	aa0203f8 	mov	x24, x2
/media/home/beste/01_Pro/ld25x/bsp_hu/MYD-LD25X-Uboot-L2022.10-V1.0.0/GEN_FIP/myir-st-optee/ldelf/ta_elf_rel.c:140
    3524:	f9404457 	ldr	x23, [x2, #136]
/media/home/beste/01_Pro/ld25x/bsp_hu/MYD-LD25X-Uboot-L2022.10-V1.0.0/GEN_FIP/myir-st-optee/ldelf/ta_elf_rel.c:136
    3528:	a90153f3 	stp	x19, x20, [sp, #16]
    352c:	aa0103f4 	mov	x20, x1
    3530:	a9025bf5 	stp	x21, x22, [sp, #32]
    3534:	12001c75 	and	w21, w3, #0xff
    3538:	a9046bf9 	stp	x25, x26, [sp, #64]
    353c:	aa0003f9 	mov	x25, x0
    3540:	a90573fb 	stp	x27, x28, [sp, #80]
/media/home/beste/01_Pro/ld25x/bsp_hu/MYD-LD25X-Uboot-L2022.10-V1.0.0/GEN_FIP/myir-st-optee/ldelf/ta_elf_rel.c:140
    3544:	b4000ad7 	cbz	x23, 369c <resolve_sym_helper+0x188>
/media/home/beste/01_Pro/ld25x/bsp_hu/MYD-LD25X-Uboot-L2022.10-V1.0.0/GEN_FIP/myir-st-optee/ldelf/ta_elf_rel.c:143
    3548:	f940485b 	ldr	x27, [x2, #144]
gnu_hash():
/media/home/beste/01_Pro/ld25x/bsp_hu/MYD-LD25X-Uboot-L2022.10-V1.0.0/GEN_FIP/myir-st-optee/ldelf/ta_elf_rel.c:38
    354c:	5282a0a3 	mov	w3, #0x1505                	// #5381
/media/home/beste/01_Pro/ld25x/bsp_hu/MYD-LD25X-Uboot-L2022.10-V1.0.0/GEN_FIP/myir-st-optee/ldelf/ta_elf_rel.c:40
    3550:	39400001 	ldrb	w1, [x0]
    3554:	35000321 	cbnz	w1, 35b8 <resolve_sym_helper+0xa4>
resolve_sym_helper():
/media/home/beste/01_Pro/ld25x/bsp_hu/MYD-LD25X-Uboot-L2022.10-V1.0.0/GEN_FIP/myir-st-optee/ldelf/ta_elf_rel.c:154
    3558:	294106e4 	ldp	w4, w1, [x23, #8]
/media/home/beste/01_Pro/ld25x/bsp_hu/MYD-LD25X-Uboot-L2022.10-V1.0.0/GEN_FIP/myir-st-optee/ldelf/ta_elf_rel.c:150
    355c:	39400700 	ldrb	w0, [x24, #1]
/media/home/beste/01_Pro/ld25x/bsp_hu/MYD-LD25X-Uboot-L2022.10-V1.0.0/GEN_FIP/myir-st-optee/ldelf/ta_elf_rel.c:154
    3560:	1ac12461 	lsr	w1, w3, w1
/media/home/beste/01_Pro/ld25x/bsp_hu/MYD-LD25X-Uboot-L2022.10-V1.0.0/GEN_FIP/myir-st-optee/ldelf/ta_elf_rel.c:150
    3564:	34000660 	cbz	w0, 3630 <resolve_sym_helper+0x11c>
/media/home/beste/01_Pro/ld25x/bsp_hu/MYD-LD25X-Uboot-L2022.10-V1.0.0/GEN_FIP/myir-st-optee/ldelf/ta_elf_rel.c:153
    3568:	52800020 	mov	w0, #0x1                   	// #1
    356c:	1ac32002 	lsl	w2, w0, w3
/media/home/beste/01_Pro/ld25x/bsp_hu/MYD-LD25X-Uboot-L2022.10-V1.0.0/GEN_FIP/myir-st-optee/ldelf/ta_elf_rel.c:154
    3570:	1ac12000 	lsl	w0, w0, w1
/media/home/beste/01_Pro/ld25x/bsp_hu/MYD-LD25X-Uboot-L2022.10-V1.0.0/GEN_FIP/myir-st-optee/ldelf/ta_elf_rel.c:152
    3574:	53057c61 	lsr	w1, w3, #5
/media/home/beste/01_Pro/ld25x/bsp_hu/MYD-LD25X-Uboot-L2022.10-V1.0.0/GEN_FIP/myir-st-optee/ldelf/ta_elf_rel.c:153
    3578:	2a000042 	orr	w2, w2, w0
/media/home/beste/01_Pro/ld25x/bsp_hu/MYD-LD25X-Uboot-L2022.10-V1.0.0/GEN_FIP/myir-st-optee/ldelf/ta_elf_rel.c:152
    357c:	1ac40820 	udiv	w0, w1, w4
    3580:	1b048400 	msub	w0, w0, w4, w1
    3584:	d2800201 	mov	x1, #0x10                  	// #16
    3588:	8b204820 	add	x0, x1, w0, uxtw #2
/media/home/beste/01_Pro/ld25x/bsp_hu/MYD-LD25X-Uboot-L2022.10-V1.0.0/GEN_FIP/myir-st-optee/ldelf/ta_elf_rel.c:156
    358c:	b8606ae0 	ldr	w0, [x23, x0]
    3590:	6a20005f 	bics	wzr, w2, w0
    3594:	540001a0 	b.eq	35c8 <resolve_sym_helper+0xb4>  // b.none
/media/home/beste/01_Pro/ld25x/bsp_hu/MYD-LD25X-Uboot-L2022.10-V1.0.0/GEN_FIP/myir-st-optee/ldelf/ta_elf_rel.c:157
    3598:	129ffee0 	mov	w0, #0xffff0008            	// #-65528
/media/home/beste/01_Pro/ld25x/bsp_hu/MYD-LD25X-Uboot-L2022.10-V1.0.0/GEN_FIP/myir-st-optee/ldelf/ta_elf_rel.c:212
    359c:	a94153f3 	ldp	x19, x20, [sp, #16]
    35a0:	a9425bf5 	ldp	x21, x22, [sp, #32]
    35a4:	a94363f7 	ldp	x23, x24, [sp, #48]
    35a8:	a9446bf9 	ldp	x25, x26, [sp, #64]
    35ac:	a94573fb 	ldp	x27, x28, [sp, #80]
    35b0:	a8c77bfd 	ldp	x29, x30, [sp], #112
    35b4:	d65f03c0 	ret
gnu_hash():
/media/home/beste/01_Pro/ld25x/bsp_hu/MYD-LD25X-Uboot-L2022.10-V1.0.0/GEN_FIP/myir-st-optee/ldelf/ta_elf_rel.c:41
    35b8:	0b031463 	add	w3, w3, w3, lsl #5
    35bc:	91000400 	add	x0, x0, #0x1
    35c0:	0b030023 	add	w3, w1, w3
    35c4:	17ffffe3 	b	3550 <resolve_sym_helper+0x3c>
resolve_sym_helper():
/media/home/beste/01_Pro/ld25x/bsp_hu/MYD-LD25X-Uboot-L2022.10-V1.0.0/GEN_FIP/myir-st-optee/ldelf/ta_elf_rel.c:158
    35c8:	8b244821 	add	x1, x1, w4, uxtw #2
    35cc:	8b0102f6 	add	x22, x23, x1
/media/home/beste/01_Pro/ld25x/bsp_hu/MYD-LD25X-Uboot-L2022.10-V1.0.0/GEN_FIP/myir-st-optee/ldelf/ta_elf_rel.c:169
    35d0:	b94002e1 	ldr	w1, [x23]
    35d4:	2a0103e5 	mov	w5, w1
/media/home/beste/01_Pro/ld25x/bsp_hu/MYD-LD25X-Uboot-L2022.10-V1.0.0/GEN_FIP/myir-st-optee/ldelf/ta_elf_rel.c:171
    35d8:	1ac10860 	udiv	w0, w3, w1
    35dc:	1b018c00 	msub	w0, w0, w1, w3
    35e0:	b8607ada 	ldr	w26, [x22, x0, lsl #2]
/media/home/beste/01_Pro/ld25x/bsp_hu/MYD-LD25X-Uboot-L2022.10-V1.0.0/GEN_FIP/myir-st-optee/ldelf/ta_elf_rel.c:172
    35e4:	b94006e0 	ldr	w0, [x23, #4]
    35e8:	6b1a001f 	cmp	w0, w26
    35ec:	54fffd68 	b.hi	3598 <resolve_sym_helper+0x84>  // b.pmore
/media/home/beste/01_Pro/ld25x/bsp_hu/MYD-LD25X-Uboot-L2022.10-V1.0.0/GEN_FIP/myir-st-optee/ldelf/ta_elf_rel.c:142
    35f0:	8b1b02fb 	add	x27, x23, x27
/media/home/beste/01_Pro/ld25x/bsp_hu/MYD-LD25X-Uboot-L2022.10-V1.0.0/GEN_FIP/myir-st-optee/ldelf/ta_elf_rel.c:175
    35f4:	32000073 	orr	w19, w3, #0x1
/media/home/beste/01_Pro/ld25x/bsp_hu/MYD-LD25X-Uboot-L2022.10-V1.0.0/GEN_FIP/myir-st-optee/ldelf/ta_elf_rel.c:177
    35f8:	b94006e3 	ldr	w3, [x23, #4]
    35fc:	4b030343 	sub	w3, w26, w3
/media/home/beste/01_Pro/ld25x/bsp_hu/MYD-LD25X-Uboot-L2022.10-V1.0.0/GEN_FIP/myir-st-optee/ldelf/ta_elf_rel.c:179
    3600:	8b050063 	add	x3, x3, x5
    3604:	d37ef460 	lsl	x0, x3, #2
    3608:	8b030ac3 	add	x3, x22, x3, lsl #2
    360c:	eb1b007f 	cmp	x3, x27
    3610:	54fffc48 	b.hi	3598 <resolve_sym_helper+0x84>  // b.pmore
/media/home/beste/01_Pro/ld25x/bsp_hu/MYD-LD25X-Uboot-L2022.10-V1.0.0/GEN_FIP/myir-st-optee/ldelf/ta_elf_rel.c:182
    3614:	b8606adc 	ldr	w28, [x22, x0]
/media/home/beste/01_Pro/ld25x/bsp_hu/MYD-LD25X-Uboot-L2022.10-V1.0.0/GEN_FIP/myir-st-optee/ldelf/ta_elf_rel.c:184
    3618:	32000380 	orr	w0, w28, #0x1
    361c:	6b13001f 	cmp	w0, w19
    3620:	54000260 	b.eq	366c <resolve_sym_helper+0x158>  // b.none
/media/home/beste/01_Pro/ld25x/bsp_hu/MYD-LD25X-Uboot-L2022.10-V1.0.0/GEN_FIP/myir-st-optee/ldelf/ta_elf_rel.c:188
    3624:	1100075a 	add	w26, w26, #0x1
/media/home/beste/01_Pro/ld25x/bsp_hu/MYD-LD25X-Uboot-L2022.10-V1.0.0/GEN_FIP/myir-st-optee/ldelf/ta_elf_rel.c:189
    3628:	3607fe9c 	tbz	w28, #0, 35f8 <resolve_sym_helper+0xe4>
    362c:	17ffffdb 	b	3598 <resolve_sym_helper+0x84>
/media/home/beste/01_Pro/ld25x/bsp_hu/MYD-LD25X-Uboot-L2022.10-V1.0.0/GEN_FIP/myir-st-optee/ldelf/ta_elf_rel.c:162
    3630:	d2800020 	mov	x0, #0x1                   	// #1
    3634:	9ac32002 	lsl	x2, x0, x3
/media/home/beste/01_Pro/ld25x/bsp_hu/MYD-LD25X-Uboot-L2022.10-V1.0.0/GEN_FIP/myir-st-optee/ldelf/ta_elf_rel.c:163
    3638:	9ac12000 	lsl	x0, x0, x1
/media/home/beste/01_Pro/ld25x/bsp_hu/MYD-LD25X-Uboot-L2022.10-V1.0.0/GEN_FIP/myir-st-optee/ldelf/ta_elf_rel.c:162
    363c:	aa000041 	orr	x1, x2, x0
/media/home/beste/01_Pro/ld25x/bsp_hu/MYD-LD25X-Uboot-L2022.10-V1.0.0/GEN_FIP/myir-st-optee/ldelf/ta_elf_rel.c:161
    3640:	53067c62 	lsr	w2, w3, #6
    3644:	1ac40840 	udiv	w0, w2, w4
    3648:	1b048800 	msub	w0, w0, w4, w2
    364c:	d2800202 	mov	x2, #0x10                  	// #16
    3650:	8b204c40 	add	x0, x2, w0, uxtw #3
/media/home/beste/01_Pro/ld25x/bsp_hu/MYD-LD25X-Uboot-L2022.10-V1.0.0/GEN_FIP/myir-st-optee/ldelf/ta_elf_rel.c:165
    3654:	f8606ae0 	ldr	x0, [x23, x0]
    3658:	ea20003f 	bics	xzr, x1, x0
    365c:	54fff9e1 	b.ne	3598 <resolve_sym_helper+0x84>  // b.any
/media/home/beste/01_Pro/ld25x/bsp_hu/MYD-LD25X-Uboot-L2022.10-V1.0.0/GEN_FIP/myir-st-optee/ldelf/ta_elf_rel.c:167
    3660:	8b244c44 	add	x4, x2, w4, uxtw #3
    3664:	8b0402f6 	add	x22, x23, x4
    3668:	17ffffda 	b	35d0 <resolve_sym_helper+0xbc>
/media/home/beste/01_Pro/ld25x/bsp_hu/MYD-LD25X-Uboot-L2022.10-V1.0.0/GEN_FIP/myir-st-optee/ldelf/ta_elf_rel.c:185 (discriminator 1)
    366c:	2a1a03e4 	mov	w4, w26
    3670:	2a1503e3 	mov	w3, w21
    3674:	aa1403e2 	mov	x2, x20
    3678:	aa1903e1 	mov	x1, x25
    367c:	aa1803e0 	mov	x0, x24
    3680:	f90037e5 	str	x5, [sp, #104]
    3684:	97ffff2d 	bl	3338 <check_found_sym>
/media/home/beste/01_Pro/ld25x/bsp_hu/MYD-LD25X-Uboot-L2022.10-V1.0.0/GEN_FIP/myir-st-optee/ldelf/ta_elf_rel.c:184 (discriminator 1)
    3688:	72001c1f 	tst	w0, #0xff
    368c:	f94037e5 	ldr	x5, [sp, #104]
    3690:	54fffca0 	b.eq	3624 <resolve_sym_helper+0x110>  // b.none
/media/home/beste/01_Pro/ld25x/bsp_hu/MYD-LD25X-Uboot-L2022.10-V1.0.0/GEN_FIP/myir-st-optee/ldelf/ta_elf_rel.c:186
    3694:	52800000 	mov	w0, #0x0                   	// #0
    3698:	17ffffc1 	b	359c <resolve_sym_helper+0x88>
/media/home/beste/01_Pro/ld25x/bsp_hu/MYD-LD25X-Uboot-L2022.10-V1.0.0/GEN_FIP/myir-st-optee/ldelf/ta_elf_rel.c:190
    369c:	f9404042 	ldr	x2, [x2, #128]
    36a0:	b4fff7c2 	cbz	x2, 3598 <resolve_sym_helper+0x84>
/media/home/beste/01_Pro/ld25x/bsp_hu/MYD-LD25X-Uboot-L2022.10-V1.0.0/GEN_FIP/myir-st-optee/ldelf/ta_elf_rel.c:197
    36a4:	29406841 	ldp	w1, w26, [x2]
/media/home/beste/01_Pro/ld25x/bsp_hu/MYD-LD25X-Uboot-L2022.10-V1.0.0/GEN_FIP/myir-st-optee/ldelf/ta_elf_rel.c:198
    36a8:	91002056 	add	x22, x2, #0x8
elf_hash():
/media/home/beste/01_Pro/ld25x/bsp_hu/MYD-LD25X-Uboot-L2022.10-V1.0.0/GEN_FIP/myir-st-optee/ldelf/ta_elf_rel.c:22
    36ac:	52800003 	mov	w3, #0x0                   	// #0
resolve_sym_helper():
/media/home/beste/01_Pro/ld25x/bsp_hu/MYD-LD25X-Uboot-L2022.10-V1.0.0/GEN_FIP/myir-st-optee/ldelf/ta_elf_rel.c:199
    36b0:	2a0103f7 	mov	w23, w1
elf_hash():
/media/home/beste/01_Pro/ld25x/bsp_hu/MYD-LD25X-Uboot-L2022.10-V1.0.0/GEN_FIP/myir-st-optee/ldelf/ta_elf_rel.c:25
    36b4:	39400002 	ldrb	w2, [x0]
    36b8:	35000222 	cbnz	w2, 36fc <resolve_sym_helper+0x1e8>
resolve_sym_helper():
/media/home/beste/01_Pro/ld25x/bsp_hu/MYD-LD25X-Uboot-L2022.10-V1.0.0/GEN_FIP/myir-st-optee/ldelf/ta_elf_rel.c:203
    36bc:	1ac10860 	udiv	w0, w3, w1
    36c0:	1b018c00 	msub	w0, w0, w1, w3
    36c4:	b8607ac4 	ldr	w4, [x22, x0, lsl #2]
/media/home/beste/01_Pro/ld25x/bsp_hu/MYD-LD25X-Uboot-L2022.10-V1.0.0/GEN_FIP/myir-st-optee/ldelf/ta_elf_rel.c:203 (discriminator 1)
    36c8:	34fff684 	cbz	w4, 3598 <resolve_sym_helper+0x84>
/media/home/beste/01_Pro/ld25x/bsp_hu/MYD-LD25X-Uboot-L2022.10-V1.0.0/GEN_FIP/myir-st-optee/ldelf/ta_elf_rel.c:204
    36cc:	6b1a009f 	cmp	w4, w26
    36d0:	54000243 	b.cc	3718 <resolve_sym_helper+0x204>  // b.lo, b.ul, b.last
/media/home/beste/01_Pro/ld25x/bsp_hu/MYD-LD25X-Uboot-L2022.10-V1.0.0/GEN_FIP/myir-st-optee/ldelf/ta_elf_rel.c:205
    36d4:	90000024 	adrp	x4, 7000 <trace_ext_prefix+0x6bc>
    36d8:	910c2c84 	add	x4, x4, #0x30b
    36dc:	52800023 	mov	w3, #0x1                   	// #1
    36e0:	52800022 	mov	w2, #0x1                   	// #1
    36e4:	528019a1 	mov	w1, #0xcd                  	// #205
    36e8:	90000020 	adrp	x0, 7000 <trace_ext_prefix+0x6bc>
    36ec:	91186800 	add	x0, x0, #0x61a
    36f0:	94000c15 	bl	6744 <trace_printf>
    36f4:	129fff40 	mov	w0, #0xffff0005            	// #-65531
    36f8:	97fff297 	bl	154 <_ldelf_return>
elf_hash():
/media/home/beste/01_Pro/ld25x/bsp_hu/MYD-LD25X-Uboot-L2022.10-V1.0.0/GEN_FIP/myir-st-optee/ldelf/ta_elf_rel.c:26
    36fc:	0b031043 	add	w3, w2, w3, lsl #4
    3700:	91000400 	add	x0, x0, #0x1
/media/home/beste/01_Pro/ld25x/bsp_hu/MYD-LD25X-Uboot-L2022.10-V1.0.0/GEN_FIP/myir-st-optee/ldelf/ta_elf_rel.c:28
    3704:	72040c62 	ands	w2, w3, #0xf0000000
    3708:	54000040 	b.eq	3710 <resolve_sym_helper+0x1fc>  // b.none
/media/home/beste/01_Pro/ld25x/bsp_hu/MYD-LD25X-Uboot-L2022.10-V1.0.0/GEN_FIP/myir-st-optee/ldelf/ta_elf_rel.c:29
    370c:	4a426063 	eor	w3, w3, w2, lsr #24
/media/home/beste/01_Pro/ld25x/bsp_hu/MYD-LD25X-Uboot-L2022.10-V1.0.0/GEN_FIP/myir-st-optee/ldelf/ta_elf_rel.c:30
    3710:	0a220063 	bic	w3, w3, w2
    3714:	17ffffe8 	b	36b4 <resolve_sym_helper+0x1a0>
resolve_sym_helper():
/media/home/beste/01_Pro/ld25x/bsp_hu/MYD-LD25X-Uboot-L2022.10-V1.0.0/GEN_FIP/myir-st-optee/ldelf/ta_elf_rel.c:206
    3718:	2a0403f3 	mov	w19, w4
    371c:	2a1503e3 	mov	w3, w21
    3720:	aa1303e4 	mov	x4, x19
    3724:	aa1403e2 	mov	x2, x20
    3728:	aa1903e1 	mov	x1, x25
    372c:	aa1803e0 	mov	x0, x24
    3730:	97ffff02 	bl	3338 <check_found_sym>
    3734:	72001c1f 	tst	w0, #0xff
    3738:	54fffae1 	b.ne	3694 <resolve_sym_helper+0x180>  // b.any
/media/home/beste/01_Pro/ld25x/bsp_hu/MYD-LD25X-Uboot-L2022.10-V1.0.0/GEN_FIP/myir-st-optee/ldelf/ta_elf_rel.c:203 (discriminator 2)
    373c:	8b1302e4 	add	x4, x23, x19
    3740:	b8647ac4 	ldr	w4, [x22, x4, lsl #2]
    3744:	17ffffe1 	b	36c8 <resolve_sym_helper+0x1b4>

0000000000003748 <e32_get_sym_name.constprop.0.isra.0>:
e32_get_sym_name():
/media/home/beste/01_Pro/ld25x/bsp_hu/MYD-LD25X-Uboot-L2022.10-V1.0.0/GEN_FIP/myir-st-optee/ldelf/ta_elf_rel.c:250
    3748:	a9bf7bfd 	stp	x29, x30, [sp, #-16]!
/media/home/beste/01_Pro/ld25x/bsp_hu/MYD-LD25X-Uboot-L2022.10-V1.0.0/GEN_FIP/myir-st-optee/ldelf/ta_elf_rel.c:258
    374c:	53087c84 	lsr	w4, w4, #8
/media/home/beste/01_Pro/ld25x/bsp_hu/MYD-LD25X-Uboot-L2022.10-V1.0.0/GEN_FIP/myir-st-optee/ldelf/ta_elf_rel.c:250
    3750:	910003fd 	mov	x29, sp
/media/home/beste/01_Pro/ld25x/bsp_hu/MYD-LD25X-Uboot-L2022.10-V1.0.0/GEN_FIP/myir-st-optee/ldelf/ta_elf_rel.c:259
    3754:	eb01009f 	cmp	x4, x1
    3758:	54000163 	b.cc	3784 <e32_get_sym_name.constprop.0.isra.0+0x3c>  // b.lo, b.ul, b.last
/media/home/beste/01_Pro/ld25x/bsp_hu/MYD-LD25X-Uboot-L2022.10-V1.0.0/GEN_FIP/myir-st-optee/ldelf/ta_elf_rel.c:260
    375c:	90000024 	adrp	x4, 7000 <trace_ext_prefix+0x6bc>
    3760:	910db884 	add	x4, x4, #0x36e
    3764:	52800023 	mov	w3, #0x1                   	// #1
    3768:	52800022 	mov	w2, #0x1                   	// #1
    376c:	52802081 	mov	w1, #0x104                 	// #260
/media/home/beste/01_Pro/ld25x/bsp_hu/MYD-LD25X-Uboot-L2022.10-V1.0.0/GEN_FIP/myir-st-optee/ldelf/ta_elf_rel.c:265
    3770:	90000020 	adrp	x0, 7000 <trace_ext_prefix+0x6bc>
    3774:	91178000 	add	x0, x0, #0x5e0
    3778:	94000bf3 	bl	6744 <trace_printf>
    377c:	129fff40 	mov	w0, #0xffff0005            	// #-65531
    3780:	97fff275 	bl	154 <_ldelf_return>
confine_array_index():
/media/home/beste/01_Pro/ld25x/bsp_hu/MYD-LD25X-Uboot-L2022.10-V1.0.0/GEN_FIP/myir-st-optee/lib/libutils/ext/include/confine_array_index.h:76
    3784:	eb01009f 	cmp	x4, x1
    3788:	9a9f3084 	csel	x4, x4, xzr, cc	// cc = lo, ul, last
    378c:	d503229f 	csdb
e32_get_sym_name():
/media/home/beste/01_Pro/ld25x/bsp_hu/MYD-LD25X-Uboot-L2022.10-V1.0.0/GEN_FIP/myir-st-optee/ldelf/ta_elf_rel.c:263
    3790:	d37cec81 	lsl	x1, x4, #4
    3794:	8b041004 	add	x4, x0, x4, lsl #4
    3798:	b8616800 	ldr	w0, [x0, x1]
/media/home/beste/01_Pro/ld25x/bsp_hu/MYD-LD25X-Uboot-L2022.10-V1.0.0/GEN_FIP/myir-st-optee/ldelf/ta_elf_rel.c:264
    379c:	eb03001f 	cmp	x0, x3
    37a0:	540000e3 	b.cc	37bc <e32_get_sym_name.constprop.0.isra.0+0x74>  // b.lo, b.ul, b.last
/media/home/beste/01_Pro/ld25x/bsp_hu/MYD-LD25X-Uboot-L2022.10-V1.0.0/GEN_FIP/myir-st-optee/ldelf/ta_elf_rel.c:265
    37a4:	90000024 	adrp	x4, 7000 <trace_ext_prefix+0x6bc>
    37a8:	52800023 	mov	w3, #0x1                   	// #1
    37ac:	910e2084 	add	x4, x4, #0x388
    37b0:	52800022 	mov	w2, #0x1                   	// #1
    37b4:	52802121 	mov	w1, #0x109                 	// #265
    37b8:	17ffffee 	b	3770 <e32_get_sym_name.constprop.0.isra.0+0x28>
/media/home/beste/01_Pro/ld25x/bsp_hu/MYD-LD25X-Uboot-L2022.10-V1.0.0/GEN_FIP/myir-st-optee/ldelf/ta_elf_rel.c:266
    37bc:	8b000042 	add	x2, x2, x0
    37c0:	f90000a2 	str	x2, [x5]
/media/home/beste/01_Pro/ld25x/bsp_hu/MYD-LD25X-Uboot-L2022.10-V1.0.0/GEN_FIP/myir-st-optee/ldelf/ta_elf_rel.c:268
    37c4:	b4000126 	cbz	x6, 37e8 <e32_get_sym_name.constprop.0.isra.0+0xa0>
/media/home/beste/01_Pro/ld25x/bsp_hu/MYD-LD25X-Uboot-L2022.10-V1.0.0/GEN_FIP/myir-st-optee/ldelf/ta_elf_rel.c:270
    37c8:	79401c80 	ldrh	w0, [x4, #14]
    37cc:	35000120 	cbnz	w0, 37f0 <e32_get_sym_name.constprop.0.isra.0+0xa8>
/media/home/beste/01_Pro/ld25x/bsp_hu/MYD-LD25X-Uboot-L2022.10-V1.0.0/GEN_FIP/myir-st-optee/ldelf/ta_elf_rel.c:271
    37d0:	39403080 	ldrb	w0, [x4, #12]
/media/home/beste/01_Pro/ld25x/bsp_hu/MYD-LD25X-Uboot-L2022.10-V1.0.0/GEN_FIP/myir-st-optee/ldelf/ta_elf_rel.c:270
    37d4:	53047c00 	lsr	w0, w0, #4
    37d8:	7100081f 	cmp	w0, #0x2
    37dc:	540000a1 	b.ne	37f0 <e32_get_sym_name.constprop.0.isra.0+0xa8>  // b.any
/media/home/beste/01_Pro/ld25x/bsp_hu/MYD-LD25X-Uboot-L2022.10-V1.0.0/GEN_FIP/myir-st-optee/ldelf/ta_elf_rel.c:272
    37e0:	52800020 	mov	w0, #0x1                   	// #1
    37e4:	390000c0 	strb	w0, [x6]
/media/home/beste/01_Pro/ld25x/bsp_hu/MYD-LD25X-Uboot-L2022.10-V1.0.0/GEN_FIP/myir-st-optee/ldelf/ta_elf_rel.c:275
    37e8:	a8c17bfd 	ldp	x29, x30, [sp], #16
    37ec:	d65f03c0 	ret
/media/home/beste/01_Pro/ld25x/bsp_hu/MYD-LD25X-Uboot-L2022.10-V1.0.0/GEN_FIP/myir-st-optee/ldelf/ta_elf_rel.c:274
    37f0:	390000df 	strb	wzr, [x6]
    37f4:	17fffffd 	b	37e8 <e32_get_sym_name.constprop.0.isra.0+0xa0>

00000000000037f8 <e64_get_sym_name.constprop.0.isra.0>:
e64_get_sym_name():
/media/home/beste/01_Pro/ld25x/bsp_hu/MYD-LD25X-Uboot-L2022.10-V1.0.0/GEN_FIP/myir-st-optee/ldelf/ta_elf_rel.c:482
    37f8:	a9bf7bfd 	stp	x29, x30, [sp, #-16]!
/media/home/beste/01_Pro/ld25x/bsp_hu/MYD-LD25X-Uboot-L2022.10-V1.0.0/GEN_FIP/myir-st-optee/ldelf/ta_elf_rel.c:490
    37fc:	d360fc84 	lsr	x4, x4, #32
/media/home/beste/01_Pro/ld25x/bsp_hu/MYD-LD25X-Uboot-L2022.10-V1.0.0/GEN_FIP/myir-st-optee/ldelf/ta_elf_rel.c:482
    3800:	910003fd 	mov	x29, sp
/media/home/beste/01_Pro/ld25x/bsp_hu/MYD-LD25X-Uboot-L2022.10-V1.0.0/GEN_FIP/myir-st-optee/ldelf/ta_elf_rel.c:491
    3804:	eb01009f 	cmp	x4, x1
    3808:	54000163 	b.cc	3834 <e64_get_sym_name.constprop.0.isra.0+0x3c>  // b.lo, b.ul, b.last
/media/home/beste/01_Pro/ld25x/bsp_hu/MYD-LD25X-Uboot-L2022.10-V1.0.0/GEN_FIP/myir-st-optee/ldelf/ta_elf_rel.c:492
    380c:	90000024 	adrp	x4, 7000 <trace_ext_prefix+0x6bc>
    3810:	910db884 	add	x4, x4, #0x36e
    3814:	52800023 	mov	w3, #0x1                   	// #1
    3818:	52800022 	mov	w2, #0x1                   	// #1
    381c:	52803d81 	mov	w1, #0x1ec                 	// #492
/media/home/beste/01_Pro/ld25x/bsp_hu/MYD-LD25X-Uboot-L2022.10-V1.0.0/GEN_FIP/myir-st-optee/ldelf/ta_elf_rel.c:497
    3820:	90000020 	adrp	x0, 7000 <trace_ext_prefix+0x6bc>
    3824:	91168c00 	add	x0, x0, #0x5a3
    3828:	94000bc7 	bl	6744 <trace_printf>
    382c:	129fff40 	mov	w0, #0xffff0005            	// #-65531
    3830:	97fff249 	bl	154 <_ldelf_return>
confine_array_index():
/media/home/beste/01_Pro/ld25x/bsp_hu/MYD-LD25X-Uboot-L2022.10-V1.0.0/GEN_FIP/myir-st-optee/lib/libutils/ext/include/confine_array_index.h:76
    3834:	eb01009f 	cmp	x4, x1
    3838:	9a9f3084 	csel	x4, x4, xzr, cc	// cc = lo, ul, last
    383c:	d503229f 	csdb
e64_get_sym_name():
/media/home/beste/01_Pro/ld25x/bsp_hu/MYD-LD25X-Uboot-L2022.10-V1.0.0/GEN_FIP/myir-st-optee/ldelf/ta_elf_rel.c:495
    3840:	d2800301 	mov	x1, #0x18                  	// #24
    3844:	9b017c84 	mul	x4, x4, x1
    3848:	8b040001 	add	x1, x0, x4
    384c:	b8646800 	ldr	w0, [x0, x4]
/media/home/beste/01_Pro/ld25x/bsp_hu/MYD-LD25X-Uboot-L2022.10-V1.0.0/GEN_FIP/myir-st-optee/ldelf/ta_elf_rel.c:496
    3850:	eb03001f 	cmp	x0, x3
    3854:	540000e3 	b.cc	3870 <e64_get_sym_name.constprop.0.isra.0+0x78>  // b.lo, b.ul, b.last
/media/home/beste/01_Pro/ld25x/bsp_hu/MYD-LD25X-Uboot-L2022.10-V1.0.0/GEN_FIP/myir-st-optee/ldelf/ta_elf_rel.c:497
    3858:	90000024 	adrp	x4, 7000 <trace_ext_prefix+0x6bc>
    385c:	52800023 	mov	w3, #0x1                   	// #1
    3860:	910e2084 	add	x4, x4, #0x388
    3864:	52800022 	mov	w2, #0x1                   	// #1
    3868:	52803e21 	mov	w1, #0x1f1                 	// #497
    386c:	17ffffed 	b	3820 <e64_get_sym_name.constprop.0.isra.0+0x28>
/media/home/beste/01_Pro/ld25x/bsp_hu/MYD-LD25X-Uboot-L2022.10-V1.0.0/GEN_FIP/myir-st-optee/ldelf/ta_elf_rel.c:498
    3870:	8b000042 	add	x2, x2, x0
/media/home/beste/01_Pro/ld25x/bsp_hu/MYD-LD25X-Uboot-L2022.10-V1.0.0/GEN_FIP/myir-st-optee/ldelf/ta_elf_rel.c:500
    3874:	79400c20 	ldrh	w0, [x1, #6]
/media/home/beste/01_Pro/ld25x/bsp_hu/MYD-LD25X-Uboot-L2022.10-V1.0.0/GEN_FIP/myir-st-optee/ldelf/ta_elf_rel.c:498
    3878:	f90000a2 	str	x2, [x5]
/media/home/beste/01_Pro/ld25x/bsp_hu/MYD-LD25X-Uboot-L2022.10-V1.0.0/GEN_FIP/myir-st-optee/ldelf/ta_elf_rel.c:500
    387c:	35000100 	cbnz	w0, 389c <e64_get_sym_name.constprop.0.isra.0+0xa4>
/media/home/beste/01_Pro/ld25x/bsp_hu/MYD-LD25X-Uboot-L2022.10-V1.0.0/GEN_FIP/myir-st-optee/ldelf/ta_elf_rel.c:501
    3880:	39401020 	ldrb	w0, [x1, #4]
/media/home/beste/01_Pro/ld25x/bsp_hu/MYD-LD25X-Uboot-L2022.10-V1.0.0/GEN_FIP/myir-st-optee/ldelf/ta_elf_rel.c:500
    3884:	53047c00 	lsr	w0, w0, #4
    3888:	7100081f 	cmp	w0, #0x2
    388c:	1a9f17e0 	cset	w0, eq	// eq = none
/media/home/beste/01_Pro/ld25x/bsp_hu/MYD-LD25X-Uboot-L2022.10-V1.0.0/GEN_FIP/myir-st-optee/ldelf/ta_elf_rel.c:505
    3890:	a8c17bfd 	ldp	x29, x30, [sp], #16
    3894:	390000c0 	strb	w0, [x6]
    3898:	d65f03c0 	ret
/media/home/beste/01_Pro/ld25x/bsp_hu/MYD-LD25X-Uboot-L2022.10-V1.0.0/GEN_FIP/myir-st-optee/ldelf/ta_elf_rel.c:504
    389c:	52800000 	mov	w0, #0x0                   	// #0
    38a0:	17fffffc 	b	3890 <e64_get_sym_name.constprop.0.isra.0+0x98>

00000000000038a4 <ta_elf_resolve_sym>:
ta_elf_resolve_sym():
/media/home/beste/01_Pro/ld25x/bsp_hu/MYD-LD25X-Uboot-L2022.10-V1.0.0/GEN_FIP/myir-st-optee/ldelf/ta_elf_rel.c:225
    38a4:	a9bd7bfd 	stp	x29, x30, [sp, #-48]!
    38a8:	910003fd 	mov	x29, sp
    38ac:	a90153f3 	stp	x19, x20, [sp, #16]
    38b0:	aa0003f4 	mov	x20, x0
    38b4:	a9025bf5 	stp	x21, x22, [sp, #32]
    38b8:	aa0103f5 	mov	x21, x1
    38bc:	aa0203f6 	mov	x22, x2
/media/home/beste/01_Pro/ld25x/bsp_hu/MYD-LD25X-Uboot-L2022.10-V1.0.0/GEN_FIP/myir-st-optee/ldelf/ta_elf_rel.c:226
    38c0:	b5000143 	cbnz	x3, 38e8 <ta_elf_resolve_sym+0x44>
/media/home/beste/01_Pro/ld25x/bsp_hu/MYD-LD25X-Uboot-L2022.10-V1.0.0/GEN_FIP/myir-st-optee/ldelf/ta_elf_rel.c:235
    38c4:	b0000020 	adrp	x0, 8000 <_DYNAMIC>
    38c8:	f9409800 	ldr	x0, [x0, #304]
    38cc:	f9400013 	ldr	x19, [x0]
/media/home/beste/01_Pro/ld25x/bsp_hu/MYD-LD25X-Uboot-L2022.10-V1.0.0/GEN_FIP/myir-st-optee/ldelf/ta_elf_rel.c:235 (discriminator 1)
    38d0:	b5000293 	cbnz	x19, 3920 <ta_elf_resolve_sym+0x7c>
/media/home/beste/01_Pro/ld25x/bsp_hu/MYD-LD25X-Uboot-L2022.10-V1.0.0/GEN_FIP/myir-st-optee/ldelf/ta_elf_rel.c:242
    38d4:	129ffee0 	mov	w0, #0xffff0008            	// #-65528
/media/home/beste/01_Pro/ld25x/bsp_hu/MYD-LD25X-Uboot-L2022.10-V1.0.0/GEN_FIP/myir-st-optee/ldelf/ta_elf_rel.c:248
    38d8:	a94153f3 	ldp	x19, x20, [sp, #16]
    38dc:	a9425bf5 	ldp	x21, x22, [sp, #32]
    38e0:	a8c37bfd 	ldp	x29, x30, [sp], #48
    38e4:	d65f03c0 	ret
    38e8:	aa0303f3 	mov	x19, x3
/media/home/beste/01_Pro/ld25x/bsp_hu/MYD-LD25X-Uboot-L2022.10-V1.0.0/GEN_FIP/myir-st-optee/ldelf/ta_elf_rel.c:228
    38ec:	52800003 	mov	w3, #0x0                   	// #0
    38f0:	aa1303e2 	mov	x2, x19
    38f4:	97ffff08 	bl	3514 <resolve_sym_helper>
    38f8:	340000e0 	cbz	w0, 3914 <ta_elf_resolve_sym+0x70>
/media/home/beste/01_Pro/ld25x/bsp_hu/MYD-LD25X-Uboot-L2022.10-V1.0.0/GEN_FIP/myir-st-optee/ldelf/ta_elf_rel.c:231
    38fc:	aa1303e2 	mov	x2, x19
    3900:	aa1503e1 	mov	x1, x21
    3904:	aa1403e0 	mov	x0, x20
    3908:	52800023 	mov	w3, #0x1                   	// #1
    390c:	97ffff02 	bl	3514 <resolve_sym_helper>
    3910:	35fffda0 	cbnz	w0, 38c4 <ta_elf_resolve_sym+0x20>
/media/home/beste/01_Pro/ld25x/bsp_hu/MYD-LD25X-Uboot-L2022.10-V1.0.0/GEN_FIP/myir-st-optee/ldelf/ta_elf_rel.c:245
    3914:	b5000236 	cbnz	x22, 3958 <ta_elf_resolve_sym+0xb4>
/media/home/beste/01_Pro/ld25x/bsp_hu/MYD-LD25X-Uboot-L2022.10-V1.0.0/GEN_FIP/myir-st-optee/ldelf/ta_elf_rel.c:247
    3918:	52800000 	mov	w0, #0x0                   	// #0
    391c:	17ffffef 	b	38d8 <ta_elf_resolve_sym+0x34>
/media/home/beste/01_Pro/ld25x/bsp_hu/MYD-LD25X-Uboot-L2022.10-V1.0.0/GEN_FIP/myir-st-optee/ldelf/ta_elf_rel.c:236
    3920:	aa1303e2 	mov	x2, x19
    3924:	aa1503e1 	mov	x1, x21
    3928:	aa1403e0 	mov	x0, x20
    392c:	52800003 	mov	w3, #0x0                   	// #0
    3930:	97fffef9 	bl	3514 <resolve_sym_helper>
    3934:	34ffff00 	cbz	w0, 3914 <ta_elf_resolve_sym+0x70>
/media/home/beste/01_Pro/ld25x/bsp_hu/MYD-LD25X-Uboot-L2022.10-V1.0.0/GEN_FIP/myir-st-optee/ldelf/ta_elf_rel.c:238
    3938:	aa1303e2 	mov	x2, x19
    393c:	aa1503e1 	mov	x1, x21
    3940:	aa1403e0 	mov	x0, x20
    3944:	52800023 	mov	w3, #0x1                   	// #1
    3948:	97fffef3 	bl	3514 <resolve_sym_helper>
    394c:	34fffe40 	cbz	w0, 3914 <ta_elf_resolve_sym+0x70>
/media/home/beste/01_Pro/ld25x/bsp_hu/MYD-LD25X-Uboot-L2022.10-V1.0.0/GEN_FIP/myir-st-optee/ldelf/ta_elf_rel.c:235 (discriminator 2)
    3950:	f9409273 	ldr	x19, [x19, #288]
    3954:	17ffffdf 	b	38d0 <ta_elf_resolve_sym+0x2c>
/media/home/beste/01_Pro/ld25x/bsp_hu/MYD-LD25X-Uboot-L2022.10-V1.0.0/GEN_FIP/myir-st-optee/ldelf/ta_elf_rel.c:246
    3958:	f90002d3 	str	x19, [x22]
    395c:	17ffffef 	b	3918 <ta_elf_resolve_sym+0x74>

0000000000003960 <resolve_sym>:
resolve_sym():
/media/home/beste/01_Pro/ld25x/bsp_hu/MYD-LD25X-Uboot-L2022.10-V1.0.0/GEN_FIP/myir-st-optee/ldelf/ta_elf_rel.c:279
    3960:	a9bd7bfd 	stp	x29, x30, [sp, #-48]!
    3964:	910003fd 	mov	x29, sp
    3968:	a90153f3 	stp	x19, x20, [sp, #16]
    396c:	aa0103f4 	mov	x20, x1
    3970:	a9025bf5 	stp	x21, x22, [sp, #32]
    3974:	12001c76 	and	w22, w3, #0xff
    3978:	aa0003f5 	mov	x21, x0
/media/home/beste/01_Pro/ld25x/bsp_hu/MYD-LD25X-Uboot-L2022.10-V1.0.0/GEN_FIP/myir-st-optee/ldelf/ta_elf_rel.c:280
    397c:	d2800003 	mov	x3, #0x0                   	// #0
    3980:	97ffffc9 	bl	38a4 <ta_elf_resolve_sym>
/media/home/beste/01_Pro/ld25x/bsp_hu/MYD-LD25X-Uboot-L2022.10-V1.0.0/GEN_FIP/myir-st-optee/ldelf/ta_elf_rel.c:282
    3984:	340001e0 	cbz	w0, 39c0 <resolve_sym+0x60>
/media/home/beste/01_Pro/ld25x/bsp_hu/MYD-LD25X-Uboot-L2022.10-V1.0.0/GEN_FIP/myir-st-optee/ldelf/ta_elf_rel.c:283
    3988:	340001b6 	cbz	w22, 39bc <resolve_sym+0x5c>
/media/home/beste/01_Pro/ld25x/bsp_hu/MYD-LD25X-Uboot-L2022.10-V1.0.0/GEN_FIP/myir-st-optee/ldelf/ta_elf_rel.c:284
    398c:	aa1503e5 	mov	x5, x21
    3990:	90000024 	adrp	x4, 7000 <trace_ext_prefix+0x6bc>
    3994:	910e8084 	add	x4, x4, #0x3a0
    3998:	52800023 	mov	w3, #0x1                   	// #1
    399c:	52800022 	mov	w2, #0x1                   	// #1
    39a0:	52802381 	mov	w1, #0x11c                 	// #284
    39a4:	2a0003f3 	mov	w19, w0
    39a8:	90000020 	adrp	x0, 7000 <trace_ext_prefix+0x6bc>
    39ac:	91175000 	add	x0, x0, #0x5d4
    39b0:	94000b65 	bl	6744 <trace_printf>
    39b4:	2a1303e0 	mov	w0, w19
    39b8:	97fff1e7 	bl	154 <_ldelf_return>
/media/home/beste/01_Pro/ld25x/bsp_hu/MYD-LD25X-Uboot-L2022.10-V1.0.0/GEN_FIP/myir-st-optee/ldelf/ta_elf_rel.c:286
    39bc:	f900029f 	str	xzr, [x20]
/media/home/beste/01_Pro/ld25x/bsp_hu/MYD-LD25X-Uboot-L2022.10-V1.0.0/GEN_FIP/myir-st-optee/ldelf/ta_elf_rel.c:288
    39c0:	a94153f3 	ldp	x19, x20, [sp, #16]
    39c4:	a9425bf5 	ldp	x21, x22, [sp, #32]
    39c8:	a8c37bfd 	ldp	x29, x30, [sp], #48
    39cc:	d65f03c0 	ret

00000000000039d0 <e32_process_dyn_rel>:
e32_process_dyn_rel():
/media/home/beste/01_Pro/ld25x/bsp_hu/MYD-LD25X-Uboot-L2022.10-V1.0.0/GEN_FIP/myir-st-optee/ldelf/ta_elf_rel.c:293
    39d0:	a9bc7bfd 	stp	x29, x30, [sp, #-64]!
    39d4:	910003fd 	mov	x29, sp
/media/home/beste/01_Pro/ld25x/bsp_hu/MYD-LD25X-Uboot-L2022.10-V1.0.0/GEN_FIP/myir-st-optee/ldelf/ta_elf_rel.c:298
    39d8:	b9400484 	ldr	w4, [x4, #4]
    39dc:	9100bfe6 	add	x6, sp, #0x2f
/media/home/beste/01_Pro/ld25x/bsp_hu/MYD-LD25X-Uboot-L2022.10-V1.0.0/GEN_FIP/myir-st-optee/ldelf/ta_elf_rel.c:293
    39e0:	f9000bf3 	str	x19, [sp, #16]
    39e4:	aa0503f3 	mov	x19, x5
/media/home/beste/01_Pro/ld25x/bsp_hu/MYD-LD25X-Uboot-L2022.10-V1.0.0/GEN_FIP/myir-st-optee/ldelf/ta_elf_rel.c:298
    39e8:	9100c3e5 	add	x5, sp, #0x30
/media/home/beste/01_Pro/ld25x/bsp_hu/MYD-LD25X-Uboot-L2022.10-V1.0.0/GEN_FIP/myir-st-optee/ldelf/ta_elf_rel.c:296
    39ec:	3900bfff 	strb	wzr, [sp, #47]
/media/home/beste/01_Pro/ld25x/bsp_hu/MYD-LD25X-Uboot-L2022.10-V1.0.0/GEN_FIP/myir-st-optee/ldelf/ta_elf_rel.c:295
    39f0:	a9037fff 	stp	xzr, xzr, [sp, #48]
/media/home/beste/01_Pro/ld25x/bsp_hu/MYD-LD25X-Uboot-L2022.10-V1.0.0/GEN_FIP/myir-st-optee/ldelf/ta_elf_rel.c:298
    39f4:	97ffff55 	bl	3748 <e32_get_sym_name.constprop.0.isra.0>
/media/home/beste/01_Pro/ld25x/bsp_hu/MYD-LD25X-Uboot-L2022.10-V1.0.0/GEN_FIP/myir-st-optee/ldelf/ta_elf_rel.c:300
    39f8:	f9401be0 	ldr	x0, [sp, #48]
    39fc:	9100e3e1 	add	x1, sp, #0x38
    3a00:	3940bfe3 	ldrb	w3, [sp, #47]
    3a04:	d2800002 	mov	x2, #0x0                   	// #0
    3a08:	52000063 	eor	w3, w3, #0x1
    3a0c:	97ffffd5 	bl	3960 <resolve_sym>
/media/home/beste/01_Pro/ld25x/bsp_hu/MYD-LD25X-Uboot-L2022.10-V1.0.0/GEN_FIP/myir-st-optee/ldelf/ta_elf_rel.c:301
    3a10:	f9401fe0 	ldr	x0, [sp, #56]
    3a14:	b9000260 	str	w0, [x19]
/media/home/beste/01_Pro/ld25x/bsp_hu/MYD-LD25X-Uboot-L2022.10-V1.0.0/GEN_FIP/myir-st-optee/ldelf/ta_elf_rel.c:302
    3a18:	f9400bf3 	ldr	x19, [sp, #16]
    3a1c:	a8c47bfd 	ldp	x29, x30, [sp], #64
    3a20:	d65f03c0 	ret

0000000000003a24 <e64_process_dyn_rela>:
e64_process_dyn_rela():
/media/home/beste/01_Pro/ld25x/bsp_hu/MYD-LD25X-Uboot-L2022.10-V1.0.0/GEN_FIP/myir-st-optee/ldelf/ta_elf_rel.c:510
    3a24:	a9bc7bfd 	stp	x29, x30, [sp, #-64]!
    3a28:	910003fd 	mov	x29, sp
/media/home/beste/01_Pro/ld25x/bsp_hu/MYD-LD25X-Uboot-L2022.10-V1.0.0/GEN_FIP/myir-st-optee/ldelf/ta_elf_rel.c:515
    3a2c:	f9400484 	ldr	x4, [x4, #8]
    3a30:	9100bfe6 	add	x6, sp, #0x2f
/media/home/beste/01_Pro/ld25x/bsp_hu/MYD-LD25X-Uboot-L2022.10-V1.0.0/GEN_FIP/myir-st-optee/ldelf/ta_elf_rel.c:510
    3a34:	f9000bf3 	str	x19, [sp, #16]
    3a38:	aa0503f3 	mov	x19, x5
/media/home/beste/01_Pro/ld25x/bsp_hu/MYD-LD25X-Uboot-L2022.10-V1.0.0/GEN_FIP/myir-st-optee/ldelf/ta_elf_rel.c:515
    3a3c:	9100c3e5 	add	x5, sp, #0x30
/media/home/beste/01_Pro/ld25x/bsp_hu/MYD-LD25X-Uboot-L2022.10-V1.0.0/GEN_FIP/myir-st-optee/ldelf/ta_elf_rel.c:513
    3a40:	3900bfff 	strb	wzr, [sp, #47]
/media/home/beste/01_Pro/ld25x/bsp_hu/MYD-LD25X-Uboot-L2022.10-V1.0.0/GEN_FIP/myir-st-optee/ldelf/ta_elf_rel.c:512
    3a44:	a9037fff 	stp	xzr, xzr, [sp, #48]
/media/home/beste/01_Pro/ld25x/bsp_hu/MYD-LD25X-Uboot-L2022.10-V1.0.0/GEN_FIP/myir-st-optee/ldelf/ta_elf_rel.c:515
    3a48:	97ffff6c 	bl	37f8 <e64_get_sym_name.constprop.0.isra.0>
/media/home/beste/01_Pro/ld25x/bsp_hu/MYD-LD25X-Uboot-L2022.10-V1.0.0/GEN_FIP/myir-st-optee/ldelf/ta_elf_rel.c:517
    3a4c:	3940bfe3 	ldrb	w3, [sp, #47]
    3a50:	f9401be0 	ldr	x0, [sp, #48]
    3a54:	9100e3e1 	add	x1, sp, #0x38
    3a58:	52000063 	eor	w3, w3, #0x1
    3a5c:	d2800002 	mov	x2, #0x0                   	// #0
    3a60:	97ffffc0 	bl	3960 <resolve_sym>
/media/home/beste/01_Pro/ld25x/bsp_hu/MYD-LD25X-Uboot-L2022.10-V1.0.0/GEN_FIP/myir-st-optee/ldelf/ta_elf_rel.c:518
    3a64:	f9401fe0 	ldr	x0, [sp, #56]
    3a68:	f9000260 	str	x0, [x19]
/media/home/beste/01_Pro/ld25x/bsp_hu/MYD-LD25X-Uboot-L2022.10-V1.0.0/GEN_FIP/myir-st-optee/ldelf/ta_elf_rel.c:519
    3a6c:	f9400bf3 	ldr	x19, [sp, #16]
    3a70:	a8c47bfd 	ldp	x29, x30, [sp], #64
    3a74:	d65f03c0 	ret

0000000000003a78 <e64_process_tls_tprel_rela>:
e64_process_tls_tprel_rela():
/media/home/beste/01_Pro/ld25x/bsp_hu/MYD-LD25X-Uboot-L2022.10-V1.0.0/GEN_FIP/myir-st-optee/ldelf/ta_elf_rel.c:525
    3a78:	a9bc7bfd 	stp	x29, x30, [sp, #-64]!
    3a7c:	910003fd 	mov	x29, sp
    3a80:	a90153f3 	stp	x19, x20, [sp, #16]
    3a84:	aa0403f3 	mov	x19, x4
    3a88:	aa0503f4 	mov	x20, x5
/media/home/beste/01_Pro/ld25x/bsp_hu/MYD-LD25X-Uboot-L2022.10-V1.0.0/GEN_FIP/myir-st-optee/ldelf/ta_elf_rel.c:532
    3a8c:	f9400484 	ldr	x4, [x4, #8]
/media/home/beste/01_Pro/ld25x/bsp_hu/MYD-LD25X-Uboot-L2022.10-V1.0.0/GEN_FIP/myir-st-optee/ldelf/ta_elf_rel.c:527
    3a90:	39009fff 	strb	wzr, [sp, #39]
/media/home/beste/01_Pro/ld25x/bsp_hu/MYD-LD25X-Uboot-L2022.10-V1.0.0/GEN_FIP/myir-st-optee/ldelf/ta_elf_rel.c:528
    3a94:	a902ffff 	stp	xzr, xzr, [sp, #40]
/media/home/beste/01_Pro/ld25x/bsp_hu/MYD-LD25X-Uboot-L2022.10-V1.0.0/GEN_FIP/myir-st-optee/ldelf/ta_elf_rel.c:530
    3a98:	f9001fff 	str	xzr, [sp, #56]
/media/home/beste/01_Pro/ld25x/bsp_hu/MYD-LD25X-Uboot-L2022.10-V1.0.0/GEN_FIP/myir-st-optee/ldelf/ta_elf_rel.c:533
    3a9c:	eb4483ff 	cmp	xzr, x4, lsr #32
    3aa0:	54000280 	b.eq	3af0 <e64_process_tls_tprel_rela+0x78>  // b.none
/media/home/beste/01_Pro/ld25x/bsp_hu/MYD-LD25X-Uboot-L2022.10-V1.0.0/GEN_FIP/myir-st-optee/ldelf/ta_elf_rel.c:534
    3aa4:	91009fe6 	add	x6, sp, #0x27
    3aa8:	9100c3e5 	add	x5, sp, #0x30
    3aac:	97ffff53 	bl	37f8 <e64_get_sym_name.constprop.0.isra.0>
/media/home/beste/01_Pro/ld25x/bsp_hu/MYD-LD25X-Uboot-L2022.10-V1.0.0/GEN_FIP/myir-st-optee/ldelf/ta_elf_rel.c:536
    3ab0:	f9401be0 	ldr	x0, [sp, #48]
    3ab4:	9100a3e2 	add	x2, sp, #0x28
    3ab8:	39409fe3 	ldrb	w3, [sp, #39]
    3abc:	9100e3e1 	add	x1, sp, #0x38
    3ac0:	52000063 	eor	w3, w3, #0x1
    3ac4:	97ffffa7 	bl	3960 <resolve_sym>
/media/home/beste/01_Pro/ld25x/bsp_hu/MYD-LD25X-Uboot-L2022.10-V1.0.0/GEN_FIP/myir-st-optee/ldelf/ta_elf_rel.c:540
    3ac8:	f94017e0 	ldr	x0, [sp, #40]
    3acc:	f9401fe1 	ldr	x1, [sp, #56]
    3ad0:	f9407000 	ldr	x0, [x0, #224]
    3ad4:	8b010000 	add	x0, x0, x1
    3ad8:	f9400a61 	ldr	x1, [x19, #16]
    3adc:	8b010000 	add	x0, x0, x1
    3ae0:	f9000280 	str	x0, [x20]
/media/home/beste/01_Pro/ld25x/bsp_hu/MYD-LD25X-Uboot-L2022.10-V1.0.0/GEN_FIP/myir-st-optee/ldelf/ta_elf_rel.c:541
    3ae4:	a94153f3 	ldp	x19, x20, [sp, #16]
    3ae8:	a8c47bfd 	ldp	x29, x30, [sp], #64
    3aec:	d65f03c0 	ret
/media/home/beste/01_Pro/ld25x/bsp_hu/MYD-LD25X-Uboot-L2022.10-V1.0.0/GEN_FIP/myir-st-optee/ldelf/ta_elf_rel.c:538
    3af0:	f90017e6 	str	x6, [sp, #40]
    3af4:	17fffff5 	b	3ac8 <e64_process_tls_tprel_rela+0x50>

0000000000003af8 <ta_elf_relocate>:
ta_elf_relocate():
/media/home/beste/01_Pro/ld25x/bsp_hu/MYD-LD25X-Uboot-L2022.10-V1.0.0/GEN_FIP/myir-st-optee/ldelf/ta_elf_rel.c:710
    3af8:	a9b57bfd 	stp	x29, x30, [sp, #-176]!
    3afc:	910003fd 	mov	x29, sp
    3b00:	a90153f3 	stp	x19, x20, [sp, #16]
    3b04:	aa0003f3 	mov	x19, x0
/media/home/beste/01_Pro/ld25x/bsp_hu/MYD-LD25X-Uboot-L2022.10-V1.0.0/GEN_FIP/myir-st-optee/ldelf/ta_elf_rel.c:714
    3b08:	f9402c00 	ldr	x0, [x0, #88]
    3b0c:	f90037e0 	str	x0, [sp, #104]
/media/home/beste/01_Pro/ld25x/bsp_hu/MYD-LD25X-Uboot-L2022.10-V1.0.0/GEN_FIP/myir-st-optee/ldelf/ta_elf_rel.c:713
    3b10:	39400660 	ldrb	w0, [x19, #1]
/media/home/beste/01_Pro/ld25x/bsp_hu/MYD-LD25X-Uboot-L2022.10-V1.0.0/GEN_FIP/myir-st-optee/ldelf/ta_elf_rel.c:710
    3b14:	a9025bf5 	stp	x21, x22, [sp, #32]
    3b18:	a90363f7 	stp	x23, x24, [sp, #48]
    3b1c:	a9046bf9 	stp	x25, x26, [sp, #64]
    3b20:	a90573fb 	stp	x27, x28, [sp, #80]
/media/home/beste/01_Pro/ld25x/bsp_hu/MYD-LD25X-Uboot-L2022.10-V1.0.0/GEN_FIP/myir-st-optee/ldelf/ta_elf_rel.c:713
    3b24:	350027a0 	cbnz	w0, 4018 <ta_elf_relocate+0x520>
e64_process_tlsdesc_rela():
/media/home/beste/01_Pro/ld25x/bsp_hu/MYD-LD25X-Uboot-L2022.10-V1.0.0/GEN_FIP/myir-st-optee/ldelf/ta_elf_rel.c:569
    3b28:	b000003c 	adrp	x28, 8000 <_DYNAMIC>
ta_elf_relocate():
/media/home/beste/01_Pro/ld25x/bsp_hu/MYD-LD25X-Uboot-L2022.10-V1.0.0/GEN_FIP/myir-st-optee/ldelf/ta_elf_rel.c:722
    3b2c:	d280001a 	mov	x26, #0x0                   	// #0
e64_relocate():
/media/home/beste/01_Pro/ld25x/bsp_hu/MYD-LD25X-Uboot-L2022.10-V1.0.0/GEN_FIP/myir-st-optee/ldelf/ta_elf_rel.c:642
    3b30:	d280031b 	mov	x27, #0x18                  	// #24
e64_process_tlsdesc_rela():
/media/home/beste/01_Pro/ld25x/bsp_hu/MYD-LD25X-Uboot-L2022.10-V1.0.0/GEN_FIP/myir-st-optee/ldelf/ta_elf_rel.c:569
    3b34:	f940a797 	ldr	x23, [x28, #328]
ta_elf_relocate():
/media/home/beste/01_Pro/ld25x/bsp_hu/MYD-LD25X-Uboot-L2022.10-V1.0.0/GEN_FIP/myir-st-optee/ldelf/ta_elf_rel.c:722 (discriminator 1)
    3b38:	b9404664 	ldr	w4, [x19, #68]
    3b3c:	2a0403e1 	mov	w1, w4
    3b40:	eb24435f 	cmp	x26, w4, uxtw
    3b44:	54000282 	b.cs	3b94 <ta_elf_relocate+0x9c>  // b.hs, b.nlast
/media/home/beste/01_Pro/ld25x/bsp_hu/MYD-LD25X-Uboot-L2022.10-V1.0.0/GEN_FIP/myir-st-optee/ldelf/ta_elf_rel.c:723
    3b48:	f94037e2 	ldr	x2, [sp, #104]
    3b4c:	d37ae740 	lsl	x0, x26, #6
    3b50:	91001042 	add	x2, x2, #0x4
    3b54:	b8606842 	ldr	w2, [x2, x0]
    3b58:	7100105f 	cmp	w2, #0x4
    3b5c:	540026c0 	b.eq	4034 <ta_elf_relocate+0x53c>  // b.none
/media/home/beste/01_Pro/ld25x/bsp_hu/MYD-LD25X-Uboot-L2022.10-V1.0.0/GEN_FIP/myir-st-optee/ldelf/ta_elf_rel.c:722
    3b60:	9100075a 	add	x26, x26, #0x1
    3b64:	17fffff5 	b	3b38 <ta_elf_relocate+0x40>
/media/home/beste/01_Pro/ld25x/bsp_hu/MYD-LD25X-Uboot-L2022.10-V1.0.0/GEN_FIP/myir-st-optee/ldelf/ta_elf_rel.c:717
    3b68:	f94037e2 	ldr	x2, [sp, #104]
    3b6c:	9b187ec0 	mul	x0, x22, x24
    3b70:	91001042 	add	x2, x2, #0x4
    3b74:	b8606842 	ldr	w2, [x2, x0]
    3b78:	7100245f 	cmp	w2, #0x9
    3b7c:	540001a0 	b.eq	3bb0 <ta_elf_relocate+0xb8>  // b.none
/media/home/beste/01_Pro/ld25x/bsp_hu/MYD-LD25X-Uboot-L2022.10-V1.0.0/GEN_FIP/myir-st-optee/ldelf/ta_elf_rel.c:716
    3b80:	910006d6 	add	x22, x22, #0x1
/media/home/beste/01_Pro/ld25x/bsp_hu/MYD-LD25X-Uboot-L2022.10-V1.0.0/GEN_FIP/myir-st-optee/ldelf/ta_elf_rel.c:716 (discriminator 1)
    3b84:	b9404663 	ldr	w3, [x19, #68]
    3b88:	2a0303e1 	mov	w1, w3
    3b8c:	eb2342df 	cmp	x22, w3, uxtw
    3b90:	54fffec3 	b.cc	3b68 <ta_elf_relocate+0x70>  // b.lo, b.ul, b.last
/media/home/beste/01_Pro/ld25x/bsp_hu/MYD-LD25X-Uboot-L2022.10-V1.0.0/GEN_FIP/myir-st-optee/ldelf/ta_elf_rel.c:727
    3b94:	a94153f3 	ldp	x19, x20, [sp, #16]
    3b98:	a9425bf5 	ldp	x21, x22, [sp, #32]
    3b9c:	a94363f7 	ldp	x23, x24, [sp, #48]
    3ba0:	a9446bf9 	ldp	x25, x26, [sp, #64]
    3ba4:	a94573fb 	ldp	x27, x28, [sp, #80]
    3ba8:	a8cb7bfd 	ldp	x29, x30, [sp], #176
    3bac:	d65f03c0 	ret
e32_relocate():
/media/home/beste/01_Pro/ld25x/bsp_hu/MYD-LD25X-Uboot-L2022.10-V1.0.0/GEN_FIP/myir-st-optee/ldelf/ta_elf_rel.c:338
    3bb0:	f9402e65 	ldr	x5, [x19, #88]
/media/home/beste/01_Pro/ld25x/bsp_hu/MYD-LD25X-Uboot-L2022.10-V1.0.0/GEN_FIP/myir-st-optee/ldelf/ta_elf_rel.c:348
    3bb4:	8b0000a0 	add	x0, x5, x0
    3bb8:	b9400402 	ldr	w2, [x0, #4]
    3bbc:	7100245f 	cmp	w2, #0x9
    3bc0:	54000140 	b.eq	3be8 <ta_elf_relocate+0xf0>  // b.none
_assert_trap():
/media/home/beste/01_Pro/ld25x/bsp_hu/MYD-LD25X-Uboot-L2022.10-V1.0.0/GEN_FIP/myir-st-optee/lib/libutils/isoc/include/assert.h:19
    3bc4:	90000023 	adrp	x3, 7000 <trace_ext_prefix+0x6bc>
    3bc8:	90000021 	adrp	x1, 7000 <trace_ext_prefix+0x6bc>
    3bcc:	90000020 	adrp	x0, 7000 <trace_ext_prefix+0x6bc>
    3bd0:	9117c463 	add	x3, x3, #0x5f1
    3bd4:	910ed021 	add	x1, x1, #0x3b4
    3bd8:	910f1c00 	add	x0, x0, #0x3c7
    3bdc:	52802b82 	mov	w2, #0x15c                 	// #348
    3be0:	940003aa 	bl	4a88 <_assert_log>
/media/home/beste/01_Pro/ld25x/bsp_hu/MYD-LD25X-Uboot-L2022.10-V1.0.0/GEN_FIP/myir-st-optee/lib/libutils/isoc/include/assert.h:20
    3be4:	940003ba 	bl	4acc <_assert_break>
e32_relocate():
/media/home/beste/01_Pro/ld25x/bsp_hu/MYD-LD25X-Uboot-L2022.10-V1.0.0/GEN_FIP/myir-st-optee/ldelf/ta_elf_rel.c:350
    3be8:	b9402402 	ldr	w2, [x0, #36]
    3bec:	7100205f 	cmp	w2, #0x8
    3bf0:	54000120 	b.eq	3c14 <ta_elf_relocate+0x11c>  // b.none
_assert_trap():
/media/home/beste/01_Pro/ld25x/bsp_hu/MYD-LD25X-Uboot-L2022.10-V1.0.0/GEN_FIP/myir-st-optee/lib/libutils/isoc/include/assert.h:19
    3bf4:	90000023 	adrp	x3, 7000 <trace_ext_prefix+0x6bc>
    3bf8:	90000021 	adrp	x1, 7000 <trace_ext_prefix+0x6bc>
    3bfc:	90000020 	adrp	x0, 7000 <trace_ext_prefix+0x6bc>
    3c00:	9117c463 	add	x3, x3, #0x5f1
    3c04:	910ed021 	add	x1, x1, #0x3b4
    3c08:	910fa400 	add	x0, x0, #0x3e9
    3c0c:	52802bc2 	mov	w2, #0x15e                 	// #350
    3c10:	17fffff4 	b	3be0 <ta_elf_relocate+0xe8>
e32_relocate():
/media/home/beste/01_Pro/ld25x/bsp_hu/MYD-LD25X-Uboot-L2022.10-V1.0.0/GEN_FIP/myir-st-optee/ldelf/ta_elf_rel.c:352
    3c14:	b9401802 	ldr	w2, [x0, #24]
    3c18:	2a0203fb 	mov	w27, w2
/media/home/beste/01_Pro/ld25x/bsp_hu/MYD-LD25X-Uboot-L2022.10-V1.0.0/GEN_FIP/myir-st-optee/ldelf/ta_elf_rel.c:353
    3c1c:	34000a62 	cbz	w2, 3d68 <ta_elf_relocate+0x270>
/media/home/beste/01_Pro/ld25x/bsp_hu/MYD-LD25X-Uboot-L2022.10-V1.0.0/GEN_FIP/myir-st-optee/ldelf/ta_elf_rel.c:356
    3c20:	6b02007f 	cmp	w3, w2
    3c24:	54000148 	b.hi	3c4c <ta_elf_relocate+0x154>  // b.pmore
/media/home/beste/01_Pro/ld25x/bsp_hu/MYD-LD25X-Uboot-L2022.10-V1.0.0/GEN_FIP/myir-st-optee/ldelf/ta_elf_rel.c:357
    3c28:	90000024 	adrp	x4, 7000 <trace_ext_prefix+0x6bc>
    3c2c:	91106084 	add	x4, x4, #0x418
    3c30:	52800023 	mov	w3, #0x1                   	// #1
    3c34:	52800022 	mov	w2, #0x1                   	// #1
    3c38:	52802ca1 	mov	w1, #0x165                 	// #357
/media/home/beste/01_Pro/ld25x/bsp_hu/MYD-LD25X-Uboot-L2022.10-V1.0.0/GEN_FIP/myir-st-optee/ldelf/ta_elf_rel.c:367
    3c3c:	90000020 	adrp	x0, 7000 <trace_ext_prefix+0x6bc>
    3c40:	9117c400 	add	x0, x0, #0x5f1
e64_relocate():
/media/home/beste/01_Pro/ld25x/bsp_hu/MYD-LD25X-Uboot-L2022.10-V1.0.0/GEN_FIP/myir-st-optee/ldelf/ta_elf_rel.c:665
    3c44:	94000ac0 	bl	6744 <trace_printf>
    3c48:	14000078 	b	3e28 <ta_elf_relocate+0x330>
confine_array_index():
/media/home/beste/01_Pro/ld25x/bsp_hu/MYD-LD25X-Uboot-L2022.10-V1.0.0/GEN_FIP/myir-st-optee/lib/libutils/ext/include/confine_array_index.h:76
    3c4c:	eb01037f 	cmp	x27, x1
    3c50:	9a9f3362 	csel	x2, x27, xzr, cc	// cc = lo, ul, last
    3c54:	d503229f 	csdb
e32_relocate():
/media/home/beste/01_Pro/ld25x/bsp_hu/MYD-LD25X-Uboot-L2022.10-V1.0.0/GEN_FIP/myir-st-optee/ldelf/ta_elf_rel.c:360
    3c58:	9b181442 	madd	x2, x2, x24, x5
    3c5c:	b9402444 	ldr	w4, [x2, #36]
    3c60:	7100409f 	cmp	w4, #0x10
    3c64:	54000120 	b.eq	3c88 <ta_elf_relocate+0x190>  // b.none
_assert_trap():
/media/home/beste/01_Pro/ld25x/bsp_hu/MYD-LD25X-Uboot-L2022.10-V1.0.0/GEN_FIP/myir-st-optee/lib/libutils/isoc/include/assert.h:19
    3c68:	90000023 	adrp	x3, 7000 <trace_ext_prefix+0x6bc>
    3c6c:	90000021 	adrp	x1, 7000 <trace_ext_prefix+0x6bc>
    3c70:	90000020 	adrp	x0, 7000 <trace_ext_prefix+0x6bc>
    3c74:	9117c463 	add	x3, x3, #0x5f1
    3c78:	910ed021 	add	x1, x1, #0x3b4
    3c7c:	9110c800 	add	x0, x0, #0x432
    3c80:	52802d02 	mov	w2, #0x168                 	// #360
    3c84:	17ffffd7 	b	3be0 <ta_elf_relocate+0xe8>
e32_relocate():
/media/home/beste/01_Pro/ld25x/bsp_hu/MYD-LD25X-Uboot-L2022.10-V1.0.0/GEN_FIP/myir-st-optee/ldelf/ta_elf_rel.c:366
    3c88:	a9409274 	ldp	x20, x4, [x19, #8]
/media/home/beste/01_Pro/ld25x/bsp_hu/MYD-LD25X-Uboot-L2022.10-V1.0.0/GEN_FIP/myir-st-optee/ldelf/ta_elf_rel.c:363
    3c8c:	b9400c5c 	ldr	w28, [x2, #12]
    3c90:	b9401447 	ldr	w7, [x2, #20]
/media/home/beste/01_Pro/ld25x/bsp_hu/MYD-LD25X-Uboot-L2022.10-V1.0.0/GEN_FIP/myir-st-optee/ldelf/ta_elf_rel.c:366
    3c94:	cb140084 	sub	x4, x4, x20
/media/home/beste/01_Pro/ld25x/bsp_hu/MYD-LD25X-Uboot-L2022.10-V1.0.0/GEN_FIP/myir-st-optee/ldelf/ta_elf_rel.c:363
    3c98:	8b274386 	add	x6, x28, w7, uxtw
/media/home/beste/01_Pro/ld25x/bsp_hu/MYD-LD25X-Uboot-L2022.10-V1.0.0/GEN_FIP/myir-st-optee/ldelf/ta_elf_rel.c:366
    3c9c:	eb0400df 	cmp	x6, x4
    3ca0:	540000e3 	b.cc	3cbc <ta_elf_relocate+0x1c4>  // b.lo, b.ul, b.last
/media/home/beste/01_Pro/ld25x/bsp_hu/MYD-LD25X-Uboot-L2022.10-V1.0.0/GEN_FIP/myir-st-optee/ldelf/ta_elf_rel.c:367
    3ca4:	90000024 	adrp	x4, 7000 <trace_ext_prefix+0x6bc>
    3ca8:	52800023 	mov	w3, #0x1                   	// #1
    3cac:	91119084 	add	x4, x4, #0x464
    3cb0:	52800022 	mov	w2, #0x1                   	// #1
    3cb4:	52802de1 	mov	w1, #0x16f                 	// #367
    3cb8:	17ffffe1 	b	3c3c <ta_elf_relocate+0x144>
/media/home/beste/01_Pro/ld25x/bsp_hu/MYD-LD25X-Uboot-L2022.10-V1.0.0/GEN_FIP/myir-st-optee/ldelf/ta_elf_rel.c:374
    3cbc:	b9401842 	ldr	w2, [x2, #24]
/media/home/beste/01_Pro/ld25x/bsp_hu/MYD-LD25X-Uboot-L2022.10-V1.0.0/GEN_FIP/myir-st-optee/ldelf/ta_elf_rel.c:369
    3cc0:	8b14039c 	add	x28, x28, x20
/media/home/beste/01_Pro/ld25x/bsp_hu/MYD-LD25X-Uboot-L2022.10-V1.0.0/GEN_FIP/myir-st-optee/ldelf/ta_elf_rel.c:372
    3cc4:	53047cfb 	lsr	w27, w7, #4
/media/home/beste/01_Pro/ld25x/bsp_hu/MYD-LD25X-Uboot-L2022.10-V1.0.0/GEN_FIP/myir-st-optee/ldelf/ta_elf_rel.c:374
    3cc8:	2a0203f9 	mov	w25, w2
/media/home/beste/01_Pro/ld25x/bsp_hu/MYD-LD25X-Uboot-L2022.10-V1.0.0/GEN_FIP/myir-st-optee/ldelf/ta_elf_rel.c:375
    3ccc:	34000562 	cbz	w2, 3d78 <ta_elf_relocate+0x280>
/media/home/beste/01_Pro/ld25x/bsp_hu/MYD-LD25X-Uboot-L2022.10-V1.0.0/GEN_FIP/myir-st-optee/ldelf/ta_elf_rel.c:376
    3cd0:	6b02007f 	cmp	w3, w2
    3cd4:	540000e8 	b.hi	3cf0 <ta_elf_relocate+0x1f8>  // b.pmore
/media/home/beste/01_Pro/ld25x/bsp_hu/MYD-LD25X-Uboot-L2022.10-V1.0.0/GEN_FIP/myir-st-optee/ldelf/ta_elf_rel.c:377
    3cd8:	90000024 	adrp	x4, 7000 <trace_ext_prefix+0x6bc>
    3cdc:	52800023 	mov	w3, #0x1                   	// #1
    3ce0:	9111e084 	add	x4, x4, #0x478
    3ce4:	52800022 	mov	w2, #0x1                   	// #1
    3ce8:	52802f21 	mov	w1, #0x179                 	// #377
    3cec:	17ffffd4 	b	3c3c <ta_elf_relocate+0x144>
/media/home/beste/01_Pro/ld25x/bsp_hu/MYD-LD25X-Uboot-L2022.10-V1.0.0/GEN_FIP/myir-st-optee/ldelf/ta_elf_rel.c:383
    3cf0:	d2800502 	mov	x2, #0x28                  	// #40
confine_array_index():
/media/home/beste/01_Pro/ld25x/bsp_hu/MYD-LD25X-Uboot-L2022.10-V1.0.0/GEN_FIP/myir-st-optee/lib/libutils/ext/include/confine_array_index.h:76
    3cf4:	eb01033f 	cmp	x25, x1
    3cf8:	9a9f3321 	csel	x1, x25, xzr, cc	// cc = lo, ul, last
    3cfc:	d503229f 	csdb
e32_relocate():
/media/home/beste/01_Pro/ld25x/bsp_hu/MYD-LD25X-Uboot-L2022.10-V1.0.0/GEN_FIP/myir-st-optee/ldelf/ta_elf_rel.c:383
    3d00:	9b021421 	madd	x1, x1, x2, x5
    3d04:	b9400c22 	ldr	w2, [x1, #12]
    3d08:	b9401439 	ldr	w25, [x1, #20]
    3d0c:	8b190041 	add	x1, x2, x25
/media/home/beste/01_Pro/ld25x/bsp_hu/MYD-LD25X-Uboot-L2022.10-V1.0.0/GEN_FIP/myir-st-optee/ldelf/ta_elf_rel.c:386
    3d10:	eb01009f 	cmp	x4, x1
    3d14:	540000e8 	b.hi	3d30 <ta_elf_relocate+0x238>  // b.pmore
/media/home/beste/01_Pro/ld25x/bsp_hu/MYD-LD25X-Uboot-L2022.10-V1.0.0/GEN_FIP/myir-st-optee/ldelf/ta_elf_rel.c:387
    3d18:	f0000004 	adrp	x4, 6000 <kprintf.constprop.0+0x68c>
    3d1c:	52800023 	mov	w3, #0x1                   	// #1
    3d20:	913cf084 	add	x4, x4, #0xf3c
    3d24:	52800022 	mov	w2, #0x1                   	// #1
    3d28:	52803061 	mov	w1, #0x183                 	// #387
    3d2c:	17ffffc4 	b	3c3c <ta_elf_relocate+0x144>
/media/home/beste/01_Pro/ld25x/bsp_hu/MYD-LD25X-Uboot-L2022.10-V1.0.0/GEN_FIP/myir-st-optee/ldelf/ta_elf_rel.c:390
    3d30:	8b020294 	add	x20, x20, x2
/media/home/beste/01_Pro/ld25x/bsp_hu/MYD-LD25X-Uboot-L2022.10-V1.0.0/GEN_FIP/myir-st-optee/ldelf/ta_elf_rel.c:397
    3d34:	b9400c09 	ldr	w9, [x0, #12]
    3d38:	b9401415 	ldr	w21, [x0, #20]
/media/home/beste/01_Pro/ld25x/bsp_hu/MYD-LD25X-Uboot-L2022.10-V1.0.0/GEN_FIP/myir-st-optee/ldelf/ta_elf_rel.c:400
    3d3c:	a9408261 	ldp	x1, x0, [x19, #8]
/media/home/beste/01_Pro/ld25x/bsp_hu/MYD-LD25X-Uboot-L2022.10-V1.0.0/GEN_FIP/myir-st-optee/ldelf/ta_elf_rel.c:397
    3d40:	8b354122 	add	x2, x9, w21, uxtw
/media/home/beste/01_Pro/ld25x/bsp_hu/MYD-LD25X-Uboot-L2022.10-V1.0.0/GEN_FIP/myir-st-optee/ldelf/ta_elf_rel.c:400
    3d44:	cb010000 	sub	x0, x0, x1
    3d48:	eb00005f 	cmp	x2, x0
    3d4c:	540001a3 	b.cc	3d80 <ta_elf_relocate+0x288>  // b.lo, b.ul, b.last
/media/home/beste/01_Pro/ld25x/bsp_hu/MYD-LD25X-Uboot-L2022.10-V1.0.0/GEN_FIP/myir-st-optee/ldelf/ta_elf_rel.c:401
    3d50:	90000024 	adrp	x4, 7000 <trace_ext_prefix+0x6bc>
    3d54:	52800023 	mov	w3, #0x1                   	// #1
    3d58:	91124884 	add	x4, x4, #0x492
    3d5c:	52800022 	mov	w2, #0x1                   	// #1
    3d60:	52803221 	mov	w1, #0x191                 	// #401
    3d64:	17ffffb6 	b	3c3c <ta_elf_relocate+0x144>
/media/home/beste/01_Pro/ld25x/bsp_hu/MYD-LD25X-Uboot-L2022.10-V1.0.0/GEN_FIP/myir-st-optee/ldelf/ta_elf_rel.c:346
    3d68:	d2800019 	mov	x25, #0x0                   	// #0
/media/home/beste/01_Pro/ld25x/bsp_hu/MYD-LD25X-Uboot-L2022.10-V1.0.0/GEN_FIP/myir-st-optee/ldelf/ta_elf_rel.c:345
    3d6c:	d2800014 	mov	x20, #0x0                   	// #0
/media/home/beste/01_Pro/ld25x/bsp_hu/MYD-LD25X-Uboot-L2022.10-V1.0.0/GEN_FIP/myir-st-optee/ldelf/ta_elf_rel.c:342
    3d70:	d280001c 	mov	x28, #0x0                   	// #0
    3d74:	17fffff0 	b	3d34 <ta_elf_relocate+0x23c>
/media/home/beste/01_Pro/ld25x/bsp_hu/MYD-LD25X-Uboot-L2022.10-V1.0.0/GEN_FIP/myir-st-optee/ldelf/ta_elf_rel.c:345
    3d78:	d2800014 	mov	x20, #0x0                   	// #0
    3d7c:	17ffffee 	b	3d34 <ta_elf_relocate+0x23c>
/media/home/beste/01_Pro/ld25x/bsp_hu/MYD-LD25X-Uboot-L2022.10-V1.0.0/GEN_FIP/myir-st-optee/ldelf/ta_elf_rel.c:402
    3d80:	8b01013a 	add	x26, x9, x1
/media/home/beste/01_Pro/ld25x/bsp_hu/MYD-LD25X-Uboot-L2022.10-V1.0.0/GEN_FIP/myir-st-optee/ldelf/ta_elf_rel.c:404
    3d84:	927d72b5 	and	x21, x21, #0xfffffff8
    3d88:	8b150340 	add	x0, x26, x21
    3d8c:	f9003fe0 	str	x0, [sp, #120]
e32_tls_resolve():
/media/home/beste/01_Pro/ld25x/bsp_hu/MYD-LD25X-Uboot-L2022.10-V1.0.0/GEN_FIP/myir-st-optee/ldelf/ta_elf_rel.c:333
    3d90:	910283e0 	add	x0, sp, #0xa0
    3d94:	f90043e0 	str	x0, [sp, #128]
e32_relocate():
/media/home/beste/01_Pro/ld25x/bsp_hu/MYD-LD25X-Uboot-L2022.10-V1.0.0/GEN_FIP/myir-st-optee/ldelf/ta_elf_rel.c:405
    3d98:	f9403fe0 	ldr	x0, [sp, #120]
    3d9c:	eb1a001f 	cmp	x0, x26
    3da0:	54ffef09 	b.ls	3b80 <ta_elf_relocate+0x88>  // b.plast
/media/home/beste/01_Pro/ld25x/bsp_hu/MYD-LD25X-Uboot-L2022.10-V1.0.0/GEN_FIP/myir-st-optee/ldelf/ta_elf_rel.c:412
    3da4:	a9408275 	ldp	x21, x0, [x19, #8]
/media/home/beste/01_Pro/ld25x/bsp_hu/MYD-LD25X-Uboot-L2022.10-V1.0.0/GEN_FIP/myir-st-optee/ldelf/ta_elf_rel.c:409
    3da8:	a909ffff 	stp	xzr, xzr, [sp, #152]
/media/home/beste/01_Pro/ld25x/bsp_hu/MYD-LD25X-Uboot-L2022.10-V1.0.0/GEN_FIP/myir-st-optee/ldelf/ta_elf_rel.c:412
    3dac:	b9400342 	ldr	w2, [x26]
    3db0:	2a0203f7 	mov	w23, w2
    3db4:	cb150000 	sub	x0, x0, x21
    3db8:	eb22401f 	cmp	x0, w2, uxtw
    3dbc:	540000e8 	b.hi	3dd8 <ta_elf_relocate+0x2e0>  // b.pmore
/media/home/beste/01_Pro/ld25x/bsp_hu/MYD-LD25X-Uboot-L2022.10-V1.0.0/GEN_FIP/myir-st-optee/ldelf/ta_elf_rel.c:413
    3dc0:	90000024 	adrp	x4, 7000 <trace_ext_prefix+0x6bc>
    3dc4:	52800023 	mov	w3, #0x1                   	// #1
    3dc8:	9112a884 	add	x4, x4, #0x4aa
    3dcc:	52800022 	mov	w2, #0x1                   	// #1
    3dd0:	528033a1 	mov	w1, #0x19d                 	// #413
    3dd4:	17ffff9a 	b	3c3c <ta_elf_relocate+0x144>
/media/home/beste/01_Pro/ld25x/bsp_hu/MYD-LD25X-Uboot-L2022.10-V1.0.0/GEN_FIP/myir-st-optee/ldelf/ta_elf_rel.c:417
    3dd8:	b9400744 	ldr	w4, [x26, #4]
/media/home/beste/01_Pro/ld25x/bsp_hu/MYD-LD25X-Uboot-L2022.10-V1.0.0/GEN_FIP/myir-st-optee/ldelf/ta_elf_rel.c:415
    3ddc:	8b1502e5 	add	x5, x23, x21
/media/home/beste/01_Pro/ld25x/bsp_hu/MYD-LD25X-Uboot-L2022.10-V1.0.0/GEN_FIP/myir-st-optee/ldelf/ta_elf_rel.c:417
    3de0:	12001c80 	and	w0, w4, #0xff
    3de4:	7100441f 	cmp	w0, #0x11
    3de8:	54000a60 	b.eq	3f34 <ta_elf_relocate+0x43c>  // b.none
    3dec:	54000228 	b.hi	3e30 <ta_elf_relocate+0x338>  // b.pmore
    3df0:	7100081f 	cmp	w0, #0x2
    3df4:	54000420 	b.eq	3e78 <ta_elf_relocate+0x380>  // b.none
    3df8:	71000c1f 	cmp	w0, #0x3
    3dfc:	54000720 	b.eq	3ee0 <ta_elf_relocate+0x3e8>  // b.none
    3e00:	34000600 	cbz	w0, 3ec0 <ta_elf_relocate+0x3c8>
/media/home/beste/01_Pro/ld25x/bsp_hu/MYD-LD25X-Uboot-L2022.10-V1.0.0/GEN_FIP/myir-st-optee/ldelf/ta_elf_rel.c:475
    3e04:	2a0003e5 	mov	w5, w0
    3e08:	90000024 	adrp	x4, 7000 <trace_ext_prefix+0x6bc>
    3e0c:	90000020 	adrp	x0, 7000 <trace_ext_prefix+0x6bc>
    3e10:	91137884 	add	x4, x4, #0x4de
    3e14:	9117c400 	add	x0, x0, #0x5f1
    3e18:	52800023 	mov	w3, #0x1                   	// #1
    3e1c:	52800022 	mov	w2, #0x1                   	// #1
    3e20:	52803b61 	mov	w1, #0x1db                 	// #475
    3e24:	94000a48 	bl	6744 <trace_printf>
e64_relocate():
/media/home/beste/01_Pro/ld25x/bsp_hu/MYD-LD25X-Uboot-L2022.10-V1.0.0/GEN_FIP/myir-st-optee/ldelf/ta_elf_rel.c:696
    3e28:	129fff40 	mov	w0, #0xffff0005            	// #-65531
    3e2c:	97fff0ca 	bl	154 <_ldelf_return>
e32_relocate():
/media/home/beste/01_Pro/ld25x/bsp_hu/MYD-LD25X-Uboot-L2022.10-V1.0.0/GEN_FIP/myir-st-optee/ldelf/ta_elf_rel.c:417
    3e30:	7100581f 	cmp	w0, #0x16
    3e34:	54000188 	b.hi	3e64 <ta_elf_relocate+0x36c>  // b.pmore
    3e38:	7100501f 	cmp	w0, #0x14
    3e3c:	540006e8 	b.hi	3f18 <ta_elf_relocate+0x420>  // b.pmore
    3e40:	7100481f 	cmp	w0, #0x12
    3e44:	54fffe01 	b.ne	3e04 <ta_elf_relocate+0x30c>  // b.any
/media/home/beste/01_Pro/ld25x/bsp_hu/MYD-LD25X-Uboot-L2022.10-V1.0.0/GEN_FIP/myir-st-optee/ldelf/ta_elf_rel.c:467
    3e48:	b5000cbc 	cbnz	x28, 3fdc <ta_elf_relocate+0x4e4>
/media/home/beste/01_Pro/ld25x/bsp_hu/MYD-LD25X-Uboot-L2022.10-V1.0.0/GEN_FIP/myir-st-optee/ldelf/ta_elf_rel.c:468
    3e4c:	90000024 	adrp	x4, 7000 <trace_ext_prefix+0x6bc>
    3e50:	52800023 	mov	w3, #0x1                   	// #1
    3e54:	91132484 	add	x4, x4, #0x4c9
    3e58:	52800022 	mov	w2, #0x1                   	// #1
    3e5c:	52803a81 	mov	w1, #0x1d4                 	// #468
    3e60:	17ffff77 	b	3c3c <ta_elf_relocate+0x144>
/media/home/beste/01_Pro/ld25x/bsp_hu/MYD-LD25X-Uboot-L2022.10-V1.0.0/GEN_FIP/myir-st-optee/ldelf/ta_elf_rel.c:417
    3e64:	71005c1f 	cmp	w0, #0x17
    3e68:	54fffce1 	b.ne	3e04 <ta_elf_relocate+0x30c>  // b.any
/media/home/beste/01_Pro/ld25x/bsp_hu/MYD-LD25X-Uboot-L2022.10-V1.0.0/GEN_FIP/myir-st-optee/ldelf/ta_elf_rel.c:447
    3e6c:	b8756ae0 	ldr	w0, [x23, x21]
    3e70:	0b150000 	add	w0, w0, w21
    3e74:	14000019 	b	3ed8 <ta_elf_relocate+0x3e0>
/media/home/beste/01_Pro/ld25x/bsp_hu/MYD-LD25X-Uboot-L2022.10-V1.0.0/GEN_FIP/myir-st-optee/ldelf/ta_elf_rel.c:426
    3e78:	53087c84 	lsr	w4, w4, #8
/media/home/beste/01_Pro/ld25x/bsp_hu/MYD-LD25X-Uboot-L2022.10-V1.0.0/GEN_FIP/myir-st-optee/ldelf/ta_elf_rel.c:427
    3e7c:	eb1b009f 	cmp	x4, x27
    3e80:	540000e3 	b.cc	3e9c <ta_elf_relocate+0x3a4>  // b.lo, b.ul, b.last
/media/home/beste/01_Pro/ld25x/bsp_hu/MYD-LD25X-Uboot-L2022.10-V1.0.0/GEN_FIP/myir-st-optee/ldelf/ta_elf_rel.c:428
    3e84:	90000024 	adrp	x4, 7000 <trace_ext_prefix+0x6bc>
    3e88:	52800023 	mov	w3, #0x1                   	// #1
    3e8c:	910db884 	add	x4, x4, #0x36e
    3e90:	52800022 	mov	w2, #0x1                   	// #1
    3e94:	52803581 	mov	w1, #0x1ac                 	// #428
    3e98:	17ffff69 	b	3c3c <ta_elf_relocate+0x144>
/media/home/beste/01_Pro/ld25x/bsp_hu/MYD-LD25X-Uboot-L2022.10-V1.0.0/GEN_FIP/myir-st-optee/ldelf/ta_elf_rel.c:430
    3e9c:	8b041384 	add	x4, x28, x4, lsl #4
    3ea0:	79401c80 	ldrh	w0, [x4, #14]
    3ea4:	35000120 	cbnz	w0, 3ec8 <ta_elf_relocate+0x3d0>
/media/home/beste/01_Pro/ld25x/bsp_hu/MYD-LD25X-Uboot-L2022.10-V1.0.0/GEN_FIP/myir-st-optee/ldelf/ta_elf_rel.c:454
    3ea8:	aa1a03e4 	mov	x4, x26
    3eac:	aa1903e3 	mov	x3, x25
    3eb0:	aa1403e2 	mov	x2, x20
    3eb4:	aa1b03e1 	mov	x1, x27
    3eb8:	aa1c03e0 	mov	x0, x28
    3ebc:	97fffec5 	bl	39d0 <e32_process_dyn_rel>
/media/home/beste/01_Pro/ld25x/bsp_hu/MYD-LD25X-Uboot-L2022.10-V1.0.0/GEN_FIP/myir-st-optee/ldelf/ta_elf_rel.c:405
    3ec0:	9100235a 	add	x26, x26, #0x8
    3ec4:	17ffffb5 	b	3d98 <ta_elf_relocate+0x2a0>
/media/home/beste/01_Pro/ld25x/bsp_hu/MYD-LD25X-Uboot-L2022.10-V1.0.0/GEN_FIP/myir-st-optee/ldelf/ta_elf_rel.c:435
    3ec8:	b8756ae0 	ldr	w0, [x23, x21]
    3ecc:	b9400481 	ldr	w1, [x4, #4]
    3ed0:	0b150000 	add	w0, w0, w21
/media/home/beste/01_Pro/ld25x/bsp_hu/MYD-LD25X-Uboot-L2022.10-V1.0.0/GEN_FIP/myir-st-optee/ldelf/ta_elf_rel.c:444
    3ed4:	0b010000 	add	w0, w0, w1
/media/home/beste/01_Pro/ld25x/bsp_hu/MYD-LD25X-Uboot-L2022.10-V1.0.0/GEN_FIP/myir-st-optee/ldelf/ta_elf_rel.c:472
    3ed8:	b8356ae0 	str	w0, [x23, x21]
/media/home/beste/01_Pro/ld25x/bsp_hu/MYD-LD25X-Uboot-L2022.10-V1.0.0/GEN_FIP/myir-st-optee/ldelf/ta_elf_rel.c:473
    3edc:	17fffff9 	b	3ec0 <ta_elf_relocate+0x3c8>
/media/home/beste/01_Pro/ld25x/bsp_hu/MYD-LD25X-Uboot-L2022.10-V1.0.0/GEN_FIP/myir-st-optee/ldelf/ta_elf_rel.c:440
    3ee0:	53087c84 	lsr	w4, w4, #8
/media/home/beste/01_Pro/ld25x/bsp_hu/MYD-LD25X-Uboot-L2022.10-V1.0.0/GEN_FIP/myir-st-optee/ldelf/ta_elf_rel.c:441
    3ee4:	eb04037f 	cmp	x27, x4
    3ee8:	540000e8 	b.hi	3f04 <ta_elf_relocate+0x40c>  // b.pmore
/media/home/beste/01_Pro/ld25x/bsp_hu/MYD-LD25X-Uboot-L2022.10-V1.0.0/GEN_FIP/myir-st-optee/ldelf/ta_elf_rel.c:442
    3eec:	90000024 	adrp	x4, 7000 <trace_ext_prefix+0x6bc>
    3ef0:	52800023 	mov	w3, #0x1                   	// #1
    3ef4:	910db884 	add	x4, x4, #0x36e
    3ef8:	52800022 	mov	w2, #0x1                   	// #1
    3efc:	52803741 	mov	w1, #0x1ba                 	// #442
    3f00:	17ffff4f 	b	3c3c <ta_elf_relocate+0x144>
/media/home/beste/01_Pro/ld25x/bsp_hu/MYD-LD25X-Uboot-L2022.10-V1.0.0/GEN_FIP/myir-st-optee/ldelf/ta_elf_rel.c:444
    3f04:	8b041384 	add	x4, x28, x4, lsl #4
    3f08:	b8756ae1 	ldr	w1, [x23, x21]
    3f0c:	4b020021 	sub	w1, w1, w2
    3f10:	b9400480 	ldr	w0, [x4, #4]
    3f14:	17fffff0 	b	3ed4 <ta_elf_relocate+0x3dc>
/media/home/beste/01_Pro/ld25x/bsp_hu/MYD-LD25X-Uboot-L2022.10-V1.0.0/GEN_FIP/myir-st-optee/ldelf/ta_elf_rel.c:451
    3f18:	b5fffc9c 	cbnz	x28, 3ea8 <ta_elf_relocate+0x3b0>
/media/home/beste/01_Pro/ld25x/bsp_hu/MYD-LD25X-Uboot-L2022.10-V1.0.0/GEN_FIP/myir-st-optee/ldelf/ta_elf_rel.c:452
    3f1c:	90000024 	adrp	x4, 7000 <trace_ext_prefix+0x6bc>
    3f20:	52800023 	mov	w3, #0x1                   	// #1
    3f24:	91132484 	add	x4, x4, #0x4c9
    3f28:	52800022 	mov	w2, #0x1                   	// #1
    3f2c:	52803881 	mov	w1, #0x1c4                 	// #452
    3f30:	17ffff43 	b	3c3c <ta_elf_relocate+0x144>
/media/home/beste/01_Pro/ld25x/bsp_hu/MYD-LD25X-Uboot-L2022.10-V1.0.0/GEN_FIP/myir-st-optee/ldelf/ta_elf_rel.c:458
    3f34:	b50000fc 	cbnz	x28, 3f50 <ta_elf_relocate+0x458>
/media/home/beste/01_Pro/ld25x/bsp_hu/MYD-LD25X-Uboot-L2022.10-V1.0.0/GEN_FIP/myir-st-optee/ldelf/ta_elf_rel.c:459
    3f38:	90000024 	adrp	x4, 7000 <trace_ext_prefix+0x6bc>
    3f3c:	52800023 	mov	w3, #0x1                   	// #1
    3f40:	91132484 	add	x4, x4, #0x4c9
    3f44:	52800022 	mov	w2, #0x1                   	// #1
    3f48:	52803961 	mov	w1, #0x1cb                 	// #459
    3f4c:	17ffff3c 	b	3c3c <ta_elf_relocate+0x144>
e32_tls_get_module():
/media/home/beste/01_Pro/ld25x/bsp_hu/MYD-LD25X-Uboot-L2022.10-V1.0.0/GEN_FIP/myir-st-optee/ldelf/ta_elf_rel.c:311
    3f50:	53087c80 	lsr	w0, w4, #8
e32_relocate():
/media/home/beste/01_Pro/ld25x/bsp_hu/MYD-LD25X-Uboot-L2022.10-V1.0.0/GEN_FIP/myir-st-optee/ldelf/ta_elf_rel.c:461
    3f54:	f9004ff3 	str	x19, [sp, #152]
e32_tls_get_module():
/media/home/beste/01_Pro/ld25x/bsp_hu/MYD-LD25X-Uboot-L2022.10-V1.0.0/GEN_FIP/myir-st-optee/ldelf/ta_elf_rel.c:308
    3f58:	f90057ff 	str	xzr, [sp, #168]
/media/home/beste/01_Pro/ld25x/bsp_hu/MYD-LD25X-Uboot-L2022.10-V1.0.0/GEN_FIP/myir-st-optee/ldelf/ta_elf_rel.c:312
    3f5c:	eb00037f 	cmp	x27, x0
    3f60:	54000128 	b.hi	3f84 <ta_elf_relocate+0x48c>  // b.pmore
/media/home/beste/01_Pro/ld25x/bsp_hu/MYD-LD25X-Uboot-L2022.10-V1.0.0/GEN_FIP/myir-st-optee/ldelf/ta_elf_rel.c:313
    3f64:	90000024 	adrp	x4, 7000 <trace_ext_prefix+0x6bc>
    3f68:	90000020 	adrp	x0, 7000 <trace_ext_prefix+0x6bc>
    3f6c:	910db884 	add	x4, x4, #0x36e
    3f70:	91170400 	add	x0, x0, #0x5c1
    3f74:	52800023 	mov	w3, #0x1                   	// #1
    3f78:	52800022 	mov	w2, #0x1                   	// #1
    3f7c:	52802721 	mov	w1, #0x139                 	// #313
    3f80:	17ffff31 	b	3c44 <ta_elf_relocate+0x14c>
confine_array_index():
/media/home/beste/01_Pro/ld25x/bsp_hu/MYD-LD25X-Uboot-L2022.10-V1.0.0/GEN_FIP/myir-st-optee/lib/libutils/ext/include/confine_array_index.h:76
    3f84:	eb1b001f 	cmp	x0, x27
    3f88:	9a9f3000 	csel	x0, x0, xzr, cc	// cc = lo, ul, last
    3f8c:	d503229f 	csdb
e32_tls_get_module():
/media/home/beste/01_Pro/ld25x/bsp_hu/MYD-LD25X-Uboot-L2022.10-V1.0.0/GEN_FIP/myir-st-optee/ldelf/ta_elf_rel.c:315
    3f90:	b4000200 	cbz	x0, 3fd0 <ta_elf_relocate+0x4d8>
    3f94:	8b001380 	add	x0, x28, x0, lsl #4
    3f98:	79401c00 	ldrh	w0, [x0, #14]
    3f9c:	350001a0 	cbnz	w0, 3fd0 <ta_elf_relocate+0x4d8>
/media/home/beste/01_Pro/ld25x/bsp_hu/MYD-LD25X-Uboot-L2022.10-V1.0.0/GEN_FIP/myir-st-optee/ldelf/ta_elf_rel.c:320
    3fa0:	f9403be5 	ldr	x5, [sp, #112]
    3fa4:	aa1903e3 	mov	x3, x25
    3fa8:	aa1403e2 	mov	x2, x20
    3fac:	aa1b03e1 	mov	x1, x27
    3fb0:	aa1c03e0 	mov	x0, x28
    3fb4:	d2800006 	mov	x6, #0x0                   	// #0
    3fb8:	97fffde4 	bl	3748 <e32_get_sym_name.constprop.0.isra.0>
/media/home/beste/01_Pro/ld25x/bsp_hu/MYD-LD25X-Uboot-L2022.10-V1.0.0/GEN_FIP/myir-st-optee/ldelf/ta_elf_rel.c:322
    3fbc:	f94047e2 	ldr	x2, [sp, #136]
    3fc0:	52800003 	mov	w3, #0x0                   	// #0
    3fc4:	f94057e0 	ldr	x0, [sp, #168]
    3fc8:	d2800001 	mov	x1, #0x0                   	// #0
    3fcc:	97fffe65 	bl	3960 <resolve_sym>
e32_relocate():
/media/home/beste/01_Pro/ld25x/bsp_hu/MYD-LD25X-Uboot-L2022.10-V1.0.0/GEN_FIP/myir-st-optee/ldelf/ta_elf_rel.c:464
    3fd0:	f9404fe0 	ldr	x0, [sp, #152]
    3fd4:	f9406000 	ldr	x0, [x0, #192]
    3fd8:	17ffffc0 	b	3ed8 <ta_elf_relocate+0x3e0>
e32_tls_resolve():
/media/home/beste/01_Pro/ld25x/bsp_hu/MYD-LD25X-Uboot-L2022.10-V1.0.0/GEN_FIP/myir-st-optee/ldelf/ta_elf_rel.c:331
    3fdc:	f9403be5 	ldr	x5, [sp, #112]
    3fe0:	aa1903e3 	mov	x3, x25
    3fe4:	aa1403e2 	mov	x2, x20
    3fe8:	aa1b03e1 	mov	x1, x27
    3fec:	aa1c03e0 	mov	x0, x28
    3ff0:	d2800006 	mov	x6, #0x0                   	// #0
/media/home/beste/01_Pro/ld25x/bsp_hu/MYD-LD25X-Uboot-L2022.10-V1.0.0/GEN_FIP/myir-st-optee/ldelf/ta_elf_rel.c:329
    3ff4:	f90057ff 	str	xzr, [sp, #168]
/media/home/beste/01_Pro/ld25x/bsp_hu/MYD-LD25X-Uboot-L2022.10-V1.0.0/GEN_FIP/myir-st-optee/ldelf/ta_elf_rel.c:331
    3ff8:	97fffdd4 	bl	3748 <e32_get_sym_name.constprop.0.isra.0>
/media/home/beste/01_Pro/ld25x/bsp_hu/MYD-LD25X-Uboot-L2022.10-V1.0.0/GEN_FIP/myir-st-optee/ldelf/ta_elf_rel.c:333
    3ffc:	f94043e1 	ldr	x1, [sp, #128]
    4000:	52800003 	mov	w3, #0x0                   	// #0
    4004:	f94057e0 	ldr	x0, [sp, #168]
    4008:	d2800002 	mov	x2, #0x0                   	// #0
    400c:	97fffe55 	bl	3960 <resolve_sym>
e32_relocate():
/media/home/beste/01_Pro/ld25x/bsp_hu/MYD-LD25X-Uboot-L2022.10-V1.0.0/GEN_FIP/myir-st-optee/ldelf/ta_elf_rel.c:472
    4010:	f94053e0 	ldr	x0, [sp, #160]
    4014:	17ffffb1 	b	3ed8 <ta_elf_relocate+0x3e0>
e32_tls_get_module():
/media/home/beste/01_Pro/ld25x/bsp_hu/MYD-LD25X-Uboot-L2022.10-V1.0.0/GEN_FIP/myir-st-optee/ldelf/ta_elf_rel.c:320
    4018:	9102a3e0 	add	x0, sp, #0xa8
ta_elf_relocate():
/media/home/beste/01_Pro/ld25x/bsp_hu/MYD-LD25X-Uboot-L2022.10-V1.0.0/GEN_FIP/myir-st-optee/ldelf/ta_elf_rel.c:716
    401c:	d2800016 	mov	x22, #0x0                   	// #0
    4020:	d2800518 	mov	x24, #0x28                  	// #40
e32_tls_get_module():
/media/home/beste/01_Pro/ld25x/bsp_hu/MYD-LD25X-Uboot-L2022.10-V1.0.0/GEN_FIP/myir-st-optee/ldelf/ta_elf_rel.c:320
    4024:	f9003be0 	str	x0, [sp, #112]
/media/home/beste/01_Pro/ld25x/bsp_hu/MYD-LD25X-Uboot-L2022.10-V1.0.0/GEN_FIP/myir-st-optee/ldelf/ta_elf_rel.c:322
    4028:	910263e0 	add	x0, sp, #0x98
    402c:	f90047e0 	str	x0, [sp, #136]
    4030:	17fffed5 	b	3b84 <ta_elf_relocate+0x8c>
e64_relocate():
/media/home/beste/01_Pro/ld25x/bsp_hu/MYD-LD25X-Uboot-L2022.10-V1.0.0/GEN_FIP/myir-st-optee/ldelf/ta_elf_rel.c:576
    4034:	f9402e66 	ldr	x6, [x19, #88]
/media/home/beste/01_Pro/ld25x/bsp_hu/MYD-LD25X-Uboot-L2022.10-V1.0.0/GEN_FIP/myir-st-optee/ldelf/ta_elf_rel.c:586
    4038:	8b0000c0 	add	x0, x6, x0
    403c:	b9400402 	ldr	w2, [x0, #4]
    4040:	7100105f 	cmp	w2, #0x4
    4044:	54000120 	b.eq	4068 <ta_elf_relocate+0x570>  // b.none
_assert_trap():
/media/home/beste/01_Pro/ld25x/bsp_hu/MYD-LD25X-Uboot-L2022.10-V1.0.0/GEN_FIP/myir-st-optee/lib/libutils/isoc/include/assert.h:19
    4048:	f0000003 	adrp	x3, 7000 <trace_ext_prefix+0x6bc>
    404c:	f0000001 	adrp	x1, 7000 <trace_ext_prefix+0x6bc>
    4050:	f0000000 	adrp	x0, 7000 <trace_ext_prefix+0x6bc>
    4054:	9116d063 	add	x3, x3, #0x5b4
    4058:	910ed021 	add	x1, x1, #0x3b4
    405c:	9113e400 	add	x0, x0, #0x4f9
    4060:	52804942 	mov	w2, #0x24a                 	// #586
    4064:	17fffedf 	b	3be0 <ta_elf_relocate+0xe8>
e64_relocate():
/media/home/beste/01_Pro/ld25x/bsp_hu/MYD-LD25X-Uboot-L2022.10-V1.0.0/GEN_FIP/myir-st-optee/ldelf/ta_elf_rel.c:588
    4068:	f9401c02 	ldr	x2, [x0, #56]
    406c:	f100605f 	cmp	x2, #0x18
    4070:	54000120 	b.eq	4094 <ta_elf_relocate+0x59c>  // b.none
_assert_trap():
/media/home/beste/01_Pro/ld25x/bsp_hu/MYD-LD25X-Uboot-L2022.10-V1.0.0/GEN_FIP/myir-st-optee/lib/libutils/isoc/include/assert.h:19
    4074:	f0000003 	adrp	x3, 7000 <trace_ext_prefix+0x6bc>
    4078:	f0000001 	adrp	x1, 7000 <trace_ext_prefix+0x6bc>
    407c:	f0000000 	adrp	x0, 7000 <trace_ext_prefix+0x6bc>
    4080:	9116d063 	add	x3, x3, #0x5b4
    4084:	910ed021 	add	x1, x1, #0x3b4
    4088:	91147000 	add	x0, x0, #0x51c
    408c:	52804982 	mov	w2, #0x24c                 	// #588
    4090:	17fffed4 	b	3be0 <ta_elf_relocate+0xe8>
e64_relocate():
/media/home/beste/01_Pro/ld25x/bsp_hu/MYD-LD25X-Uboot-L2022.10-V1.0.0/GEN_FIP/myir-st-optee/ldelf/ta_elf_rel.c:590
    4094:	b9402802 	ldr	w2, [x0, #40]
    4098:	2a0203f5 	mov	w21, w2
/media/home/beste/01_Pro/ld25x/bsp_hu/MYD-LD25X-Uboot-L2022.10-V1.0.0/GEN_FIP/myir-st-optee/ldelf/ta_elf_rel.c:591
    409c:	34000c02 	cbz	w2, 421c <ta_elf_relocate+0x724>
/media/home/beste/01_Pro/ld25x/bsp_hu/MYD-LD25X-Uboot-L2022.10-V1.0.0/GEN_FIP/myir-st-optee/ldelf/ta_elf_rel.c:594
    40a0:	6b02009f 	cmp	w4, w2
    40a4:	54000128 	b.hi	40c8 <ta_elf_relocate+0x5d0>  // b.pmore
/media/home/beste/01_Pro/ld25x/bsp_hu/MYD-LD25X-Uboot-L2022.10-V1.0.0/GEN_FIP/myir-st-optee/ldelf/ta_elf_rel.c:595
    40a8:	f0000004 	adrp	x4, 7000 <trace_ext_prefix+0x6bc>
    40ac:	91106084 	add	x4, x4, #0x418
    40b0:	52800023 	mov	w3, #0x1                   	// #1
    40b4:	52800022 	mov	w2, #0x1                   	// #1
    40b8:	52804a61 	mov	w1, #0x253                 	// #595
/media/home/beste/01_Pro/ld25x/bsp_hu/MYD-LD25X-Uboot-L2022.10-V1.0.0/GEN_FIP/myir-st-optee/ldelf/ta_elf_rel.c:665
    40bc:	f0000000 	adrp	x0, 7000 <trace_ext_prefix+0x6bc>
    40c0:	9116d000 	add	x0, x0, #0x5b4
    40c4:	17fffee0 	b	3c44 <ta_elf_relocate+0x14c>
confine_array_index():
/media/home/beste/01_Pro/ld25x/bsp_hu/MYD-LD25X-Uboot-L2022.10-V1.0.0/GEN_FIP/myir-st-optee/lib/libutils/ext/include/confine_array_index.h:76
    40c8:	eb0102bf 	cmp	x21, x1
    40cc:	9a9f32a2 	csel	x2, x21, xzr, cc	// cc = lo, ul, last
    40d0:	d503229f 	csdb
e64_relocate():
/media/home/beste/01_Pro/ld25x/bsp_hu/MYD-LD25X-Uboot-L2022.10-V1.0.0/GEN_FIP/myir-st-optee/ldelf/ta_elf_rel.c:598
    40d4:	8b0218c2 	add	x2, x6, x2, lsl #6
    40d8:	f9401c43 	ldr	x3, [x2, #56]
    40dc:	f100607f 	cmp	x3, #0x18
    40e0:	54000120 	b.eq	4104 <ta_elf_relocate+0x60c>  // b.none
_assert_trap():
/media/home/beste/01_Pro/ld25x/bsp_hu/MYD-LD25X-Uboot-L2022.10-V1.0.0/GEN_FIP/myir-st-optee/lib/libutils/isoc/include/assert.h:19
    40e4:	f0000003 	adrp	x3, 7000 <trace_ext_prefix+0x6bc>
    40e8:	f0000001 	adrp	x1, 7000 <trace_ext_prefix+0x6bc>
    40ec:	f0000000 	adrp	x0, 7000 <trace_ext_prefix+0x6bc>
    40f0:	9116d063 	add	x3, x3, #0x5b4
    40f4:	910ed021 	add	x1, x1, #0x3b4
    40f8:	91153000 	add	x0, x0, #0x54c
    40fc:	52804ac2 	mov	w2, #0x256                 	// #598
    4100:	17fffeb8 	b	3be0 <ta_elf_relocate+0xe8>
e64_relocate():
/media/home/beste/01_Pro/ld25x/bsp_hu/MYD-LD25X-Uboot-L2022.10-V1.0.0/GEN_FIP/myir-st-optee/ldelf/ta_elf_rel.c:601
    4104:	f9400856 	ldr	x22, [x2, #16]
    4108:	f9401055 	ldr	x21, [x2, #32]
    410c:	ab1502c7 	adds	x7, x22, x21
    4110:	54000162 	b.cs	413c <ta_elf_relocate+0x644>  // b.hs, b.nlast
/media/home/beste/01_Pro/ld25x/bsp_hu/MYD-LD25X-Uboot-L2022.10-V1.0.0/GEN_FIP/myir-st-optee/ldelf/ta_elf_rel.c:604
    4114:	a9409678 	ldp	x24, x5, [x19, #8]
    4118:	cb1800a5 	sub	x5, x5, x24
    411c:	eb0500ff 	cmp	x7, x5
    4120:	540001a3 	b.cc	4154 <ta_elf_relocate+0x65c>  // b.lo, b.ul, b.last
/media/home/beste/01_Pro/ld25x/bsp_hu/MYD-LD25X-Uboot-L2022.10-V1.0.0/GEN_FIP/myir-st-optee/ldelf/ta_elf_rel.c:605
    4124:	f0000004 	adrp	x4, 7000 <trace_ext_prefix+0x6bc>
    4128:	52800023 	mov	w3, #0x1                   	// #1
    412c:	91119084 	add	x4, x4, #0x464
    4130:	52800022 	mov	w2, #0x1                   	// #1
    4134:	52804ba1 	mov	w1, #0x25d                 	// #605
    4138:	17ffffe1 	b	40bc <ta_elf_relocate+0x5c4>
/media/home/beste/01_Pro/ld25x/bsp_hu/MYD-LD25X-Uboot-L2022.10-V1.0.0/GEN_FIP/myir-st-optee/ldelf/ta_elf_rel.c:603
    413c:	f0000004 	adrp	x4, 7000 <trace_ext_prefix+0x6bc>
    4140:	52800023 	mov	w3, #0x1                   	// #1
    4144:	9115f884 	add	x4, x4, #0x57e
    4148:	52800022 	mov	w2, #0x1                   	// #1
    414c:	52804b61 	mov	w1, #0x25b                 	// #603
    4150:	17ffffdb 	b	40bc <ta_elf_relocate+0x5c4>
/media/home/beste/01_Pro/ld25x/bsp_hu/MYD-LD25X-Uboot-L2022.10-V1.0.0/GEN_FIP/myir-st-optee/ldelf/ta_elf_rel.c:612
    4154:	b9402842 	ldr	w2, [x2, #40]
/media/home/beste/01_Pro/ld25x/bsp_hu/MYD-LD25X-Uboot-L2022.10-V1.0.0/GEN_FIP/myir-st-optee/ldelf/ta_elf_rel.c:607
    4158:	8b1802d6 	add	x22, x22, x24
/media/home/beste/01_Pro/ld25x/bsp_hu/MYD-LD25X-Uboot-L2022.10-V1.0.0/GEN_FIP/myir-st-optee/ldelf/ta_elf_rel.c:610
    415c:	9ac30ab5 	udiv	x21, x21, x3
/media/home/beste/01_Pro/ld25x/bsp_hu/MYD-LD25X-Uboot-L2022.10-V1.0.0/GEN_FIP/myir-st-optee/ldelf/ta_elf_rel.c:612
    4160:	2a0203fc 	mov	w28, w2
/media/home/beste/01_Pro/ld25x/bsp_hu/MYD-LD25X-Uboot-L2022.10-V1.0.0/GEN_FIP/myir-st-optee/ldelf/ta_elf_rel.c:613
    4164:	34000642 	cbz	w2, 422c <ta_elf_relocate+0x734>
/media/home/beste/01_Pro/ld25x/bsp_hu/MYD-LD25X-Uboot-L2022.10-V1.0.0/GEN_FIP/myir-st-optee/ldelf/ta_elf_rel.c:614
    4168:	6b02009f 	cmp	w4, w2
    416c:	540000e8 	b.hi	4188 <ta_elf_relocate+0x690>  // b.pmore
/media/home/beste/01_Pro/ld25x/bsp_hu/MYD-LD25X-Uboot-L2022.10-V1.0.0/GEN_FIP/myir-st-optee/ldelf/ta_elf_rel.c:615
    4170:	f0000004 	adrp	x4, 7000 <trace_ext_prefix+0x6bc>
    4174:	52800023 	mov	w3, #0x1                   	// #1
    4178:	9111e084 	add	x4, x4, #0x478
    417c:	52800022 	mov	w2, #0x1                   	// #1
    4180:	52804ce1 	mov	w1, #0x267                 	// #615
    4184:	17ffffce 	b	40bc <ta_elf_relocate+0x5c4>
confine_array_index():
/media/home/beste/01_Pro/ld25x/bsp_hu/MYD-LD25X-Uboot-L2022.10-V1.0.0/GEN_FIP/myir-st-optee/lib/libutils/ext/include/confine_array_index.h:76
    4188:	eb01039f 	cmp	x28, x1
    418c:	9a9f3381 	csel	x1, x28, xzr, cc	// cc = lo, ul, last
    4190:	d503229f 	csdb
e64_relocate():
/media/home/beste/01_Pro/ld25x/bsp_hu/MYD-LD25X-Uboot-L2022.10-V1.0.0/GEN_FIP/myir-st-optee/ldelf/ta_elf_rel.c:621
    4194:	8b0118c1 	add	x1, x6, x1, lsl #6
    4198:	f9400822 	ldr	x2, [x1, #16]
    419c:	f940103c 	ldr	x28, [x1, #32]
    41a0:	ab1c0041 	adds	x1, x2, x28
    41a4:	54000122 	b.cs	41c8 <ta_elf_relocate+0x6d0>  // b.hs, b.nlast
/media/home/beste/01_Pro/ld25x/bsp_hu/MYD-LD25X-Uboot-L2022.10-V1.0.0/GEN_FIP/myir-st-optee/ldelf/ta_elf_rel.c:624
    41a8:	eb0100bf 	cmp	x5, x1
    41ac:	540001a8 	b.hi	41e0 <ta_elf_relocate+0x6e8>  // b.pmore
/media/home/beste/01_Pro/ld25x/bsp_hu/MYD-LD25X-Uboot-L2022.10-V1.0.0/GEN_FIP/myir-st-optee/ldelf/ta_elf_rel.c:625
    41b0:	d0000004 	adrp	x4, 6000 <kprintf.constprop.0+0x68c>
    41b4:	52800023 	mov	w3, #0x1                   	// #1
    41b8:	913cf084 	add	x4, x4, #0xf3c
    41bc:	52800022 	mov	w2, #0x1                   	// #1
    41c0:	52804e21 	mov	w1, #0x271                 	// #625
    41c4:	17ffffbe 	b	40bc <ta_elf_relocate+0x5c4>
/media/home/beste/01_Pro/ld25x/bsp_hu/MYD-LD25X-Uboot-L2022.10-V1.0.0/GEN_FIP/myir-st-optee/ldelf/ta_elf_rel.c:623
    41c8:	f0000004 	adrp	x4, 7000 <trace_ext_prefix+0x6bc>
    41cc:	52800023 	mov	w3, #0x1                   	// #1
    41d0:	9115f884 	add	x4, x4, #0x57e
    41d4:	52800022 	mov	w2, #0x1                   	// #1
    41d8:	52804de1 	mov	w1, #0x26f                 	// #623
    41dc:	17ffffb8 	b	40bc <ta_elf_relocate+0x5c4>
/media/home/beste/01_Pro/ld25x/bsp_hu/MYD-LD25X-Uboot-L2022.10-V1.0.0/GEN_FIP/myir-st-optee/ldelf/ta_elf_rel.c:628
    41e0:	8b020318 	add	x24, x24, x2
/media/home/beste/01_Pro/ld25x/bsp_hu/MYD-LD25X-Uboot-L2022.10-V1.0.0/GEN_FIP/myir-st-optee/ldelf/ta_elf_rel.c:635
    41e4:	f9400814 	ldr	x20, [x0, #16]
    41e8:	f9401019 	ldr	x25, [x0, #32]
    41ec:	ab190282 	adds	x2, x20, x25
    41f0:	54000222 	b.cs	4234 <ta_elf_relocate+0x73c>  // b.hs, b.nlast
/media/home/beste/01_Pro/ld25x/bsp_hu/MYD-LD25X-Uboot-L2022.10-V1.0.0/GEN_FIP/myir-st-optee/ldelf/ta_elf_rel.c:638
    41f4:	a9408261 	ldp	x1, x0, [x19, #8]
    41f8:	cb010000 	sub	x0, x0, x1
    41fc:	eb00005f 	cmp	x2, x0
    4200:	54000263 	b.cc	424c <ta_elf_relocate+0x754>  // b.lo, b.ul, b.last
/media/home/beste/01_Pro/ld25x/bsp_hu/MYD-LD25X-Uboot-L2022.10-V1.0.0/GEN_FIP/myir-st-optee/ldelf/ta_elf_rel.c:639
    4204:	f0000004 	adrp	x4, 7000 <trace_ext_prefix+0x6bc>
    4208:	52800023 	mov	w3, #0x1                   	// #1
    420c:	91124884 	add	x4, x4, #0x492
    4210:	52800022 	mov	w2, #0x1                   	// #1
    4214:	52804fe1 	mov	w1, #0x27f                 	// #639
    4218:	17ffffa9 	b	40bc <ta_elf_relocate+0x5c4>
/media/home/beste/01_Pro/ld25x/bsp_hu/MYD-LD25X-Uboot-L2022.10-V1.0.0/GEN_FIP/myir-st-optee/ldelf/ta_elf_rel.c:584
    421c:	d280001c 	mov	x28, #0x0                   	// #0
/media/home/beste/01_Pro/ld25x/bsp_hu/MYD-LD25X-Uboot-L2022.10-V1.0.0/GEN_FIP/myir-st-optee/ldelf/ta_elf_rel.c:583
    4220:	d2800018 	mov	x24, #0x0                   	// #0
/media/home/beste/01_Pro/ld25x/bsp_hu/MYD-LD25X-Uboot-L2022.10-V1.0.0/GEN_FIP/myir-st-optee/ldelf/ta_elf_rel.c:580
    4224:	d2800016 	mov	x22, #0x0                   	// #0
    4228:	17ffffef 	b	41e4 <ta_elf_relocate+0x6ec>
/media/home/beste/01_Pro/ld25x/bsp_hu/MYD-LD25X-Uboot-L2022.10-V1.0.0/GEN_FIP/myir-st-optee/ldelf/ta_elf_rel.c:583
    422c:	d2800018 	mov	x24, #0x0                   	// #0
    4230:	17ffffed 	b	41e4 <ta_elf_relocate+0x6ec>
/media/home/beste/01_Pro/ld25x/bsp_hu/MYD-LD25X-Uboot-L2022.10-V1.0.0/GEN_FIP/myir-st-optee/ldelf/ta_elf_rel.c:637
    4234:	f0000004 	adrp	x4, 7000 <trace_ext_prefix+0x6bc>
    4238:	52800023 	mov	w3, #0x1                   	// #1
    423c:	9115f884 	add	x4, x4, #0x57e
    4240:	52800022 	mov	w2, #0x1                   	// #1
    4244:	52804fa1 	mov	w1, #0x27d                 	// #637
    4248:	17ffff9d 	b	40bc <ta_elf_relocate+0x5c4>
/media/home/beste/01_Pro/ld25x/bsp_hu/MYD-LD25X-Uboot-L2022.10-V1.0.0/GEN_FIP/myir-st-optee/ldelf/ta_elf_rel.c:642
    424c:	9adb0b39 	udiv	x25, x25, x27
/media/home/beste/01_Pro/ld25x/bsp_hu/MYD-LD25X-Uboot-L2022.10-V1.0.0/GEN_FIP/myir-st-optee/ldelf/ta_elf_rel.c:640
    4250:	8b010294 	add	x20, x20, x1
/media/home/beste/01_Pro/ld25x/bsp_hu/MYD-LD25X-Uboot-L2022.10-V1.0.0/GEN_FIP/myir-st-optee/ldelf/ta_elf_rel.c:642
    4254:	9b1b5339 	madd	x25, x25, x27, x20
/media/home/beste/01_Pro/ld25x/bsp_hu/MYD-LD25X-Uboot-L2022.10-V1.0.0/GEN_FIP/myir-st-optee/ldelf/ta_elf_rel.c:643
    4258:	eb14033f 	cmp	x25, x20
    425c:	54ffc829 	b.ls	3b60 <ta_elf_relocate+0x68>  // b.plast
/media/home/beste/01_Pro/ld25x/bsp_hu/MYD-LD25X-Uboot-L2022.10-V1.0.0/GEN_FIP/myir-st-optee/ldelf/ta_elf_rel.c:648
    4260:	a9408262 	ldp	x2, x0, [x19, #8]
    4264:	f9400284 	ldr	x4, [x20]
    4268:	cb020000 	sub	x0, x0, x2
    426c:	eb00009f 	cmp	x4, x0
    4270:	540000e3 	b.cc	428c <ta_elf_relocate+0x794>  // b.lo, b.ul, b.last
/media/home/beste/01_Pro/ld25x/bsp_hu/MYD-LD25X-Uboot-L2022.10-V1.0.0/GEN_FIP/myir-st-optee/ldelf/ta_elf_rel.c:649
    4274:	f0000004 	adrp	x4, 7000 <trace_ext_prefix+0x6bc>
    4278:	52800023 	mov	w3, #0x1                   	// #1
    427c:	9112a884 	add	x4, x4, #0x4aa
    4280:	52800022 	mov	w2, #0x1                   	// #1
    4284:	52805121 	mov	w1, #0x289                 	// #649
    4288:	17ffff8d 	b	40bc <ta_elf_relocate+0x5c4>
/media/home/beste/01_Pro/ld25x/bsp_hu/MYD-LD25X-Uboot-L2022.10-V1.0.0/GEN_FIP/myir-st-optee/ldelf/ta_elf_rel.c:654
    428c:	f9400680 	ldr	x0, [x20, #8]
/media/home/beste/01_Pro/ld25x/bsp_hu/MYD-LD25X-Uboot-L2022.10-V1.0.0/GEN_FIP/myir-st-optee/ldelf/ta_elf_rel.c:652
    4290:	8b020085 	add	x5, x4, x2
/media/home/beste/01_Pro/ld25x/bsp_hu/MYD-LD25X-Uboot-L2022.10-V1.0.0/GEN_FIP/myir-st-optee/ldelf/ta_elf_rel.c:654
    4294:	92407c01 	and	x1, x0, #0xffffffff
    4298:	f1100c3f 	cmp	x1, #0x403
    429c:	54000700 	b.eq	437c <ta_elf_relocate+0x884>  // b.none
    42a0:	54000328 	b.hi	4304 <ta_elf_relocate+0x80c>  // b.pmore
    42a4:	f104043f 	cmp	x1, #0x101
    42a8:	540003e0 	b.eq	4324 <ta_elf_relocate+0x82c>  // b.none
    42ac:	54000188 	b.hi	42dc <ta_elf_relocate+0x7e4>  // b.pmore
    42b0:	b4000621 	cbz	x1, 4374 <ta_elf_relocate+0x87c>
/media/home/beste/01_Pro/ld25x/bsp_hu/MYD-LD25X-Uboot-L2022.10-V1.0.0/GEN_FIP/myir-st-optee/ldelf/ta_elf_rel.c:696
    42b4:	aa0103e5 	mov	x5, x1
    42b8:	f0000004 	adrp	x4, 7000 <trace_ext_prefix+0x6bc>
    42bc:	52800023 	mov	w3, #0x1                   	// #1
    42c0:	91161c84 	add	x4, x4, #0x587
    42c4:	52800022 	mov	w2, #0x1                   	// #1
    42c8:	52805701 	mov	w1, #0x2b8                 	// #696
    42cc:	f0000000 	adrp	x0, 7000 <trace_ext_prefix+0x6bc>
    42d0:	9116d000 	add	x0, x0, #0x5b4
    42d4:	9400091c 	bl	6744 <trace_printf>
    42d8:	17fffed4 	b	3e28 <ta_elf_relocate+0x330>
/media/home/beste/01_Pro/ld25x/bsp_hu/MYD-LD25X-Uboot-L2022.10-V1.0.0/GEN_FIP/myir-st-optee/ldelf/ta_elf_rel.c:654
    42dc:	d1100420 	sub	x0, x1, #0x401
    42e0:	f100041f 	cmp	x0, #0x1
    42e4:	54fffe88 	b.hi	42b4 <ta_elf_relocate+0x7bc>  // b.pmore
/media/home/beste/01_Pro/ld25x/bsp_hu/MYD-LD25X-Uboot-L2022.10-V1.0.0/GEN_FIP/myir-st-optee/ldelf/ta_elf_rel.c:682
    42e8:	aa1403e4 	mov	x4, x20
    42ec:	aa1c03e3 	mov	x3, x28
    42f0:	aa1803e2 	mov	x2, x24
    42f4:	aa1503e1 	mov	x1, x21
    42f8:	aa1603e0 	mov	x0, x22
    42fc:	97fffdca 	bl	3a24 <e64_process_dyn_rela>
/media/home/beste/01_Pro/ld25x/bsp_hu/MYD-LD25X-Uboot-L2022.10-V1.0.0/GEN_FIP/myir-st-optee/ldelf/ta_elf_rel.c:684
    4300:	1400001d 	b	4374 <ta_elf_relocate+0x87c>
/media/home/beste/01_Pro/ld25x/bsp_hu/MYD-LD25X-Uboot-L2022.10-V1.0.0/GEN_FIP/myir-st-optee/ldelf/ta_elf_rel.c:654
    4304:	f110183f 	cmp	x1, #0x406
    4308:	54000400 	b.eq	4388 <ta_elf_relocate+0x890>  // b.none
    430c:	f1101c3f 	cmp	x1, #0x407
    4310:	54fffd21 	b.ne	42b4 <ta_elf_relocate+0x7bc>  // b.any
e64_process_tlsdesc_rela():
/media/home/beste/01_Pro/ld25x/bsp_hu/MYD-LD25X-Uboot-L2022.10-V1.0.0/GEN_FIP/myir-st-optee/ldelf/ta_elf_rel.c:570
    4314:	aa1303e6 	mov	x6, x19
    4318:	910020a5 	add	x5, x5, #0x8
/media/home/beste/01_Pro/ld25x/bsp_hu/MYD-LD25X-Uboot-L2022.10-V1.0.0/GEN_FIP/myir-st-optee/ldelf/ta_elf_rel.c:569
    431c:	f8226897 	str	x23, [x4, x2]
/media/home/beste/01_Pro/ld25x/bsp_hu/MYD-LD25X-Uboot-L2022.10-V1.0.0/GEN_FIP/myir-st-optee/ldelf/ta_elf_rel.c:570
    4320:	1400001b 	b	438c <ta_elf_relocate+0x894>
e64_relocate():
/media/home/beste/01_Pro/ld25x/bsp_hu/MYD-LD25X-Uboot-L2022.10-V1.0.0/GEN_FIP/myir-st-optee/ldelf/ta_elf_rel.c:663
    4324:	d360fc00 	lsr	x0, x0, #32
/media/home/beste/01_Pro/ld25x/bsp_hu/MYD-LD25X-Uboot-L2022.10-V1.0.0/GEN_FIP/myir-st-optee/ldelf/ta_elf_rel.c:664
    4328:	eb15001f 	cmp	x0, x21
    432c:	540000e3 	b.cc	4348 <ta_elf_relocate+0x850>  // b.lo, b.ul, b.last
/media/home/beste/01_Pro/ld25x/bsp_hu/MYD-LD25X-Uboot-L2022.10-V1.0.0/GEN_FIP/myir-st-optee/ldelf/ta_elf_rel.c:665
    4330:	f0000004 	adrp	x4, 7000 <trace_ext_prefix+0x6bc>
    4334:	52800023 	mov	w3, #0x1                   	// #1
    4338:	910db884 	add	x4, x4, #0x36e
    433c:	52800022 	mov	w2, #0x1                   	// #1
    4340:	52805321 	mov	w1, #0x299                 	// #665
    4344:	17ffff5e 	b	40bc <ta_elf_relocate+0x5c4>
confine_array_index():
/media/home/beste/01_Pro/ld25x/bsp_hu/MYD-LD25X-Uboot-L2022.10-V1.0.0/GEN_FIP/myir-st-optee/lib/libutils/ext/include/confine_array_index.h:76
    4348:	eb15001f 	cmp	x0, x21
    434c:	9a9f3000 	csel	x0, x0, xzr, cc	// cc = lo, ul, last
    4350:	d503229f 	csdb
e64_relocate():
/media/home/beste/01_Pro/ld25x/bsp_hu/MYD-LD25X-Uboot-L2022.10-V1.0.0/GEN_FIP/myir-st-optee/ldelf/ta_elf_rel.c:668
    4354:	9b1b5800 	madd	x0, x0, x27, x22
    4358:	79400c01 	ldrh	w1, [x0, #6]
    435c:	34fffc61 	cbz	w1, 42e8 <ta_elf_relocate+0x7f0>
/media/home/beste/01_Pro/ld25x/bsp_hu/MYD-LD25X-Uboot-L2022.10-V1.0.0/GEN_FIP/myir-st-optee/ldelf/ta_elf_rel.c:673
    4360:	f9400a81 	ldr	x1, [x20, #16]
    4364:	f9400400 	ldr	x0, [x0, #8]
    4368:	8b010041 	add	x1, x2, x1
    436c:	8b000020 	add	x0, x1, x0
/media/home/beste/01_Pro/ld25x/bsp_hu/MYD-LD25X-Uboot-L2022.10-V1.0.0/GEN_FIP/myir-st-optee/ldelf/ta_elf_rel.c:678
    4370:	f8226880 	str	x0, [x4, x2]
/media/home/beste/01_Pro/ld25x/bsp_hu/MYD-LD25X-Uboot-L2022.10-V1.0.0/GEN_FIP/myir-st-optee/ldelf/ta_elf_rel.c:643
    4374:	91006294 	add	x20, x20, #0x18
    4378:	17ffffb8 	b	4258 <ta_elf_relocate+0x760>
/media/home/beste/01_Pro/ld25x/bsp_hu/MYD-LD25X-Uboot-L2022.10-V1.0.0/GEN_FIP/myir-st-optee/ldelf/ta_elf_rel.c:678
    437c:	f9400a80 	ldr	x0, [x20, #16]
    4380:	8b020000 	add	x0, x0, x2
    4384:	17fffffb 	b	4370 <ta_elf_relocate+0x878>
/media/home/beste/01_Pro/ld25x/bsp_hu/MYD-LD25X-Uboot-L2022.10-V1.0.0/GEN_FIP/myir-st-optee/ldelf/ta_elf_rel.c:686
    4388:	aa1303e6 	mov	x6, x19
e64_process_tlsdesc_rela():
/media/home/beste/01_Pro/ld25x/bsp_hu/MYD-LD25X-Uboot-L2022.10-V1.0.0/GEN_FIP/myir-st-optee/ldelf/ta_elf_rel.c:570
    438c:	aa1403e4 	mov	x4, x20
    4390:	aa1c03e3 	mov	x3, x28
    4394:	aa1803e2 	mov	x2, x24
    4398:	aa1503e1 	mov	x1, x21
    439c:	aa1603e0 	mov	x0, x22
    43a0:	97fffdb6 	bl	3a78 <e64_process_tls_tprel_rela>
/media/home/beste/01_Pro/ld25x/bsp_hu/MYD-LD25X-Uboot-L2022.10-V1.0.0/GEN_FIP/myir-st-optee/ldelf/ta_elf_rel.c:572
    43a4:	17fffff4 	b	4374 <ta_elf_relocate+0x87c>

00000000000043a8 <pop_vsp>:
pop_vsp():
/media/home/beste/01_Pro/ld25x/bsp_hu/MYD-LD25X-Uboot-L2022.10-V1.0.0/GEN_FIP/myir-st-optee/lib/libunw/unwind_arm32.c:178
    43a8:	a9be7bfd 	stp	x29, x30, [sp, #-32]!
    43ac:	910003fd 	mov	x29, sp
    43b0:	f9000bf3 	str	x19, [sp, #16]
    43b4:	aa0103f3 	mov	x19, x1
/media/home/beste/01_Pro/ld25x/bsp_hu/MYD-LD25X-Uboot-L2022.10-V1.0.0/GEN_FIP/myir-st-optee/lib/libunw/unwind_arm32.c:179
    43b8:	f9400021 	ldr	x1, [x1]
    43bc:	eb02003f 	cmp	x1, x2
    43c0:	540001e3 	b.cc	43fc <pop_vsp+0x54>  // b.lo, b.ul, b.last
    43c4:	aa0303e4 	mov	x4, x3
/media/home/beste/01_Pro/ld25x/bsp_hu/MYD-LD25X-Uboot-L2022.10-V1.0.0/GEN_FIP/myir-st-optee/lib/libunw/unwind_arm32.c:181
    43c8:	91001023 	add	x3, x1, #0x4
    43cc:	8b040042 	add	x2, x2, x4
    43d0:	eb02007f 	cmp	x3, x2
    43d4:	54000148 	b.hi	43fc <pop_vsp+0x54>  // b.pmore
copy_in():
/media/home/beste/01_Pro/ld25x/bsp_hu/MYD-LD25X-Uboot-L2022.10-V1.0.0/GEN_FIP/myir-st-optee/lib/libunw/unwind_arm32.c:101
    43d8:	d2800082 	mov	x2, #0x4                   	// #4
    43dc:	97ffef25 	bl	70 <memcpy>
pop_vsp():
/media/home/beste/01_Pro/ld25x/bsp_hu/MYD-LD25X-Uboot-L2022.10-V1.0.0/GEN_FIP/myir-st-optee/lib/libunw/unwind_arm32.c:186
    43e0:	f9400260 	ldr	x0, [x19]
    43e4:	91001000 	add	x0, x0, #0x4
    43e8:	f9000260 	str	x0, [x19]
/media/home/beste/01_Pro/ld25x/bsp_hu/MYD-LD25X-Uboot-L2022.10-V1.0.0/GEN_FIP/myir-st-optee/lib/libunw/unwind_arm32.c:187
    43ec:	52800020 	mov	w0, #0x1                   	// #1
/media/home/beste/01_Pro/ld25x/bsp_hu/MYD-LD25X-Uboot-L2022.10-V1.0.0/GEN_FIP/myir-st-optee/lib/libunw/unwind_arm32.c:188
    43f0:	f9400bf3 	ldr	x19, [sp, #16]
    43f4:	a8c27bfd 	ldp	x29, x30, [sp], #32
    43f8:	d65f03c0 	ret
/media/home/beste/01_Pro/ld25x/bsp_hu/MYD-LD25X-Uboot-L2022.10-V1.0.0/GEN_FIP/myir-st-optee/lib/libunw/unwind_arm32.c:180
    43fc:	52800000 	mov	w0, #0x0                   	// #0
    4400:	17fffffc 	b	43f0 <pop_vsp+0x48>

0000000000004404 <unwind_exec_read_byte>:
unwind_exec_read_byte():
/media/home/beste/01_Pro/ld25x/bsp_hu/MYD-LD25X-Uboot-L2022.10-V1.0.0/GEN_FIP/myir-st-optee/lib/libunw/unwind_arm32.c:155
    4404:	a9bc7bfd 	stp	x29, x30, [sp, #-64]!
copy_in():
/media/home/beste/01_Pro/ld25x/bsp_hu/MYD-LD25X-Uboot-L2022.10-V1.0.0/GEN_FIP/myir-st-optee/lib/libunw/unwind_arm32.c:101
    4408:	d2800082 	mov	x2, #0x4                   	// #4
unwind_exec_read_byte():
/media/home/beste/01_Pro/ld25x/bsp_hu/MYD-LD25X-Uboot-L2022.10-V1.0.0/GEN_FIP/myir-st-optee/lib/libunw/unwind_arm32.c:155
    440c:	910003fd 	mov	x29, sp
    4410:	a90153f3 	stp	x19, x20, [sp, #16]
    4414:	aa0003f3 	mov	x19, x0
/media/home/beste/01_Pro/ld25x/bsp_hu/MYD-LD25X-Uboot-L2022.10-V1.0.0/GEN_FIP/myir-st-optee/lib/libunw/unwind_arm32.c:158
    4418:	f9402414 	ldr	x20, [x0, #72]
copy_in():
/media/home/beste/01_Pro/ld25x/bsp_hu/MYD-LD25X-Uboot-L2022.10-V1.0.0/GEN_FIP/myir-st-optee/lib/libunw/unwind_arm32.c:101
    441c:	9100f3e0 	add	x0, sp, #0x3c
unwind_exec_read_byte():
/media/home/beste/01_Pro/ld25x/bsp_hu/MYD-LD25X-Uboot-L2022.10-V1.0.0/GEN_FIP/myir-st-optee/lib/libunw/unwind_arm32.c:155
    4420:	f90013f5 	str	x21, [sp, #32]
    4424:	aa0103f5 	mov	x21, x1
copy_in():
/media/home/beste/01_Pro/ld25x/bsp_hu/MYD-LD25X-Uboot-L2022.10-V1.0.0/GEN_FIP/myir-st-optee/lib/libunw/unwind_arm32.c:101
    4428:	aa1403e1 	mov	x1, x20
    442c:	97ffef11 	bl	70 <memcpy>
unwind_exec_read_byte():
/media/home/beste/01_Pro/ld25x/bsp_hu/MYD-LD25X-Uboot-L2022.10-V1.0.0/GEN_FIP/myir-st-optee/lib/libunw/unwind_arm32.c:162
    4430:	b9405661 	ldr	w1, [x19, #84]
    4434:	b9403fe0 	ldr	w0, [sp, #60]
    4438:	531d7021 	lsl	w1, w1, #3
    443c:	1ac12400 	lsr	w0, w0, w1
    4440:	12001c00 	and	w0, w0, #0xff
    4444:	b90002a0 	str	w0, [x21]
/media/home/beste/01_Pro/ld25x/bsp_hu/MYD-LD25X-Uboot-L2022.10-V1.0.0/GEN_FIP/myir-st-optee/lib/libunw/unwind_arm32.c:165
    4448:	b9405660 	ldr	w0, [x19, #84]
    444c:	350001a0 	cbnz	w0, 4480 <unwind_exec_read_byte+0x7c>
/media/home/beste/01_Pro/ld25x/bsp_hu/MYD-LD25X-Uboot-L2022.10-V1.0.0/GEN_FIP/myir-st-optee/lib/libunw/unwind_arm32.c:166
    4450:	52800060 	mov	w0, #0x3                   	// #3
    4454:	b9005660 	str	w0, [x19, #84]
/media/home/beste/01_Pro/ld25x/bsp_hu/MYD-LD25X-Uboot-L2022.10-V1.0.0/GEN_FIP/myir-st-optee/lib/libunw/unwind_arm32.c:168
    4458:	b9405260 	ldr	w0, [x19, #80]
/media/home/beste/01_Pro/ld25x/bsp_hu/MYD-LD25X-Uboot-L2022.10-V1.0.0/GEN_FIP/myir-st-optee/lib/libunw/unwind_arm32.c:167
    445c:	91001294 	add	x20, x20, #0x4
    4460:	f9002674 	str	x20, [x19, #72]
/media/home/beste/01_Pro/ld25x/bsp_hu/MYD-LD25X-Uboot-L2022.10-V1.0.0/GEN_FIP/myir-st-optee/lib/libunw/unwind_arm32.c:168
    4464:	51000400 	sub	w0, w0, #0x1
    4468:	b9005260 	str	w0, [x19, #80]
/media/home/beste/01_Pro/ld25x/bsp_hu/MYD-LD25X-Uboot-L2022.10-V1.0.0/GEN_FIP/myir-st-optee/lib/libunw/unwind_arm32.c:174
    446c:	a94153f3 	ldp	x19, x20, [sp, #16]
    4470:	52800020 	mov	w0, #0x1                   	// #1
    4474:	f94013f5 	ldr	x21, [sp, #32]
    4478:	a8c47bfd 	ldp	x29, x30, [sp], #64
    447c:	d65f03c0 	ret
/media/home/beste/01_Pro/ld25x/bsp_hu/MYD-LD25X-Uboot-L2022.10-V1.0.0/GEN_FIP/myir-st-optee/lib/libunw/unwind_arm32.c:170
    4480:	51000400 	sub	w0, w0, #0x1
    4484:	b9005660 	str	w0, [x19, #84]
    4488:	17fffff9 	b	446c <unwind_exec_read_byte+0x68>

000000000000448c <unwind_stack_arm32>:
unwind_stack_arm32():
/media/home/beste/01_Pro/ld25x/bsp_hu/MYD-LD25X-Uboot-L2022.10-V1.0.0/GEN_FIP/myir-st-optee/lib/libunw/unwind_arm32.c:368
    448c:	a9b67bfd 	stp	x29, x30, [sp, #-160]!
    4490:	910003fd 	mov	x29, sp
    4494:	a90153f3 	stp	x19, x20, [sp, #16]
    4498:	aa0003f3 	mov	x19, x0
/media/home/beste/01_Pro/ld25x/bsp_hu/MYD-LD25X-Uboot-L2022.10-V1.0.0/GEN_FIP/myir-st-optee/lib/libunw/unwind_arm32.c:376
    449c:	b9403c14 	ldr	w20, [x0, #60]
/media/home/beste/01_Pro/ld25x/bsp_hu/MYD-LD25X-Uboot-L2022.10-V1.0.0/GEN_FIP/myir-st-optee/lib/libunw/unwind_arm32.c:368
    44a0:	a9025bf5 	stp	x21, x22, [sp, #32]
    44a4:	aa0103f6 	mov	x22, x1
    44a8:	a90363f7 	stp	x23, x24, [sp, #48]
    44ac:	aa0203f7 	mov	x23, x2
    44b0:	a9046bf9 	stp	x25, x26, [sp, #64]
find_index():
/media/home/beste/01_Pro/ld25x/bsp_hu/MYD-LD25X-Uboot-L2022.10-V1.0.0/GEN_FIP/myir-st-optee/lib/libunw/unwind_arm32.c:127
    44b4:	910263f9 	add	x25, sp, #0x98
    44b8:	910243fa 	add	x26, sp, #0x90
unwind_stack_arm32():
/media/home/beste/01_Pro/ld25x/bsp_hu/MYD-LD25X-Uboot-L2022.10-V1.0.0/GEN_FIP/myir-st-optee/lib/libunw/unwind_arm32.c:368
    44bc:	a90573fb 	stp	x27, x28, [sp, #80]
find_index():
/media/home/beste/01_Pro/ld25x/bsp_hu/MYD-LD25X-Uboot-L2022.10-V1.0.0/GEN_FIP/myir-st-optee/lib/libunw/unwind_arm32.c:127
    44c0:	aa1903e2 	mov	x2, x25
    44c4:	aa1a03e1 	mov	x1, x26
unwind_stack_arm32():
/media/home/beste/01_Pro/ld25x/bsp_hu/MYD-LD25X-Uboot-L2022.10-V1.0.0/GEN_FIP/myir-st-optee/lib/libunw/unwind_arm32.c:376
    44c8:	b9004014 	str	w20, [x0, #64]
find_index():
/media/home/beste/01_Pro/ld25x/bsp_hu/MYD-LD25X-Uboot-L2022.10-V1.0.0/GEN_FIP/myir-st-optee/lib/libunw/unwind_arm32.c:127
    44cc:	51000a94 	sub	w20, w20, #0x2
unwind_stack_arm32():
/media/home/beste/01_Pro/ld25x/bsp_hu/MYD-LD25X-Uboot-L2022.10-V1.0.0/GEN_FIP/myir-st-optee/lib/libunw/unwind_arm32.c:373
    44d0:	7900b01f 	strh	wzr, [x0, #88]
find_index():
/media/home/beste/01_Pro/ld25x/bsp_hu/MYD-LD25X-Uboot-L2022.10-V1.0.0/GEN_FIP/myir-st-optee/lib/libunw/unwind_arm32.c:127
    44d4:	aa1403e0 	mov	x0, x20
/media/home/beste/01_Pro/ld25x/bsp_hu/MYD-LD25X-Uboot-L2022.10-V1.0.0/GEN_FIP/myir-st-optee/lib/libunw/unwind_arm32.c:118
    44d8:	a9097fff 	stp	xzr, xzr, [sp, #144]
/media/home/beste/01_Pro/ld25x/bsp_hu/MYD-LD25X-Uboot-L2022.10-V1.0.0/GEN_FIP/myir-st-optee/lib/libunw/unwind_arm32.c:127
    44dc:	97fff9c0 	bl	2bdc <find_exidx>
    44e0:	72001c18 	ands	w24, w0, #0xff
    44e4:	54000140 	b.eq	450c <unwind_stack_arm32+0x80>  // b.none
/media/home/beste/01_Pro/ld25x/bsp_hu/MYD-LD25X-Uboot-L2022.10-V1.0.0/GEN_FIP/myir-st-optee/lib/libunw/unwind_arm32.c:133
    44e8:	a94907e0 	ldp	x0, x1, [sp, #144]
/media/home/beste/01_Pro/ld25x/bsp_hu/MYD-LD25X-Uboot-L2022.10-V1.0.0/GEN_FIP/myir-st-optee/lib/libunw/unwind_arm32.c:132
    44ec:	52800015 	mov	w21, #0x0                   	// #0
/media/home/beste/01_Pro/ld25x/bsp_hu/MYD-LD25X-Uboot-L2022.10-V1.0.0/GEN_FIP/myir-st-optee/lib/libunw/unwind_arm32.c:133
    44f0:	cb000021 	sub	x1, x1, x0
    44f4:	d3438821 	ubfx	x1, x1, #3, #32
/media/home/beste/01_Pro/ld25x/bsp_hu/MYD-LD25X-Uboot-L2022.10-V1.0.0/GEN_FIP/myir-st-optee/lib/libunw/unwind_arm32.c:136
    44f8:	11000426 	add	w6, w1, #0x1
/media/home/beste/01_Pro/ld25x/bsp_hu/MYD-LD25X-Uboot-L2022.10-V1.0.0/GEN_FIP/myir-st-optee/lib/libunw/unwind_arm32.c:135
    44fc:	6b0102bf 	cmp	w21, w1
    4500:	54000161 	b.ne	452c <unwind_stack_arm32+0xa0>  // b.any
/media/home/beste/01_Pro/ld25x/bsp_hu/MYD-LD25X-Uboot-L2022.10-V1.0.0/GEN_FIP/myir-st-optee/lib/libunw/unwind_arm32.c:149
    4504:	8b354c15 	add	x21, x0, w21, uxtw #3
unwind_stack_arm32():
/media/home/beste/01_Pro/ld25x/bsp_hu/MYD-LD25X-Uboot-L2022.10-V1.0.0/GEN_FIP/myir-st-optee/lib/libunw/unwind_arm32.c:385
    4508:	b5000335 	cbnz	x21, 456c <unwind_stack_arm32+0xe0>
/media/home/beste/01_Pro/ld25x/bsp_hu/MYD-LD25X-Uboot-L2022.10-V1.0.0/GEN_FIP/myir-st-optee/lib/libunw/unwind_arm32.c:386
    450c:	52800000 	mov	w0, #0x0                   	// #0
/media/home/beste/01_Pro/ld25x/bsp_hu/MYD-LD25X-Uboot-L2022.10-V1.0.0/GEN_FIP/myir-st-optee/lib/libunw/unwind_arm32.c:408
    4510:	a94153f3 	ldp	x19, x20, [sp, #16]
    4514:	a9425bf5 	ldp	x21, x22, [sp, #32]
    4518:	a94363f7 	ldp	x23, x24, [sp, #48]
    451c:	a9446bf9 	ldp	x25, x26, [sp, #64]
    4520:	a94573fb 	ldp	x27, x28, [sp, #80]
    4524:	a8ca7bfd 	ldp	x29, x30, [sp], #160
    4528:	d65f03c0 	ret
find_index():
/media/home/beste/01_Pro/ld25x/bsp_hu/MYD-LD25X-Uboot-L2022.10-V1.0.0/GEN_FIP/myir-st-optee/lib/libunw/unwind_arm32.c:136
    452c:	4b1500c2 	sub	w2, w6, w21
    4530:	0b4206a4 	add	w4, w21, w2, lsr #1
/media/home/beste/01_Pro/ld25x/bsp_hu/MYD-LD25X-Uboot-L2022.10-V1.0.0/GEN_FIP/myir-st-optee/lib/libunw/unwind_arm32.c:138
    4534:	0b4206a2 	add	w2, w21, w2, lsr #1
    4538:	d37df045 	lsl	x5, x2, #3
    453c:	8b020c03 	add	x3, x0, x2, lsl #3
/media/home/beste/01_Pro/ld25x/bsp_hu/MYD-LD25X-Uboot-L2022.10-V1.0.0/GEN_FIP/myir-st-optee/lib/libunw/unwind_arm32.c:140
    4540:	b8656805 	ldr	w5, [x0, x5]
expand_prel31():
/media/home/beste/01_Pro/ld25x/bsp_hu/MYD-LD25X-Uboot-L2022.10-V1.0.0/GEN_FIP/myir-st-optee/lib/libunw/unwind_arm32.c:108
    4544:	531f78a2 	lsl	w2, w5, #1
    4548:	12010042 	and	w2, w2, #0x80000000
    454c:	2a050042 	orr	w2, w2, w5
find_index():
/media/home/beste/01_Pro/ld25x/bsp_hu/MYD-LD25X-Uboot-L2022.10-V1.0.0/GEN_FIP/myir-st-optee/lib/libunw/unwind_arm32.c:141
    4550:	8b22c062 	add	x2, x3, w2, sxtw
/media/home/beste/01_Pro/ld25x/bsp_hu/MYD-LD25X-Uboot-L2022.10-V1.0.0/GEN_FIP/myir-st-optee/lib/libunw/unwind_arm32.c:143
    4554:	eb02029f 	cmp	x20, x2
    4558:	54000062 	b.cs	4564 <unwind_stack_arm32+0xd8>  // b.hs, b.nlast
/media/home/beste/01_Pro/ld25x/bsp_hu/MYD-LD25X-Uboot-L2022.10-V1.0.0/GEN_FIP/myir-st-optee/lib/libunw/unwind_arm32.c:146
    455c:	51000481 	sub	w1, w4, #0x1
    4560:	17ffffe6 	b	44f8 <unwind_stack_arm32+0x6c>
/media/home/beste/01_Pro/ld25x/bsp_hu/MYD-LD25X-Uboot-L2022.10-V1.0.0/GEN_FIP/myir-st-optee/lib/libunw/unwind_arm32.c:136
    4564:	2a0403f5 	mov	w21, w4
    4568:	17ffffe5 	b	44fc <unwind_stack_arm32+0x70>
unwind_stack_arm32():
/media/home/beste/01_Pro/ld25x/bsp_hu/MYD-LD25X-Uboot-L2022.10-V1.0.0/GEN_FIP/myir-st-optee/lib/libunw/unwind_arm32.c:389
    456c:	b94006a2 	ldr	w2, [x21, #4]
    4570:	7100045f 	cmp	w2, #0x1
    4574:	54000081 	b.ne	4584 <unwind_stack_arm32+0xf8>  // b.any
/media/home/beste/01_Pro/ld25x/bsp_hu/MYD-LD25X-Uboot-L2022.10-V1.0.0/GEN_FIP/myir-st-optee/lib/libunw/unwind_arm32.c:405
    4578:	2a1803e0 	mov	w0, w24
/media/home/beste/01_Pro/ld25x/bsp_hu/MYD-LD25X-Uboot-L2022.10-V1.0.0/GEN_FIP/myir-st-optee/lib/libunw/unwind_arm32.c:407
    457c:	52000000 	eor	w0, w0, #0x1
    4580:	17ffffe4 	b	4510 <unwind_stack_arm32+0x84>
/media/home/beste/01_Pro/ld25x/bsp_hu/MYD-LD25X-Uboot-L2022.10-V1.0.0/GEN_FIP/myir-st-optee/lib/libunw/unwind_arm32.c:392
    4584:	910012a1 	add	x1, x21, #0x4
/media/home/beste/01_Pro/ld25x/bsp_hu/MYD-LD25X-Uboot-L2022.10-V1.0.0/GEN_FIP/myir-st-optee/lib/libunw/unwind_arm32.c:390
    4588:	37f800a2 	tbnz	w2, #31, 459c <unwind_stack_arm32+0x110>
expand_prel31():
/media/home/beste/01_Pro/ld25x/bsp_hu/MYD-LD25X-Uboot-L2022.10-V1.0.0/GEN_FIP/myir-st-optee/lib/libunw/unwind_arm32.c:108
    458c:	531f7840 	lsl	w0, w2, #1
    4590:	12010000 	and	w0, w0, #0x80000000
    4594:	2a020000 	orr	w0, w0, w2
unwind_stack_arm32():
/media/home/beste/01_Pro/ld25x/bsp_hu/MYD-LD25X-Uboot-L2022.10-V1.0.0/GEN_FIP/myir-st-optee/lib/libunw/unwind_arm32.c:395
    4598:	8b20c021 	add	x1, x1, w0, sxtw
unwind_tab():
/media/home/beste/01_Pro/ld25x/bsp_hu/MYD-LD25X-Uboot-L2022.10-V1.0.0/GEN_FIP/myir-st-optee/lib/libunw/unwind_arm32.c:324
    459c:	b9003e7f 	str	wzr, [x19, #60]
copy_in():
/media/home/beste/01_Pro/ld25x/bsp_hu/MYD-LD25X-Uboot-L2022.10-V1.0.0/GEN_FIP/myir-st-optee/lib/libunw/unwind_arm32.c:101
    45a0:	d2800082 	mov	x2, #0x4                   	// #4
    45a4:	f9002661 	str	x1, [x19, #72]
    45a8:	910223e0 	add	x0, sp, #0x88
    45ac:	97ffeeb1 	bl	70 <memcpy>
unwind_tab():
/media/home/beste/01_Pro/ld25x/bsp_hu/MYD-LD25X-Uboot-L2022.10-V1.0.0/GEN_FIP/myir-st-optee/lib/libunw/unwind_arm32.c:332
    45b0:	b9408be0 	ldr	w0, [sp, #136]
/media/home/beste/01_Pro/ld25x/bsp_hu/MYD-LD25X-Uboot-L2022.10-V1.0.0/GEN_FIP/myir-st-optee/lib/libunw/unwind_arm32.c:334
    45b4:	52b00002 	mov	w2, #0x80000000            	// #-2147483648
/media/home/beste/01_Pro/ld25x/bsp_hu/MYD-LD25X-Uboot-L2022.10-V1.0.0/GEN_FIP/myir-st-optee/lib/libunw/unwind_arm32.c:332
    45b8:	12081c01 	and	w1, w0, #0xff000000
/media/home/beste/01_Pro/ld25x/bsp_hu/MYD-LD25X-Uboot-L2022.10-V1.0.0/GEN_FIP/myir-st-optee/lib/libunw/unwind_arm32.c:334
    45bc:	6b02003f 	cmp	w1, w2
    45c0:	54001700 	b.eq	48a0 <unwind_stack_arm32+0x414>  // b.none
/media/home/beste/01_Pro/ld25x/bsp_hu/MYD-LD25X-Uboot-L2022.10-V1.0.0/GEN_FIP/myir-st-optee/lib/libunw/unwind_arm32.c:337
    45c4:	52b02002 	mov	w2, #0x81000000            	// #-2130706432
    45c8:	6b02003f 	cmp	w1, w2
    45cc:	54001041 	b.ne	47d4 <unwind_stack_arm32+0x348>  // b.any
/media/home/beste/01_Pro/ld25x/bsp_hu/MYD-LD25X-Uboot-L2022.10-V1.0.0/GEN_FIP/myir-st-optee/lib/libunw/unwind_arm32.c:339
    45d0:	d3505c00 	ubfx	x0, x0, #16, #8
    45d4:	52800021 	mov	w1, #0x1                   	// #1
    45d8:	11000400 	add	w0, w0, #0x1
/media/home/beste/01_Pro/ld25x/bsp_hu/MYD-LD25X-Uboot-L2022.10-V1.0.0/GEN_FIP/myir-st-optee/lib/libunw/unwind_arm32.c:338
    45dc:	290a0660 	stp	w0, w1, [x19, #80]
unwind_exec_insn():
/media/home/beste/01_Pro/ld25x/bsp_hu/MYD-LD25X-Uboot-L2022.10-V1.0.0/GEN_FIP/myir-st-optee/lib/libunw/unwind_arm32.c:199
    45e0:	910233e0 	add	x0, sp, #0x8c
    45e4:	f90037e0 	str	x0, [sp, #104]
    45e8:	14000010 	b	4628 <unwind_stack_arm32+0x19c>
    45ec:	f94037e1 	ldr	x1, [sp, #104]
/media/home/beste/01_Pro/ld25x/bsp_hu/MYD-LD25X-Uboot-L2022.10-V1.0.0/GEN_FIP/myir-st-optee/lib/libunw/unwind_arm32.c:195
    45f0:	b940367c 	ldr	w28, [x19, #52]
    45f4:	2a1c03e0 	mov	w0, w28
    45f8:	f9004fe0 	str	x0, [sp, #152]
/media/home/beste/01_Pro/ld25x/bsp_hu/MYD-LD25X-Uboot-L2022.10-V1.0.0/GEN_FIP/myir-st-optee/lib/libunw/unwind_arm32.c:199
    45fc:	aa1303e0 	mov	x0, x19
    4600:	97ffff81 	bl	4404 <unwind_exec_read_byte>
    4604:	72001c1f 	tst	w0, #0xff
    4608:	54000e60 	b.eq	47d4 <unwind_stack_arm32+0x348>  // b.none
/media/home/beste/01_Pro/ld25x/bsp_hu/MYD-LD25X-Uboot-L2022.10-V1.0.0/GEN_FIP/myir-st-optee/lib/libunw/unwind_arm32.c:202
    460c:	b9408ff4 	ldr	w20, [sp, #140]
    4610:	721a0680 	ands	w0, w20, #0xc0
    4614:	540001c1 	b.ne	464c <unwind_stack_arm32+0x1c0>  // b.any
/media/home/beste/01_Pro/ld25x/bsp_hu/MYD-LD25X-Uboot-L2022.10-V1.0.0/GEN_FIP/myir-st-optee/lib/libunw/unwind_arm32.c:203
    4618:	531e1694 	ubfiz	w20, w20, #2, #6
    461c:	11001294 	add	w20, w20, #0x4
    4620:	0b1c0294 	add	w20, w20, w28
    4624:	b9003674 	str	w20, [x19, #52]
unwind_tab():
/media/home/beste/01_Pro/ld25x/bsp_hu/MYD-LD25X-Uboot-L2022.10-V1.0.0/GEN_FIP/myir-st-optee/lib/libunw/unwind_arm32.c:345
    4628:	b9405260 	ldr	w0, [x19, #80]
    462c:	35fffe00 	cbnz	w0, 45ec <unwind_stack_arm32+0x160>
/media/home/beste/01_Pro/ld25x/bsp_hu/MYD-LD25X-Uboot-L2022.10-V1.0.0/GEN_FIP/myir-st-optee/lib/libunw/unwind_arm32.c:353
    4630:	b9403e60 	ldr	w0, [x19, #60]
    4634:	340013c0 	cbz	w0, 48ac <unwind_stack_arm32+0x420>
/media/home/beste/01_Pro/ld25x/bsp_hu/MYD-LD25X-Uboot-L2022.10-V1.0.0/GEN_FIP/myir-st-optee/lib/libunw/unwind_arm32.c:363
    4638:	52800000 	mov	w0, #0x0                   	// #0
unwind_stack_arm32():
/media/home/beste/01_Pro/ld25x/bsp_hu/MYD-LD25X-Uboot-L2022.10-V1.0.0/GEN_FIP/myir-st-optee/lib/libunw/unwind_arm32.c:404
    463c:	b94006a1 	ldr	w1, [x21, #4]
    4640:	7100043f 	cmp	w1, #0x1
    4644:	54fff9c1 	b.ne	457c <unwind_stack_arm32+0xf0>  // b.any
    4648:	17ffffcc 	b	4578 <unwind_stack_arm32+0xec>
unwind_exec_insn():
/media/home/beste/01_Pro/ld25x/bsp_hu/MYD-LD25X-Uboot-L2022.10-V1.0.0/GEN_FIP/myir-st-optee/lib/libunw/unwind_arm32.c:205
    464c:	7101001f 	cmp	w0, #0x40
    4650:	540000c1 	b.ne	4668 <unwind_stack_arm32+0x1dc>  // b.any
/media/home/beste/01_Pro/ld25x/bsp_hu/MYD-LD25X-Uboot-L2022.10-V1.0.0/GEN_FIP/myir-st-optee/lib/libunw/unwind_arm32.c:206
    4654:	531e1694 	ubfiz	w20, w20, #2, #6
    4658:	4b14039c 	sub	w28, w28, w20
    465c:	5100139c 	sub	w28, w28, #0x4
    4660:	b900367c 	str	w28, [x19, #52]
/media/home/beste/01_Pro/ld25x/bsp_hu/MYD-LD25X-Uboot-L2022.10-V1.0.0/GEN_FIP/myir-st-optee/lib/libunw/unwind_arm32.c:310
    4664:	17fffff1 	b	4628 <unwind_stack_arm32+0x19c>
/media/home/beste/01_Pro/ld25x/bsp_hu/MYD-LD25X-Uboot-L2022.10-V1.0.0/GEN_FIP/myir-st-optee/lib/libunw/unwind_arm32.c:208
    4668:	121c0e80 	and	w0, w20, #0xf0
    466c:	7102001f 	cmp	w0, #0x80
    4670:	540005a1 	b.ne	4724 <unwind_stack_arm32+0x298>  // b.any
/media/home/beste/01_Pro/ld25x/bsp_hu/MYD-LD25X-Uboot-L2022.10-V1.0.0/GEN_FIP/myir-st-optee/lib/libunw/unwind_arm32.c:213
    4674:	aa1a03e1 	mov	x1, x26
    4678:	aa1303e0 	mov	x0, x19
    467c:	97ffff62 	bl	4404 <unwind_exec_read_byte>
    4680:	72001c1f 	tst	w0, #0xff
    4684:	54000a80 	b.eq	47d4 <unwind_stack_arm32+0x348>  // b.none
/media/home/beste/01_Pro/ld25x/bsp_hu/MYD-LD25X-Uboot-L2022.10-V1.0.0/GEN_FIP/myir-st-optee/lib/libunw/unwind_arm32.c:215
    4688:	b94093e0 	ldr	w0, [sp, #144]
    468c:	53180e94 	ubfiz	w20, w20, #8, #4
    4690:	2a000294 	orr	w20, w20, w0
    4694:	b90093f4 	str	w20, [sp, #144]
/media/home/beste/01_Pro/ld25x/bsp_hu/MYD-LD25X-Uboot-L2022.10-V1.0.0/GEN_FIP/myir-st-optee/lib/libunw/unwind_arm32.c:218
    4698:	340009f4 	cbz	w20, 47d4 <unwind_stack_arm32+0x348>
/media/home/beste/01_Pro/ld25x/bsp_hu/MYD-LD25X-Uboot-L2022.10-V1.0.0/GEN_FIP/myir-st-optee/lib/libunw/unwind_arm32.c:222
    469c:	5280003b 	mov	w27, #0x1                   	// #1
    46a0:	91004265 	add	x5, x19, #0x10
/media/home/beste/01_Pro/ld25x/bsp_hu/MYD-LD25X-Uboot-L2022.10-V1.0.0/GEN_FIP/myir-st-optee/lib/libunw/unwind_arm32.c:230
    46a4:	2a1b03e6 	mov	w6, w27
/media/home/beste/01_Pro/ld25x/bsp_hu/MYD-LD25X-Uboot-L2022.10-V1.0.0/GEN_FIP/myir-st-optee/lib/libunw/unwind_arm32.c:225
    46a8:	52800094 	mov	w20, #0x4                   	// #4
    46ac:	b94093fc 	ldr	w28, [sp, #144]
    46b0:	3400007c 	cbz	w28, 46bc <unwind_stack_arm32+0x230>
    46b4:	7100429f 	cmp	w20, #0x10
    46b8:	54000081 	b.ne	46c8 <unwind_stack_arm32+0x23c>  // b.any
/media/home/beste/01_Pro/ld25x/bsp_hu/MYD-LD25X-Uboot-L2022.10-V1.0.0/GEN_FIP/myir-st-optee/lib/libunw/unwind_arm32.c:310
    46bc:	34fffb7b 	cbz	w27, 4628 <unwind_stack_arm32+0x19c>
/media/home/beste/01_Pro/ld25x/bsp_hu/MYD-LD25X-Uboot-L2022.10-V1.0.0/GEN_FIP/myir-st-optee/lib/libunw/unwind_arm32.c:311
    46c0:	f9404fe0 	ldr	x0, [sp, #152]
    46c4:	14000020 	b	4744 <unwind_stack_arm32+0x2b8>
/media/home/beste/01_Pro/ld25x/bsp_hu/MYD-LD25X-Uboot-L2022.10-V1.0.0/GEN_FIP/myir-st-optee/lib/libunw/unwind_arm32.c:226
    46c8:	3600025c 	tbz	w28, #0, 4710 <unwind_stack_arm32+0x284>
/media/home/beste/01_Pro/ld25x/bsp_hu/MYD-LD25X-Uboot-L2022.10-V1.0.0/GEN_FIP/myir-st-optee/lib/libunw/unwind_arm32.c:227
    46cc:	aa1703e3 	mov	x3, x23
    46d0:	aa1603e2 	mov	x2, x22
    46d4:	aa1903e1 	mov	x1, x25
    46d8:	aa0503e0 	mov	x0, x5
    46dc:	f9003be5 	str	x5, [sp, #112]
    46e0:	b9007fe6 	str	w6, [sp, #124]
    46e4:	97ffff31 	bl	43a8 <pop_vsp>
    46e8:	72001c1f 	tst	w0, #0xff
    46ec:	54000740 	b.eq	47d4 <unwind_stack_arm32+0x348>  // b.none
/media/home/beste/01_Pro/ld25x/bsp_hu/MYD-LD25X-Uboot-L2022.10-V1.0.0/GEN_FIP/myir-st-optee/lib/libunw/unwind_arm32.c:230
    46f0:	b9407fe6 	ldr	w6, [sp, #124]
/media/home/beste/01_Pro/ld25x/bsp_hu/MYD-LD25X-Uboot-L2022.10-V1.0.0/GEN_FIP/myir-st-optee/lib/libunw/unwind_arm32.c:234
    46f4:	7100369f 	cmp	w20, #0xd
    46f8:	f9403be5 	ldr	x5, [sp, #112]
    46fc:	1a9f137b 	csel	w27, w27, wzr, ne	// ne = any
/media/home/beste/01_Pro/ld25x/bsp_hu/MYD-LD25X-Uboot-L2022.10-V1.0.0/GEN_FIP/myir-st-optee/lib/libunw/unwind_arm32.c:230
    4700:	7940b261 	ldrh	w1, [x19, #88]
    4704:	1ad420c0 	lsl	w0, w6, w20
    4708:	2a010000 	orr	w0, w0, w1
    470c:	7900b260 	strh	w0, [x19, #88]
/media/home/beste/01_Pro/ld25x/bsp_hu/MYD-LD25X-Uboot-L2022.10-V1.0.0/GEN_FIP/myir-st-optee/lib/libunw/unwind_arm32.c:225
    4710:	53017f9c 	lsr	w28, w28, #1
    4714:	11000694 	add	w20, w20, #0x1
    4718:	910010a5 	add	x5, x5, #0x4
    471c:	b90093fc 	str	w28, [sp, #144]
    4720:	17ffffe3 	b	46ac <unwind_stack_arm32+0x220>
/media/home/beste/01_Pro/ld25x/bsp_hu/MYD-LD25X-Uboot-L2022.10-V1.0.0/GEN_FIP/myir-st-optee/lib/libunw/unwind_arm32.c:238
    4724:	7102401f 	cmp	w0, #0x90
    4728:	54000121 	b.ne	474c <unwind_stack_arm32+0x2c0>  // b.any
    472c:	528001a0 	mov	w0, #0xd                   	// #13
    4730:	0a000280 	and	w0, w20, w0
    4734:	7100341f 	cmp	w0, #0xd
    4738:	54000520 	b.eq	47dc <unwind_stack_arm32+0x350>  // b.none
/media/home/beste/01_Pro/ld25x/bsp_hu/MYD-LD25X-Uboot-L2022.10-V1.0.0/GEN_FIP/myir-st-optee/lib/libunw/unwind_arm32.c:243
    473c:	92400e94 	and	x20, x20, #0xf
    4740:	b8747a60 	ldr	w0, [x19, x20, lsl #2]
/media/home/beste/01_Pro/ld25x/bsp_hu/MYD-LD25X-Uboot-L2022.10-V1.0.0/GEN_FIP/myir-st-optee/lib/libunw/unwind_arm32.c:311
    4744:	b9003660 	str	w0, [x19, #52]
    4748:	17ffffb8 	b	4628 <unwind_stack_arm32+0x19c>
/media/home/beste/01_Pro/ld25x/bsp_hu/MYD-LD25X-Uboot-L2022.10-V1.0.0/GEN_FIP/myir-st-optee/lib/libunw/unwind_arm32.c:245
    474c:	7102801f 	cmp	w0, #0xa0
    4750:	54000461 	b.ne	47dc <unwind_stack_arm32+0x350>  // b.any
/media/home/beste/01_Pro/ld25x/bsp_hu/MYD-LD25X-Uboot-L2022.10-V1.0.0/GEN_FIP/myir-st-optee/lib/libunw/unwind_arm32.c:249
    4754:	12000a84 	and	w4, w20, #0x7
    4758:	91004265 	add	x5, x19, #0x10
/media/home/beste/01_Pro/ld25x/bsp_hu/MYD-LD25X-Uboot-L2022.10-V1.0.0/GEN_FIP/myir-st-optee/lib/libunw/unwind_arm32.c:255
    475c:	1100109b 	add	w27, w4, #0x4
    4760:	5280009c 	mov	w28, #0x4                   	// #4
/media/home/beste/01_Pro/ld25x/bsp_hu/MYD-LD25X-Uboot-L2022.10-V1.0.0/GEN_FIP/myir-st-optee/lib/libunw/unwind_arm32.c:259
    4764:	52800026 	mov	w6, #0x1                   	// #1
/media/home/beste/01_Pro/ld25x/bsp_hu/MYD-LD25X-Uboot-L2022.10-V1.0.0/GEN_FIP/myir-st-optee/lib/libunw/unwind_arm32.c:256
    4768:	aa1703e3 	mov	x3, x23
    476c:	aa1603e2 	mov	x2, x22
    4770:	aa1903e1 	mov	x1, x25
    4774:	aa0503e0 	mov	x0, x5
    4778:	f9003be5 	str	x5, [sp, #112]
    477c:	b9007fe6 	str	w6, [sp, #124]
    4780:	97ffff0a 	bl	43a8 <pop_vsp>
    4784:	72001c1f 	tst	w0, #0xff
    4788:	54000260 	b.eq	47d4 <unwind_stack_arm32+0x348>  // b.none
/media/home/beste/01_Pro/ld25x/bsp_hu/MYD-LD25X-Uboot-L2022.10-V1.0.0/GEN_FIP/myir-st-optee/lib/libunw/unwind_arm32.c:259
    478c:	b9407fe6 	ldr	w6, [sp, #124]
/media/home/beste/01_Pro/ld25x/bsp_hu/MYD-LD25X-Uboot-L2022.10-V1.0.0/GEN_FIP/myir-st-optee/lib/libunw/unwind_arm32.c:255
    4790:	f9403be5 	ldr	x5, [sp, #112]
/media/home/beste/01_Pro/ld25x/bsp_hu/MYD-LD25X-Uboot-L2022.10-V1.0.0/GEN_FIP/myir-st-optee/lib/libunw/unwind_arm32.c:259
    4794:	7940b261 	ldrh	w1, [x19, #88]
    4798:	1adc20c0 	lsl	w0, w6, w28
/media/home/beste/01_Pro/ld25x/bsp_hu/MYD-LD25X-Uboot-L2022.10-V1.0.0/GEN_FIP/myir-st-optee/lib/libunw/unwind_arm32.c:255
    479c:	1100079c 	add	w28, w28, #0x1
    47a0:	910010a5 	add	x5, x5, #0x4
/media/home/beste/01_Pro/ld25x/bsp_hu/MYD-LD25X-Uboot-L2022.10-V1.0.0/GEN_FIP/myir-st-optee/lib/libunw/unwind_arm32.c:259
    47a4:	2a010000 	orr	w0, w0, w1
    47a8:	7900b260 	strh	w0, [x19, #88]
/media/home/beste/01_Pro/ld25x/bsp_hu/MYD-LD25X-Uboot-L2022.10-V1.0.0/GEN_FIP/myir-st-optee/lib/libunw/unwind_arm32.c:255
    47ac:	6b1c037f 	cmp	w27, w28
    47b0:	54fffdc2 	b.cs	4768 <unwind_stack_arm32+0x2dc>  // b.hs, b.nlast
/media/home/beste/01_Pro/ld25x/bsp_hu/MYD-LD25X-Uboot-L2022.10-V1.0.0/GEN_FIP/myir-st-optee/lib/libunw/unwind_arm32.c:263
    47b4:	361ff874 	tbz	w20, #3, 46c0 <unwind_stack_arm32+0x234>
/media/home/beste/01_Pro/ld25x/bsp_hu/MYD-LD25X-Uboot-L2022.10-V1.0.0/GEN_FIP/myir-st-optee/lib/libunw/unwind_arm32.c:264
    47b8:	aa1703e3 	mov	x3, x23
    47bc:	aa1603e2 	mov	x2, x22
    47c0:	aa1903e1 	mov	x1, x25
    47c4:	9100e260 	add	x0, x19, #0x38
    47c8:	97fffef8 	bl	43a8 <pop_vsp>
    47cc:	72001c1f 	tst	w0, #0xff
    47d0:	54fff781 	b.ne	46c0 <unwind_stack_arm32+0x234>  // b.any
unwind_tab():
/media/home/beste/01_Pro/ld25x/bsp_hu/MYD-LD25X-Uboot-L2022.10-V1.0.0/GEN_FIP/myir-st-optee/lib/libunw/unwind_arm32.c:342
    47d4:	2a1803e0 	mov	w0, w24
    47d8:	17ffff99 	b	463c <unwind_stack_arm32+0x1b0>
unwind_exec_insn():
/media/home/beste/01_Pro/ld25x/bsp_hu/MYD-LD25X-Uboot-L2022.10-V1.0.0/GEN_FIP/myir-st-optee/lib/libunw/unwind_arm32.c:269
    47dc:	7102c29f 	cmp	w20, #0xb0
    47e0:	54000061 	b.ne	47ec <unwind_stack_arm32+0x360>  // b.any
/media/home/beste/01_Pro/ld25x/bsp_hu/MYD-LD25X-Uboot-L2022.10-V1.0.0/GEN_FIP/myir-st-optee/lib/libunw/unwind_arm32.c:271
    47e4:	b900527f 	str	wzr, [x19, #80]
/media/home/beste/01_Pro/ld25x/bsp_hu/MYD-LD25X-Uboot-L2022.10-V1.0.0/GEN_FIP/myir-st-optee/lib/libunw/unwind_arm32.c:310
    47e8:	17ffff90 	b	4628 <unwind_stack_arm32+0x19c>
/media/home/beste/01_Pro/ld25x/bsp_hu/MYD-LD25X-Uboot-L2022.10-V1.0.0/GEN_FIP/myir-st-optee/lib/libunw/unwind_arm32.c:273
    47ec:	7102c69f 	cmp	w20, #0xb1
    47f0:	54000401 	b.ne	4870 <unwind_stack_arm32+0x3e4>  // b.any
/media/home/beste/01_Pro/ld25x/bsp_hu/MYD-LD25X-Uboot-L2022.10-V1.0.0/GEN_FIP/myir-st-optee/lib/libunw/unwind_arm32.c:277
    47f4:	aa1a03e1 	mov	x1, x26
    47f8:	aa1303e0 	mov	x0, x19
    47fc:	97ffff02 	bl	4404 <unwind_exec_read_byte>
    4800:	72001c1f 	tst	w0, #0xff
    4804:	54fffe80 	b.eq	47d4 <unwind_stack_arm32+0x348>  // b.none
/media/home/beste/01_Pro/ld25x/bsp_hu/MYD-LD25X-Uboot-L2022.10-V1.0.0/GEN_FIP/myir-st-optee/lib/libunw/unwind_arm32.c:279
    4808:	b94093e0 	ldr	w0, [sp, #144]
    480c:	34fffe40 	cbz	w0, 47d4 <unwind_stack_arm32+0x348>
    4810:	721c0c1f 	tst	w0, #0xf0
    4814:	54fffe01 	b.ne	47d4 <unwind_stack_arm32+0x348>  // b.any
    4818:	d2800014 	mov	x20, #0x0                   	// #0
/media/home/beste/01_Pro/ld25x/bsp_hu/MYD-LD25X-Uboot-L2022.10-V1.0.0/GEN_FIP/myir-st-optee/lib/libunw/unwind_arm32.c:291
    481c:	5280003b 	mov	w27, #0x1                   	// #1
/media/home/beste/01_Pro/ld25x/bsp_hu/MYD-LD25X-Uboot-L2022.10-V1.0.0/GEN_FIP/myir-st-optee/lib/libunw/unwind_arm32.c:286
    4820:	b94093fc 	ldr	w28, [sp, #144]
    4824:	34fff4fc 	cbz	w28, 46c0 <unwind_stack_arm32+0x234>
    4828:	f100129f 	cmp	x20, #0x4
    482c:	54fff4a0 	b.eq	46c0 <unwind_stack_arm32+0x234>  // b.none
/media/home/beste/01_Pro/ld25x/bsp_hu/MYD-LD25X-Uboot-L2022.10-V1.0.0/GEN_FIP/myir-st-optee/lib/libunw/unwind_arm32.c:287
    4830:	3600019c 	tbz	w28, #0, 4860 <unwind_stack_arm32+0x3d4>
/media/home/beste/01_Pro/ld25x/bsp_hu/MYD-LD25X-Uboot-L2022.10-V1.0.0/GEN_FIP/myir-st-optee/lib/libunw/unwind_arm32.c:288
    4834:	aa1703e3 	mov	x3, x23
    4838:	aa1603e2 	mov	x2, x22
    483c:	aa1903e1 	mov	x1, x25
    4840:	8b140a60 	add	x0, x19, x20, lsl #2
    4844:	97fffed9 	bl	43a8 <pop_vsp>
    4848:	72001c1f 	tst	w0, #0xff
    484c:	54fffc40 	b.eq	47d4 <unwind_stack_arm32+0x348>  // b.none
/media/home/beste/01_Pro/ld25x/bsp_hu/MYD-LD25X-Uboot-L2022.10-V1.0.0/GEN_FIP/myir-st-optee/lib/libunw/unwind_arm32.c:291
    4850:	7940b261 	ldrh	w1, [x19, #88]
    4854:	1ad42360 	lsl	w0, w27, w20
    4858:	2a010000 	orr	w0, w0, w1
    485c:	7900b260 	strh	w0, [x19, #88]
/media/home/beste/01_Pro/ld25x/bsp_hu/MYD-LD25X-Uboot-L2022.10-V1.0.0/GEN_FIP/myir-st-optee/lib/libunw/unwind_arm32.c:286
    4860:	53017f9c 	lsr	w28, w28, #1
    4864:	91000694 	add	x20, x20, #0x1
    4868:	b90093fc 	str	w28, [sp, #144]
    486c:	17ffffed 	b	4820 <unwind_stack_arm32+0x394>
/media/home/beste/01_Pro/ld25x/bsp_hu/MYD-LD25X-Uboot-L2022.10-V1.0.0/GEN_FIP/myir-st-optee/lib/libunw/unwind_arm32.c:295
    4870:	12001e94 	and	w20, w20, #0xff
    4874:	7102ca9f 	cmp	w20, #0xb2
    4878:	54fffae1 	b.ne	47d4 <unwind_stack_arm32+0x348>  // b.any
/media/home/beste/01_Pro/ld25x/bsp_hu/MYD-LD25X-Uboot-L2022.10-V1.0.0/GEN_FIP/myir-st-optee/lib/libunw/unwind_arm32.c:299
    487c:	aa1a03e1 	mov	x1, x26
    4880:	aa1303e0 	mov	x0, x19
    4884:	97fffee0 	bl	4404 <unwind_exec_read_byte>
    4888:	72001c1f 	tst	w0, #0xff
    488c:	54fffa40 	b.eq	47d4 <unwind_stack_arm32+0x348>  // b.none
/media/home/beste/01_Pro/ld25x/bsp_hu/MYD-LD25X-Uboot-L2022.10-V1.0.0/GEN_FIP/myir-st-optee/lib/libunw/unwind_arm32.c:302
    4890:	b94093e0 	ldr	w0, [sp, #144]
    4894:	0b000b80 	add	w0, w28, w0, lsl #2
    4898:	11081000 	add	w0, w0, #0x204
    489c:	17ffffaa 	b	4744 <unwind_stack_arm32+0x2b8>
unwind_tab():
/media/home/beste/01_Pro/ld25x/bsp_hu/MYD-LD25X-Uboot-L2022.10-V1.0.0/GEN_FIP/myir-st-optee/lib/libunw/unwind_arm32.c:302
    48a0:	52800041 	mov	w1, #0x2                   	// #2
    48a4:	52800020 	mov	w0, #0x1                   	// #1
    48a8:	17ffff4d 	b	45dc <unwind_stack_arm32+0x150>
/media/home/beste/01_Pro/ld25x/bsp_hu/MYD-LD25X-Uboot-L2022.10-V1.0.0/GEN_FIP/myir-st-optee/lib/libunw/unwind_arm32.c:354
    48ac:	b9403a60 	ldr	w0, [x19, #56]
/media/home/beste/01_Pro/ld25x/bsp_hu/MYD-LD25X-Uboot-L2022.10-V1.0.0/GEN_FIP/myir-st-optee/lib/libunw/unwind_arm32.c:359
    48b0:	b9404261 	ldr	w1, [x19, #64]
/media/home/beste/01_Pro/ld25x/bsp_hu/MYD-LD25X-Uboot-L2022.10-V1.0.0/GEN_FIP/myir-st-optee/lib/libunw/unwind_arm32.c:354
    48b4:	b9003e60 	str	w0, [x19, #60]
/media/home/beste/01_Pro/ld25x/bsp_hu/MYD-LD25X-Uboot-L2022.10-V1.0.0/GEN_FIP/myir-st-optee/lib/libunw/unwind_arm32.c:359
    48b8:	6b01001f 	cmp	w0, w1
    48bc:	54ffebe0 	b.eq	4638 <unwind_stack_arm32+0x1ac>  // b.none
/media/home/beste/01_Pro/ld25x/bsp_hu/MYD-LD25X-Uboot-L2022.10-V1.0.0/GEN_FIP/myir-st-optee/lib/libunw/unwind_arm32.c:360
    48c0:	7940b260 	ldrh	w0, [x19, #88]
    48c4:	32114000 	orr	w0, w0, #0xffff8000
    48c8:	7900b260 	strh	w0, [x19, #88]
    48cc:	17ffff5b 	b	4638 <unwind_stack_arm32+0x1ac>

00000000000048d0 <print_stack_arm32>:
print_stack_arm32():
/media/home/beste/01_Pro/ld25x/bsp_hu/MYD-LD25X-Uboot-L2022.10-V1.0.0/GEN_FIP/myir-st-optee/lib/libunw/unwind_arm32.c:412
    48d0:	a9bd7bfd 	stp	x29, x30, [sp, #-48]!
/media/home/beste/01_Pro/ld25x/bsp_hu/MYD-LD25X-Uboot-L2022.10-V1.0.0/GEN_FIP/myir-st-optee/lib/libunw/unwind_arm32.c:413
    48d4:	f0000004 	adrp	x4, 7000 <trace_ext_prefix+0x6bc>
    48d8:	52800023 	mov	w3, #0x1                   	// #1
/media/home/beste/01_Pro/ld25x/bsp_hu/MYD-LD25X-Uboot-L2022.10-V1.0.0/GEN_FIP/myir-st-optee/lib/libunw/unwind_arm32.c:412
    48dc:	910003fd 	mov	x29, sp
    48e0:	a9025bf5 	stp	x21, x22, [sp, #32]
/media/home/beste/01_Pro/ld25x/bsp_hu/MYD-LD25X-Uboot-L2022.10-V1.0.0/GEN_FIP/myir-st-optee/lib/libunw/unwind_arm32.c:415
    48e4:	f0000016 	adrp	x22, 7000 <trace_ext_prefix+0x6bc>
    48e8:	9118e6d6 	add	x22, x22, #0x639
/media/home/beste/01_Pro/ld25x/bsp_hu/MYD-LD25X-Uboot-L2022.10-V1.0.0/GEN_FIP/myir-st-optee/lib/libunw/unwind_arm32.c:412
    48ec:	aa0203f5 	mov	x21, x2
/media/home/beste/01_Pro/ld25x/bsp_hu/MYD-LD25X-Uboot-L2022.10-V1.0.0/GEN_FIP/myir-st-optee/lib/libunw/unwind_arm32.c:413
    48f0:	9118b484 	add	x4, x4, #0x62d
    48f4:	52800022 	mov	w2, #0x1                   	// #1
/media/home/beste/01_Pro/ld25x/bsp_hu/MYD-LD25X-Uboot-L2022.10-V1.0.0/GEN_FIP/myir-st-optee/lib/libunw/unwind_arm32.c:412
    48f8:	a90153f3 	stp	x19, x20, [sp, #16]
    48fc:	aa0003f3 	mov	x19, x0
    4900:	aa0103f4 	mov	x20, x1
/media/home/beste/01_Pro/ld25x/bsp_hu/MYD-LD25X-Uboot-L2022.10-V1.0.0/GEN_FIP/myir-st-optee/lib/libunw/unwind_arm32.c:413
    4904:	d2800000 	mov	x0, #0x0                   	// #0
    4908:	52800001 	mov	w1, #0x0                   	// #0
    490c:	9400078e 	bl	6744 <trace_printf>
/media/home/beste/01_Pro/ld25x/bsp_hu/MYD-LD25X-Uboot-L2022.10-V1.0.0/GEN_FIP/myir-st-optee/lib/libunw/unwind_arm32.c:415 (discriminator 1)
    4910:	b9403e65 	ldr	w5, [x19, #60]
    4914:	aa1603e4 	mov	x4, x22
    4918:	52800023 	mov	w3, #0x1                   	// #1
    491c:	52800022 	mov	w2, #0x1                   	// #1
    4920:	52800001 	mov	w1, #0x0                   	// #0
    4924:	d2800000 	mov	x0, #0x0                   	// #0
    4928:	94000787 	bl	6744 <trace_printf>
/media/home/beste/01_Pro/ld25x/bsp_hu/MYD-LD25X-Uboot-L2022.10-V1.0.0/GEN_FIP/myir-st-optee/lib/libunw/unwind_arm32.c:417 (discriminator 1)
    492c:	aa1503e2 	mov	x2, x21
    4930:	aa1403e1 	mov	x1, x20
    4934:	aa1303e0 	mov	x0, x19
    4938:	97fffed5 	bl	448c <unwind_stack_arm32>
    493c:	72001c1f 	tst	w0, #0xff
    4940:	54fffe81 	b.ne	4910 <print_stack_arm32+0x40>  // b.any
/media/home/beste/01_Pro/ld25x/bsp_hu/MYD-LD25X-Uboot-L2022.10-V1.0.0/GEN_FIP/myir-st-optee/lib/libunw/unwind_arm32.c:418
    4944:	a94153f3 	ldp	x19, x20, [sp, #16]
    4948:	a9425bf5 	ldp	x21, x22, [sp, #32]
    494c:	a8c37bfd 	ldp	x29, x30, [sp], #48
    4950:	d65f03c0 	ret

0000000000004954 <ftrace_map_lr>:
ftrace_map_lr():
/media/home/beste/01_Pro/ld25x/bsp_hu/MYD-LD25X-Uboot-L2022.10-V1.0.0/GEN_FIP/myir-st-optee/lib/libunw/unwind_arm64.c:40
    4954:	d65f03c0 	ret

0000000000004958 <pauth_strip_pac>:
pauth_strip_pac():
/media/home/beste/01_Pro/ld25x/bsp_hu/MYD-LD25X-Uboot-L2022.10-V1.0.0/GEN_FIP/myir-st-optee/lib/libunw/unwind_arm64.c:42
    4958:	d65f03c0 	ret

000000000000495c <unwind_stack_arm64>:
unwind_stack_arm64():
/media/home/beste/01_Pro/ld25x/bsp_hu/MYD-LD25X-Uboot-L2022.10-V1.0.0/GEN_FIP/myir-st-optee/lib/libunw/unwind_arm64.c:53
    495c:	a9bd7bfd 	stp	x29, x30, [sp, #-48]!
    4960:	910003fd 	mov	x29, sp
    4964:	a90153f3 	stp	x19, x20, [sp, #16]
/media/home/beste/01_Pro/ld25x/bsp_hu/MYD-LD25X-Uboot-L2022.10-V1.0.0/GEN_FIP/myir-st-optee/lib/libunw/unwind_arm64.c:54
    4968:	f9400014 	ldr	x20, [x0]
/media/home/beste/01_Pro/ld25x/bsp_hu/MYD-LD25X-Uboot-L2022.10-V1.0.0/GEN_FIP/myir-st-optee/lib/libunw/unwind_arm64.c:53
    496c:	f90013f5 	str	x21, [sp, #32]
/media/home/beste/01_Pro/ld25x/bsp_hu/MYD-LD25X-Uboot-L2022.10-V1.0.0/GEN_FIP/myir-st-optee/lib/libunw/unwind_arm64.c:56
    4970:	eb01029f 	cmp	x20, x1
    4974:	540000c2 	b.cs	498c <unwind_stack_arm64+0x30>  // b.hs, b.nlast
/media/home/beste/01_Pro/ld25x/bsp_hu/MYD-LD25X-Uboot-L2022.10-V1.0.0/GEN_FIP/myir-st-optee/lib/libunw/unwind_arm64.c:57
    4978:	52800000 	mov	w0, #0x0                   	// #0
/media/home/beste/01_Pro/ld25x/bsp_hu/MYD-LD25X-Uboot-L2022.10-V1.0.0/GEN_FIP/myir-st-optee/lib/libunw/unwind_arm64.c:78
    497c:	a94153f3 	ldp	x19, x20, [sp, #16]
    4980:	f94013f5 	ldr	x21, [sp, #32]
    4984:	a8c37bfd 	ldp	x29, x30, [sp], #48
    4988:	d65f03c0 	ret
    498c:	aa0103e3 	mov	x3, x1
/media/home/beste/01_Pro/ld25x/bsp_hu/MYD-LD25X-Uboot-L2022.10-V1.0.0/GEN_FIP/myir-st-optee/lib/libunw/unwind_arm64.c:58
    4990:	91006281 	add	x1, x20, #0x18
    4994:	8b020063 	add	x3, x3, x2
    4998:	eb03003f 	cmp	x1, x3
    499c:	54fffee8 	b.hi	4978 <unwind_stack_arm64+0x1c>  // b.pmore
    49a0:	aa0003f3 	mov	x19, x0
/media/home/beste/01_Pro/ld25x/bsp_hu/MYD-LD25X-Uboot-L2022.10-V1.0.0/GEN_FIP/myir-st-optee/lib/libunw/unwind_arm64.c:61
    49a4:	91004281 	add	x1, x20, #0x10
    49a8:	f9000401 	str	x1, [x0, #8]
copy_in_reg():
/media/home/beste/01_Pro/ld25x/bsp_hu/MYD-LD25X-Uboot-L2022.10-V1.0.0/GEN_FIP/myir-st-optee/lib/libunw/unwind_arm64.c:47
    49ac:	d2800102 	mov	x2, #0x8                   	// #8
    49b0:	aa1403e1 	mov	x1, x20
    49b4:	97ffedaf 	bl	70 <memcpy>
unwind_stack_arm64():
/media/home/beste/01_Pro/ld25x/bsp_hu/MYD-LD25X-Uboot-L2022.10-V1.0.0/GEN_FIP/myir-st-optee/lib/libunw/unwind_arm64.c:65
    49b8:	f9400260 	ldr	x0, [x19]
    49bc:	b4fffde0 	cbz	x0, 4978 <unwind_stack_arm64+0x1c>
copy_in_reg():
/media/home/beste/01_Pro/ld25x/bsp_hu/MYD-LD25X-Uboot-L2022.10-V1.0.0/GEN_FIP/myir-st-optee/lib/libunw/unwind_arm64.c:47
    49c0:	d2800102 	mov	x2, #0x8                   	// #8
    49c4:	8b020281 	add	x1, x20, x2
unwind_stack_arm64():
/media/home/beste/01_Pro/ld25x/bsp_hu/MYD-LD25X-Uboot-L2022.10-V1.0.0/GEN_FIP/myir-st-optee/lib/libunw/unwind_arm64.c:68
    49c8:	91004275 	add	x21, x19, #0x10
copy_in_reg():
/media/home/beste/01_Pro/ld25x/bsp_hu/MYD-LD25X-Uboot-L2022.10-V1.0.0/GEN_FIP/myir-st-optee/lib/libunw/unwind_arm64.c:47
    49cc:	aa1503e0 	mov	x0, x21
    49d0:	97ffeda8 	bl	70 <memcpy>
unwind_stack_arm64():
/media/home/beste/01_Pro/ld25x/bsp_hu/MYD-LD25X-Uboot-L2022.10-V1.0.0/GEN_FIP/myir-st-optee/lib/libunw/unwind_arm64.c:71
    49d4:	aa1503e0 	mov	x0, x21
    49d8:	97ffffe0 	bl	4958 <pauth_strip_pac>
/media/home/beste/01_Pro/ld25x/bsp_hu/MYD-LD25X-Uboot-L2022.10-V1.0.0/GEN_FIP/myir-st-optee/lib/libunw/unwind_arm64.c:73
    49dc:	aa1503e0 	mov	x0, x21
    49e0:	97ffffdd 	bl	4954 <ftrace_map_lr>
/media/home/beste/01_Pro/ld25x/bsp_hu/MYD-LD25X-Uboot-L2022.10-V1.0.0/GEN_FIP/myir-st-optee/lib/libunw/unwind_arm64.c:75
    49e4:	f9400a60 	ldr	x0, [x19, #16]
    49e8:	d1001000 	sub	x0, x0, #0x4
    49ec:	f9000a60 	str	x0, [x19, #16]
/media/home/beste/01_Pro/ld25x/bsp_hu/MYD-LD25X-Uboot-L2022.10-V1.0.0/GEN_FIP/myir-st-optee/lib/libunw/unwind_arm64.c:77
    49f0:	52800020 	mov	w0, #0x1                   	// #1
    49f4:	17ffffe2 	b	497c <unwind_stack_arm64+0x20>

00000000000049f8 <print_stack_arm64>:
print_stack_arm64():
/media/home/beste/01_Pro/ld25x/bsp_hu/MYD-LD25X-Uboot-L2022.10-V1.0.0/GEN_FIP/myir-st-optee/lib/libunw/unwind_arm64.c:82
    49f8:	a9bd7bfd 	stp	x29, x30, [sp, #-48]!
/media/home/beste/01_Pro/ld25x/bsp_hu/MYD-LD25X-Uboot-L2022.10-V1.0.0/GEN_FIP/myir-st-optee/lib/libunw/unwind_arm64.c:85
    49fc:	f0000004 	adrp	x4, 7000 <trace_ext_prefix+0x6bc>
    4a00:	9118b484 	add	x4, x4, #0x62d
/media/home/beste/01_Pro/ld25x/bsp_hu/MYD-LD25X-Uboot-L2022.10-V1.0.0/GEN_FIP/myir-st-optee/lib/libunw/unwind_arm64.c:82
    4a04:	910003fd 	mov	x29, sp
    4a08:	a9025bf5 	stp	x21, x22, [sp, #32]
/media/home/beste/01_Pro/ld25x/bsp_hu/MYD-LD25X-Uboot-L2022.10-V1.0.0/GEN_FIP/myir-st-optee/lib/libunw/unwind_arm64.c:89
    4a0c:	f0000016 	adrp	x22, 7000 <trace_ext_prefix+0x6bc>
    4a10:	911906d6 	add	x22, x22, #0x641
/media/home/beste/01_Pro/ld25x/bsp_hu/MYD-LD25X-Uboot-L2022.10-V1.0.0/GEN_FIP/myir-st-optee/lib/libunw/unwind_arm64.c:85
    4a14:	52800023 	mov	w3, #0x1                   	// #1
/media/home/beste/01_Pro/ld25x/bsp_hu/MYD-LD25X-Uboot-L2022.10-V1.0.0/GEN_FIP/myir-st-optee/lib/libunw/unwind_arm64.c:82
    4a18:	aa0203f5 	mov	x21, x2
/media/home/beste/01_Pro/ld25x/bsp_hu/MYD-LD25X-Uboot-L2022.10-V1.0.0/GEN_FIP/myir-st-optee/lib/libunw/unwind_arm64.c:85
    4a1c:	52800022 	mov	w2, #0x1                   	// #1
/media/home/beste/01_Pro/ld25x/bsp_hu/MYD-LD25X-Uboot-L2022.10-V1.0.0/GEN_FIP/myir-st-optee/lib/libunw/unwind_arm64.c:82
    4a20:	a90153f3 	stp	x19, x20, [sp, #16]
    4a24:	aa0103f4 	mov	x20, x1
/media/home/beste/01_Pro/ld25x/bsp_hu/MYD-LD25X-Uboot-L2022.10-V1.0.0/GEN_FIP/myir-st-optee/lib/libunw/unwind_arm64.c:85
    4a28:	52800001 	mov	w1, #0x0                   	// #0
/media/home/beste/01_Pro/ld25x/bsp_hu/MYD-LD25X-Uboot-L2022.10-V1.0.0/GEN_FIP/myir-st-optee/lib/libunw/unwind_arm64.c:82
    4a2c:	aa0003f3 	mov	x19, x0
/media/home/beste/01_Pro/ld25x/bsp_hu/MYD-LD25X-Uboot-L2022.10-V1.0.0/GEN_FIP/myir-st-optee/lib/libunw/unwind_arm64.c:85
    4a30:	d2800000 	mov	x0, #0x0                   	// #0
    4a34:	94000744 	bl	6744 <trace_printf>
/media/home/beste/01_Pro/ld25x/bsp_hu/MYD-LD25X-Uboot-L2022.10-V1.0.0/GEN_FIP/myir-st-optee/lib/libunw/unwind_arm64.c:87
    4a38:	91004260 	add	x0, x19, #0x10
    4a3c:	97ffffc6 	bl	4954 <ftrace_map_lr>
/media/home/beste/01_Pro/ld25x/bsp_hu/MYD-LD25X-Uboot-L2022.10-V1.0.0/GEN_FIP/myir-st-optee/lib/libunw/unwind_arm64.c:89 (discriminator 1)
    4a40:	f9400a66 	ldr	x6, [x19, #16]
    4a44:	aa1603e4 	mov	x4, x22
    4a48:	52800105 	mov	w5, #0x8                   	// #8
    4a4c:	52800023 	mov	w3, #0x1                   	// #1
    4a50:	52800022 	mov	w2, #0x1                   	// #1
    4a54:	52800001 	mov	w1, #0x0                   	// #0
    4a58:	d2800000 	mov	x0, #0x0                   	// #0
    4a5c:	9400073a 	bl	6744 <trace_printf>
/media/home/beste/01_Pro/ld25x/bsp_hu/MYD-LD25X-Uboot-L2022.10-V1.0.0/GEN_FIP/myir-st-optee/lib/libunw/unwind_arm64.c:91 (discriminator 1)
    4a60:	aa1503e2 	mov	x2, x21
    4a64:	aa1403e1 	mov	x1, x20
    4a68:	aa1303e0 	mov	x0, x19
    4a6c:	97ffffbc 	bl	495c <unwind_stack_arm64>
    4a70:	72001c1f 	tst	w0, #0xff
    4a74:	54fffe61 	b.ne	4a40 <print_stack_arm64+0x48>  // b.any
/media/home/beste/01_Pro/ld25x/bsp_hu/MYD-LD25X-Uboot-L2022.10-V1.0.0/GEN_FIP/myir-st-optee/lib/libunw/unwind_arm64.c:92
    4a78:	a94153f3 	ldp	x19, x20, [sp, #16]
    4a7c:	a9425bf5 	ldp	x21, x22, [sp, #32]
    4a80:	a8c37bfd 	ldp	x29, x30, [sp], #48
    4a84:	d65f03c0 	ret

0000000000004a88 <_assert_log>:
_assert_log():
/media/home/beste/01_Pro/ld25x/bsp_hu/MYD-LD25X-Uboot-L2022.10-V1.0.0/GEN_FIP/myir-st-optee/lib/libutee/assert.c:17
    4a88:	d10083ff 	sub	sp, sp, #0x20
/media/home/beste/01_Pro/ld25x/bsp_hu/MYD-LD25X-Uboot-L2022.10-V1.0.0/GEN_FIP/myir-st-optee/lib/libutee/assert.c:18
    4a8c:	2a0203e7 	mov	w7, w2
    4a90:	aa0103e6 	mov	x6, x1
    4a94:	aa0003e5 	mov	x5, x0
    4a98:	52800022 	mov	w2, #0x1                   	// #1
    4a9c:	52800001 	mov	w1, #0x0                   	// #0
/media/home/beste/01_Pro/ld25x/bsp_hu/MYD-LD25X-Uboot-L2022.10-V1.0.0/GEN_FIP/myir-st-optee/lib/libutee/assert.c:17
    4aa0:	a9017bfd 	stp	x29, x30, [sp, #16]
    4aa4:	910043fd 	add	x29, sp, #0x10
/media/home/beste/01_Pro/ld25x/bsp_hu/MYD-LD25X-Uboot-L2022.10-V1.0.0/GEN_FIP/myir-st-optee/lib/libutee/assert.c:18
    4aa8:	d2800000 	mov	x0, #0x0                   	// #0
    4aac:	f0000004 	adrp	x4, 7000 <trace_ext_prefix+0x6bc>
    4ab0:	f90003e3 	str	x3, [sp]
    4ab4:	91192884 	add	x4, x4, #0x64a
    4ab8:	52800023 	mov	w3, #0x1                   	// #1
    4abc:	94000722 	bl	6744 <trace_printf>
/media/home/beste/01_Pro/ld25x/bsp_hu/MYD-LD25X-Uboot-L2022.10-V1.0.0/GEN_FIP/myir-st-optee/lib/libutee/assert.c:20
    4ac0:	a9417bfd 	ldp	x29, x30, [sp, #16]
    4ac4:	910083ff 	add	sp, sp, #0x20
    4ac8:	d65f03c0 	ret

0000000000004acc <_assert_break>:
_assert_break():
/media/home/beste/01_Pro/ld25x/bsp_hu/MYD-LD25X-Uboot-L2022.10-V1.0.0/GEN_FIP/myir-st-optee/lib/libutee/assert.c:23
    4acc:	a9bf7bfd 	stp	x29, x30, [sp, #-16]!
/media/home/beste/01_Pro/ld25x/bsp_hu/MYD-LD25X-Uboot-L2022.10-V1.0.0/GEN_FIP/myir-st-optee/lib/libutee/assert.c:24
    4ad0:	d2bfffe0 	mov	x0, #0xffff0000            	// #4294901760
/media/home/beste/01_Pro/ld25x/bsp_hu/MYD-LD25X-Uboot-L2022.10-V1.0.0/GEN_FIP/myir-st-optee/lib/libutee/assert.c:23
    4ad4:	910003fd 	mov	x29, sp
/media/home/beste/01_Pro/ld25x/bsp_hu/MYD-LD25X-Uboot-L2022.10-V1.0.0/GEN_FIP/myir-st-optee/lib/libutee/assert.c:24
    4ad8:	94000079 	bl	4cbc <_utee_panic>
/media/home/beste/01_Pro/ld25x/bsp_hu/MYD-LD25X-Uboot-L2022.10-V1.0.0/GEN_FIP/myir-st-optee/lib/libutee/assert.c:26 (discriminator 1)
    4adc:	14000000 	b	4adc <_assert_break+0x10>

0000000000004ae0 <parse_hex>:
parse_hex():
/media/home/beste/01_Pro/ld25x/bsp_hu/MYD-LD25X-Uboot-L2022.10-V1.0.0/GEN_FIP/myir-st-optee/lib/libutee/tee_uuid_from_str.c:24
    4ae0:	a9bc7bfd 	stp	x29, x30, [sp, #-64]!
    4ae4:	910003fd 	mov	x29, sp
    4ae8:	a90153f3 	stp	x19, x20, [sp, #16]
    4aec:	aa0003f3 	mov	x19, x0
    4af0:	a9025bf5 	stp	x21, x22, [sp, #32]
    4af4:	aa0203f6 	mov	x22, x2
/media/home/beste/01_Pro/ld25x/bsp_hu/MYD-LD25X-Uboot-L2022.10-V1.0.0/GEN_FIP/myir-st-optee/lib/libutee/tee_uuid_from_str.c:25
    4af8:	52800015 	mov	w21, #0x0                   	// #0
/media/home/beste/01_Pro/ld25x/bsp_hu/MYD-LD25X-Uboot-L2022.10-V1.0.0/GEN_FIP/myir-st-optee/lib/libutee/tee_uuid_from_str.c:24
    4afc:	f9001bf7 	str	x23, [sp, #48]
    4b00:	8b010017 	add	x23, x0, x1
/media/home/beste/01_Pro/ld25x/bsp_hu/MYD-LD25X-Uboot-L2022.10-V1.0.0/GEN_FIP/myir-st-optee/lib/libutee/tee_uuid_from_str.c:29 (discriminator 1)
    4b04:	eb17027f 	cmp	x19, x23
    4b08:	54000121 	b.ne	4b2c <parse_hex+0x4c>  // b.any
    4b0c:	52800000 	mov	w0, #0x0                   	// #0
/media/home/beste/01_Pro/ld25x/bsp_hu/MYD-LD25X-Uboot-L2022.10-V1.0.0/GEN_FIP/myir-st-optee/lib/libutee/tee_uuid_from_str.c:40
    4b10:	a94153f3 	ldp	x19, x20, [sp, #16]
    4b14:	f9401bf7 	ldr	x23, [sp, #48]
/media/home/beste/01_Pro/ld25x/bsp_hu/MYD-LD25X-Uboot-L2022.10-V1.0.0/GEN_FIP/myir-st-optee/lib/libutee/tee_uuid_from_str.c:32
    4b18:	b90002c0 	str	w0, [x22]
/media/home/beste/01_Pro/ld25x/bsp_hu/MYD-LD25X-Uboot-L2022.10-V1.0.0/GEN_FIP/myir-st-optee/lib/libutee/tee_uuid_from_str.c:40
    4b1c:	2a1503e0 	mov	w0, w21
    4b20:	a9425bf5 	ldp	x21, x22, [sp, #32]
    4b24:	a8c47bfd 	ldp	x29, x30, [sp], #64
    4b28:	d65f03c0 	ret
hex():
/media/home/beste/01_Pro/ld25x/bsp_hu/MYD-LD25X-Uboot-L2022.10-V1.0.0/GEN_FIP/myir-st-optee/lib/libutee/tee_uuid_from_str.c:14
    4b2c:	39400260 	ldrb	w0, [x19]
    4b30:	94000311 	bl	5774 <tolower>
/media/home/beste/01_Pro/ld25x/bsp_hu/MYD-LD25X-Uboot-L2022.10-V1.0.0/GEN_FIP/myir-st-optee/lib/libutee/tee_uuid_from_str.c:16
    4b34:	5100c003 	sub	w3, w0, #0x30
/media/home/beste/01_Pro/ld25x/bsp_hu/MYD-LD25X-Uboot-L2022.10-V1.0.0/GEN_FIP/myir-st-optee/lib/libutee/tee_uuid_from_str.c:14
    4b38:	2a0003f4 	mov	w20, w0
/media/home/beste/01_Pro/ld25x/bsp_hu/MYD-LD25X-Uboot-L2022.10-V1.0.0/GEN_FIP/myir-st-optee/lib/libutee/tee_uuid_from_str.c:16
    4b3c:	7100247f 	cmp	w3, #0x9
    4b40:	54000089 	b.ls	4b50 <parse_hex+0x70>  // b.plast
/media/home/beste/01_Pro/ld25x/bsp_hu/MYD-LD25X-Uboot-L2022.10-V1.0.0/GEN_FIP/myir-st-optee/lib/libutee/tee_uuid_from_str.c:18
    4b44:	940002ed 	bl	56f8 <isxdigit>
    4b48:	340000a0 	cbz	w0, 4b5c <parse_hex+0x7c>
/media/home/beste/01_Pro/ld25x/bsp_hu/MYD-LD25X-Uboot-L2022.10-V1.0.0/GEN_FIP/myir-st-optee/lib/libutee/tee_uuid_from_str.c:19
    4b4c:	51015e83 	sub	w3, w20, #0x57
parse_hex():
/media/home/beste/01_Pro/ld25x/bsp_hu/MYD-LD25X-Uboot-L2022.10-V1.0.0/GEN_FIP/myir-st-optee/lib/libutee/tee_uuid_from_str.c:35 (discriminator 2)
    4b50:	0b151075 	add	w21, w3, w21, lsl #4
/media/home/beste/01_Pro/ld25x/bsp_hu/MYD-LD25X-Uboot-L2022.10-V1.0.0/GEN_FIP/myir-st-optee/lib/libutee/tee_uuid_from_str.c:29 (discriminator 2)
    4b54:	91000673 	add	x19, x19, #0x1
    4b58:	17ffffeb 	b	4b04 <parse_hex+0x24>
hex():
/media/home/beste/01_Pro/ld25x/bsp_hu/MYD-LD25X-Uboot-L2022.10-V1.0.0/GEN_FIP/myir-st-optee/lib/libutee/tee_uuid_from_str.c:29 (discriminator 2)
    4b5c:	129fff40 	mov	w0, #0xffff0005            	// #-65531
    4b60:	17ffffec 	b	4b10 <parse_hex+0x30>

0000000000004b64 <tee_uuid_from_str>:
tee_uuid_from_str():
/media/home/beste/01_Pro/ld25x/bsp_hu/MYD-LD25X-Uboot-L2022.10-V1.0.0/GEN_FIP/myir-st-optee/lib/libutee/tee_uuid_from_str.c:43
    4b64:	a9b97bfd 	stp	x29, x30, [sp, #-112]!
    4b68:	910003fd 	mov	x29, sp
    4b6c:	a90153f3 	stp	x19, x20, [sp, #16]
    4b70:	a9025bf5 	stp	x21, x22, [sp, #32]
    4b74:	a90363f7 	stp	x23, x24, [sp, #48]
    4b78:	a9046bf9 	stp	x25, x26, [sp, #64]
/media/home/beste/01_Pro/ld25x/bsp_hu/MYD-LD25X-Uboot-L2022.10-V1.0.0/GEN_FIP/myir-st-optee/lib/libutee/tee_uuid_from_str.c:44
    4b7c:	b9005fff 	str	wzr, [sp, #92]
/media/home/beste/01_Pro/ld25x/bsp_hu/MYD-LD25X-Uboot-L2022.10-V1.0.0/GEN_FIP/myir-st-optee/lib/libutee/tee_uuid_from_str.c:45
    4b80:	a9067fff 	stp	xzr, xzr, [sp, #96]
/media/home/beste/01_Pro/ld25x/bsp_hu/MYD-LD25X-Uboot-L2022.10-V1.0.0/GEN_FIP/myir-st-optee/lib/libutee/tee_uuid_from_str.c:49
    4b84:	b4000981 	cbz	x1, 4cb4 <tee_uuid_from_str+0x150>
    4b88:	aa0103f3 	mov	x19, x1
    4b8c:	aa0003f6 	mov	x22, x0
/media/home/beste/01_Pro/ld25x/bsp_hu/MYD-LD25X-Uboot-L2022.10-V1.0.0/GEN_FIP/myir-st-optee/lib/libutee/tee_uuid_from_str.c:49 (discriminator 1)
    4b90:	d28004a1 	mov	x1, #0x25                  	// #37
    4b94:	aa1303e0 	mov	x0, x19
    4b98:	9400031f 	bl	5814 <strnlen>
    4b9c:	f100901f 	cmp	x0, #0x24
    4ba0:	540008a1 	b.ne	4cb4 <tee_uuid_from_str+0x150>  // b.any
/media/home/beste/01_Pro/ld25x/bsp_hu/MYD-LD25X-Uboot-L2022.10-V1.0.0/GEN_FIP/myir-st-optee/lib/libutee/tee_uuid_from_str.c:51
    4ba4:	39402260 	ldrb	w0, [x19, #8]
    4ba8:	7100b41f 	cmp	w0, #0x2d
    4bac:	54000841 	b.ne	4cb4 <tee_uuid_from_str+0x150>  // b.any
/media/home/beste/01_Pro/ld25x/bsp_hu/MYD-LD25X-Uboot-L2022.10-V1.0.0/GEN_FIP/myir-st-optee/lib/libutee/tee_uuid_from_str.c:51 (discriminator 1)
    4bb0:	39403660 	ldrb	w0, [x19, #13]
    4bb4:	7100b41f 	cmp	w0, #0x2d
    4bb8:	540007e1 	b.ne	4cb4 <tee_uuid_from_str+0x150>  // b.any
/media/home/beste/01_Pro/ld25x/bsp_hu/MYD-LD25X-Uboot-L2022.10-V1.0.0/GEN_FIP/myir-st-optee/lib/libutee/tee_uuid_from_str.c:51 (discriminator 2)
    4bbc:	39404a60 	ldrb	w0, [x19, #18]
    4bc0:	7100b41f 	cmp	w0, #0x2d
    4bc4:	54000781 	b.ne	4cb4 <tee_uuid_from_str+0x150>  // b.any
/media/home/beste/01_Pro/ld25x/bsp_hu/MYD-LD25X-Uboot-L2022.10-V1.0.0/GEN_FIP/myir-st-optee/lib/libutee/tee_uuid_from_str.c:51 (discriminator 3)
    4bc8:	39405e60 	ldrb	w0, [x19, #23]
    4bcc:	7100b41f 	cmp	w0, #0x2d
    4bd0:	54000721 	b.ne	4cb4 <tee_uuid_from_str+0x150>  // b.any
/media/home/beste/01_Pro/ld25x/bsp_hu/MYD-LD25X-Uboot-L2022.10-V1.0.0/GEN_FIP/myir-st-optee/lib/libutee/tee_uuid_from_str.c:54
    4bd4:	910173f5 	add	x21, sp, #0x5c
    4bd8:	aa1303e0 	mov	x0, x19
    4bdc:	aa1503e2 	mov	x2, x21
    4be0:	d2800101 	mov	x1, #0x8                   	// #8
    4be4:	97ffffbf 	bl	4ae0 <parse_hex>
    4be8:	2a0003f9 	mov	w25, w0
/media/home/beste/01_Pro/ld25x/bsp_hu/MYD-LD25X-Uboot-L2022.10-V1.0.0/GEN_FIP/myir-st-optee/lib/libutee/tee_uuid_from_str.c:55
    4bec:	b9405fe0 	ldr	w0, [sp, #92]
    4bf0:	35000540 	cbnz	w0, 4c98 <tee_uuid_from_str+0x134>
/media/home/beste/01_Pro/ld25x/bsp_hu/MYD-LD25X-Uboot-L2022.10-V1.0.0/GEN_FIP/myir-st-optee/lib/libutee/tee_uuid_from_str.c:58
    4bf4:	aa1503e2 	mov	x2, x21
    4bf8:	91002660 	add	x0, x19, #0x9
    4bfc:	d2800081 	mov	x1, #0x4                   	// #4
    4c00:	97ffffb8 	bl	4ae0 <parse_hex>
    4c04:	2a0003f8 	mov	w24, w0
/media/home/beste/01_Pro/ld25x/bsp_hu/MYD-LD25X-Uboot-L2022.10-V1.0.0/GEN_FIP/myir-st-optee/lib/libutee/tee_uuid_from_str.c:59
    4c08:	b9405fe0 	ldr	w0, [sp, #92]
    4c0c:	35000460 	cbnz	w0, 4c98 <tee_uuid_from_str+0x134>
/media/home/beste/01_Pro/ld25x/bsp_hu/MYD-LD25X-Uboot-L2022.10-V1.0.0/GEN_FIP/myir-st-optee/lib/libutee/tee_uuid_from_str.c:62
    4c10:	aa1503e2 	mov	x2, x21
    4c14:	91003a60 	add	x0, x19, #0xe
    4c18:	d2800081 	mov	x1, #0x4                   	// #4
    4c1c:	97ffffb1 	bl	4ae0 <parse_hex>
    4c20:	2a0003f7 	mov	w23, w0
/media/home/beste/01_Pro/ld25x/bsp_hu/MYD-LD25X-Uboot-L2022.10-V1.0.0/GEN_FIP/myir-st-optee/lib/libutee/tee_uuid_from_str.c:63
    4c24:	b9405fe0 	ldr	w0, [sp, #92]
    4c28:	35000380 	cbnz	w0, 4c98 <tee_uuid_from_str+0x134>
/media/home/beste/01_Pro/ld25x/bsp_hu/MYD-LD25X-Uboot-L2022.10-V1.0.0/GEN_FIP/myir-st-optee/lib/libutee/tee_uuid_from_str.c:65
    4c2c:	91004e73 	add	x19, x19, #0x13
/media/home/beste/01_Pro/ld25x/bsp_hu/MYD-LD25X-Uboot-L2022.10-V1.0.0/GEN_FIP/myir-st-optee/lib/libutee/tee_uuid_from_str.c:67
    4c30:	910183fa 	add	x26, sp, #0x60
/media/home/beste/01_Pro/ld25x/bsp_hu/MYD-LD25X-Uboot-L2022.10-V1.0.0/GEN_FIP/myir-st-optee/lib/libutee/tee_uuid_from_str.c:66
    4c34:	d2800014 	mov	x20, #0x0                   	// #0
/media/home/beste/01_Pro/ld25x/bsp_hu/MYD-LD25X-Uboot-L2022.10-V1.0.0/GEN_FIP/myir-st-optee/lib/libutee/tee_uuid_from_str.c:67
    4c38:	d2800041 	mov	x1, #0x2                   	// #2
    4c3c:	aa1503e2 	mov	x2, x21
    4c40:	aa1303e0 	mov	x0, x19
    4c44:	97ffffa7 	bl	4ae0 <parse_hex>
    4c48:	8b1a0281 	add	x1, x20, x26
    4c4c:	39002020 	strb	w0, [x1, #8]
/media/home/beste/01_Pro/ld25x/bsp_hu/MYD-LD25X-Uboot-L2022.10-V1.0.0/GEN_FIP/myir-st-optee/lib/libutee/tee_uuid_from_str.c:68
    4c50:	b9405fe0 	ldr	w0, [sp, #92]
    4c54:	35000220 	cbnz	w0, 4c98 <tee_uuid_from_str+0x134>
/media/home/beste/01_Pro/ld25x/bsp_hu/MYD-LD25X-Uboot-L2022.10-V1.0.0/GEN_FIP/myir-st-optee/lib/libutee/tee_uuid_from_str.c:70
    4c58:	f100069f 	cmp	x20, #0x1
    4c5c:	54000081 	b.ne	4c6c <tee_uuid_from_str+0x108>  // b.any
/media/home/beste/01_Pro/ld25x/bsp_hu/MYD-LD25X-Uboot-L2022.10-V1.0.0/GEN_FIP/myir-st-optee/lib/libutee/tee_uuid_from_str.c:71
    4c60:	91000e73 	add	x19, x19, #0x3
/media/home/beste/01_Pro/ld25x/bsp_hu/MYD-LD25X-Uboot-L2022.10-V1.0.0/GEN_FIP/myir-st-optee/lib/libutee/tee_uuid_from_str.c:66
    4c64:	d2800054 	mov	x20, #0x2                   	// #2
    4c68:	17fffff4 	b	4c38 <tee_uuid_from_str+0xd4>
    4c6c:	91000694 	add	x20, x20, #0x1
/media/home/beste/01_Pro/ld25x/bsp_hu/MYD-LD25X-Uboot-L2022.10-V1.0.0/GEN_FIP/myir-st-optee/lib/libutee/tee_uuid_from_str.c:73
    4c70:	91000a73 	add	x19, x19, #0x2
/media/home/beste/01_Pro/ld25x/bsp_hu/MYD-LD25X-Uboot-L2022.10-V1.0.0/GEN_FIP/myir-st-optee/lib/libutee/tee_uuid_from_str.c:66
    4c74:	f100229f 	cmp	x20, #0x8
    4c78:	54fffe01 	b.ne	4c38 <tee_uuid_from_str+0xd4>  // b.any
/media/home/beste/01_Pro/ld25x/bsp_hu/MYD-LD25X-Uboot-L2022.10-V1.0.0/GEN_FIP/myir-st-optee/lib/libutee/tee_uuid_from_str.c:75
    4c7c:	aa1a03e1 	mov	x1, x26
    4c80:	aa1603e0 	mov	x0, x22
    4c84:	d2800202 	mov	x2, #0x10                  	// #16
    4c88:	b90063f9 	str	w25, [sp, #96]
/media/home/beste/01_Pro/ld25x/bsp_hu/MYD-LD25X-Uboot-L2022.10-V1.0.0/GEN_FIP/myir-st-optee/lib/libutee/tee_uuid_from_str.c:58
    4c8c:	7900cbf8 	strh	w24, [sp, #100]
/media/home/beste/01_Pro/ld25x/bsp_hu/MYD-LD25X-Uboot-L2022.10-V1.0.0/GEN_FIP/myir-st-optee/lib/libutee/tee_uuid_from_str.c:62
    4c90:	7900cff7 	strh	w23, [sp, #102]
/media/home/beste/01_Pro/ld25x/bsp_hu/MYD-LD25X-Uboot-L2022.10-V1.0.0/GEN_FIP/myir-st-optee/lib/libutee/tee_uuid_from_str.c:75
    4c94:	97ffecf7 	bl	70 <memcpy>
/media/home/beste/01_Pro/ld25x/bsp_hu/MYD-LD25X-Uboot-L2022.10-V1.0.0/GEN_FIP/myir-st-optee/lib/libutee/tee_uuid_from_str.c:77
    4c98:	b9405fe0 	ldr	w0, [sp, #92]
/media/home/beste/01_Pro/ld25x/bsp_hu/MYD-LD25X-Uboot-L2022.10-V1.0.0/GEN_FIP/myir-st-optee/lib/libutee/tee_uuid_from_str.c:78
    4c9c:	a94153f3 	ldp	x19, x20, [sp, #16]
    4ca0:	a9425bf5 	ldp	x21, x22, [sp, #32]
    4ca4:	a94363f7 	ldp	x23, x24, [sp, #48]
    4ca8:	a9446bf9 	ldp	x25, x26, [sp, #64]
    4cac:	a8c77bfd 	ldp	x29, x30, [sp], #112
    4cb0:	d65f03c0 	ret
/media/home/beste/01_Pro/ld25x/bsp_hu/MYD-LD25X-Uboot-L2022.10-V1.0.0/GEN_FIP/myir-st-optee/lib/libutee/tee_uuid_from_str.c:50
    4cb4:	129fff40 	mov	w0, #0xffff0005            	// #-65531
    4cb8:	17fffff9 	b	4c9c <tee_uuid_from_str+0x138>

0000000000004cbc <_utee_panic>:
_utee_panic():
/media/home/beste/01_Pro/ld25x/bsp_hu/MYD-LD25X-Uboot-L2022.10-V1.0.0/GEN_FIP/myir-st-optee/lib/libutee/arch/arm/utee_syscalls_a64.S:41
    4cbc:	a9bf7bfd 	stp	x29, x30, [sp, #-16]!
/media/home/beste/01_Pro/ld25x/bsp_hu/MYD-LD25X-Uboot-L2022.10-V1.0.0/GEN_FIP/myir-st-optee/lib/libutee/arch/arm/utee_syscalls_a64.S:42
    4cc0:	910003e1 	mov	x1, sp
/media/home/beste/01_Pro/ld25x/bsp_hu/MYD-LD25X-Uboot-L2022.10-V1.0.0/GEN_FIP/myir-st-optee/lib/libutee/arch/arm/utee_syscalls_a64.S:43
    4cc4:	94000001 	bl	4cc8 <__utee_panic>

0000000000004cc8 <__utee_panic>:
__utee_panic():
/media/home/beste/01_Pro/ld25x/bsp_hu/MYD-LD25X-Uboot-L2022.10-V1.0.0/GEN_FIP/myir-st-optee/lib/libutee/arch/arm/utee_syscalls_asm.S:12
    4cc8:	d2800048 	mov	x8, #0x2                   	// #2
    4ccc:	d4000001 	svc	#0x0
    4cd0:	d65f03c0 	ret

0000000000004cd4 <raw_malloc_return_hook>:
raw_malloc_return_hook():
/media/home/beste/01_Pro/ld25x/bsp_hu/MYD-LD25X-Uboot-L2022.10-V1.0.0/GEN_FIP/myir-st-optee/lib/libutils/isoc/bget_malloc.c:277
    4cd4:	f9401043 	ldr	x3, [x2, #32]
    4cd8:	b9406c44 	ldr	w4, [x2, #108]
    4cdc:	eb04007f 	cmp	x3, x4
    4ce0:	5400004d 	b.le	4ce8 <raw_malloc_return_hook+0x14>
/media/home/beste/01_Pro/ld25x/bsp_hu/MYD-LD25X-Uboot-L2022.10-V1.0.0/GEN_FIP/myir-st-optee/lib/libutils/isoc/bget_malloc.c:278
    4ce4:	b9006c43 	str	w3, [x2, #108]
/media/home/beste/01_Pro/ld25x/bsp_hu/MYD-LD25X-Uboot-L2022.10-V1.0.0/GEN_FIP/myir-st-optee/lib/libutils/isoc/bget_malloc.c:280
    4ce8:	b5000100 	cbnz	x0, 4d08 <raw_malloc_return_hook+0x34>
/media/home/beste/01_Pro/ld25x/bsp_hu/MYD-LD25X-Uboot-L2022.10-V1.0.0/GEN_FIP/myir-st-optee/lib/libutils/isoc/bget_malloc.c:281
    4cec:	b9407444 	ldr	w4, [x2, #116]
    4cf0:	11000484 	add	w4, w4, #0x1
    4cf4:	b9007444 	str	w4, [x2, #116]
/media/home/beste/01_Pro/ld25x/bsp_hu/MYD-LD25X-Uboot-L2022.10-V1.0.0/GEN_FIP/myir-st-optee/lib/libutils/isoc/bget_malloc.c:283
    4cf8:	b9407844 	ldr	w4, [x2, #120]
    4cfc:	eb01009f 	cmp	x4, x1
    4d00:	54000042 	b.cs	4d08 <raw_malloc_return_hook+0x34>  // b.hs, b.nlast
/media/home/beste/01_Pro/ld25x/bsp_hu/MYD-LD25X-Uboot-L2022.10-V1.0.0/GEN_FIP/myir-st-optee/lib/libutils/isoc/bget_malloc.c:285
    4d04:	290f0c41 	stp	w1, w3, [x2, #120]
/media/home/beste/01_Pro/ld25x/bsp_hu/MYD-LD25X-Uboot-L2022.10-V1.0.0/GEN_FIP/myir-st-optee/lib/libutils/isoc/bget_malloc.c:291
    4d08:	d65f03c0 	ret

0000000000004d0c <_assert_trap>:
_assert_trap():
/media/home/beste/01_Pro/ld25x/bsp_hu/MYD-LD25X-Uboot-L2022.10-V1.0.0/GEN_FIP/myir-st-optee/lib/libutils/isoc/include/assert.h:18
    4d0c:	a9bf7bfd 	stp	x29, x30, [sp, #-16]!
    4d10:	910003fd 	mov	x29, sp
/media/home/beste/01_Pro/ld25x/bsp_hu/MYD-LD25X-Uboot-L2022.10-V1.0.0/GEN_FIP/myir-st-optee/lib/libutils/isoc/include/assert.h:19
    4d14:	97ffff5d 	bl	4a88 <_assert_log>
/media/home/beste/01_Pro/ld25x/bsp_hu/MYD-LD25X-Uboot-L2022.10-V1.0.0/GEN_FIP/myir-st-optee/lib/libutils/isoc/include/assert.h:20
    4d18:	97ffff6d 	bl	4acc <_assert_break>

0000000000004d1c <bget_buf_size.part.0>:
bget_buf_size():
/media/home/beste/01_Pro/ld25x/bsp_hu/MYD-LD25X-Uboot-L2022.10-V1.0.0/GEN_FIP/myir-st-optee/lib/libutils/isoc/bget_malloc.c:191
    4d1c:	a9bf7bfd 	stp	x29, x30, [sp, #-16]!
/media/home/beste/01_Pro/ld25x/bsp_hu/MYD-LD25X-Uboot-L2022.10-V1.0.0/GEN_FIP/myir-st-optee/lib/libutils/isoc/bget_malloc.c:208
    4d20:	f0000003 	adrp	x3, 7000 <trace_ext_prefix+0x6bc>
    4d24:	f0000001 	adrp	x1, 7000 <trace_ext_prefix+0x6bc>
/media/home/beste/01_Pro/ld25x/bsp_hu/MYD-LD25X-Uboot-L2022.10-V1.0.0/GEN_FIP/myir-st-optee/lib/libutils/isoc/bget_malloc.c:191
    4d28:	910003fd 	mov	x29, sp
/media/home/beste/01_Pro/ld25x/bsp_hu/MYD-LD25X-Uboot-L2022.10-V1.0.0/GEN_FIP/myir-st-optee/lib/libutils/isoc/bget_malloc.c:208
    4d2c:	f0000000 	adrp	x0, 7000 <trace_ext_prefix+0x6bc>
    4d30:	9124b063 	add	x3, x3, #0x92c
    4d34:	9119c421 	add	x1, x1, #0x671
    4d38:	911a4400 	add	x0, x0, #0x691
    4d3c:	52801a02 	mov	w2, #0xd0                  	// #208
    4d40:	97fffff3 	bl	4d0c <_assert_trap>

0000000000004d44 <bget>:
bget():
/media/home/beste/01_Pro/ld25x/bsp_hu/MYD-LD25X-Uboot-L2022.10-V1.0.0/GEN_FIP/myir-st-optee/lib/libutils/isoc/bget.c:612
    4d44:	a9bf7bfd 	stp	x29, x30, [sp, #-16]!
    4d48:	910003fd 	mov	x29, sp
/media/home/beste/01_Pro/ld25x/bsp_hu/MYD-LD25X-Uboot-L2022.10-V1.0.0/GEN_FIP/myir-st-optee/lib/libutils/isoc/bget.c:625
    4d4c:	f100005f 	cmp	x2, #0x0
    4d50:	5400012c 	b.gt	4d74 <bget+0x30>
/media/home/beste/01_Pro/ld25x/bsp_hu/MYD-LD25X-Uboot-L2022.10-V1.0.0/GEN_FIP/myir-st-optee/lib/libutils/isoc/bget.c:625 (discriminator 1)
    4d54:	f0000003 	adrp	x3, 7000 <trace_ext_prefix+0x6bc>
    4d58:	f0000001 	adrp	x1, 7000 <trace_ext_prefix+0x6bc>
    4d5c:	f0000000 	adrp	x0, 7000 <trace_ext_prefix+0x6bc>
    4d60:	91252c63 	add	x3, x3, #0x94b
    4d64:	911a6c21 	add	x1, x1, #0x69b
    4d68:	911a4800 	add	x0, x0, #0x692
    4d6c:	52804e22 	mov	w2, #0x271                 	// #625
/media/home/beste/01_Pro/ld25x/bsp_hu/MYD-LD25X-Uboot-L2022.10-V1.0.0/GEN_FIP/myir-st-optee/lib/libutils/isoc/bget.c:690 (discriminator 1)
    4d70:	97ffffe7 	bl	4d0c <_assert_trap>
/media/home/beste/01_Pro/ld25x/bsp_hu/MYD-LD25X-Uboot-L2022.10-V1.0.0/GEN_FIP/myir-st-optee/lib/libutils/isoc/bget.c:628 (discriminator 2)
    4d74:	f100001f 	cmp	x0, #0x0
    4d78:	540001cb 	b.lt	4db0 <bget+0x6c>  // b.tstop
/media/home/beste/01_Pro/ld25x/bsp_hu/MYD-LD25X-Uboot-L2022.10-V1.0.0/GEN_FIP/myir-st-optee/lib/libutils/isoc/bget.c:628 (discriminator 1)
    4d7c:	540001e1 	b.ne	4db8 <bget+0x74>  // b.any
/media/home/beste/01_Pro/ld25x/bsp_hu/MYD-LD25X-Uboot-L2022.10-V1.0.0/GEN_FIP/myir-st-optee/lib/libutils/isoc/bget.c:630
    4d80:	f2400c3f 	tst	x1, #0xf
    4d84:	54000161 	b.ne	4db0 <bget+0x6c>  // b.any
/media/home/beste/01_Pro/ld25x/bsp_hu/MYD-LD25X-Uboot-L2022.10-V1.0.0/GEN_FIP/myir-st-optee/lib/libutils/isoc/bget.c:633
    4d88:	d2800200 	mov	x0, #0x10                  	// #16
    4d8c:	eb00005f 	cmp	x2, x0
    4d90:	9a80a042 	csel	x2, x2, x0, ge	// ge = tcont
/media/home/beste/01_Pro/ld25x/bsp_hu/MYD-LD25X-Uboot-L2022.10-V1.0.0/GEN_FIP/myir-st-optee/lib/libutils/isoc/bget.c:640
    4d94:	b1003c44 	adds	x4, x2, #0xf
    4d98:	540000c4 	b.mi	4db0 <bget+0x6c>  // b.first
    4d9c:	eb02009f 	cmp	x4, x2
    4da0:	54000083 	b.cc	4db0 <bget+0x6c>  // b.lo, b.ul, b.last
/media/home/beste/01_Pro/ld25x/bsp_hu/MYD-LD25X-Uboot-L2022.10-V1.0.0/GEN_FIP/myir-st-optee/lib/libutils/isoc/bget.c:643
    4da4:	927cec84 	and	x4, x4, #0xfffffffffffffff0
/media/home/beste/01_Pro/ld25x/bsp_hu/MYD-LD25X-Uboot-L2022.10-V1.0.0/GEN_FIP/myir-st-optee/lib/libutils/isoc/bget.c:648
    4da8:	b1004084 	adds	x4, x4, #0x10
    4dac:	540001c7 	b.vc	4de4 <bget+0xa0>
/media/home/beste/01_Pro/ld25x/bsp_hu/MYD-LD25X-Uboot-L2022.10-V1.0.0/GEN_FIP/myir-st-optee/lib/libutils/isoc/bget.c:629
    4db0:	d2800000 	mov	x0, #0x0                   	// #0
    4db4:	14000096 	b	500c <bget+0x2c8>
/media/home/beste/01_Pro/ld25x/bsp_hu/MYD-LD25X-Uboot-L2022.10-V1.0.0/GEN_FIP/myir-st-optee/lib/libutils/isoc/bget.c:628 (discriminator 3)
    4db8:	cb0003e4 	neg	x4, x0
    4dbc:	ea24001f 	bics	xzr, x0, x4
    4dc0:	54ffff81 	b.ne	4db0 <bget+0x6c>  // b.any
/media/home/beste/01_Pro/ld25x/bsp_hu/MYD-LD25X-Uboot-L2022.10-V1.0.0/GEN_FIP/myir-st-optee/lib/libutils/isoc/bget.c:630
    4dc4:	f2400c3f 	tst	x1, #0xf
    4dc8:	54ffff41 	b.ne	4db0 <bget+0x6c>  // b.any
/media/home/beste/01_Pro/ld25x/bsp_hu/MYD-LD25X-Uboot-L2022.10-V1.0.0/GEN_FIP/myir-st-optee/lib/libutils/isoc/bget.c:633
    4dcc:	d2800204 	mov	x4, #0x10                  	// #16
    4dd0:	eb04005f 	cmp	x2, x4
    4dd4:	9a84a042 	csel	x2, x2, x4, ge	// ge = tcont
/media/home/beste/01_Pro/ld25x/bsp_hu/MYD-LD25X-Uboot-L2022.10-V1.0.0/GEN_FIP/myir-st-optee/lib/libutils/isoc/bget.c:636
    4dd8:	eb04001f 	cmp	x0, x4
    4ddc:	9a84a000 	csel	x0, x0, x4, ge	// ge = tcont
    4de0:	17ffffed 	b	4d94 <bget+0x50>
/media/home/beste/01_Pro/ld25x/bsp_hu/MYD-LD25X-Uboot-L2022.10-V1.0.0/GEN_FIP/myir-st-optee/lib/libutils/isoc/bget.c:650
    4de4:	ab010084 	adds	x4, x4, x1
    4de8:	54fffe46 	b.vs	4db0 <bget+0x6c>
/media/home/beste/01_Pro/ld25x/bsp_hu/MYD-LD25X-Uboot-L2022.10-V1.0.0/GEN_FIP/myir-st-optee/lib/libutils/isoc/bget.c:660
    4dec:	f9400862 	ldr	x2, [x3, #16]
buf_get_pos():
/media/home/beste/01_Pro/ld25x/bsp_hu/MYD-LD25X-Uboot-L2022.10-V1.0.0/GEN_FIP/myir-st-optee/lib/libutils/isoc/bget.c:592
    4df0:	91004028 	add	x8, x1, #0x10
/media/home/beste/01_Pro/ld25x/bsp_hu/MYD-LD25X-Uboot-L2022.10-V1.0.0/GEN_FIP/myir-st-optee/lib/libutils/isoc/bget.c:594
    4df4:	cb0003e0 	neg	x0, x0
/media/home/beste/01_Pro/ld25x/bsp_hu/MYD-LD25X-Uboot-L2022.10-V1.0.0/GEN_FIP/myir-st-optee/lib/libutils/isoc/bget.c:599
    4df8:	b27be7e9 	mov	x9, #0x7fffffffffffffe0    	// #9223372036854775776
bget():
/media/home/beste/01_Pro/ld25x/bsp_hu/MYD-LD25X-Uboot-L2022.10-V1.0.0/GEN_FIP/myir-st-optee/lib/libutils/isoc/bget.c:684
    4dfc:	eb02007f 	cmp	x3, x2
    4e00:	54fffd80 	b.eq	4db0 <bget+0x6c>  // b.none
buf_get_pos():
/media/home/beste/01_Pro/ld25x/bsp_hu/MYD-LD25X-Uboot-L2022.10-V1.0.0/GEN_FIP/myir-st-optee/lib/libutils/isoc/bget.c:585
    4e04:	f9400446 	ldr	x6, [x2, #8]
    4e08:	eb06009f 	cmp	x4, x6
    4e0c:	5400104c 	b.gt	5014 <bget+0x2d0>
/media/home/beste/01_Pro/ld25x/bsp_hu/MYD-LD25X-Uboot-L2022.10-V1.0.0/GEN_FIP/myir-st-optee/lib/libutils/isoc/bget.c:592
    4e10:	cb040045 	sub	x5, x2, x4
/media/home/beste/01_Pro/ld25x/bsp_hu/MYD-LD25X-Uboot-L2022.10-V1.0.0/GEN_FIP/myir-st-optee/lib/libutils/isoc/bget.c:595
    4e14:	8b010047 	add	x7, x2, x1
/media/home/beste/01_Pro/ld25x/bsp_hu/MYD-LD25X-Uboot-L2022.10-V1.0.0/GEN_FIP/myir-st-optee/lib/libutils/isoc/bget.c:592
    4e18:	8b0800a5 	add	x5, x5, x8
    4e1c:	8b0600a5 	add	x5, x5, x6
/media/home/beste/01_Pro/ld25x/bsp_hu/MYD-LD25X-Uboot-L2022.10-V1.0.0/GEN_FIP/myir-st-optee/lib/libutils/isoc/bget.c:594
    4e20:	8a050005 	and	x5, x0, x5
/media/home/beste/01_Pro/ld25x/bsp_hu/MYD-LD25X-Uboot-L2022.10-V1.0.0/GEN_FIP/myir-st-optee/lib/libutils/isoc/bget.c:595
    4e24:	cb0700a5 	sub	x5, x5, x7
/media/home/beste/01_Pro/ld25x/bsp_hu/MYD-LD25X-Uboot-L2022.10-V1.0.0/GEN_FIP/myir-st-optee/lib/libutils/isoc/bget.c:597
    4e28:	f10040a7 	subs	x7, x5, #0x10
    4e2c:	54000080 	b.eq	4e3c <bget+0xf8>  // b.none
/media/home/beste/01_Pro/ld25x/bsp_hu/MYD-LD25X-Uboot-L2022.10-V1.0.0/GEN_FIP/myir-st-optee/lib/libutils/isoc/bget.c:599
    4e30:	d100c0a5 	sub	x5, x5, #0x30
    4e34:	eb0900bf 	cmp	x5, x9
    4e38:	54000ee2 	b.cs	5014 <bget+0x2d0>  // b.hs, b.nlast
bget():
/media/home/beste/01_Pro/ld25x/bsp_hu/MYD-LD25X-Uboot-L2022.10-V1.0.0/GEN_FIP/myir-st-optee/lib/libutils/isoc/bget.c:690
    4e3c:	f8666841 	ldr	x1, [x2, x6]
/media/home/beste/01_Pro/ld25x/bsp_hu/MYD-LD25X-Uboot-L2022.10-V1.0.0/GEN_FIP/myir-st-optee/lib/libutils/isoc/bget.c:687
    4e40:	8b070040 	add	x0, x2, x7
/media/home/beste/01_Pro/ld25x/bsp_hu/MYD-LD25X-Uboot-L2022.10-V1.0.0/GEN_FIP/myir-st-optee/lib/libutils/isoc/bget.c:688
    4e44:	8b060045 	add	x5, x2, x6
/media/home/beste/01_Pro/ld25x/bsp_hu/MYD-LD25X-Uboot-L2022.10-V1.0.0/GEN_FIP/myir-st-optee/lib/libutils/isoc/bget.c:690
    4e48:	eb06003f 	cmp	x1, x6
    4e4c:	54000120 	b.eq	4e70 <bget+0x12c>  // b.none
/media/home/beste/01_Pro/ld25x/bsp_hu/MYD-LD25X-Uboot-L2022.10-V1.0.0/GEN_FIP/myir-st-optee/lib/libutils/isoc/bget.c:690 (discriminator 1)
    4e50:	f0000003 	adrp	x3, 7000 <trace_ext_prefix+0x6bc>
    4e54:	f0000001 	adrp	x1, 7000 <trace_ext_prefix+0x6bc>
    4e58:	f0000000 	adrp	x0, 7000 <trace_ext_prefix+0x6bc>
    4e5c:	91252c63 	add	x3, x3, #0x94b
    4e60:	911a6c21 	add	x1, x1, #0x69b
    4e64:	911ad000 	add	x0, x0, #0x6b4
    4e68:	52805642 	mov	w2, #0x2b2                 	// #690
    4e6c:	17ffffc1 	b	4d70 <bget+0x2c>
/media/home/beste/01_Pro/ld25x/bsp_hu/MYD-LD25X-Uboot-L2022.10-V1.0.0/GEN_FIP/myir-st-optee/lib/libutils/isoc/bget.c:698
    4e70:	f9400c41 	ldr	x1, [x2, #24]
/media/home/beste/01_Pro/ld25x/bsp_hu/MYD-LD25X-Uboot-L2022.10-V1.0.0/GEN_FIP/myir-st-optee/lib/libutils/isoc/bget.c:696
    4e74:	f826685f 	str	xzr, [x2, x6]
/media/home/beste/01_Pro/ld25x/bsp_hu/MYD-LD25X-Uboot-L2022.10-V1.0.0/GEN_FIP/myir-st-optee/lib/libutils/isoc/bget.c:698
    4e78:	f9400828 	ldr	x8, [x1, #16]
    4e7c:	eb02011f 	cmp	x8, x2
    4e80:	54000120 	b.eq	4ea4 <bget+0x160>  // b.none
/media/home/beste/01_Pro/ld25x/bsp_hu/MYD-LD25X-Uboot-L2022.10-V1.0.0/GEN_FIP/myir-st-optee/lib/libutils/isoc/bget.c:698 (discriminator 1)
    4e84:	f0000003 	adrp	x3, 7000 <trace_ext_prefix+0x6bc>
    4e88:	f0000001 	adrp	x1, 7000 <trace_ext_prefix+0x6bc>
    4e8c:	f0000000 	adrp	x0, 7000 <trace_ext_prefix+0x6bc>
    4e90:	91252c63 	add	x3, x3, #0x94b
    4e94:	911a6c21 	add	x1, x1, #0x69b
    4e98:	911b5000 	add	x0, x0, #0x6d4
    4e9c:	52805742 	mov	w2, #0x2ba                 	// #698
    4ea0:	17ffffb4 	b	4d70 <bget+0x2c>
/media/home/beste/01_Pro/ld25x/bsp_hu/MYD-LD25X-Uboot-L2022.10-V1.0.0/GEN_FIP/myir-st-optee/lib/libutils/isoc/bget.c:699
    4ea4:	f9400848 	ldr	x8, [x2, #16]
    4ea8:	f9400d09 	ldr	x9, [x8, #24]
    4eac:	eb02013f 	cmp	x9, x2
    4eb0:	54000120 	b.eq	4ed4 <bget+0x190>  // b.none
/media/home/beste/01_Pro/ld25x/bsp_hu/MYD-LD25X-Uboot-L2022.10-V1.0.0/GEN_FIP/myir-st-optee/lib/libutils/isoc/bget.c:699 (discriminator 1)
    4eb4:	f0000003 	adrp	x3, 7000 <trace_ext_prefix+0x6bc>
    4eb8:	f0000001 	adrp	x1, 7000 <trace_ext_prefix+0x6bc>
    4ebc:	f0000000 	adrp	x0, 7000 <trace_ext_prefix+0x6bc>
    4ec0:	91252c63 	add	x3, x3, #0x94b
    4ec4:	911a6c21 	add	x1, x1, #0x69b
    4ec8:	911bbc00 	add	x0, x0, #0x6ef
    4ecc:	52805762 	mov	w2, #0x2bb                 	// #699
    4ed0:	17ffffa8 	b	4d70 <bget+0x2c>
/media/home/beste/01_Pro/ld25x/bsp_hu/MYD-LD25X-Uboot-L2022.10-V1.0.0/GEN_FIP/myir-st-optee/lib/libutils/isoc/bget.c:701
    4ed4:	b5000207 	cbnz	x7, 4f14 <bget+0x1d0>
/media/home/beste/01_Pro/ld25x/bsp_hu/MYD-LD25X-Uboot-L2022.10-V1.0.0/GEN_FIP/myir-st-optee/lib/libutils/isoc/bget.c:706
    4ed8:	f9000828 	str	x8, [x1, #16]
/media/home/beste/01_Pro/ld25x/bsp_hu/MYD-LD25X-Uboot-L2022.10-V1.0.0/GEN_FIP/myir-st-optee/lib/libutils/isoc/bget.c:707
    4edc:	f9400847 	ldr	x7, [x2, #16]
    4ee0:	f9000ce1 	str	x1, [x7, #24]
/media/home/beste/01_Pro/ld25x/bsp_hu/MYD-LD25X-Uboot-L2022.10-V1.0.0/GEN_FIP/myir-st-optee/lib/libutils/isoc/bget.c:710
    4ee4:	cb0603e7 	neg	x7, x6
    4ee8:	f9000447 	str	x7, [x2, #8]
/media/home/beste/01_Pro/ld25x/bsp_hu/MYD-LD25X-Uboot-L2022.10-V1.0.0/GEN_FIP/myir-st-optee/lib/libutils/isoc/bget.c:721
    4eec:	f9400402 	ldr	x2, [x0, #8]
    4ef0:	b7f80182 	tbnz	x2, #63, 4f20 <bget+0x1dc>
/media/home/beste/01_Pro/ld25x/bsp_hu/MYD-LD25X-Uboot-L2022.10-V1.0.0/GEN_FIP/myir-st-optee/lib/libutils/isoc/bget.c:721 (discriminator 1)
    4ef4:	f0000003 	adrp	x3, 7000 <trace_ext_prefix+0x6bc>
    4ef8:	f0000001 	adrp	x1, 7000 <trace_ext_prefix+0x6bc>
    4efc:	f0000000 	adrp	x0, 7000 <trace_ext_prefix+0x6bc>
    4f00:	91252c63 	add	x3, x3, #0x94b
    4f04:	911a6c21 	add	x1, x1, #0x69b
    4f08:	911c2800 	add	x0, x0, #0x70a
    4f0c:	52805a22 	mov	w2, #0x2d1                 	// #721
    4f10:	17ffff98 	b	4d70 <bget+0x2c>
/media/home/beste/01_Pro/ld25x/bsp_hu/MYD-LD25X-Uboot-L2022.10-V1.0.0/GEN_FIP/myir-st-optee/lib/libutils/isoc/bget.c:716
    4f14:	cb0600e6 	sub	x6, x7, x6
    4f18:	a9001807 	stp	x7, x6, [x0]
/media/home/beste/01_Pro/ld25x/bsp_hu/MYD-LD25X-Uboot-L2022.10-V1.0.0/GEN_FIP/myir-st-optee/lib/libutils/isoc/bget.c:718
    4f1c:	17fffff3 	b	4ee8 <bget+0x1a4>
/media/home/beste/01_Pro/ld25x/bsp_hu/MYD-LD25X-Uboot-L2022.10-V1.0.0/GEN_FIP/myir-st-optee/lib/libutils/isoc/bget.c:727
    4f20:	cb0203e2 	neg	x2, x2
    4f24:	cb040042 	sub	x2, x2, x4
    4f28:	f100805f 	cmp	x2, #0x20
    4f2c:	54000609 	b.ls	4fec <bget+0x2a8>  // b.plast
/media/home/beste/01_Pro/ld25x/bsp_hu/MYD-LD25X-Uboot-L2022.10-V1.0.0/GEN_FIP/myir-st-optee/lib/libutils/isoc/bget.c:733
    4f30:	8b040001 	add	x1, x0, x4
/media/home/beste/01_Pro/ld25x/bsp_hu/MYD-LD25X-Uboot-L2022.10-V1.0.0/GEN_FIP/myir-st-optee/lib/libutils/isoc/bget.c:734
    4f34:	f9000422 	str	x2, [x1, #8]
/media/home/beste/01_Pro/ld25x/bsp_hu/MYD-LD25X-Uboot-L2022.10-V1.0.0/GEN_FIP/myir-st-optee/lib/libutils/isoc/bget.c:735
    4f38:	f824681f 	str	xzr, [x0, x4]
/media/home/beste/01_Pro/ld25x/bsp_hu/MYD-LD25X-Uboot-L2022.10-V1.0.0/GEN_FIP/myir-st-optee/lib/libutils/isoc/bget.c:736
    4f3c:	f9400404 	ldr	x4, [x0, #8]
    4f40:	8b020082 	add	x2, x4, x2
    4f44:	f9000402 	str	x2, [x0, #8]
/media/home/beste/01_Pro/ld25x/bsp_hu/MYD-LD25X-Uboot-L2022.10-V1.0.0/GEN_FIP/myir-st-optee/lib/libutils/isoc/bget.c:738
    4f48:	f9400c62 	ldr	x2, [x3, #24]
    4f4c:	f9400844 	ldr	x4, [x2, #16]
    4f50:	eb03009f 	cmp	x4, x3
    4f54:	54000120 	b.eq	4f78 <bget+0x234>  // b.none
/media/home/beste/01_Pro/ld25x/bsp_hu/MYD-LD25X-Uboot-L2022.10-V1.0.0/GEN_FIP/myir-st-optee/lib/libutils/isoc/bget.c:738 (discriminator 1)
    4f58:	f0000003 	adrp	x3, 7000 <trace_ext_prefix+0x6bc>
    4f5c:	f0000001 	adrp	x1, 7000 <trace_ext_prefix+0x6bc>
    4f60:	f0000000 	adrp	x0, 7000 <trace_ext_prefix+0x6bc>
    4f64:	91252c63 	add	x3, x3, #0x94b
    4f68:	911a6c21 	add	x1, x1, #0x69b
    4f6c:	911c7400 	add	x0, x0, #0x71d
    4f70:	52805c42 	mov	w2, #0x2e2                 	// #738
    4f74:	17ffff7f 	b	4d70 <bget+0x2c>
/media/home/beste/01_Pro/ld25x/bsp_hu/MYD-LD25X-Uboot-L2022.10-V1.0.0/GEN_FIP/myir-st-optee/lib/libutils/isoc/bget.c:740
    4f78:	f9400864 	ldr	x4, [x3, #16]
    4f7c:	f9400c84 	ldr	x4, [x4, #24]
    4f80:	eb03009f 	cmp	x4, x3
    4f84:	54000120 	b.eq	4fa8 <bget+0x264>  // b.none
/media/home/beste/01_Pro/ld25x/bsp_hu/MYD-LD25X-Uboot-L2022.10-V1.0.0/GEN_FIP/myir-st-optee/lib/libutils/isoc/bget.c:740 (discriminator 1)
    4f88:	f0000003 	adrp	x3, 7000 <trace_ext_prefix+0x6bc>
    4f8c:	f0000001 	adrp	x1, 7000 <trace_ext_prefix+0x6bc>
    4f90:	f0000000 	adrp	x0, 7000 <trace_ext_prefix+0x6bc>
    4f94:	91252c63 	add	x3, x3, #0x94b
    4f98:	911a6c21 	add	x1, x1, #0x69b
    4f9c:	911d6000 	add	x0, x0, #0x758
    4fa0:	52805c82 	mov	w2, #0x2e4                 	// #740
    4fa4:	17ffff73 	b	4d70 <bget+0x2c>
/media/home/beste/01_Pro/ld25x/bsp_hu/MYD-LD25X-Uboot-L2022.10-V1.0.0/GEN_FIP/myir-st-optee/lib/libutils/isoc/bget.c:743
    4fa8:	a9010823 	stp	x3, x2, [x1, #16]
/media/home/beste/01_Pro/ld25x/bsp_hu/MYD-LD25X-Uboot-L2022.10-V1.0.0/GEN_FIP/myir-st-optee/lib/libutils/isoc/bget.c:744
    4fac:	f9000c61 	str	x1, [x3, #24]
/media/home/beste/01_Pro/ld25x/bsp_hu/MYD-LD25X-Uboot-L2022.10-V1.0.0/GEN_FIP/myir-st-optee/lib/libutils/isoc/bget.c:745
    4fb0:	f9400c22 	ldr	x2, [x1, #24]
    4fb4:	f9000841 	str	x1, [x2, #16]
/media/home/beste/01_Pro/ld25x/bsp_hu/MYD-LD25X-Uboot-L2022.10-V1.0.0/GEN_FIP/myir-st-optee/lib/libutils/isoc/bget.c:747
    4fb8:	f9400422 	ldr	x2, [x1, #8]
    4fbc:	8b020021 	add	x1, x1, x2
    4fc0:	eb0100bf 	cmp	x5, x1
    4fc4:	54000120 	b.eq	4fe8 <bget+0x2a4>  // b.none
/media/home/beste/01_Pro/ld25x/bsp_hu/MYD-LD25X-Uboot-L2022.10-V1.0.0/GEN_FIP/myir-st-optee/lib/libutils/isoc/bget.c:747 (discriminator 1)
    4fc8:	f0000003 	adrp	x3, 7000 <trace_ext_prefix+0x6bc>
    4fcc:	f0000001 	adrp	x1, 7000 <trace_ext_prefix+0x6bc>
    4fd0:	f0000000 	adrp	x0, 7000 <trace_ext_prefix+0x6bc>
    4fd4:	91252c63 	add	x3, x3, #0x94b
    4fd8:	911a6c21 	add	x1, x1, #0x69b
    4fdc:	911e4c00 	add	x0, x0, #0x793
    4fe0:	52805d62 	mov	w2, #0x2eb                 	// #747
    4fe4:	17ffff63 	b	4d70 <bget+0x2c>
/media/home/beste/01_Pro/ld25x/bsp_hu/MYD-LD25X-Uboot-L2022.10-V1.0.0/GEN_FIP/myir-st-optee/lib/libutils/isoc/bget.c:748
    4fe8:	f90000a2 	str	x2, [x5]
/media/home/beste/01_Pro/ld25x/bsp_hu/MYD-LD25X-Uboot-L2022.10-V1.0.0/GEN_FIP/myir-st-optee/lib/libutils/isoc/bget.c:752
    4fec:	f9400402 	ldr	x2, [x0, #8]
/media/home/beste/01_Pro/ld25x/bsp_hu/MYD-LD25X-Uboot-L2022.10-V1.0.0/GEN_FIP/myir-st-optee/lib/libutils/isoc/bget.c:755
    4ff0:	91004000 	add	x0, x0, #0x10
/media/home/beste/01_Pro/ld25x/bsp_hu/MYD-LD25X-Uboot-L2022.10-V1.0.0/GEN_FIP/myir-st-optee/lib/libutils/isoc/bget.c:752
    4ff4:	f9401061 	ldr	x1, [x3, #32]
    4ff8:	cb020021 	sub	x1, x1, x2
    4ffc:	f9001061 	str	x1, [x3, #32]
/media/home/beste/01_Pro/ld25x/bsp_hu/MYD-LD25X-Uboot-L2022.10-V1.0.0/GEN_FIP/myir-st-optee/lib/libutils/isoc/bget.c:753
    5000:	f9401461 	ldr	x1, [x3, #40]
    5004:	91000421 	add	x1, x1, #0x1
    5008:	f9001461 	str	x1, [x3, #40]
/media/home/beste/01_Pro/ld25x/bsp_hu/MYD-LD25X-Uboot-L2022.10-V1.0.0/GEN_FIP/myir-st-optee/lib/libutils/isoc/bget.c:837
    500c:	a8c17bfd 	ldp	x29, x30, [sp], #16
    5010:	d65f03c0 	ret
/media/home/beste/01_Pro/ld25x/bsp_hu/MYD-LD25X-Uboot-L2022.10-V1.0.0/GEN_FIP/myir-st-optee/lib/libutils/isoc/bget.c:758
    5014:	f9400842 	ldr	x2, [x2, #16]
    5018:	17ffff79 	b	4dfc <bget+0xb8>

000000000000501c <bgetz>:
bgetz():
/media/home/beste/01_Pro/ld25x/bsp_hu/MYD-LD25X-Uboot-L2022.10-V1.0.0/GEN_FIP/myir-st-optee/lib/libutils/isoc/bget.c:848
    501c:	a9be7bfd 	stp	x29, x30, [sp, #-32]!
    5020:	910003fd 	mov	x29, sp
    5024:	f9000bf3 	str	x19, [sp, #16]
    5028:	aa0203f3 	mov	x19, x2
/media/home/beste/01_Pro/ld25x/bsp_hu/MYD-LD25X-Uboot-L2022.10-V1.0.0/GEN_FIP/myir-st-optee/lib/libutils/isoc/bget.c:849
    502c:	97ffff46 	bl	4d44 <bget>
    5030:	aa0003e3 	mov	x3, x0
/media/home/beste/01_Pro/ld25x/bsp_hu/MYD-LD25X-Uboot-L2022.10-V1.0.0/GEN_FIP/myir-st-optee/lib/libutils/isoc/bget.c:851
    5034:	b40002e0 	cbz	x0, 5090 <bgetz+0x74>
/media/home/beste/01_Pro/ld25x/bsp_hu/MYD-LD25X-Uboot-L2022.10-V1.0.0/GEN_FIP/myir-st-optee/lib/libutils/isoc/bget.c:856
    5038:	f85f8000 	ldur	x0, [x0, #-8]
/media/home/beste/01_Pro/ld25x/bsp_hu/MYD-LD25X-Uboot-L2022.10-V1.0.0/GEN_FIP/myir-st-optee/lib/libutils/isoc/bget.c:857
    503c:	b50001c0 	cbnz	x0, 5074 <bgetz+0x58>
/media/home/beste/01_Pro/ld25x/bsp_hu/MYD-LD25X-Uboot-L2022.10-V1.0.0/GEN_FIP/myir-st-optee/lib/libutils/isoc/bget.c:861
    5040:	a97e0061 	ldp	x1, x0, [x3, #-32]
    5044:	d1008021 	sub	x1, x1, #0x20
/media/home/beste/01_Pro/ld25x/bsp_hu/MYD-LD25X-Uboot-L2022.10-V1.0.0/GEN_FIP/myir-st-optee/lib/libutils/isoc/bget.c:863
    5048:	cb000021 	sub	x1, x1, x0
/media/home/beste/01_Pro/ld25x/bsp_hu/MYD-LD25X-Uboot-L2022.10-V1.0.0/GEN_FIP/myir-st-optee/lib/libutils/isoc/bget.c:865
    504c:	eb13003f 	cmp	x1, x19
    5050:	5400016a 	b.ge	507c <bgetz+0x60>  // b.tcont
/media/home/beste/01_Pro/ld25x/bsp_hu/MYD-LD25X-Uboot-L2022.10-V1.0.0/GEN_FIP/myir-st-optee/lib/libutils/isoc/bget.c:865 (discriminator 1)
    5054:	d0000003 	adrp	x3, 7000 <trace_ext_prefix+0x6bc>
    5058:	d0000001 	adrp	x1, 7000 <trace_ext_prefix+0x6bc>
    505c:	d0000000 	adrp	x0, 7000 <trace_ext_prefix+0x6bc>
    5060:	91251463 	add	x3, x3, #0x945
    5064:	911a6c21 	add	x1, x1, #0x69b
    5068:	911ee400 	add	x0, x0, #0x7b9
    506c:	52806c22 	mov	w2, #0x361                 	// #865
    5070:	97ffff27 	bl	4d0c <_assert_trap>
/media/home/beste/01_Pro/ld25x/bsp_hu/MYD-LD25X-Uboot-L2022.10-V1.0.0/GEN_FIP/myir-st-optee/lib/libutils/isoc/bget.c:863
    5074:	928001e1 	mov	x1, #0xfffffffffffffff0    	// #-16
    5078:	17fffff4 	b	5048 <bgetz+0x2c>
memset_unchecked():
/media/home/beste/01_Pro/ld25x/bsp_hu/MYD-LD25X-Uboot-L2022.10-V1.0.0/GEN_FIP/myir-st-optee/lib/libutils/isoc/bget_malloc.c:115
    507c:	93407c22 	sxtw	x2, w1
    5080:	aa0303e0 	mov	x0, x3
    5084:	52800001 	mov	w1, #0x0                   	// #0
    5088:	940001cd 	bl	57bc <memset>
    508c:	aa0003e3 	mov	x3, x0
bgetz():
/media/home/beste/01_Pro/ld25x/bsp_hu/MYD-LD25X-Uboot-L2022.10-V1.0.0/GEN_FIP/myir-st-optee/lib/libutils/isoc/bget.c:869
    5090:	f9400bf3 	ldr	x19, [sp, #16]
    5094:	aa0303e0 	mov	x0, x3
    5098:	a8c27bfd 	ldp	x29, x30, [sp], #32
    509c:	d65f03c0 	ret

00000000000050a0 <brel>:
brel():
/media/home/beste/01_Pro/ld25x/bsp_hu/MYD-LD25X-Uboot-L2022.10-V1.0.0/GEN_FIP/myir-st-optee/lib/libutils/isoc/bget.c:923
    50a0:	a9be7bfd 	stp	x29, x30, [sp, #-32]!
    50a4:	910003fd 	mov	x29, sp
/media/home/beste/01_Pro/ld25x/bsp_hu/MYD-LD25X-Uboot-L2022.10-V1.0.0/GEN_FIP/myir-st-optee/lib/libutils/isoc/bget.c:928
    50a8:	f9401823 	ldr	x3, [x1, #48]
/media/home/beste/01_Pro/ld25x/bsp_hu/MYD-LD25X-Uboot-L2022.10-V1.0.0/GEN_FIP/myir-st-optee/lib/libutils/isoc/bget.c:923
    50ac:	a90153f3 	stp	x19, x20, [sp, #16]
/media/home/beste/01_Pro/ld25x/bsp_hu/MYD-LD25X-Uboot-L2022.10-V1.0.0/GEN_FIP/myir-st-optee/lib/libutils/isoc/bget.c:928
    50b0:	91000463 	add	x3, x3, #0x1
    50b4:	f9001823 	str	x3, [x1, #48]
/media/home/beste/01_Pro/ld25x/bsp_hu/MYD-LD25X-Uboot-L2022.10-V1.0.0/GEN_FIP/myir-st-optee/lib/libutils/isoc/bget.c:930
    50b8:	b5000120 	cbnz	x0, 50dc <brel+0x3c>
/media/home/beste/01_Pro/ld25x/bsp_hu/MYD-LD25X-Uboot-L2022.10-V1.0.0/GEN_FIP/myir-st-optee/lib/libutils/isoc/bget.c:930 (discriminator 1)
    50bc:	d0000003 	adrp	x3, 7000 <trace_ext_prefix+0x6bc>
    50c0:	d0000001 	adrp	x1, 7000 <trace_ext_prefix+0x6bc>
    50c4:	d0000000 	adrp	x0, 7000 <trace_ext_prefix+0x6bc>
    50c8:	91250063 	add	x3, x3, #0x940
    50cc:	911a6c21 	add	x1, x1, #0x69b
    50d0:	911f1c00 	add	x0, x0, #0x7c7
    50d4:	52807442 	mov	w2, #0x3a2                 	// #930
/media/home/beste/01_Pro/ld25x/bsp_hu/MYD-LD25X-Uboot-L2022.10-V1.0.0/GEN_FIP/myir-st-optee/lib/libutils/isoc/bget.c:963 (discriminator 1)
    50d8:	97ffff0d 	bl	4d0c <_assert_trap>
/media/home/beste/01_Pro/ld25x/bsp_hu/MYD-LD25X-Uboot-L2022.10-V1.0.0/GEN_FIP/myir-st-optee/lib/libutils/isoc/bget.c:960
    50dc:	f85f8003 	ldur	x3, [x0, #-8]
    50e0:	d1004013 	sub	x19, x0, #0x10
/media/home/beste/01_Pro/ld25x/bsp_hu/MYD-LD25X-Uboot-L2022.10-V1.0.0/GEN_FIP/myir-st-optee/lib/libutils/isoc/bget.c:963
    50e4:	b7f80123 	tbnz	x3, #63, 5108 <brel+0x68>
/media/home/beste/01_Pro/ld25x/bsp_hu/MYD-LD25X-Uboot-L2022.10-V1.0.0/GEN_FIP/myir-st-optee/lib/libutils/isoc/bget.c:963 (discriminator 1)
    50e8:	d0000003 	adrp	x3, 7000 <trace_ext_prefix+0x6bc>
    50ec:	d0000001 	adrp	x1, 7000 <trace_ext_prefix+0x6bc>
    50f0:	d0000000 	adrp	x0, 7000 <trace_ext_prefix+0x6bc>
    50f4:	91250063 	add	x3, x3, #0x940
    50f8:	911a6c21 	add	x1, x1, #0x69b
    50fc:	911f4c00 	add	x0, x0, #0x7d3
    5100:	52807862 	mov	w2, #0x3c3                 	// #963
    5104:	17fffff5 	b	50d8 <brel+0x38>
/media/home/beste/01_Pro/ld25x/bsp_hu/MYD-LD25X-Uboot-L2022.10-V1.0.0/GEN_FIP/myir-st-optee/lib/libutils/isoc/bget.c:968
    5108:	cb030264 	sub	x4, x19, x3
    510c:	f9400084 	ldr	x4, [x4]
    5110:	b4000124 	cbz	x4, 5134 <brel+0x94>
/media/home/beste/01_Pro/ld25x/bsp_hu/MYD-LD25X-Uboot-L2022.10-V1.0.0/GEN_FIP/myir-st-optee/lib/libutils/isoc/bget.c:968 (discriminator 1)
    5114:	d0000003 	adrp	x3, 7000 <trace_ext_prefix+0x6bc>
    5118:	d0000001 	adrp	x1, 7000 <trace_ext_prefix+0x6bc>
    511c:	d0000000 	adrp	x0, 7000 <trace_ext_prefix+0x6bc>
    5120:	91250063 	add	x3, x3, #0x940
    5124:	911a6c21 	add	x1, x1, #0x69b
    5128:	911f8c00 	add	x0, x0, #0x7e3
    512c:	52807902 	mov	w2, #0x3c8                 	// #968
    5130:	17ffffea 	b	50d8 <brel+0x38>
/media/home/beste/01_Pro/ld25x/bsp_hu/MYD-LD25X-Uboot-L2022.10-V1.0.0/GEN_FIP/myir-st-optee/lib/libutils/isoc/bget.c:971
    5134:	f9401024 	ldr	x4, [x1, #32]
    5138:	8b040064 	add	x4, x3, x4
    513c:	f9001024 	str	x4, [x1, #32]
/media/home/beste/01_Pro/ld25x/bsp_hu/MYD-LD25X-Uboot-L2022.10-V1.0.0/GEN_FIP/myir-st-optee/lib/libutils/isoc/bget.c:972
    5140:	b6f80124 	tbz	x4, #63, 5164 <brel+0xc4>
/media/home/beste/01_Pro/ld25x/bsp_hu/MYD-LD25X-Uboot-L2022.10-V1.0.0/GEN_FIP/myir-st-optee/lib/libutils/isoc/bget.c:972 (discriminator 1)
    5144:	d0000003 	adrp	x3, 7000 <trace_ext_prefix+0x6bc>
    5148:	d0000001 	adrp	x1, 7000 <trace_ext_prefix+0x6bc>
    514c:	d0000000 	adrp	x0, 7000 <trace_ext_prefix+0x6bc>
    5150:	91250063 	add	x3, x3, #0x940
    5154:	911a6c21 	add	x1, x1, #0x69b
    5158:	91203c00 	add	x0, x0, #0x80f
    515c:	52807982 	mov	w2, #0x3cc                 	// #972
    5160:	17ffffde 	b	50d8 <brel+0x38>
/media/home/beste/01_Pro/ld25x/bsp_hu/MYD-LD25X-Uboot-L2022.10-V1.0.0/GEN_FIP/myir-st-optee/lib/libutils/isoc/bget.c:977
    5164:	f85f0000 	ldur	x0, [x0, #-16]
    5168:	b40003e0 	cbz	x0, 51e4 <brel+0x144>
/media/home/beste/01_Pro/ld25x/bsp_hu/MYD-LD25X-Uboot-L2022.10-V1.0.0/GEN_FIP/myir-st-optee/lib/libutils/isoc/bget.c:988
    516c:	cb000273 	sub	x19, x19, x0
    5170:	f9400661 	ldr	x1, [x19, #8]
    5174:	eb01001f 	cmp	x0, x1
    5178:	54000120 	b.eq	519c <brel+0xfc>  // b.none
/media/home/beste/01_Pro/ld25x/bsp_hu/MYD-LD25X-Uboot-L2022.10-V1.0.0/GEN_FIP/myir-st-optee/lib/libutils/isoc/bget.c:988 (discriminator 1)
    517c:	d0000003 	adrp	x3, 7000 <trace_ext_prefix+0x6bc>
    5180:	d0000001 	adrp	x1, 7000 <trace_ext_prefix+0x6bc>
    5184:	d0000000 	adrp	x0, 7000 <trace_ext_prefix+0x6bc>
    5188:	91250063 	add	x3, x3, #0x940
    518c:	911a6c21 	add	x1, x1, #0x69b
    5190:	91209800 	add	x0, x0, #0x826
    5194:	52807b82 	mov	w2, #0x3dc                 	// #988
    5198:	17ffffd0 	b	50d8 <brel+0x38>
/media/home/beste/01_Pro/ld25x/bsp_hu/MYD-LD25X-Uboot-L2022.10-V1.0.0/GEN_FIP/myir-st-optee/lib/libutils/isoc/bget.c:990
    519c:	cb030000 	sub	x0, x0, x3
    51a0:	f9000660 	str	x0, [x19, #8]
/media/home/beste/01_Pro/ld25x/bsp_hu/MYD-LD25X-Uboot-L2022.10-V1.0.0/GEN_FIP/myir-st-optee/lib/libutils/isoc/bget.c:1010
    51a4:	f9400660 	ldr	x0, [x19, #8]
    51a8:	8b000274 	add	x20, x19, x0
/media/home/beste/01_Pro/ld25x/bsp_hu/MYD-LD25X-Uboot-L2022.10-V1.0.0/GEN_FIP/myir-st-optee/lib/libutils/isoc/bget.c:1011
    51ac:	f9400681 	ldr	x1, [x20, #8]
    51b0:	f100003f 	cmp	x1, #0x0
    51b4:	5400090d 	b.le	52d4 <brel+0x234>
/media/home/beste/01_Pro/ld25x/bsp_hu/MYD-LD25X-Uboot-L2022.10-V1.0.0/GEN_FIP/myir-st-optee/lib/libutils/isoc/bget.c:1016
    51b8:	f8616a83 	ldr	x3, [x20, x1]
    51bc:	eb03003f 	cmp	x1, x3
    51c0:	54000500 	b.eq	5260 <brel+0x1c0>  // b.none
/media/home/beste/01_Pro/ld25x/bsp_hu/MYD-LD25X-Uboot-L2022.10-V1.0.0/GEN_FIP/myir-st-optee/lib/libutils/isoc/bget.c:1016 (discriminator 1)
    51c4:	d0000003 	adrp	x3, 7000 <trace_ext_prefix+0x6bc>
    51c8:	d0000001 	adrp	x1, 7000 <trace_ext_prefix+0x6bc>
    51cc:	d0000000 	adrp	x0, 7000 <trace_ext_prefix+0x6bc>
    51d0:	91250063 	add	x3, x3, #0x940
    51d4:	911a6c21 	add	x1, x1, #0x69b
    51d8:	91217c00 	add	x0, x0, #0x85f
    51dc:	52807f02 	mov	w2, #0x3f8                 	// #1016
    51e0:	17ffffbe 	b	50d8 <brel+0x38>
/media/home/beste/01_Pro/ld25x/bsp_hu/MYD-LD25X-Uboot-L2022.10-V1.0.0/GEN_FIP/myir-st-optee/lib/libutils/isoc/bget.c:996
    51e4:	f9400c24 	ldr	x4, [x1, #24]
    51e8:	f9400880 	ldr	x0, [x4, #16]
    51ec:	eb01001f 	cmp	x0, x1
    51f0:	54000120 	b.eq	5214 <brel+0x174>  // b.none
/media/home/beste/01_Pro/ld25x/bsp_hu/MYD-LD25X-Uboot-L2022.10-V1.0.0/GEN_FIP/myir-st-optee/lib/libutils/isoc/bget.c:996 (discriminator 1)
    51f4:	d0000003 	adrp	x3, 7000 <trace_ext_prefix+0x6bc>
    51f8:	d0000001 	adrp	x1, 7000 <trace_ext_prefix+0x6bc>
    51fc:	d0000000 	adrp	x0, 7000 <trace_ext_prefix+0x6bc>
    5200:	91250063 	add	x3, x3, #0x940
    5204:	911a6c21 	add	x1, x1, #0x69b
    5208:	911c7400 	add	x0, x0, #0x71d
    520c:	52807c82 	mov	w2, #0x3e4                 	// #996
    5210:	17ffffb2 	b	50d8 <brel+0x38>
/media/home/beste/01_Pro/ld25x/bsp_hu/MYD-LD25X-Uboot-L2022.10-V1.0.0/GEN_FIP/myir-st-optee/lib/libutils/isoc/bget.c:997
    5214:	f9400801 	ldr	x1, [x0, #16]
    5218:	f9400c21 	ldr	x1, [x1, #24]
    521c:	eb01001f 	cmp	x0, x1
    5220:	54000120 	b.eq	5244 <brel+0x1a4>  // b.none
/media/home/beste/01_Pro/ld25x/bsp_hu/MYD-LD25X-Uboot-L2022.10-V1.0.0/GEN_FIP/myir-st-optee/lib/libutils/isoc/bget.c:997 (discriminator 1)
    5224:	d0000003 	adrp	x3, 7000 <trace_ext_prefix+0x6bc>
    5228:	d0000001 	adrp	x1, 7000 <trace_ext_prefix+0x6bc>
    522c:	d0000000 	adrp	x0, 7000 <trace_ext_prefix+0x6bc>
    5230:	91250063 	add	x3, x3, #0x940
    5234:	911a6c21 	add	x1, x1, #0x69b
    5238:	911d6000 	add	x0, x0, #0x758
    523c:	52807ca2 	mov	w2, #0x3e5                 	// #997
    5240:	17ffffa6 	b	50d8 <brel+0x38>
/media/home/beste/01_Pro/ld25x/bsp_hu/MYD-LD25X-Uboot-L2022.10-V1.0.0/GEN_FIP/myir-st-optee/lib/libutils/isoc/bget.c:999
    5244:	a9011260 	stp	x0, x4, [x19, #16]
/media/home/beste/01_Pro/ld25x/bsp_hu/MYD-LD25X-Uboot-L2022.10-V1.0.0/GEN_FIP/myir-st-optee/lib/libutils/isoc/bget.c:1002
    5248:	cb0303e3 	neg	x3, x3
/media/home/beste/01_Pro/ld25x/bsp_hu/MYD-LD25X-Uboot-L2022.10-V1.0.0/GEN_FIP/myir-st-optee/lib/libutils/isoc/bget.c:1000
    524c:	f9000c13 	str	x19, [x0, #24]
/media/home/beste/01_Pro/ld25x/bsp_hu/MYD-LD25X-Uboot-L2022.10-V1.0.0/GEN_FIP/myir-st-optee/lib/libutils/isoc/bget.c:1001
    5250:	f9400e60 	ldr	x0, [x19, #24]
    5254:	f9000813 	str	x19, [x0, #16]
/media/home/beste/01_Pro/ld25x/bsp_hu/MYD-LD25X-Uboot-L2022.10-V1.0.0/GEN_FIP/myir-st-optee/lib/libutils/isoc/bget.c:1002
    5258:	f9000663 	str	x3, [x19, #8]
    525c:	17ffffd2 	b	51a4 <brel+0x104>
/media/home/beste/01_Pro/ld25x/bsp_hu/MYD-LD25X-Uboot-L2022.10-V1.0.0/GEN_FIP/myir-st-optee/lib/libutils/isoc/bget.c:1017
    5260:	f9400e84 	ldr	x4, [x20, #24]
    5264:	f9400885 	ldr	x5, [x4, #16]
    5268:	eb1400bf 	cmp	x5, x20
    526c:	54000120 	b.eq	5290 <brel+0x1f0>  // b.none
/media/home/beste/01_Pro/ld25x/bsp_hu/MYD-LD25X-Uboot-L2022.10-V1.0.0/GEN_FIP/myir-st-optee/lib/libutils/isoc/bget.c:1017 (discriminator 1)
    5270:	d0000003 	adrp	x3, 7000 <trace_ext_prefix+0x6bc>
    5274:	d0000001 	adrp	x1, 7000 <trace_ext_prefix+0x6bc>
    5278:	d0000000 	adrp	x0, 7000 <trace_ext_prefix+0x6bc>
    527c:	91250063 	add	x3, x3, #0x940
    5280:	911a6c21 	add	x1, x1, #0x69b
    5284:	91226000 	add	x0, x0, #0x898
    5288:	52807f22 	mov	w2, #0x3f9                 	// #1017
    528c:	17ffff93 	b	50d8 <brel+0x38>
/media/home/beste/01_Pro/ld25x/bsp_hu/MYD-LD25X-Uboot-L2022.10-V1.0.0/GEN_FIP/myir-st-optee/lib/libutils/isoc/bget.c:1018
    5290:	f94008a3 	ldr	x3, [x5, #16]
    5294:	f9400c66 	ldr	x6, [x3, #24]
    5298:	eb0500df 	cmp	x6, x5
    529c:	54000120 	b.eq	52c0 <brel+0x220>  // b.none
/media/home/beste/01_Pro/ld25x/bsp_hu/MYD-LD25X-Uboot-L2022.10-V1.0.0/GEN_FIP/myir-st-optee/lib/libutils/isoc/bget.c:1018 (discriminator 1)
    52a0:	d0000003 	adrp	x3, 7000 <trace_ext_prefix+0x6bc>
    52a4:	d0000001 	adrp	x1, 7000 <trace_ext_prefix+0x6bc>
    52a8:	d0000000 	adrp	x0, 7000 <trace_ext_prefix+0x6bc>
    52ac:	91250063 	add	x3, x3, #0x940
    52b0:	911a6c21 	add	x1, x1, #0x69b
    52b4:	9122d400 	add	x0, x0, #0x8b5
    52b8:	52807f42 	mov	w2, #0x3fa                 	// #1018
    52bc:	17ffff87 	b	50d8 <brel+0x38>
/media/home/beste/01_Pro/ld25x/bsp_hu/MYD-LD25X-Uboot-L2022.10-V1.0.0/GEN_FIP/myir-st-optee/lib/libutils/isoc/bget.c:1021
    52c0:	8b010000 	add	x0, x0, x1
/media/home/beste/01_Pro/ld25x/bsp_hu/MYD-LD25X-Uboot-L2022.10-V1.0.0/GEN_FIP/myir-st-optee/lib/libutils/isoc/bget.c:1019
    52c4:	f9000883 	str	x3, [x4, #16]
/media/home/beste/01_Pro/ld25x/bsp_hu/MYD-LD25X-Uboot-L2022.10-V1.0.0/GEN_FIP/myir-st-optee/lib/libutils/isoc/bget.c:1030
    52c8:	8b000274 	add	x20, x19, x0
/media/home/beste/01_Pro/ld25x/bsp_hu/MYD-LD25X-Uboot-L2022.10-V1.0.0/GEN_FIP/myir-st-optee/lib/libutils/isoc/bget.c:1020
    52cc:	f9000c64 	str	x4, [x3, #24]
/media/home/beste/01_Pro/ld25x/bsp_hu/MYD-LD25X-Uboot-L2022.10-V1.0.0/GEN_FIP/myir-st-optee/lib/libutils/isoc/bget.c:1021
    52d0:	f9000660 	str	x0, [x19, #8]
/media/home/beste/01_Pro/ld25x/bsp_hu/MYD-LD25X-Uboot-L2022.10-V1.0.0/GEN_FIP/myir-st-optee/lib/libutils/isoc/bget.c:1032
    52d4:	340000e2 	cbz	w2, 52f0 <brel+0x250>
/media/home/beste/01_Pro/ld25x/bsp_hu/MYD-LD25X-Uboot-L2022.10-V1.0.0/GEN_FIP/myir-st-optee/lib/libutils/isoc/bget.c:1034
    52d8:	f9400662 	ldr	x2, [x19, #8]
memset_unchecked():
/media/home/beste/01_Pro/ld25x/bsp_hu/MYD-LD25X-Uboot-L2022.10-V1.0.0/GEN_FIP/myir-st-optee/lib/libutils/isoc/bget_malloc.c:115
    52dc:	91008260 	add	x0, x19, #0x20
    52e0:	52800aa1 	mov	w1, #0x55                  	// #85
brel():
/media/home/beste/01_Pro/ld25x/bsp_hu/MYD-LD25X-Uboot-L2022.10-V1.0.0/GEN_FIP/myir-st-optee/lib/libutils/isoc/bget.c:1034
    52e4:	51008042 	sub	w2, w2, #0x20
memset_unchecked():
/media/home/beste/01_Pro/ld25x/bsp_hu/MYD-LD25X-Uboot-L2022.10-V1.0.0/GEN_FIP/myir-st-optee/lib/libutils/isoc/bget_malloc.c:115
    52e8:	93407c42 	sxtw	x2, w2
    52ec:	94000134 	bl	57bc <memset>
brel():
/media/home/beste/01_Pro/ld25x/bsp_hu/MYD-LD25X-Uboot-L2022.10-V1.0.0/GEN_FIP/myir-st-optee/lib/libutils/isoc/bget.c:1036
    52f0:	f9400680 	ldr	x0, [x20, #8]
    52f4:	b7f80120 	tbnz	x0, #63, 5318 <brel+0x278>
/media/home/beste/01_Pro/ld25x/bsp_hu/MYD-LD25X-Uboot-L2022.10-V1.0.0/GEN_FIP/myir-st-optee/lib/libutils/isoc/bget.c:1036 (discriminator 1)
    52f8:	d0000003 	adrp	x3, 7000 <trace_ext_prefix+0x6bc>
    52fc:	d0000001 	adrp	x1, 7000 <trace_ext_prefix+0x6bc>
    5300:	d0000000 	adrp	x0, 7000 <trace_ext_prefix+0x6bc>
    5304:	91250063 	add	x3, x3, #0x940
    5308:	911a6c21 	add	x1, x1, #0x69b
    530c:	91234800 	add	x0, x0, #0x8d2
    5310:	52808182 	mov	w2, #0x40c                 	// #1036
    5314:	17ffff71 	b	50d8 <brel+0x38>
/media/home/beste/01_Pro/ld25x/bsp_hu/MYD-LD25X-Uboot-L2022.10-V1.0.0/GEN_FIP/myir-st-optee/lib/libutils/isoc/bget.c:1041
    5318:	f9400660 	ldr	x0, [x19, #8]
    531c:	f9000280 	str	x0, [x20]
/media/home/beste/01_Pro/ld25x/bsp_hu/MYD-LD25X-Uboot-L2022.10-V1.0.0/GEN_FIP/myir-st-optee/lib/libutils/isoc/bget.c:1068
    5320:	a94153f3 	ldp	x19, x20, [sp, #16]
    5324:	a8c27bfd 	ldp	x29, x30, [sp], #32
    5328:	d65f03c0 	ret

000000000000532c <bpool>:
bpool():
/media/home/beste/01_Pro/ld25x/bsp_hu/MYD-LD25X-Uboot-L2022.10-V1.0.0/GEN_FIP/myir-st-optee/lib/libutils/isoc/bget.c:1094
    532c:	a9bf7bfd 	stp	x29, x30, [sp, #-16]!
/media/home/beste/01_Pro/ld25x/bsp_hu/MYD-LD25X-Uboot-L2022.10-V1.0.0/GEN_FIP/myir-st-optee/lib/libutils/isoc/bget.c:1099
    5330:	927cec21 	and	x1, x1, #0xfffffffffffffff0
/media/home/beste/01_Pro/ld25x/bsp_hu/MYD-LD25X-Uboot-L2022.10-V1.0.0/GEN_FIP/myir-st-optee/lib/libutils/isoc/bget.c:1118
    5334:	f1004021 	subs	x1, x1, #0x10
/media/home/beste/01_Pro/ld25x/bsp_hu/MYD-LD25X-Uboot-L2022.10-V1.0.0/GEN_FIP/myir-st-optee/lib/libutils/isoc/bget.c:1094
    5338:	910003fd 	mov	x29, sp
/media/home/beste/01_Pro/ld25x/bsp_hu/MYD-LD25X-Uboot-L2022.10-V1.0.0/GEN_FIP/myir-st-optee/lib/libutils/isoc/bget.c:1118
    533c:	54000125 	b.pl	5360 <bpool+0x34>  // b.nfrst
/media/home/beste/01_Pro/ld25x/bsp_hu/MYD-LD25X-Uboot-L2022.10-V1.0.0/GEN_FIP/myir-st-optee/lib/libutils/isoc/bget.c:1118 (discriminator 1)
    5340:	d0000003 	adrp	x3, 7000 <trace_ext_prefix+0x6bc>
    5344:	d0000001 	adrp	x1, 7000 <trace_ext_prefix+0x6bc>
    5348:	d0000000 	adrp	x0, 7000 <trace_ext_prefix+0x6bc>
    534c:	9124e863 	add	x3, x3, #0x93a
    5350:	911a6c21 	add	x1, x1, #0x69b
    5354:	91238c00 	add	x0, x0, #0x8e3
    5358:	52808bc2 	mov	w2, #0x45e                 	// #1118
/media/home/beste/01_Pro/ld25x/bsp_hu/MYD-LD25X-Uboot-L2022.10-V1.0.0/GEN_FIP/myir-st-optee/lib/libutils/isoc/bget.c:1128 (discriminator 1)
    535c:	97fffe6c 	bl	4d0c <_assert_trap>
/media/home/beste/01_Pro/ld25x/bsp_hu/MYD-LD25X-Uboot-L2022.10-V1.0.0/GEN_FIP/myir-st-optee/lib/libutils/isoc/bget.c:1128
    5360:	f9400c44 	ldr	x4, [x2, #24]
    5364:	f9400883 	ldr	x3, [x4, #16]
/media/home/beste/01_Pro/ld25x/bsp_hu/MYD-LD25X-Uboot-L2022.10-V1.0.0/GEN_FIP/myir-st-optee/lib/libutils/isoc/bget.c:1124
    5368:	f900001f 	str	xzr, [x0]
/media/home/beste/01_Pro/ld25x/bsp_hu/MYD-LD25X-Uboot-L2022.10-V1.0.0/GEN_FIP/myir-st-optee/lib/libutils/isoc/bget.c:1128
    536c:	eb02007f 	cmp	x3, x2
    5370:	54000120 	b.eq	5394 <bpool+0x68>  // b.none
/media/home/beste/01_Pro/ld25x/bsp_hu/MYD-LD25X-Uboot-L2022.10-V1.0.0/GEN_FIP/myir-st-optee/lib/libutils/isoc/bget.c:1128 (discriminator 1)
    5374:	d0000003 	adrp	x3, 7000 <trace_ext_prefix+0x6bc>
    5378:	d0000001 	adrp	x1, 7000 <trace_ext_prefix+0x6bc>
    537c:	d0000000 	adrp	x0, 7000 <trace_ext_prefix+0x6bc>
    5380:	9124e863 	add	x3, x3, #0x93a
    5384:	911a6c21 	add	x1, x1, #0x69b
    5388:	911c7400 	add	x0, x0, #0x71d
    538c:	52808d02 	mov	w2, #0x468                 	// #1128
    5390:	17fffff3 	b	535c <bpool+0x30>
/media/home/beste/01_Pro/ld25x/bsp_hu/MYD-LD25X-Uboot-L2022.10-V1.0.0/GEN_FIP/myir-st-optee/lib/libutils/isoc/bget.c:1129
    5394:	f9400862 	ldr	x2, [x3, #16]
    5398:	f9400c42 	ldr	x2, [x2, #24]
    539c:	eb02007f 	cmp	x3, x2
    53a0:	54000120 	b.eq	53c4 <bpool+0x98>  // b.none
/media/home/beste/01_Pro/ld25x/bsp_hu/MYD-LD25X-Uboot-L2022.10-V1.0.0/GEN_FIP/myir-st-optee/lib/libutils/isoc/bget.c:1129 (discriminator 1)
    53a4:	d0000003 	adrp	x3, 7000 <trace_ext_prefix+0x6bc>
    53a8:	d0000001 	adrp	x1, 7000 <trace_ext_prefix+0x6bc>
    53ac:	d0000000 	adrp	x0, 7000 <trace_ext_prefix+0x6bc>
    53b0:	9124e863 	add	x3, x3, #0x93a
    53b4:	911a6c21 	add	x1, x1, #0x69b
    53b8:	911d6000 	add	x0, x0, #0x758
    53bc:	52808d22 	mov	w2, #0x469                 	// #1129
    53c0:	17ffffe7 	b	535c <bpool+0x30>
/media/home/beste/01_Pro/ld25x/bsp_hu/MYD-LD25X-Uboot-L2022.10-V1.0.0/GEN_FIP/myir-st-optee/lib/libutils/isoc/bget.c:1131
    53c4:	a9011003 	stp	x3, x4, [x0, #16]
/media/home/beste/01_Pro/ld25x/bsp_hu/MYD-LD25X-Uboot-L2022.10-V1.0.0/GEN_FIP/myir-st-optee/lib/libutils/isoc/bget.c:1132
    53c8:	f9000c60 	str	x0, [x3, #24]
/media/home/beste/01_Pro/ld25x/bsp_hu/MYD-LD25X-Uboot-L2022.10-V1.0.0/GEN_FIP/myir-st-optee/lib/libutils/isoc/bget.c:1133
    53cc:	f9400c02 	ldr	x2, [x0, #24]
    53d0:	f9000840 	str	x0, [x2, #16]
/media/home/beste/01_Pro/ld25x/bsp_hu/MYD-LD25X-Uboot-L2022.10-V1.0.0/GEN_FIP/myir-st-optee/lib/libutils/isoc/bget.c:1149
    53d4:	8b010002 	add	x2, x0, x1
/media/home/beste/01_Pro/ld25x/bsp_hu/MYD-LD25X-Uboot-L2022.10-V1.0.0/GEN_FIP/myir-st-optee/lib/libutils/isoc/bget.c:1144
    53d8:	f9000401 	str	x1, [x0, #8]
/media/home/beste/01_Pro/ld25x/bsp_hu/MYD-LD25X-Uboot-L2022.10-V1.0.0/GEN_FIP/myir-st-optee/lib/libutils/isoc/bget.c:1150
    53dc:	f8216801 	str	x1, [x0, x1]
/media/home/beste/01_Pro/ld25x/bsp_hu/MYD-LD25X-Uboot-L2022.10-V1.0.0/GEN_FIP/myir-st-optee/lib/libutils/isoc/bget.c:1153
    53e0:	d2f00000 	mov	x0, #0x8000000000000000    	// #-9223372036854775808
    53e4:	f9000440 	str	x0, [x2, #8]
/media/home/beste/01_Pro/ld25x/bsp_hu/MYD-LD25X-Uboot-L2022.10-V1.0.0/GEN_FIP/myir-st-optee/lib/libutils/isoc/bget.c:1154
    53e8:	a8c17bfd 	ldp	x29, x30, [sp], #16
    53ec:	d65f03c0 	ret

00000000000053f0 <raw_malloc>:
raw_malloc():
/media/home/beste/01_Pro/ld25x/bsp_hu/MYD-LD25X-Uboot-L2022.10-V1.0.0/GEN_FIP/myir-st-optee/lib/libutils/isoc/bget_malloc.c:445
    53f0:	a9be7bfd 	stp	x29, x30, [sp, #-32]!
    53f4:	910003fd 	mov	x29, sp
    53f8:	a90153f3 	stp	x19, x20, [sp, #16]
    53fc:	aa0203f3 	mov	x19, x2
    5400:	aa0303f4 	mov	x20, x3
raw_memalign():
/media/home/beste/01_Pro/ld25x/bsp_hu/MYD-LD25X-Uboot-L2022.10-V1.0.0/GEN_FIP/myir-st-optee/lib/libutils/isoc/bget_malloc.c:431
    5404:	ab020022 	adds	x2, x1, x2
    5408:	540001a4 	b.mi	543c <raw_malloc+0x4c>  // b.first
    540c:	eb13005f 	cmp	x2, x19
    5410:	54000163 	b.cc	543c <raw_malloc+0x4c>  // b.lo, b.ul, b.last
/media/home/beste/01_Pro/ld25x/bsp_hu/MYD-LD25X-Uboot-L2022.10-V1.0.0/GEN_FIP/myir-st-optee/lib/libutils/isoc/bget_malloc.c:436
    5414:	f100005f 	cmp	x2, #0x0
/media/home/beste/01_Pro/ld25x/bsp_hu/MYD-LD25X-Uboot-L2022.10-V1.0.0/GEN_FIP/myir-st-optee/lib/libutils/isoc/bget_malloc.c:438
    5418:	aa0003e1 	mov	x1, x0
    541c:	9a9f1442 	csinc	x2, x2, xzr, ne	// ne = any
    5420:	d2800200 	mov	x0, #0x10                  	// #16
    5424:	97fffe48 	bl	4d44 <bget>
/media/home/beste/01_Pro/ld25x/bsp_hu/MYD-LD25X-Uboot-L2022.10-V1.0.0/GEN_FIP/myir-st-optee/lib/libutils/isoc/bget_malloc.c:440
    5428:	aa1403e2 	mov	x2, x20
    542c:	aa1303e1 	mov	x1, x19
raw_malloc():
/media/home/beste/01_Pro/ld25x/bsp_hu/MYD-LD25X-Uboot-L2022.10-V1.0.0/GEN_FIP/myir-st-optee/lib/libutils/isoc/bget_malloc.c:451
    5430:	a94153f3 	ldp	x19, x20, [sp, #16]
    5434:	a8c27bfd 	ldp	x29, x30, [sp], #32
raw_memalign():
/media/home/beste/01_Pro/ld25x/bsp_hu/MYD-LD25X-Uboot-L2022.10-V1.0.0/GEN_FIP/myir-st-optee/lib/libutils/isoc/bget_malloc.c:440
    5438:	17fffe27 	b	4cd4 <raw_malloc_return_hook>
/media/home/beste/01_Pro/ld25x/bsp_hu/MYD-LD25X-Uboot-L2022.10-V1.0.0/GEN_FIP/myir-st-optee/lib/libutils/isoc/bget_malloc.c:422
    543c:	d2800000 	mov	x0, #0x0                   	// #0
    5440:	17fffffa 	b	5428 <raw_malloc+0x38>

0000000000005444 <raw_free>:
raw_free():
/media/home/beste/01_Pro/ld25x/bsp_hu/MYD-LD25X-Uboot-L2022.10-V1.0.0/GEN_FIP/myir-st-optee/lib/libutils/isoc/bget_malloc.c:454
    5444:	12001c42 	and	w2, w2, #0xff
/media/home/beste/01_Pro/ld25x/bsp_hu/MYD-LD25X-Uboot-L2022.10-V1.0.0/GEN_FIP/myir-st-optee/lib/libutils/isoc/bget_malloc.c:457
    5448:	b4000040 	cbz	x0, 5450 <raw_free+0xc>
/media/home/beste/01_Pro/ld25x/bsp_hu/MYD-LD25X-Uboot-L2022.10-V1.0.0/GEN_FIP/myir-st-optee/lib/libutils/isoc/bget_malloc.c:458
    544c:	17ffff15 	b	50a0 <brel>
/media/home/beste/01_Pro/ld25x/bsp_hu/MYD-LD25X-Uboot-L2022.10-V1.0.0/GEN_FIP/myir-st-optee/lib/libutils/isoc/bget_malloc.c:459
    5450:	d65f03c0 	ret

0000000000005454 <raw_calloc>:
raw_calloc():
/media/home/beste/01_Pro/ld25x/bsp_hu/MYD-LD25X-Uboot-L2022.10-V1.0.0/GEN_FIP/myir-st-optee/lib/libutils/isoc/bget_malloc.c:463
    5454:	a9be7bfd 	stp	x29, x30, [sp, #-32]!
    5458:	910003fd 	mov	x29, sp
    545c:	a90153f3 	stp	x19, x20, [sp, #16]
/media/home/beste/01_Pro/ld25x/bsp_hu/MYD-LD25X-Uboot-L2022.10-V1.0.0/GEN_FIP/myir-st-optee/lib/libutils/isoc/bget_malloc.c:470
    5460:	9b037c54 	mul	x20, x2, x3
    5464:	9bc37c42 	umulh	x2, x2, x3
/media/home/beste/01_Pro/ld25x/bsp_hu/MYD-LD25X-Uboot-L2022.10-V1.0.0/GEN_FIP/myir-st-optee/lib/libutils/isoc/bget_malloc.c:463
    5468:	aa0403f3 	mov	x19, x4
/media/home/beste/01_Pro/ld25x/bsp_hu/MYD-LD25X-Uboot-L2022.10-V1.0.0/GEN_FIP/myir-st-optee/lib/libutils/isoc/bget_malloc.c:470
    546c:	f100005f 	cmp	x2, #0x0
    5470:	9a9f07e2 	cset	x2, ne	// ne = any
    5474:	b7f80254 	tbnz	x20, #63, 54bc <raw_calloc+0x68>
    5478:	b5000222 	cbnz	x2, 54bc <raw_calloc+0x68>
/media/home/beste/01_Pro/ld25x/bsp_hu/MYD-LD25X-Uboot-L2022.10-V1.0.0/GEN_FIP/myir-st-optee/lib/libutils/isoc/bget_malloc.c:472
    547c:	8b010282 	add	x2, x20, x1
    5480:	d2f00003 	mov	x3, #0x8000000000000000    	// #-9223372036854775808
    5484:	8b030043 	add	x3, x2, x3
    5488:	eb01007f 	cmp	x3, x1
    548c:	54000183 	b.cc	54bc <raw_calloc+0x68>  // b.lo, b.ul, b.last
/media/home/beste/01_Pro/ld25x/bsp_hu/MYD-LD25X-Uboot-L2022.10-V1.0.0/GEN_FIP/myir-st-optee/lib/libutils/isoc/bget_malloc.c:477
    5490:	f100005f 	cmp	x2, #0x0
/media/home/beste/01_Pro/ld25x/bsp_hu/MYD-LD25X-Uboot-L2022.10-V1.0.0/GEN_FIP/myir-st-optee/lib/libutils/isoc/bget_malloc.c:479
    5494:	aa0003e1 	mov	x1, x0
    5498:	aa0403e3 	mov	x3, x4
    549c:	9a9f1442 	csinc	x2, x2, xzr, ne	// ne = any
    54a0:	d2800000 	mov	x0, #0x0                   	// #0
    54a4:	97fffede 	bl	501c <bgetz>
/media/home/beste/01_Pro/ld25x/bsp_hu/MYD-LD25X-Uboot-L2022.10-V1.0.0/GEN_FIP/myir-st-optee/lib/libutils/isoc/bget_malloc.c:481
    54a8:	aa1303e2 	mov	x2, x19
    54ac:	aa1403e1 	mov	x1, x20
/media/home/beste/01_Pro/ld25x/bsp_hu/MYD-LD25X-Uboot-L2022.10-V1.0.0/GEN_FIP/myir-st-optee/lib/libutils/isoc/bget_malloc.c:482
    54b0:	a94153f3 	ldp	x19, x20, [sp, #16]
    54b4:	a8c27bfd 	ldp	x29, x30, [sp], #32
/media/home/beste/01_Pro/ld25x/bsp_hu/MYD-LD25X-Uboot-L2022.10-V1.0.0/GEN_FIP/myir-st-optee/lib/libutils/isoc/bget_malloc.c:481
    54b8:	17fffe07 	b	4cd4 <raw_malloc_return_hook>
/media/home/beste/01_Pro/ld25x/bsp_hu/MYD-LD25X-Uboot-L2022.10-V1.0.0/GEN_FIP/myir-st-optee/lib/libutils/isoc/bget_malloc.c:464
    54bc:	d2800000 	mov	x0, #0x0                   	// #0
    54c0:	17fffffa 	b	54a8 <raw_calloc+0x54>

00000000000054c4 <raw_realloc>:
raw_realloc():
/media/home/beste/01_Pro/ld25x/bsp_hu/MYD-LD25X-Uboot-L2022.10-V1.0.0/GEN_FIP/myir-st-optee/lib/libutils/isoc/bget_malloc.c:486
    54c4:	a9bc7bfd 	stp	x29, x30, [sp, #-64]!
    54c8:	910003fd 	mov	x29, sp
    54cc:	a90153f3 	stp	x19, x20, [sp, #16]
/media/home/beste/01_Pro/ld25x/bsp_hu/MYD-LD25X-Uboot-L2022.10-V1.0.0/GEN_FIP/myir-st-optee/lib/libutils/isoc/bget_malloc.c:491
    54d0:	ab010073 	adds	x19, x3, x1
/media/home/beste/01_Pro/ld25x/bsp_hu/MYD-LD25X-Uboot-L2022.10-V1.0.0/GEN_FIP/myir-st-optee/lib/libutils/isoc/bget_malloc.c:486
    54d4:	a9025bf5 	stp	x21, x22, [sp, #32]
    54d8:	a90363f7 	stp	x23, x24, [sp, #48]
    54dc:	aa0303f7 	mov	x23, x3
    54e0:	aa0403f8 	mov	x24, x4
/media/home/beste/01_Pro/ld25x/bsp_hu/MYD-LD25X-Uboot-L2022.10-V1.0.0/GEN_FIP/myir-st-optee/lib/libutils/isoc/bget_malloc.c:491
    54e4:	54000124 	b.mi	5508 <raw_realloc+0x44>  // b.first
    54e8:	eb01027f 	cmp	x19, x1
    54ec:	540000e3 	b.cc	5508 <raw_realloc+0x44>  // b.lo, b.ul, b.last
/media/home/beste/01_Pro/ld25x/bsp_hu/MYD-LD25X-Uboot-L2022.10-V1.0.0/GEN_FIP/myir-st-optee/lib/libutils/isoc/bget_malloc.c:493
    54f0:	8b020273 	add	x19, x19, x2
    54f4:	aa0003f5 	mov	x21, x0
    54f8:	d2f00000 	mov	x0, #0x8000000000000000    	// #-9223372036854775808
    54fc:	8b000260 	add	x0, x19, x0
    5500:	eb02001f 	cmp	x0, x2
    5504:	54000142 	b.cs	552c <raw_realloc+0x68>  // b.hs, b.nlast
/media/home/beste/01_Pro/ld25x/bsp_hu/MYD-LD25X-Uboot-L2022.10-V1.0.0/GEN_FIP/myir-st-optee/lib/libutils/isoc/bget_malloc.c:487
    5508:	d2800014 	mov	x20, #0x0                   	// #0
/media/home/beste/01_Pro/ld25x/bsp_hu/MYD-LD25X-Uboot-L2022.10-V1.0.0/GEN_FIP/myir-st-optee/lib/libutils/isoc/bget_malloc.c:522
    550c:	a9425bf5 	ldp	x21, x22, [sp, #32]
/media/home/beste/01_Pro/ld25x/bsp_hu/MYD-LD25X-Uboot-L2022.10-V1.0.0/GEN_FIP/myir-st-optee/lib/libutils/isoc/bget_malloc.c:521
    5510:	aa1803e2 	mov	x2, x24
    5514:	aa1703e1 	mov	x1, x23
    5518:	aa1403e0 	mov	x0, x20
/media/home/beste/01_Pro/ld25x/bsp_hu/MYD-LD25X-Uboot-L2022.10-V1.0.0/GEN_FIP/myir-st-optee/lib/libutils/isoc/bget_malloc.c:522
    551c:	a94153f3 	ldp	x19, x20, [sp, #16]
    5520:	a94363f7 	ldp	x23, x24, [sp, #48]
    5524:	a8c47bfd 	ldp	x29, x30, [sp], #64
/media/home/beste/01_Pro/ld25x/bsp_hu/MYD-LD25X-Uboot-L2022.10-V1.0.0/GEN_FIP/myir-st-optee/lib/libutils/isoc/bget_malloc.c:521
    5528:	17fffdeb 	b	4cd4 <raw_malloc_return_hook>
/media/home/beste/01_Pro/ld25x/bsp_hu/MYD-LD25X-Uboot-L2022.10-V1.0.0/GEN_FIP/myir-st-optee/lib/libutils/isoc/bget_malloc.c:500
    552c:	f100027f 	cmp	x19, #0x0
/media/home/beste/01_Pro/ld25x/bsp_hu/MYD-LD25X-Uboot-L2022.10-V1.0.0/GEN_FIP/myir-st-optee/lib/libutils/isoc/bget_malloc.c:502
    5530:	aa0403e3 	mov	x3, x4
/media/home/beste/01_Pro/ld25x/bsp_hu/MYD-LD25X-Uboot-L2022.10-V1.0.0/GEN_FIP/myir-st-optee/lib/libutils/isoc/bget_malloc.c:500
    5534:	9a9f1673 	csinc	x19, x19, xzr, ne	// ne = any
/media/home/beste/01_Pro/ld25x/bsp_hu/MYD-LD25X-Uboot-L2022.10-V1.0.0/GEN_FIP/myir-st-optee/lib/libutils/isoc/bget_malloc.c:502
    5538:	d2800001 	mov	x1, #0x0                   	// #0
    553c:	aa1303e2 	mov	x2, x19
    5540:	d2800000 	mov	x0, #0x0                   	// #0
    5544:	97fffe00 	bl	4d44 <bget>
/media/home/beste/01_Pro/ld25x/bsp_hu/MYD-LD25X-Uboot-L2022.10-V1.0.0/GEN_FIP/myir-st-optee/lib/libutils/isoc/bget_malloc.c:504
    5548:	f100001f 	cmp	x0, #0x0
/media/home/beste/01_Pro/ld25x/bsp_hu/MYD-LD25X-Uboot-L2022.10-V1.0.0/GEN_FIP/myir-st-optee/lib/libutils/isoc/bget_malloc.c:502
    554c:	aa0003f4 	mov	x20, x0
/media/home/beste/01_Pro/ld25x/bsp_hu/MYD-LD25X-Uboot-L2022.10-V1.0.0/GEN_FIP/myir-st-optee/lib/libutils/isoc/bget_malloc.c:504
    5550:	fa401aa4 	ccmp	x21, #0x0, #0x4, ne	// ne = any
    5554:	54fffdc0 	b.eq	550c <raw_realloc+0x48>  // b.none
bget_buf_size():
/media/home/beste/01_Pro/ld25x/bsp_hu/MYD-LD25X-Uboot-L2022.10-V1.0.0/GEN_FIP/myir-st-optee/lib/libutils/isoc/bget_malloc.c:207
    5558:	f85f82a1 	ldur	x1, [x21, #-8]
    555c:	928001f6 	mov	x22, #0xfffffffffffffff0    	// #-16
    5560:	cb0102d6 	sub	x22, x22, x1
/media/home/beste/01_Pro/ld25x/bsp_hu/MYD-LD25X-Uboot-L2022.10-V1.0.0/GEN_FIP/myir-st-optee/lib/libutils/isoc/bget_malloc.c:208
    5564:	f10002df 	cmp	x22, #0x0
    5568:	5400004c 	b.gt	5570 <raw_realloc+0xac>
    556c:	97fffdec 	bl	4d1c <bget_buf_size.part.0>
raw_realloc():
/media/home/beste/01_Pro/ld25x/bsp_hu/MYD-LD25X-Uboot-L2022.10-V1.0.0/GEN_FIP/myir-st-optee/lib/libutils/isoc/bget_malloc.c:508
    5570:	eb16027f 	cmp	x19, x22
    5574:	540001ad 	b.le	55a8 <raw_realloc+0xe4>
/media/home/beste/01_Pro/ld25x/bsp_hu/MYD-LD25X-Uboot-L2022.10-V1.0.0/GEN_FIP/myir-st-optee/lib/libutils/isoc/bget_malloc.c:509
    5578:	aa1603e2 	mov	x2, x22
    557c:	aa1503e1 	mov	x1, x21
    5580:	97ffeabc 	bl	70 <memcpy>
/media/home/beste/01_Pro/ld25x/bsp_hu/MYD-LD25X-Uboot-L2022.10-V1.0.0/GEN_FIP/myir-st-optee/lib/libutils/isoc/bget_malloc.c:512
    5584:	cb160262 	sub	x2, x19, x22
    5588:	8b160280 	add	x0, x20, x22
    558c:	52800001 	mov	w1, #0x0                   	// #0
    5590:	9400008b 	bl	57bc <memset>
/media/home/beste/01_Pro/ld25x/bsp_hu/MYD-LD25X-Uboot-L2022.10-V1.0.0/GEN_FIP/myir-st-optee/lib/libutils/isoc/bget_malloc.c:518
    5594:	aa1803e1 	mov	x1, x24
    5598:	aa1503e0 	mov	x0, x21
    559c:	52800002 	mov	w2, #0x0                   	// #0
    55a0:	97fffec0 	bl	50a0 <brel>
    55a4:	17ffffda 	b	550c <raw_realloc+0x48>
/media/home/beste/01_Pro/ld25x/bsp_hu/MYD-LD25X-Uboot-L2022.10-V1.0.0/GEN_FIP/myir-st-optee/lib/libutils/isoc/bget_malloc.c:515
    55a8:	aa1303e2 	mov	x2, x19
    55ac:	aa1503e1 	mov	x1, x21
    55b0:	97ffeab0 	bl	70 <memcpy>
    55b4:	17fffff8 	b	5594 <raw_realloc+0xd0>

00000000000055b8 <gen_malloc_add_pool>:
gen_malloc_add_pool():
/media/home/beste/01_Pro/ld25x/bsp_hu/MYD-LD25X-Uboot-L2022.10-V1.0.0/GEN_FIP/myir-st-optee/lib/libutils/isoc/bget_malloc.c:867
    55b8:	a9bd7bfd 	stp	x29, x30, [sp, #-48]!
    55bc:	910003fd 	mov	x29, sp
    55c0:	a90153f3 	stp	x19, x20, [sp, #16]
/media/home/beste/01_Pro/ld25x/bsp_hu/MYD-LD25X-Uboot-L2022.10-V1.0.0/GEN_FIP/myir-st-optee/lib/libutils/isoc/bget_malloc.c:872
    55c4:	8b020034 	add	x20, x1, x2
/media/home/beste/01_Pro/ld25x/bsp_hu/MYD-LD25X-Uboot-L2022.10-V1.0.0/GEN_FIP/myir-st-optee/lib/libutils/isoc/bget_malloc.c:875
    55c8:	91003c21 	add	x1, x1, #0xf
/media/home/beste/01_Pro/ld25x/bsp_hu/MYD-LD25X-Uboot-L2022.10-V1.0.0/GEN_FIP/myir-st-optee/lib/libutils/isoc/bget_malloc.c:876
    55cc:	927cee94 	and	x20, x20, #0xfffffffffffffff0
/media/home/beste/01_Pro/ld25x/bsp_hu/MYD-LD25X-Uboot-L2022.10-V1.0.0/GEN_FIP/myir-st-optee/lib/libutils/isoc/bget_malloc.c:867
    55d0:	a9025bf5 	stp	x21, x22, [sp, #32]
/media/home/beste/01_Pro/ld25x/bsp_hu/MYD-LD25X-Uboot-L2022.10-V1.0.0/GEN_FIP/myir-st-optee/lib/libutils/isoc/bget_malloc.c:875
    55d4:	927cec35 	and	x21, x1, #0xfffffffffffffff0
/media/home/beste/01_Pro/ld25x/bsp_hu/MYD-LD25X-Uboot-L2022.10-V1.0.0/GEN_FIP/myir-st-optee/lib/libutils/isoc/bget_malloc.c:878
    55d8:	eb1402bf 	cmp	x21, x20
    55dc:	540004e8 	b.hi	5678 <gen_malloc_add_pool+0xc0>  // b.pmore
/media/home/beste/01_Pro/ld25x/bsp_hu/MYD-LD25X-Uboot-L2022.10-V1.0.0/GEN_FIP/myir-st-optee/lib/libutils/isoc/bget_malloc.c:878 (discriminator 1)
    55e0:	cb150294 	sub	x20, x20, x21
    55e4:	f100be9f 	cmp	x20, #0x2f
    55e8:	54000489 	b.ls	5678 <gen_malloc_add_pool+0xc0>  // b.plast
    55ec:	aa0003f3 	mov	x19, x0
/media/home/beste/01_Pro/ld25x/bsp_hu/MYD-LD25X-Uboot-L2022.10-V1.0.0/GEN_FIP/myir-st-optee/lib/libutils/isoc/bget_malloc.c:884
    55f0:	f9402000 	ldr	x0, [x0, #64]
    55f4:	b5000060 	cbnz	x0, 5600 <gen_malloc_add_pool+0x48>
/media/home/beste/01_Pro/ld25x/bsp_hu/MYD-LD25X-Uboot-L2022.10-V1.0.0/GEN_FIP/myir-st-optee/lib/libutils/isoc/bget_malloc.c:884 (discriminator 1)
    55f8:	f10ffe9f 	cmp	x20, #0x3ff
    55fc:	540003e9 	b.ls	5678 <gen_malloc_add_pool+0xc0>  // b.plast
/media/home/beste/01_Pro/ld25x/bsp_hu/MYD-LD25X-Uboot-L2022.10-V1.0.0/GEN_FIP/myir-st-optee/lib/libutils/isoc/bget_malloc.c:892
    5600:	aa1303e2 	mov	x2, x19
    5604:	aa1403e1 	mov	x1, x20
    5608:	aa1503e0 	mov	x0, x21
    560c:	97ffff48 	bl	532c <bpool>
/media/home/beste/01_Pro/ld25x/bsp_hu/MYD-LD25X-Uboot-L2022.10-V1.0.0/GEN_FIP/myir-st-optee/lib/libutils/isoc/bget_malloc.c:893
    5610:	a943da60 	ldp	x0, x22, [x19, #56]
realloc_unlocked():
/media/home/beste/01_Pro/ld25x/bsp_hu/MYD-LD25X-Uboot-L2022.10-V1.0.0/GEN_FIP/myir-st-optee/lib/libutils/isoc/bget_malloc.c:815
    5614:	aa1303e4 	mov	x4, x19
    5618:	d2800002 	mov	x2, #0x0                   	// #0
    561c:	d2800001 	mov	x1, #0x0                   	// #0
gen_malloc_add_pool():
/media/home/beste/01_Pro/ld25x/bsp_hu/MYD-LD25X-Uboot-L2022.10-V1.0.0/GEN_FIP/myir-st-optee/lib/libutils/isoc/bget_malloc.c:893
    5620:	910006d6 	add	x22, x22, #0x1
realloc_unlocked():
/media/home/beste/01_Pro/ld25x/bsp_hu/MYD-LD25X-Uboot-L2022.10-V1.0.0/GEN_FIP/myir-st-optee/lib/libutils/isoc/bget_malloc.c:815
    5624:	d37ceec3 	lsl	x3, x22, #4
    5628:	97ffffa7 	bl	54c4 <raw_realloc>
gen_malloc_add_pool():
/media/home/beste/01_Pro/ld25x/bsp_hu/MYD-LD25X-Uboot-L2022.10-V1.0.0/GEN_FIP/myir-st-optee/lib/libutils/isoc/bget_malloc.c:895
    562c:	b5000120 	cbnz	x0, 5650 <gen_malloc_add_pool+0x98>
/media/home/beste/01_Pro/ld25x/bsp_hu/MYD-LD25X-Uboot-L2022.10-V1.0.0/GEN_FIP/myir-st-optee/lib/libutils/isoc/bget_malloc.c:895 (discriminator 1)
    5630:	d0000003 	adrp	x3, 7000 <trace_ext_prefix+0x6bc>
    5634:	d0000001 	adrp	x1, 7000 <trace_ext_prefix+0x6bc>
    5638:	b0000000 	adrp	x0, 6000 <kprintf.constprop.0+0x68c>
    563c:	91246063 	add	x3, x3, #0x918
    5640:	9119c421 	add	x1, x1, #0x671
    5644:	91267c00 	add	x0, x0, #0x99f
    5648:	52806fe2 	mov	w2, #0x37f                 	// #895
    564c:	97fffdb0 	bl	4d0c <_assert_trap>
/media/home/beste/01_Pro/ld25x/bsp_hu/MYD-LD25X-Uboot-L2022.10-V1.0.0/GEN_FIP/myir-st-optee/lib/libutils/isoc/bget_malloc.c:897
    5650:	f9402261 	ldr	x1, [x19, #64]
/media/home/beste/01_Pro/ld25x/bsp_hu/MYD-LD25X-Uboot-L2022.10-V1.0.0/GEN_FIP/myir-st-optee/lib/libutils/isoc/bget_malloc.c:896
    5654:	f9001e60 	str	x0, [x19, #56]
/media/home/beste/01_Pro/ld25x/bsp_hu/MYD-LD25X-Uboot-L2022.10-V1.0.0/GEN_FIP/myir-st-optee/lib/libutils/isoc/bget_malloc.c:897
    5658:	d37cec22 	lsl	x2, x1, #4
    565c:	8b011001 	add	x1, x0, x1, lsl #4
    5660:	f8226815 	str	x21, [x0, x2]
/media/home/beste/01_Pro/ld25x/bsp_hu/MYD-LD25X-Uboot-L2022.10-V1.0.0/GEN_FIP/myir-st-optee/lib/libutils/isoc/bget_malloc.c:900
    5664:	b9407260 	ldr	w0, [x19, #112]
/media/home/beste/01_Pro/ld25x/bsp_hu/MYD-LD25X-Uboot-L2022.10-V1.0.0/GEN_FIP/myir-st-optee/lib/libutils/isoc/bget_malloc.c:898
    5668:	f9000434 	str	x20, [x1, #8]
/media/home/beste/01_Pro/ld25x/bsp_hu/MYD-LD25X-Uboot-L2022.10-V1.0.0/GEN_FIP/myir-st-optee/lib/libutils/isoc/bget_malloc.c:900
    566c:	0b140000 	add	w0, w0, w20
/media/home/beste/01_Pro/ld25x/bsp_hu/MYD-LD25X-Uboot-L2022.10-V1.0.0/GEN_FIP/myir-st-optee/lib/libutils/isoc/bget_malloc.c:902
    5670:	f9002276 	str	x22, [x19, #64]
/media/home/beste/01_Pro/ld25x/bsp_hu/MYD-LD25X-Uboot-L2022.10-V1.0.0/GEN_FIP/myir-st-optee/lib/libutils/isoc/bget_malloc.c:900
    5674:	b9007260 	str	w0, [x19, #112]
/media/home/beste/01_Pro/ld25x/bsp_hu/MYD-LD25X-Uboot-L2022.10-V1.0.0/GEN_FIP/myir-st-optee/lib/libutils/isoc/bget_malloc.c:904
    5678:	a94153f3 	ldp	x19, x20, [sp, #16]
    567c:	a9425bf5 	ldp	x21, x22, [sp, #32]
    5680:	a8c37bfd 	ldp	x29, x30, [sp], #48
    5684:	d65f03c0 	ret

0000000000005688 <malloc>:
malloc():
/media/home/beste/01_Pro/ld25x/bsp_hu/MYD-LD25X-Uboot-L2022.10-V1.0.0/GEN_FIP/myir-st-optee/lib/libutils/isoc/bget_malloc.c:789
    5688:	aa0003e2 	mov	x2, x0
    568c:	f0000003 	adrp	x3, 8000 <_DYNAMIC>
    5690:	d2800001 	mov	x1, #0x0                   	// #0
    5694:	9105c063 	add	x3, x3, #0x170
    5698:	d2800000 	mov	x0, #0x0                   	// #0
    569c:	17ffff55 	b	53f0 <raw_malloc>

00000000000056a0 <calloc>:
calloc():
/media/home/beste/01_Pro/ld25x/bsp_hu/MYD-LD25X-Uboot-L2022.10-V1.0.0/GEN_FIP/myir-st-optee/lib/libutils/isoc/bget_malloc.c:807
    56a0:	aa0103e3 	mov	x3, x1
    56a4:	aa0003e2 	mov	x2, x0
    56a8:	f0000004 	adrp	x4, 8000 <_DYNAMIC>
    56ac:	d2800001 	mov	x1, #0x0                   	// #0
    56b0:	9105c084 	add	x4, x4, #0x170
    56b4:	d2800000 	mov	x0, #0x0                   	// #0
    56b8:	17ffff67 	b	5454 <raw_calloc>

00000000000056bc <realloc>:
realloc_unlocked():
/media/home/beste/01_Pro/ld25x/bsp_hu/MYD-LD25X-Uboot-L2022.10-V1.0.0/GEN_FIP/myir-st-optee/lib/libutils/isoc/bget_malloc.c:815
    56bc:	aa0103e3 	mov	x3, x1
    56c0:	f0000004 	adrp	x4, 8000 <_DYNAMIC>
    56c4:	d2800002 	mov	x2, #0x0                   	// #0
    56c8:	9105c084 	add	x4, x4, #0x170
    56cc:	d2800001 	mov	x1, #0x0                   	// #0
    56d0:	17ffff7d 	b	54c4 <raw_realloc>

00000000000056d4 <free>:
free_helper():
/media/home/beste/01_Pro/ld25x/bsp_hu/MYD-LD25X-Uboot-L2022.10-V1.0.0/GEN_FIP/myir-st-optee/lib/libutils/isoc/bget_malloc.c:798
    56d4:	52800002 	mov	w2, #0x0                   	// #0
    56d8:	f0000001 	adrp	x1, 8000 <_DYNAMIC>
    56dc:	9105c021 	add	x1, x1, #0x170
    56e0:	17ffff59 	b	5444 <raw_free>

00000000000056e4 <malloc_add_pool>:
malloc_add_pool():
/media/home/beste/01_Pro/ld25x/bsp_hu/MYD-LD25X-Uboot-L2022.10-V1.0.0/GEN_FIP/myir-st-optee/lib/libutils/isoc/bget_malloc.c:999
    56e4:	aa0103e2 	mov	x2, x1
    56e8:	aa0003e1 	mov	x1, x0
    56ec:	f0000000 	adrp	x0, 8000 <_DYNAMIC>
    56f0:	9105c000 	add	x0, x0, #0x170
    56f4:	17ffffb1 	b	55b8 <gen_malloc_add_pool>

00000000000056f8 <isxdigit>:
isxdigit():
/media/home/beste/01_Pro/ld25x/bsp_hu/MYD-LD25X-Uboot-L2022.10-V1.0.0/GEN_FIP/myir-st-optee/lib/libutils/isoc/isxdigit.c:9
    56f8:	5100c001 	sub	w1, w0, #0x30
    56fc:	7100243f 	cmp	w1, #0x9
    5700:	540000c9 	b.ls	5718 <isxdigit+0x20>  // b.plast
/media/home/beste/01_Pro/ld25x/bsp_hu/MYD-LD25X-Uboot-L2022.10-V1.0.0/GEN_FIP/myir-st-optee/lib/libutils/isoc/isxdigit.c:11
    5704:	121a7800 	and	w0, w0, #0xffffffdf
    5708:	51010400 	sub	w0, w0, #0x41
    570c:	7100141f 	cmp	w0, #0x5
    5710:	1a9f87e0 	cset	w0, ls	// ls = plast
/media/home/beste/01_Pro/ld25x/bsp_hu/MYD-LD25X-Uboot-L2022.10-V1.0.0/GEN_FIP/myir-st-optee/lib/libutils/isoc/isxdigit.c:16
    5714:	d65f03c0 	ret
/media/home/beste/01_Pro/ld25x/bsp_hu/MYD-LD25X-Uboot-L2022.10-V1.0.0/GEN_FIP/myir-st-optee/lib/libutils/isoc/isxdigit.c:10
    5718:	52800020 	mov	w0, #0x1                   	// #1
    571c:	17fffffe 	b	5714 <isxdigit+0x1c>

0000000000005720 <snprintf>:
snprintf():
/media/home/beste/01_Pro/ld25x/bsp_hu/MYD-LD25X-Uboot-L2022.10-V1.0.0/GEN_FIP/myir-st-optee/lib/libutils/isoc/snprintf.c:10
    5720:	a9b87bfd 	stp	x29, x30, [sp, #-128]!
    5724:	910003fd 	mov	x29, sp
    5728:	a90593e3 	stp	x3, x4, [sp, #88]
/media/home/beste/01_Pro/ld25x/bsp_hu/MYD-LD25X-Uboot-L2022.10-V1.0.0/GEN_FIP/myir-st-optee/lib/libutils/isoc/snprintf.c:14
    572c:	910203e3 	add	x3, sp, #0x80
    5730:	a9030fe3 	stp	x3, x3, [sp, #48]
    5734:	910143e3 	add	x3, sp, #0x50
    5738:	f90023e3 	str	x3, [sp, #64]
    573c:	128004e3 	mov	w3, #0xffffffd8            	// #-40
    5740:	b9004be3 	str	w3, [sp, #72]
/media/home/beste/01_Pro/ld25x/bsp_hu/MYD-LD25X-Uboot-L2022.10-V1.0.0/GEN_FIP/myir-st-optee/lib/libutils/isoc/snprintf.c:15
    5744:	910043e3 	add	x3, sp, #0x10
/media/home/beste/01_Pro/ld25x/bsp_hu/MYD-LD25X-Uboot-L2022.10-V1.0.0/GEN_FIP/myir-st-optee/lib/libutils/isoc/snprintf.c:14
    5748:	b9004fff 	str	wzr, [sp, #76]
/media/home/beste/01_Pro/ld25x/bsp_hu/MYD-LD25X-Uboot-L2022.10-V1.0.0/GEN_FIP/myir-st-optee/lib/libutils/isoc/snprintf.c:10
    574c:	a9069be5 	stp	x5, x6, [sp, #104]
/media/home/beste/01_Pro/ld25x/bsp_hu/MYD-LD25X-Uboot-L2022.10-V1.0.0/GEN_FIP/myir-st-optee/lib/libutils/isoc/snprintf.c:15
    5750:	a94317e4 	ldp	x4, x5, [sp, #48]
    5754:	a90117e4 	stp	x4, x5, [sp, #16]
    5758:	a94417e4 	ldp	x4, x5, [sp, #64]
    575c:	a90217e4 	stp	x4, x5, [sp, #32]
/media/home/beste/01_Pro/ld25x/bsp_hu/MYD-LD25X-Uboot-L2022.10-V1.0.0/GEN_FIP/myir-st-optee/lib/libutils/isoc/snprintf.c:10
    5760:	f9003fe7 	str	x7, [sp, #120]
/media/home/beste/01_Pro/ld25x/bsp_hu/MYD-LD25X-Uboot-L2022.10-V1.0.0/GEN_FIP/myir-st-optee/lib/libutils/isoc/snprintf.c:15
    5764:	52800004 	mov	w4, #0x0                   	// #0
    5768:	94000035 	bl	583c <__vsnprintf>
/media/home/beste/01_Pro/ld25x/bsp_hu/MYD-LD25X-Uboot-L2022.10-V1.0.0/GEN_FIP/myir-st-optee/lib/libutils/isoc/snprintf.c:19
    576c:	a8c87bfd 	ldp	x29, x30, [sp], #128
    5770:	d65f03c0 	ret

0000000000005774 <tolower>:
tolower():
/media/home/beste/01_Pro/ld25x/bsp_hu/MYD-LD25X-Uboot-L2022.10-V1.0.0/GEN_FIP/myir-st-optee/lib/libutils/isoc/tolower.c:9
    5774:	51010401 	sub	w1, w0, #0x41
    5778:	7100643f 	cmp	w1, #0x19
    577c:	54000048 	b.hi	5784 <tolower+0x10>  // b.pmore
/media/home/beste/01_Pro/ld25x/bsp_hu/MYD-LD25X-Uboot-L2022.10-V1.0.0/GEN_FIP/myir-st-optee/lib/libutils/isoc/tolower.c:10
    5780:	11008000 	add	w0, w0, #0x20
/media/home/beste/01_Pro/ld25x/bsp_hu/MYD-LD25X-Uboot-L2022.10-V1.0.0/GEN_FIP/myir-st-optee/lib/libutils/isoc/tolower.c:12
    5784:	d65f03c0 	ret

0000000000005788 <memcmp>:
memcmp():
/media/home/beste/01_Pro/ld25x/bsp_hu/MYD-LD25X-Uboot-L2022.10-V1.0.0/GEN_FIP/myir-st-optee/lib/libutils/isoc/newlib/memcmp.c:91
    5788:	d1000421 	sub	x1, x1, #0x1
/media/home/beste/01_Pro/ld25x/bsp_hu/MYD-LD25X-Uboot-L2022.10-V1.0.0/GEN_FIP/myir-st-optee/lib/libutils/isoc/newlib/memcmp.c:90
    578c:	d2800004 	mov	x4, #0x0                   	// #0
    5790:	eb04005f 	cmp	x2, x4
    5794:	54000061 	b.ne	57a0 <memcmp+0x18>  // b.any
/media/home/beste/01_Pro/ld25x/bsp_hu/MYD-LD25X-Uboot-L2022.10-V1.0.0/GEN_FIP/myir-st-optee/lib/libutils/isoc/newlib/memcmp.c:96
    5798:	52800000 	mov	w0, #0x0                   	// #0
    579c:	14000007 	b	57b8 <memcmp+0x30>
/media/home/beste/01_Pro/ld25x/bsp_hu/MYD-LD25X-Uboot-L2022.10-V1.0.0/GEN_FIP/myir-st-optee/lib/libutils/isoc/newlib/memcmp.c:91
    57a0:	38646803 	ldrb	w3, [x0, x4]
    57a4:	91000484 	add	x4, x4, #0x1
    57a8:	38646825 	ldrb	w5, [x1, x4]
    57ac:	6b05007f 	cmp	w3, w5
    57b0:	54ffff00 	b.eq	5790 <memcmp+0x8>  // b.none
/media/home/beste/01_Pro/ld25x/bsp_hu/MYD-LD25X-Uboot-L2022.10-V1.0.0/GEN_FIP/myir-st-optee/lib/libutils/isoc/newlib/memcmp.c:92
    57b4:	4b050060 	sub	w0, w3, w5
/media/home/beste/01_Pro/ld25x/bsp_hu/MYD-LD25X-Uboot-L2022.10-V1.0.0/GEN_FIP/myir-st-optee/lib/libutils/isoc/newlib/memcmp.c:136
    57b8:	d65f03c0 	ret

00000000000057bc <memset>:
memset():
/media/home/beste/01_Pro/ld25x/bsp_hu/MYD-LD25X-Uboot-L2022.10-V1.0.0/GEN_FIP/myir-st-optee/lib/libutils/isoc/newlib/memset.c:125
    57bc:	d2800003 	mov	x3, #0x0                   	// #0
    57c0:	eb03005f 	cmp	x2, x3
    57c4:	54000041 	b.ne	57cc <memset+0x10>  // b.any
/media/home/beste/01_Pro/ld25x/bsp_hu/MYD-LD25X-Uboot-L2022.10-V1.0.0/GEN_FIP/myir-st-optee/lib/libutils/isoc/newlib/memset.c:129
    57c8:	d65f03c0 	ret
/media/home/beste/01_Pro/ld25x/bsp_hu/MYD-LD25X-Uboot-L2022.10-V1.0.0/GEN_FIP/myir-st-optee/lib/libutils/isoc/newlib/memset.c:126
    57cc:	38236801 	strb	w1, [x0, x3]
    57d0:	91000463 	add	x3, x3, #0x1
    57d4:	17fffffb 	b	57c0 <memset+0x4>

00000000000057d8 <strcmp>:
strcmp():
/media/home/beste/01_Pro/ld25x/bsp_hu/MYD-LD25X-Uboot-L2022.10-V1.0.0/GEN_FIP/myir-st-optee/lib/libutils/isoc/newlib/strcmp.c:99
    57d8:	d2800002 	mov	x2, #0x0                   	// #0
    57dc:	38626803 	ldrb	w3, [x0, x2]
    57e0:	38626824 	ldrb	w4, [x1, x2]
    57e4:	34000083 	cbz	w3, 57f4 <strcmp+0x1c>
/media/home/beste/01_Pro/ld25x/bsp_hu/MYD-LD25X-Uboot-L2022.10-V1.0.0/GEN_FIP/myir-st-optee/lib/libutils/isoc/newlib/strcmp.c:99 (discriminator 1)
    57e8:	91000442 	add	x2, x2, #0x1
    57ec:	6b04007f 	cmp	w3, w4
    57f0:	54ffff60 	b.eq	57dc <strcmp+0x4>  // b.none
/media/home/beste/01_Pro/ld25x/bsp_hu/MYD-LD25X-Uboot-L2022.10-V1.0.0/GEN_FIP/myir-st-optee/lib/libutils/isoc/newlib/strcmp.c:142
    57f4:	4b040060 	sub	w0, w3, w4
    57f8:	d65f03c0 	ret

00000000000057fc <strcpy>:
strcpy():
/media/home/beste/01_Pro/ld25x/bsp_hu/MYD-LD25X-Uboot-L2022.10-V1.0.0/GEN_FIP/myir-st-optee/lib/libutils/isoc/newlib/strcpy.c:101
    57fc:	d2800002 	mov	x2, #0x0                   	// #0
/media/home/beste/01_Pro/ld25x/bsp_hu/MYD-LD25X-Uboot-L2022.10-V1.0.0/GEN_FIP/myir-st-optee/lib/libutils/isoc/newlib/strcpy.c:101 (discriminator 1)
    5800:	38626823 	ldrb	w3, [x1, x2]
    5804:	38226803 	strb	w3, [x0, x2]
    5808:	91000442 	add	x2, x2, #0x1
    580c:	35ffffa3 	cbnz	w3, 5800 <strcpy+0x4>
/media/home/beste/01_Pro/ld25x/bsp_hu/MYD-LD25X-Uboot-L2022.10-V1.0.0/GEN_FIP/myir-st-optee/lib/libutils/isoc/newlib/strcpy.c:132
    5810:	d65f03c0 	ret

0000000000005814 <strnlen>:
strnlen():
/media/home/beste/01_Pro/ld25x/bsp_hu/MYD-LD25X-Uboot-L2022.10-V1.0.0/GEN_FIP/myir-st-optee/lib/libutils/isoc/newlib/strnlen.c:77
    5814:	8b010001 	add	x1, x0, x1
    5818:	aa0003e2 	mov	x2, x0
    581c:	eb01005f 	cmp	x2, x1
    5820:	54000060 	b.eq	582c <strnlen+0x18>  // b.none
/media/home/beste/01_Pro/ld25x/bsp_hu/MYD-LD25X-Uboot-L2022.10-V1.0.0/GEN_FIP/myir-st-optee/lib/libutils/isoc/newlib/strnlen.c:77 (discriminator 1)
    5824:	39400043 	ldrb	w3, [x2]
    5828:	35000063 	cbnz	w3, 5834 <strnlen+0x20>
/media/home/beste/01_Pro/ld25x/bsp_hu/MYD-LD25X-Uboot-L2022.10-V1.0.0/GEN_FIP/myir-st-optee/lib/libutils/isoc/newlib/strnlen.c:80
    582c:	cb000040 	sub	x0, x2, x0
/media/home/beste/01_Pro/ld25x/bsp_hu/MYD-LD25X-Uboot-L2022.10-V1.0.0/GEN_FIP/myir-st-optee/lib/libutils/isoc/newlib/strnlen.c:81
    5830:	d65f03c0 	ret
/media/home/beste/01_Pro/ld25x/bsp_hu/MYD-LD25X-Uboot-L2022.10-V1.0.0/GEN_FIP/myir-st-optee/lib/libutils/isoc/newlib/strnlen.c:78
    5834:	91000442 	add	x2, x2, #0x1
    5838:	17fffff9 	b	581c <strnlen+0x8>

000000000000583c <__vsnprintf>:
__vsnprintf():
/media/home/beste/01_Pro/ld25x/bsp_hu/MYD-LD25X-Uboot-L2022.10-V1.0.0/GEN_FIP/myir-st-optee/lib/libutils/ext/snprintk.c:138
    583c:	a9b97bfd 	stp	x29, x30, [sp, #-112]!
/media/home/beste/01_Pro/ld25x/bsp_hu/MYD-LD25X-Uboot-L2022.10-V1.0.0/GEN_FIP/myir-st-optee/lib/libutils/ext/snprintk.c:143
    5840:	910103e5 	add	x5, sp, #0x40
/media/home/beste/01_Pro/ld25x/bsp_hu/MYD-LD25X-Uboot-L2022.10-V1.0.0/GEN_FIP/myir-st-optee/lib/libutils/ext/snprintk.c:138
    5844:	910003fd 	mov	x29, sp
    5848:	a90153f3 	stp	x19, x20, [sp, #16]
    584c:	aa0103f4 	mov	x20, x1
    5850:	aa0003f3 	mov	x19, x0
    5854:	aa0303e1 	mov	x1, x3
    5858:	a9025bf5 	stp	x21, x22, [sp, #32]
    585c:	aa0203f5 	mov	x21, x2
/media/home/beste/01_Pro/ld25x/bsp_hu/MYD-LD25X-Uboot-L2022.10-V1.0.0/GEN_FIP/myir-st-optee/lib/libutils/ext/snprintk.c:142
    5860:	8b140016 	add	x22, x0, x20
/media/home/beste/01_Pro/ld25x/bsp_hu/MYD-LD25X-Uboot-L2022.10-V1.0.0/GEN_FIP/myir-st-optee/lib/libutils/ext/snprintk.c:143
    5864:	d2800402 	mov	x2, #0x20                  	// #32
    5868:	aa0503e0 	mov	x0, x5
/media/home/beste/01_Pro/ld25x/bsp_hu/MYD-LD25X-Uboot-L2022.10-V1.0.0/GEN_FIP/myir-st-optee/lib/libutils/ext/snprintk.c:138
    586c:	f9001bf7 	str	x23, [sp, #48]
    5870:	12001c97 	and	w23, w4, #0xff
/media/home/beste/01_Pro/ld25x/bsp_hu/MYD-LD25X-Uboot-L2022.10-V1.0.0/GEN_FIP/myir-st-optee/lib/libutils/ext/snprintk.c:142
    5874:	f90037f6 	str	x22, [sp, #104]
/media/home/beste/01_Pro/ld25x/bsp_hu/MYD-LD25X-Uboot-L2022.10-V1.0.0/GEN_FIP/myir-st-optee/lib/libutils/ext/snprintk.c:143
    5878:	97ffe9fe 	bl	70 <memcpy>
    587c:	aa0003e3 	mov	x3, x0
    5880:	2a1703e4 	mov	w4, w23
    5884:	aa1303e2 	mov	x2, x19
    5888:	9101a3e1 	add	x1, sp, #0x68
    588c:	aa1503e0 	mov	x0, x21
    5890:	94000039 	bl	5974 <kprintf.constprop.0>
/media/home/beste/01_Pro/ld25x/bsp_hu/MYD-LD25X-Uboot-L2022.10-V1.0.0/GEN_FIP/myir-st-optee/lib/libutils/ext/snprintk.c:144
    5894:	f100027f 	cmp	x19, #0x0
    5898:	fa401a84 	ccmp	x20, #0x0, #0x4, ne	// ne = any
    589c:	540000a0 	b.eq	58b0 <__vsnprintf+0x74>  // b.none
/media/home/beste/01_Pro/ld25x/bsp_hu/MYD-LD25X-Uboot-L2022.10-V1.0.0/GEN_FIP/myir-st-optee/lib/libutils/ext/snprintk.c:146
    58a0:	93407c01 	sxtw	x1, w0
    58a4:	eb20c29f 	cmp	x20, w0, sxtw
    58a8:	540000e8 	b.hi	58c4 <__vsnprintf+0x88>  // b.pmore
/media/home/beste/01_Pro/ld25x/bsp_hu/MYD-LD25X-Uboot-L2022.10-V1.0.0/GEN_FIP/myir-st-optee/lib/libutils/ext/snprintk.c:147
    58ac:	381ff2df 	sturb	wzr, [x22, #-1]
/media/home/beste/01_Pro/ld25x/bsp_hu/MYD-LD25X-Uboot-L2022.10-V1.0.0/GEN_FIP/myir-st-optee/lib/libutils/ext/snprintk.c:152
    58b0:	a94153f3 	ldp	x19, x20, [sp, #16]
    58b4:	a9425bf5 	ldp	x21, x22, [sp, #32]
    58b8:	f9401bf7 	ldr	x23, [sp, #48]
    58bc:	a8c77bfd 	ldp	x29, x30, [sp], #112
    58c0:	d65f03c0 	ret
/media/home/beste/01_Pro/ld25x/bsp_hu/MYD-LD25X-Uboot-L2022.10-V1.0.0/GEN_FIP/myir-st-optee/lib/libutils/ext/snprintk.c:149
    58c4:	38216a7f 	strb	wzr, [x19, x1]
/media/home/beste/01_Pro/ld25x/bsp_hu/MYD-LD25X-Uboot-L2022.10-V1.0.0/GEN_FIP/myir-st-optee/lib/libutils/ext/snprintk.c:151
    58c8:	17fffffa 	b	58b0 <__vsnprintf+0x74>

00000000000058cc <vsnprintk>:
vsnprintk():
/media/home/beste/01_Pro/ld25x/bsp_hu/MYD-LD25X-Uboot-L2022.10-V1.0.0/GEN_FIP/myir-st-optee/lib/libutils/ext/snprintk.c:130
    58cc:	a9bb7bfd 	stp	x29, x30, [sp, #-80]!
/media/home/beste/01_Pro/ld25x/bsp_hu/MYD-LD25X-Uboot-L2022.10-V1.0.0/GEN_FIP/myir-st-optee/lib/libutils/ext/snprintk.c:131
    58d0:	9100c3e4 	add	x4, sp, #0x30
/media/home/beste/01_Pro/ld25x/bsp_hu/MYD-LD25X-Uboot-L2022.10-V1.0.0/GEN_FIP/myir-st-optee/lib/libutils/ext/snprintk.c:130
    58d4:	910003fd 	mov	x29, sp
    58d8:	a90153f3 	stp	x19, x20, [sp, #16]
    58dc:	aa0003f3 	mov	x19, x0
    58e0:	aa0103f4 	mov	x20, x1
/media/home/beste/01_Pro/ld25x/bsp_hu/MYD-LD25X-Uboot-L2022.10-V1.0.0/GEN_FIP/myir-st-optee/lib/libutils/ext/snprintk.c:131
    58e4:	aa0403e0 	mov	x0, x4
/media/home/beste/01_Pro/ld25x/bsp_hu/MYD-LD25X-Uboot-L2022.10-V1.0.0/GEN_FIP/myir-st-optee/lib/libutils/ext/snprintk.c:130
    58e8:	aa0303e1 	mov	x1, x3
    58ec:	f90013f5 	str	x21, [sp, #32]
    58f0:	aa0203f5 	mov	x21, x2
/media/home/beste/01_Pro/ld25x/bsp_hu/MYD-LD25X-Uboot-L2022.10-V1.0.0/GEN_FIP/myir-st-optee/lib/libutils/ext/snprintk.c:131
    58f4:	d2800402 	mov	x2, #0x20                  	// #32
    58f8:	97ffe9de 	bl	70 <memcpy>
    58fc:	aa1503e2 	mov	x2, x21
    5900:	aa0003e3 	mov	x3, x0
    5904:	aa1403e1 	mov	x1, x20
    5908:	aa1303e0 	mov	x0, x19
    590c:	52800024 	mov	w4, #0x1                   	// #1
    5910:	97ffffcb 	bl	583c <__vsnprintf>
/media/home/beste/01_Pro/ld25x/bsp_hu/MYD-LD25X-Uboot-L2022.10-V1.0.0/GEN_FIP/myir-st-optee/lib/libutils/ext/snprintk.c:132
    5914:	a94153f3 	ldp	x19, x20, [sp, #16]
    5918:	f94013f5 	ldr	x21, [sp, #32]
    591c:	a8c57bfd 	ldp	x29, x30, [sp], #80
    5920:	d65f03c0 	ret

0000000000005924 <snprintk>:
snprintk():
/media/home/beste/01_Pro/ld25x/bsp_hu/MYD-LD25X-Uboot-L2022.10-V1.0.0/GEN_FIP/myir-st-optee/lib/libutils/ext/snprintk.c:113
    5924:	a9b87bfd 	stp	x29, x30, [sp, #-128]!
    5928:	910003fd 	mov	x29, sp
    592c:	a90593e3 	stp	x3, x4, [sp, #88]
/media/home/beste/01_Pro/ld25x/bsp_hu/MYD-LD25X-Uboot-L2022.10-V1.0.0/GEN_FIP/myir-st-optee/lib/libutils/ext/snprintk.c:117
    5930:	910203e3 	add	x3, sp, #0x80
    5934:	a9030fe3 	stp	x3, x3, [sp, #48]
    5938:	910143e3 	add	x3, sp, #0x50
    593c:	f90023e3 	str	x3, [sp, #64]
    5940:	128004e3 	mov	w3, #0xffffffd8            	// #-40
    5944:	b9004be3 	str	w3, [sp, #72]
/media/home/beste/01_Pro/ld25x/bsp_hu/MYD-LD25X-Uboot-L2022.10-V1.0.0/GEN_FIP/myir-st-optee/lib/libutils/ext/snprintk.c:118
    5948:	910043e3 	add	x3, sp, #0x10
/media/home/beste/01_Pro/ld25x/bsp_hu/MYD-LD25X-Uboot-L2022.10-V1.0.0/GEN_FIP/myir-st-optee/lib/libutils/ext/snprintk.c:117
    594c:	b9004fff 	str	wzr, [sp, #76]
/media/home/beste/01_Pro/ld25x/bsp_hu/MYD-LD25X-Uboot-L2022.10-V1.0.0/GEN_FIP/myir-st-optee/lib/libutils/ext/snprintk.c:113
    5950:	a9069be5 	stp	x5, x6, [sp, #104]
/media/home/beste/01_Pro/ld25x/bsp_hu/MYD-LD25X-Uboot-L2022.10-V1.0.0/GEN_FIP/myir-st-optee/lib/libutils/ext/snprintk.c:118
    5954:	a94317e4 	ldp	x4, x5, [sp, #48]
    5958:	a90117e4 	stp	x4, x5, [sp, #16]
    595c:	a94417e4 	ldp	x4, x5, [sp, #64]
    5960:	a90217e4 	stp	x4, x5, [sp, #32]
/media/home/beste/01_Pro/ld25x/bsp_hu/MYD-LD25X-Uboot-L2022.10-V1.0.0/GEN_FIP/myir-st-optee/lib/libutils/ext/snprintk.c:113
    5964:	f9003fe7 	str	x7, [sp, #120]
/media/home/beste/01_Pro/ld25x/bsp_hu/MYD-LD25X-Uboot-L2022.10-V1.0.0/GEN_FIP/myir-st-optee/lib/libutils/ext/snprintk.c:118
    5968:	97ffffd9 	bl	58cc <vsnprintk>
/media/home/beste/01_Pro/ld25x/bsp_hu/MYD-LD25X-Uboot-L2022.10-V1.0.0/GEN_FIP/myir-st-optee/lib/libutils/ext/snprintk.c:122
    596c:	a8c87bfd 	ldp	x29, x30, [sp], #128
    5970:	d65f03c0 	ret

0000000000005974 <kprintf.constprop.0>:
kprintf():
/media/home/beste/01_Pro/ld25x/bsp_hu/MYD-LD25X-Uboot-L2022.10-V1.0.0/GEN_FIP/myir-st-optee/lib/libutils/ext/snprintk.c:242
    5974:	d103c3ff 	sub	sp, sp, #0xf0
    5978:	aa0103eb 	mov	x11, x1
    597c:	a9037bfd 	stp	x29, x30, [sp, #48]
    5980:	9100c3fd 	add	x29, sp, #0x30
    5984:	a90453f3 	stp	x19, x20, [sp, #64]
    5988:	b9401874 	ldr	w20, [x3, #24]
    598c:	a9055bf5 	stp	x21, x22, [sp, #80]
    5990:	aa0203f5 	mov	x21, x2
    5994:	a90663f7 	stp	x23, x24, [sp, #96]
    5998:	a9076bf9 	stp	x25, x26, [sp, #112]
    599c:	a90873fb 	stp	x27, x28, [sp, #128]
    59a0:	aa0003fc 	mov	x28, x0
    59a4:	12001c80 	and	w0, w4, #0xff
    59a8:	b900abe0 	str	w0, [sp, #168]
    59ac:	a9406c73 	ldp	x19, x27, [x3]
/media/home/beste/01_Pro/ld25x/bsp_hu/MYD-LD25X-Uboot-L2022.10-V1.0.0/GEN_FIP/myir-st-optee/lib/libutils/ext/snprintk.c:264
    59b0:	b4000421 	cbz	x1, 5a34 <kprintf.constprop.0+0xc0>
/media/home/beste/01_Pro/ld25x/bsp_hu/MYD-LD25X-Uboot-L2022.10-V1.0.0/GEN_FIP/myir-st-optee/lib/libutils/ext/snprintk.c:265
    59b4:	f9400039 	ldr	x25, [x1]
/media/home/beste/01_Pro/ld25x/bsp_hu/MYD-LD25X-Uboot-L2022.10-V1.0.0/GEN_FIP/myir-st-optee/lib/libutils/ext/snprintk.c:297
    59b8:	b0000018 	adrp	x24, 6000 <kprintf.constprop.0+0x68c>
/media/home/beste/01_Pro/ld25x/bsp_hu/MYD-LD25X-Uboot-L2022.10-V1.0.0/GEN_FIP/myir-st-optee/lib/libutils/ext/snprintk.c:275
    59bc:	d2800017 	mov	x23, #0x0                   	// #0
/media/home/beste/01_Pro/ld25x/bsp_hu/MYD-LD25X-Uboot-L2022.10-V1.0.0/GEN_FIP/myir-st-optee/lib/libutils/ext/snprintk.c:297
    59c0:	9120f300 	add	x0, x24, #0x83c
/media/home/beste/01_Pro/ld25x/bsp_hu/MYD-LD25X-Uboot-L2022.10-V1.0.0/GEN_FIP/myir-st-optee/lib/libutils/ext/snprintk.c:273
    59c4:	5280001a 	mov	w26, #0x0                   	// #0
/media/home/beste/01_Pro/ld25x/bsp_hu/MYD-LD25X-Uboot-L2022.10-V1.0.0/GEN_FIP/myir-st-optee/lib/libutils/ext/snprintk.c:297
    59c8:	f9004fe0 	str	x0, [sp, #152]
/media/home/beste/01_Pro/ld25x/bsp_hu/MYD-LD25X-Uboot-L2022.10-V1.0.0/GEN_FIP/myir-st-optee/lib/libutils/ext/snprintk.c:281
    59cc:	39400380 	ldrb	w0, [x28]
    59d0:	7100941f 	cmp	w0, #0x25
    59d4:	7a401804 	ccmp	w0, #0x0, #0x4, ne	// ne = any
    59d8:	54000321 	b.ne	5a3c <kprintf.constprop.0+0xc8>  // b.any
/media/home/beste/01_Pro/ld25x/bsp_hu/MYD-LD25X-Uboot-L2022.10-V1.0.0/GEN_FIP/myir-st-optee/lib/libutils/ext/snprintk.c:285
    59dc:	34004ea0 	cbz	w0, 63b0 <kprintf.constprop.0+0xa3c>
/media/home/beste/01_Pro/ld25x/bsp_hu/MYD-LD25X-Uboot-L2022.10-V1.0.0/GEN_FIP/myir-st-optee/lib/libutils/ext/snprintk.c:297
    59e0:	b0000002 	adrp	x2, 6000 <kprintf.constprop.0+0x68c>
/media/home/beste/01_Pro/ld25x/bsp_hu/MYD-LD25X-Uboot-L2022.10-V1.0.0/GEN_FIP/myir-st-optee/lib/libutils/ext/snprintk.c:288
    59e4:	9100079c 	add	x28, x28, #0x1
    59e8:	2a1403e4 	mov	w4, w20
    59ec:	aa1303e3 	mov	x3, x19
/media/home/beste/01_Pro/ld25x/bsp_hu/MYD-LD25X-Uboot-L2022.10-V1.0.0/GEN_FIP/myir-st-optee/lib/libutils/ext/snprintk.c:297
    59f0:	91202042 	add	x2, x2, #0x808
/media/home/beste/01_Pro/ld25x/bsp_hu/MYD-LD25X-Uboot-L2022.10-V1.0.0/GEN_FIP/myir-st-optee/lib/libutils/ext/snprintk.c:294
    59f4:	52800001 	mov	w1, #0x0                   	// #0
/media/home/beste/01_Pro/ld25x/bsp_hu/MYD-LD25X-Uboot-L2022.10-V1.0.0/GEN_FIP/myir-st-optee/lib/libutils/ext/snprintk.c:293
    59f8:	12800005 	mov	w5, #0xffffffff            	// #-1
/media/home/beste/01_Pro/ld25x/bsp_hu/MYD-LD25X-Uboot-L2022.10-V1.0.0/GEN_FIP/myir-st-optee/lib/libutils/ext/snprintk.c:292
    59fc:	5280000a 	mov	w10, #0x0                   	// #0
/media/home/beste/01_Pro/ld25x/bsp_hu/MYD-LD25X-Uboot-L2022.10-V1.0.0/GEN_FIP/myir-st-optee/lib/libutils/ext/snprintk.c:290
    5a00:	52800016 	mov	w22, #0x0                   	// #0
/media/home/beste/01_Pro/ld25x/bsp_hu/MYD-LD25X-Uboot-L2022.10-V1.0.0/GEN_FIP/myir-st-optee/lib/libutils/ext/snprintk.c:296
    5a04:	38401798 	ldrb	w24, [x28], #1
/media/home/beste/01_Pro/ld25x/bsp_hu/MYD-LD25X-Uboot-L2022.10-V1.0.0/GEN_FIP/myir-st-optee/lib/libutils/ext/snprintk.c:297
    5a08:	7100e71f 	cmp	w24, #0x39
    5a0c:	5400052c 	b.gt	5ab0 <kprintf.constprop.0+0x13c>
    5a10:	71007f1f 	cmp	w24, #0x1f
    5a14:	54004ccd 	b.le	63ac <kprintf.constprop.0+0xa38>
    5a18:	51008300 	sub	w0, w24, #0x20
    5a1c:	7100641f 	cmp	w0, #0x19
    5a20:	54004c68 	b.hi	63ac <kprintf.constprop.0+0xa38>  // b.pmore
    5a24:	78605840 	ldrh	w0, [x2, w0, uxtw #1]
    5a28:	10000066 	adr	x6, 5a34 <kprintf.constprop.0+0xc0>
    5a2c:	8b20a8c0 	add	x0, x6, w0, sxth #2
    5a30:	d61f0000 	br	x0
/media/home/beste/01_Pro/ld25x/bsp_hu/MYD-LD25X-Uboot-L2022.10-V1.0.0/GEN_FIP/myir-st-optee/lib/libutils/ext/snprintk.c:267
    5a34:	d2800019 	mov	x25, #0x0                   	// #0
    5a38:	17ffffe0 	b	59b8 <kprintf.constprop.0+0x44>
/media/home/beste/01_Pro/ld25x/bsp_hu/MYD-LD25X-Uboot-L2022.10-V1.0.0/GEN_FIP/myir-st-optee/lib/libutils/ext/snprintk.c:282
    5a3c:	1100075a 	add	w26, w26, #0x1
/media/home/beste/01_Pro/ld25x/bsp_hu/MYD-LD25X-Uboot-L2022.10-V1.0.0/GEN_FIP/myir-st-optee/lib/libutils/ext/snprintk.c:283
    5a40:	b40000b5 	cbz	x21, 5a54 <kprintf.constprop.0+0xe0>
    5a44:	f100017f 	cmp	x11, #0x0
    5a48:	fa5912a0 	ccmp	x21, x25, #0x0, ne	// ne = any
    5a4c:	54000042 	b.cs	5a54 <kprintf.constprop.0+0xe0>  // b.hs, b.nlast
    5a50:	380016a0 	strb	w0, [x21], #1
/media/home/beste/01_Pro/ld25x/bsp_hu/MYD-LD25X-Uboot-L2022.10-V1.0.0/GEN_FIP/myir-st-optee/lib/libutils/ext/snprintk.c:281
    5a54:	9100079c 	add	x28, x28, #0x1
    5a58:	17ffffdd 	b	59cc <kprintf.constprop.0+0x58>
/media/home/beste/01_Pro/ld25x/bsp_hu/MYD-LD25X-Uboot-L2022.10-V1.0.0/GEN_FIP/myir-st-optee/lib/libutils/ext/snprintk.c:297
    5a5c:	52800561 	mov	w1, #0x2b                  	// #43
    5a60:	17ffffe9 	b	5a04 <kprintf.constprop.0+0x90>
    5a64:	f9404fe6 	ldr	x6, [sp, #152]
    5a68:	786058c0 	ldrh	w0, [x6, w0, uxtw #1]
    5a6c:	10000066 	adr	x6, 5a78 <kprintf.constprop.0+0x104>
    5a70:	8b20a8c0 	add	x0, x6, w0, sxth #2
    5a74:	d61f0000 	br	x0
/media/home/beste/01_Pro/ld25x/bsp_hu/MYD-LD25X-Uboot-L2022.10-V1.0.0/GEN_FIP/myir-st-optee/lib/libutils/ext/snprintk.c:480
    5a78:	d0000017 	adrp	x23, 7000 <trace_ext_prefix+0x6bc>
    5a7c:	912666f7 	add	x23, x23, #0x999
/media/home/beste/01_Pro/ld25x/bsp_hu/MYD-LD25X-Uboot-L2022.10-V1.0.0/GEN_FIP/myir-st-optee/lib/libutils/ext/snprintk.c:481
    5a80:	363841d6 	tbz	w22, #7, 62b8 <kprintf.constprop.0+0x944>
    5a84:	37f84304 	tbnz	w4, #31, 62e4 <kprintf.constprop.0+0x970>
    5a88:	91003c73 	add	x19, x3, #0xf
    5a8c:	2a0403f4 	mov	w20, w4
    5a90:	927df273 	and	x19, x19, #0xfffffffffffffff8
    5a94:	f9400062 	ldr	x2, [x3]
/media/home/beste/01_Pro/ld25x/bsp_hu/MYD-LD25X-Uboot-L2022.10-V1.0.0/GEN_FIP/myir-st-optee/lib/libutils/ext/snprintk.c:484
    5a98:	360031f6 	tbz	w22, #0, 60d4 <kprintf.constprop.0+0x760>
    5a9c:	b40031c2 	cbz	x2, 60d4 <kprintf.constprop.0+0x760>
/media/home/beste/01_Pro/ld25x/bsp_hu/MYD-LD25X-Uboot-L2022.10-V1.0.0/GEN_FIP/myir-st-optee/lib/libutils/ext/snprintk.c:485
    5aa0:	321f02d6 	orr	w22, w22, #0x2
/media/home/beste/01_Pro/ld25x/bsp_hu/MYD-LD25X-Uboot-L2022.10-V1.0.0/GEN_FIP/myir-st-optee/lib/libutils/ext/snprintk.c:482
    5aa4:	52800040 	mov	w0, #0x2                   	// #2
/media/home/beste/01_Pro/ld25x/bsp_hu/MYD-LD25X-Uboot-L2022.10-V1.0.0/GEN_FIP/myir-st-optee/lib/libutils/ext/snprintk.c:488
    5aa8:	52800001 	mov	w1, #0x0                   	// #0
    5aac:	1400007b 	b	5c98 <kprintf.constprop.0+0x324>
/media/home/beste/01_Pro/ld25x/bsp_hu/MYD-LD25X-Uboot-L2022.10-V1.0.0/GEN_FIP/myir-st-optee/lib/libutils/ext/snprintk.c:297
    5ab0:	51011300 	sub	w0, w24, #0x44
    5ab4:	7100d81f 	cmp	w0, #0x36
    5ab8:	54fffd69 	b.ls	5a64 <kprintf.constprop.0+0xf0>  // b.plast
/media/home/beste/01_Pro/ld25x/bsp_hu/MYD-LD25X-Uboot-L2022.10-V1.0.0/GEN_FIP/myir-st-optee/lib/libutils/ext/snprintk.c:554
    5abc:	2a0403f4 	mov	w20, w4
    5ac0:	aa0303f3 	mov	x19, x3
/media/home/beste/01_Pro/ld25x/bsp_hu/MYD-LD25X-Uboot-L2022.10-V1.0.0/GEN_FIP/myir-st-optee/lib/libutils/ext/snprintk.c:551
    5ac4:	390323f8 	strb	w24, [sp, #200]
/media/home/beste/01_Pro/ld25x/bsp_hu/MYD-LD25X-Uboot-L2022.10-V1.0.0/GEN_FIP/myir-st-optee/lib/libutils/ext/snprintk.c:554
    5ac8:	1400005b 	b	5c34 <kprintf.constprop.0+0x2c0>
/media/home/beste/01_Pro/ld25x/bsp_hu/MYD-LD25X-Uboot-L2022.10-V1.0.0/GEN_FIP/myir-st-optee/lib/libutils/ext/snprintk.c:305
    5acc:	7100003f 	cmp	w1, #0x0
    5ad0:	52800400 	mov	w0, #0x20                  	// #32
    5ad4:	1a801021 	csel	w1, w1, w0, ne	// ne = any
    5ad8:	17ffffcb 	b	5a04 <kprintf.constprop.0+0x90>
/media/home/beste/01_Pro/ld25x/bsp_hu/MYD-LD25X-Uboot-L2022.10-V1.0.0/GEN_FIP/myir-st-optee/lib/libutils/ext/snprintk.c:308
    5adc:	320002d6 	orr	w22, w22, #0x1
/media/home/beste/01_Pro/ld25x/bsp_hu/MYD-LD25X-Uboot-L2022.10-V1.0.0/GEN_FIP/myir-st-optee/lib/libutils/ext/snprintk.c:309
    5ae0:	17ffffc9 	b	5a04 <kprintf.constprop.0+0x90>
/media/home/beste/01_Pro/ld25x/bsp_hu/MYD-LD25X-Uboot-L2022.10-V1.0.0/GEN_FIP/myir-st-optee/lib/libutils/ext/snprintk.c:317
    5ae4:	37f80124 	tbnz	w4, #31, 5b08 <kprintf.constprop.0+0x194>
    5ae8:	91002c66 	add	x6, x3, #0xb
    5aec:	aa0303e0 	mov	x0, x3
    5af0:	927df0c3 	and	x3, x6, #0xfffffffffffffff8
    5af4:	b940000a 	ldr	w10, [x0]
    5af8:	36fff86a 	tbz	w10, #31, 5a04 <kprintf.constprop.0+0x90>
/media/home/beste/01_Pro/ld25x/bsp_hu/MYD-LD25X-Uboot-L2022.10-V1.0.0/GEN_FIP/myir-st-optee/lib/libutils/ext/snprintk.c:319
    5afc:	4b0a03ea 	neg	w10, w10
/media/home/beste/01_Pro/ld25x/bsp_hu/MYD-LD25X-Uboot-L2022.10-V1.0.0/GEN_FIP/myir-st-optee/lib/libutils/ext/snprintk.c:322
    5b00:	321e02d6 	orr	w22, w22, #0x4
/media/home/beste/01_Pro/ld25x/bsp_hu/MYD-LD25X-Uboot-L2022.10-V1.0.0/GEN_FIP/myir-st-optee/lib/libutils/ext/snprintk.c:323
    5b04:	17ffffc0 	b	5a04 <kprintf.constprop.0+0x90>
/media/home/beste/01_Pro/ld25x/bsp_hu/MYD-LD25X-Uboot-L2022.10-V1.0.0/GEN_FIP/myir-st-optee/lib/libutils/ext/snprintk.c:317
    5b08:	11002086 	add	w6, w4, #0x8
    5b0c:	710000df 	cmp	w6, #0x0
    5b10:	540000cd 	b.le	5b28 <kprintf.constprop.0+0x1b4>
    5b14:	91002c67 	add	x7, x3, #0xb
    5b18:	aa0303e0 	mov	x0, x3
    5b1c:	2a0603e4 	mov	w4, w6
    5b20:	927df0e3 	and	x3, x7, #0xfffffffffffffff8
    5b24:	17fffff4 	b	5af4 <kprintf.constprop.0+0x180>
    5b28:	8b24c360 	add	x0, x27, w4, sxtw
    5b2c:	2a0603e4 	mov	w4, w6
    5b30:	17fffff1 	b	5af4 <kprintf.constprop.0+0x180>
/media/home/beste/01_Pro/ld25x/bsp_hu/MYD-LD25X-Uboot-L2022.10-V1.0.0/GEN_FIP/myir-st-optee/lib/libutils/ext/snprintk.c:328
    5b34:	38401798 	ldrb	w24, [x28], #1
    5b38:	7100ab1f 	cmp	w24, #0x2a
    5b3c:	54000341 	b.ne	5ba4 <kprintf.constprop.0+0x230>  // b.any
/media/home/beste/01_Pro/ld25x/bsp_hu/MYD-LD25X-Uboot-L2022.10-V1.0.0/GEN_FIP/myir-st-optee/lib/libutils/ext/snprintk.c:329
    5b40:	37f80144 	tbnz	w4, #31, 5b68 <kprintf.constprop.0+0x1f4>
    5b44:	91002c60 	add	x0, x3, #0xb
    5b48:	2a0403e6 	mov	w6, w4
    5b4c:	927df000 	and	x0, x0, #0xfffffffffffffff8
/media/home/beste/01_Pro/ld25x/bsp_hu/MYD-LD25X-Uboot-L2022.10-V1.0.0/GEN_FIP/myir-st-optee/lib/libutils/ext/snprintk.c:330
    5b50:	b9400065 	ldr	w5, [x3]
/media/home/beste/01_Pro/ld25x/bsp_hu/MYD-LD25X-Uboot-L2022.10-V1.0.0/GEN_FIP/myir-st-optee/lib/libutils/ext/snprintk.c:331
    5b54:	2a0603e4 	mov	w4, w6
    5b58:	aa0003e3 	mov	x3, x0
/media/home/beste/01_Pro/ld25x/bsp_hu/MYD-LD25X-Uboot-L2022.10-V1.0.0/GEN_FIP/myir-st-optee/lib/libutils/ext/snprintk.c:330
    5b5c:	710000bf 	cmp	w5, #0x0
    5b60:	5a9fa0a5 	csinv	w5, w5, wzr, ge	// ge = tcont
/media/home/beste/01_Pro/ld25x/bsp_hu/MYD-LD25X-Uboot-L2022.10-V1.0.0/GEN_FIP/myir-st-optee/lib/libutils/ext/snprintk.c:331
    5b64:	17ffffa8 	b	5a04 <kprintf.constprop.0+0x90>
/media/home/beste/01_Pro/ld25x/bsp_hu/MYD-LD25X-Uboot-L2022.10-V1.0.0/GEN_FIP/myir-st-optee/lib/libutils/ext/snprintk.c:329
    5b68:	11002086 	add	w6, w4, #0x8
    5b6c:	710000df 	cmp	w6, #0x0
    5b70:	5400008d 	b.le	5b80 <kprintf.constprop.0+0x20c>
    5b74:	91002c60 	add	x0, x3, #0xb
    5b78:	927df000 	and	x0, x0, #0xfffffffffffffff8
    5b7c:	17fffff5 	b	5b50 <kprintf.constprop.0+0x1dc>
    5b80:	aa0303e0 	mov	x0, x3
    5b84:	8b24c363 	add	x3, x27, w4, sxtw
    5b88:	17fffff2 	b	5b50 <kprintf.constprop.0+0x1dc>
/media/home/beste/01_Pro/ld25x/bsp_hu/MYD-LD25X-Uboot-L2022.10-V1.0.0/GEN_FIP/myir-st-optee/lib/libutils/ext/snprintk.c:335
    5b8c:	1b0600a5 	madd	w5, w5, w6, w0
/media/home/beste/01_Pro/ld25x/bsp_hu/MYD-LD25X-Uboot-L2022.10-V1.0.0/GEN_FIP/myir-st-optee/lib/libutils/ext/snprintk.c:336
    5b90:	38401798 	ldrb	w24, [x28], #1
/media/home/beste/01_Pro/ld25x/bsp_hu/MYD-LD25X-Uboot-L2022.10-V1.0.0/GEN_FIP/myir-st-optee/lib/libutils/ext/snprintk.c:334
    5b94:	5100c300 	sub	w0, w24, #0x30
    5b98:	7100241f 	cmp	w0, #0x9
    5b9c:	54ffff89 	b.ls	5b8c <kprintf.constprop.0+0x218>  // b.plast
    5ba0:	17ffff9a 	b	5a08 <kprintf.constprop.0+0x94>
/media/home/beste/01_Pro/ld25x/bsp_hu/MYD-LD25X-Uboot-L2022.10-V1.0.0/GEN_FIP/myir-st-optee/lib/libutils/ext/snprintk.c:333
    5ba4:	52800005 	mov	w5, #0x0                   	// #0
/media/home/beste/01_Pro/ld25x/bsp_hu/MYD-LD25X-Uboot-L2022.10-V1.0.0/GEN_FIP/myir-st-optee/lib/libutils/ext/snprintk.c:335
    5ba8:	52800146 	mov	w6, #0xa                   	// #10
    5bac:	17fffffa 	b	5b94 <kprintf.constprop.0+0x220>
/media/home/beste/01_Pro/ld25x/bsp_hu/MYD-LD25X-Uboot-L2022.10-V1.0.0/GEN_FIP/myir-st-optee/lib/libutils/ext/snprintk.c:346
    5bb0:	321602d6 	orr	w22, w22, #0x400
/media/home/beste/01_Pro/ld25x/bsp_hu/MYD-LD25X-Uboot-L2022.10-V1.0.0/GEN_FIP/myir-st-optee/lib/libutils/ext/snprintk.c:347
    5bb4:	17ffff94 	b	5a04 <kprintf.constprop.0+0x90>
/media/home/beste/01_Pro/ld25x/bsp_hu/MYD-LD25X-Uboot-L2022.10-V1.0.0/GEN_FIP/myir-st-optee/lib/libutils/ext/snprintk.c:297
    5bb8:	5280000a 	mov	w10, #0x0                   	// #0
/media/home/beste/01_Pro/ld25x/bsp_hu/MYD-LD25X-Uboot-L2022.10-V1.0.0/GEN_FIP/myir-st-optee/lib/libutils/ext/snprintk.c:352
    5bbc:	52800146 	mov	w6, #0xa                   	// #10
    5bc0:	5100c308 	sub	w8, w24, #0x30
/media/home/beste/01_Pro/ld25x/bsp_hu/MYD-LD25X-Uboot-L2022.10-V1.0.0/GEN_FIP/myir-st-optee/lib/libutils/ext/snprintk.c:353
    5bc4:	38401798 	ldrb	w24, [x28], #1
/media/home/beste/01_Pro/ld25x/bsp_hu/MYD-LD25X-Uboot-L2022.10-V1.0.0/GEN_FIP/myir-st-optee/lib/libutils/ext/snprintk.c:354
    5bc8:	5100c300 	sub	w0, w24, #0x30
/media/home/beste/01_Pro/ld25x/bsp_hu/MYD-LD25X-Uboot-L2022.10-V1.0.0/GEN_FIP/myir-st-optee/lib/libutils/ext/snprintk.c:352
    5bcc:	1b06214a 	madd	w10, w10, w6, w8
/media/home/beste/01_Pro/ld25x/bsp_hu/MYD-LD25X-Uboot-L2022.10-V1.0.0/GEN_FIP/myir-st-optee/lib/libutils/ext/snprintk.c:354
    5bd0:	7100241f 	cmp	w0, #0x9
    5bd4:	54ffff69 	b.ls	5bc0 <kprintf.constprop.0+0x24c>  // b.plast
    5bd8:	17ffff8c 	b	5a08 <kprintf.constprop.0+0x94>
/media/home/beste/01_Pro/ld25x/bsp_hu/MYD-LD25X-Uboot-L2022.10-V1.0.0/GEN_FIP/myir-st-optee/lib/libutils/ext/snprintk.c:358
    5bdc:	321a02d6 	orr	w22, w22, #0x40
/media/home/beste/01_Pro/ld25x/bsp_hu/MYD-LD25X-Uboot-L2022.10-V1.0.0/GEN_FIP/myir-st-optee/lib/libutils/ext/snprintk.c:359
    5be0:	17ffff89 	b	5a04 <kprintf.constprop.0+0x90>
/media/home/beste/01_Pro/ld25x/bsp_hu/MYD-LD25X-Uboot-L2022.10-V1.0.0/GEN_FIP/myir-st-optee/lib/libutils/ext/snprintk.c:361
    5be4:	321902d6 	orr	w22, w22, #0x80
/media/home/beste/01_Pro/ld25x/bsp_hu/MYD-LD25X-Uboot-L2022.10-V1.0.0/GEN_FIP/myir-st-optee/lib/libutils/ext/snprintk.c:362
    5be8:	17ffff87 	b	5a04 <kprintf.constprop.0+0x90>
/media/home/beste/01_Pro/ld25x/bsp_hu/MYD-LD25X-Uboot-L2022.10-V1.0.0/GEN_FIP/myir-st-optee/lib/libutils/ext/snprintk.c:364
    5bec:	39400380 	ldrb	w0, [x28]
    5bf0:	7101b01f 	cmp	w0, #0x6c
    5bf4:	54000081 	b.ne	5c04 <kprintf.constprop.0+0x290>  // b.any
/media/home/beste/01_Pro/ld25x/bsp_hu/MYD-LD25X-Uboot-L2022.10-V1.0.0/GEN_FIP/myir-st-optee/lib/libutils/ext/snprintk.c:328
    5bf8:	9100079c 	add	x28, x28, #0x1
/media/home/beste/01_Pro/ld25x/bsp_hu/MYD-LD25X-Uboot-L2022.10-V1.0.0/GEN_FIP/myir-st-optee/lib/libutils/ext/snprintk.c:372
    5bfc:	321b02d6 	orr	w22, w22, #0x20
/media/home/beste/01_Pro/ld25x/bsp_hu/MYD-LD25X-Uboot-L2022.10-V1.0.0/GEN_FIP/myir-st-optee/lib/libutils/ext/snprintk.c:373
    5c00:	17ffff81 	b	5a04 <kprintf.constprop.0+0x90>
/media/home/beste/01_Pro/ld25x/bsp_hu/MYD-LD25X-Uboot-L2022.10-V1.0.0/GEN_FIP/myir-st-optee/lib/libutils/ext/snprintk.c:368
    5c04:	321c02d6 	orr	w22, w22, #0x10
    5c08:	17ffff7f 	b	5a04 <kprintf.constprop.0+0x90>
/media/home/beste/01_Pro/ld25x/bsp_hu/MYD-LD25X-Uboot-L2022.10-V1.0.0/GEN_FIP/myir-st-optee/lib/libutils/ext/snprintk.c:375
    5c0c:	321802d6 	orr	w22, w22, #0x100
/media/home/beste/01_Pro/ld25x/bsp_hu/MYD-LD25X-Uboot-L2022.10-V1.0.0/GEN_FIP/myir-st-optee/lib/libutils/ext/snprintk.c:376
    5c10:	17ffff7d 	b	5a04 <kprintf.constprop.0+0x90>
/media/home/beste/01_Pro/ld25x/bsp_hu/MYD-LD25X-Uboot-L2022.10-V1.0.0/GEN_FIP/myir-st-optee/lib/libutils/ext/snprintk.c:378
    5c14:	321702d6 	orr	w22, w22, #0x200
/media/home/beste/01_Pro/ld25x/bsp_hu/MYD-LD25X-Uboot-L2022.10-V1.0.0/GEN_FIP/myir-st-optee/lib/libutils/ext/snprintk.c:379
    5c18:	17ffff7b 	b	5a04 <kprintf.constprop.0+0x90>
/media/home/beste/01_Pro/ld25x/bsp_hu/MYD-LD25X-Uboot-L2022.10-V1.0.0/GEN_FIP/myir-st-optee/lib/libutils/ext/snprintk.c:381
    5c1c:	37f80164 	tbnz	w4, #31, 5c48 <kprintf.constprop.0+0x2d4>
    5c20:	91002c73 	add	x19, x3, #0xb
    5c24:	2a0403f4 	mov	w20, w4
    5c28:	927df273 	and	x19, x19, #0xfffffffffffffff8
    5c2c:	b9400060 	ldr	w0, [x3]
    5c30:	390323e0 	strb	w0, [sp, #200]
/media/home/beste/01_Pro/ld25x/bsp_hu/MYD-LD25X-Uboot-L2022.10-V1.0.0/GEN_FIP/myir-st-optee/lib/libutils/ext/snprintk.c:550
    5c34:	910323ed 	add	x13, sp, #0xc8
/media/home/beste/01_Pro/ld25x/bsp_hu/MYD-LD25X-Uboot-L2022.10-V1.0.0/GEN_FIP/myir-st-optee/lib/libutils/ext/snprintk.c:552
    5c38:	52800025 	mov	w5, #0x1                   	// #1
/media/home/beste/01_Pro/ld25x/bsp_hu/MYD-LD25X-Uboot-L2022.10-V1.0.0/GEN_FIP/myir-st-optee/lib/libutils/ext/snprintk.c:291
    5c3c:	52800002 	mov	w2, #0x0                   	// #0
/media/home/beste/01_Pro/ld25x/bsp_hu/MYD-LD25X-Uboot-L2022.10-V1.0.0/GEN_FIP/myir-st-optee/lib/libutils/ext/snprintk.c:553
    5c40:	52800001 	mov	w1, #0x0                   	// #0
/media/home/beste/01_Pro/ld25x/bsp_hu/MYD-LD25X-Uboot-L2022.10-V1.0.0/GEN_FIP/myir-st-optee/lib/libutils/ext/snprintk.c:554
    5c44:	140000fa 	b	602c <kprintf.constprop.0+0x6b8>
/media/home/beste/01_Pro/ld25x/bsp_hu/MYD-LD25X-Uboot-L2022.10-V1.0.0/GEN_FIP/myir-st-optee/lib/libutils/ext/snprintk.c:381
    5c48:	11002094 	add	w20, w4, #0x8
    5c4c:	7100029f 	cmp	w20, #0x0
    5c50:	5400008d 	b.le	5c60 <kprintf.constprop.0+0x2ec>
    5c54:	91002c73 	add	x19, x3, #0xb
    5c58:	927df273 	and	x19, x19, #0xfffffffffffffff8
    5c5c:	17fffff4 	b	5c2c <kprintf.constprop.0+0x2b8>
    5c60:	aa0303f3 	mov	x19, x3
    5c64:	8b24c363 	add	x3, x27, w4, sxtw
    5c68:	17fffff1 	b	5c2c <kprintf.constprop.0+0x2b8>
/media/home/beste/01_Pro/ld25x/bsp_hu/MYD-LD25X-Uboot-L2022.10-V1.0.0/GEN_FIP/myir-st-optee/lib/libutils/ext/snprintk.c:386
    5c6c:	321c02d6 	orr	w22, w22, #0x10
/media/home/beste/01_Pro/ld25x/bsp_hu/MYD-LD25X-Uboot-L2022.10-V1.0.0/GEN_FIP/myir-st-optee/lib/libutils/ext/snprintk.c:390
    5c70:	363802f6 	tbz	w22, #7, 5ccc <kprintf.constprop.0+0x358>
    5c74:	37f80424 	tbnz	w4, #31, 5cf8 <kprintf.constprop.0+0x384>
    5c78:	91003c73 	add	x19, x3, #0xf
    5c7c:	2a0403f4 	mov	w20, w4
    5c80:	927df273 	and	x19, x19, #0xfffffffffffffff8
    5c84:	f9400062 	ldr	x2, [x3]
/media/home/beste/01_Pro/ld25x/bsp_hu/MYD-LD25X-Uboot-L2022.10-V1.0.0/GEN_FIP/myir-st-optee/lib/libutils/ext/snprintk.c:391
    5c88:	b6f82a62 	tbz	x2, #63, 61d4 <kprintf.constprop.0+0x860>
/media/home/beste/01_Pro/ld25x/bsp_hu/MYD-LD25X-Uboot-L2022.10-V1.0.0/GEN_FIP/myir-st-optee/lib/libutils/ext/snprintk.c:392
    5c8c:	cb0203e2 	neg	x2, x2
/media/home/beste/01_Pro/ld25x/bsp_hu/MYD-LD25X-Uboot-L2022.10-V1.0.0/GEN_FIP/myir-st-optee/lib/libutils/ext/snprintk.c:395
    5c90:	52800020 	mov	w0, #0x1                   	// #1
/media/home/beste/01_Pro/ld25x/bsp_hu/MYD-LD25X-Uboot-L2022.10-V1.0.0/GEN_FIP/myir-st-optee/lib/libutils/ext/snprintk.c:393
    5c94:	528005a1 	mov	w1, #0x2d                  	// #45
/media/home/beste/01_Pro/ld25x/bsp_hu/MYD-LD25X-Uboot-L2022.10-V1.0.0/GEN_FIP/myir-st-optee/lib/libutils/ext/snprintk.c:494
    5c98:	310004bf 	cmn	w5, #0x1
    5c9c:	54003681 	b.ne	636c <kprintf.constprop.0+0x9f8>  // b.any
/media/home/beste/01_Pro/ld25x/bsp_hu/MYD-LD25X-Uboot-L2022.10-V1.0.0/GEN_FIP/myir-st-optee/lib/libutils/ext/snprintk.c:509
    5ca0:	7100041f 	cmp	w0, #0x1
    5ca4:	540029c0 	b.eq	61dc <kprintf.constprop.0+0x868>  // b.none
    5ca8:	7100081f 	cmp	w0, #0x2
    5cac:	54000ea1 	b.ne	5e80 <kprintf.constprop.0+0x50c>  // b.any
/media/home/beste/01_Pro/ld25x/bsp_hu/MYD-LD25X-Uboot-L2022.10-V1.0.0/GEN_FIP/myir-st-optee/lib/libutils/ext/snprintk.c:502
    5cb0:	9103b7ed 	add	x13, sp, #0xed
/media/home/beste/01_Pro/ld25x/bsp_hu/MYD-LD25X-Uboot-L2022.10-V1.0.0/GEN_FIP/myir-st-optee/lib/libutils/ext/snprintk.c:531
    5cb4:	92400c40 	and	x0, x2, #0xf
/media/home/beste/01_Pro/ld25x/bsp_hu/MYD-LD25X-Uboot-L2022.10-V1.0.0/GEN_FIP/myir-st-optee/lib/libutils/ext/snprintk.c:532
    5cb8:	d344fc42 	lsr	x2, x2, #4
/media/home/beste/01_Pro/ld25x/bsp_hu/MYD-LD25X-Uboot-L2022.10-V1.0.0/GEN_FIP/myir-st-optee/lib/libutils/ext/snprintk.c:531
    5cbc:	38606ae0 	ldrb	w0, [x23, x0]
    5cc0:	381ffda0 	strb	w0, [x13, #-1]!
/media/home/beste/01_Pro/ld25x/bsp_hu/MYD-LD25X-Uboot-L2022.10-V1.0.0/GEN_FIP/myir-st-optee/lib/libutils/ext/snprintk.c:533
    5cc4:	b5ffff82 	cbnz	x2, 5cb4 <kprintf.constprop.0+0x340>
    5cc8:	1400007b 	b	5eb4 <kprintf.constprop.0+0x540>
/media/home/beste/01_Pro/ld25x/bsp_hu/MYD-LD25X-Uboot-L2022.10-V1.0.0/GEN_FIP/myir-st-optee/lib/libutils/ext/snprintk.c:390
    5ccc:	3747fd56 	tbnz	w22, #8, 5c74 <kprintf.constprop.0+0x300>
    5cd0:	374ffd36 	tbnz	w22, #9, 5c74 <kprintf.constprop.0+0x300>
    5cd4:	372ffd16 	tbnz	w22, #5, 5c74 <kprintf.constprop.0+0x300>
    5cd8:	3727fcf6 	tbnz	w22, #4, 5c74 <kprintf.constprop.0+0x300>
    5cdc:	36300336 	tbz	w22, #6, 5d40 <kprintf.constprop.0+0x3cc>
    5ce0:	37f801e4 	tbnz	w4, #31, 5d1c <kprintf.constprop.0+0x3a8>
    5ce4:	91002c73 	add	x19, x3, #0xb
    5ce8:	2a0403f4 	mov	w20, w4
    5cec:	927df273 	and	x19, x19, #0xfffffffffffffff8
    5cf0:	79800062 	ldrsh	x2, [x3]
    5cf4:	17ffffe5 	b	5c88 <kprintf.constprop.0+0x314>
    5cf8:	11002094 	add	w20, w4, #0x8
    5cfc:	7100029f 	cmp	w20, #0x0
    5d00:	5400008d 	b.le	5d10 <kprintf.constprop.0+0x39c>
    5d04:	91003c73 	add	x19, x3, #0xf
    5d08:	927df273 	and	x19, x19, #0xfffffffffffffff8
    5d0c:	17ffffde 	b	5c84 <kprintf.constprop.0+0x310>
    5d10:	aa0303f3 	mov	x19, x3
    5d14:	8b24c363 	add	x3, x27, w4, sxtw
    5d18:	17ffffdb 	b	5c84 <kprintf.constprop.0+0x310>
    5d1c:	11002094 	add	w20, w4, #0x8
    5d20:	7100029f 	cmp	w20, #0x0
    5d24:	5400008d 	b.le	5d34 <kprintf.constprop.0+0x3c0>
    5d28:	91002c73 	add	x19, x3, #0xb
    5d2c:	927df273 	and	x19, x19, #0xfffffffffffffff8
    5d30:	17fffff0 	b	5cf0 <kprintf.constprop.0+0x37c>
    5d34:	aa0303f3 	mov	x19, x3
    5d38:	8b24c363 	add	x3, x27, w4, sxtw
    5d3c:	17ffffed 	b	5cf0 <kprintf.constprop.0+0x37c>
    5d40:	37f800c4 	tbnz	w4, #31, 5d58 <kprintf.constprop.0+0x3e4>
    5d44:	91002c73 	add	x19, x3, #0xb
    5d48:	2a0403f4 	mov	w20, w4
    5d4c:	927df273 	and	x19, x19, #0xfffffffffffffff8
    5d50:	b9800062 	ldrsw	x2, [x3]
    5d54:	17ffffcd 	b	5c88 <kprintf.constprop.0+0x314>
    5d58:	11002094 	add	w20, w4, #0x8
    5d5c:	7100029f 	cmp	w20, #0x0
    5d60:	5400008d 	b.le	5d70 <kprintf.constprop.0+0x3fc>
    5d64:	91002c73 	add	x19, x3, #0xb
    5d68:	927df273 	and	x19, x19, #0xfffffffffffffff8
    5d6c:	17fffff9 	b	5d50 <kprintf.constprop.0+0x3dc>
    5d70:	aa0303f3 	mov	x19, x3
    5d74:	8b24c363 	add	x3, x27, w4, sxtw
    5d78:	17fffff6 	b	5d50 <kprintf.constprop.0+0x3dc>
/media/home/beste/01_Pro/ld25x/bsp_hu/MYD-LD25X-Uboot-L2022.10-V1.0.0/GEN_FIP/myir-st-optee/lib/libutils/ext/snprintk.c:398
    5d7c:	36380136 	tbz	w22, #7, 5da0 <kprintf.constprop.0+0x42c>
/media/home/beste/01_Pro/ld25x/bsp_hu/MYD-LD25X-Uboot-L2022.10-V1.0.0/GEN_FIP/myir-st-optee/lib/libutils/ext/snprintk.c:407
    5d80:	37f80284 	tbnz	w4, #31, 5dd0 <kprintf.constprop.0+0x45c>
    5d84:	91003c73 	add	x19, x3, #0xf
    5d88:	2a0403f4 	mov	w20, w4
    5d8c:	927df273 	and	x19, x19, #0xfffffffffffffff8
    5d90:	f9400060 	ldr	x0, [x3]
    5d94:	93407f41 	sxtw	x1, w26
    5d98:	f9000001 	str	x1, [x0]
    5d9c:	17ffff0c 	b	59cc <kprintf.constprop.0+0x58>
/media/home/beste/01_Pro/ld25x/bsp_hu/MYD-LD25X-Uboot-L2022.10-V1.0.0/GEN_FIP/myir-st-optee/lib/libutils/ext/snprintk.c:400
    5da0:	3747ff16 	tbnz	w22, #8, 5d80 <kprintf.constprop.0+0x40c>
/media/home/beste/01_Pro/ld25x/bsp_hu/MYD-LD25X-Uboot-L2022.10-V1.0.0/GEN_FIP/myir-st-optee/lib/libutils/ext/snprintk.c:402
    5da4:	374ffef6 	tbnz	w22, #9, 5d80 <kprintf.constprop.0+0x40c>
/media/home/beste/01_Pro/ld25x/bsp_hu/MYD-LD25X-Uboot-L2022.10-V1.0.0/GEN_FIP/myir-st-optee/lib/libutils/ext/snprintk.c:404
    5da8:	372ffed6 	tbnz	w22, #5, 5d80 <kprintf.constprop.0+0x40c>
/media/home/beste/01_Pro/ld25x/bsp_hu/MYD-LD25X-Uboot-L2022.10-V1.0.0/GEN_FIP/myir-st-optee/lib/libutils/ext/snprintk.c:406
    5dac:	3727feb6 	tbnz	w22, #4, 5d80 <kprintf.constprop.0+0x40c>
/media/home/beste/01_Pro/ld25x/bsp_hu/MYD-LD25X-Uboot-L2022.10-V1.0.0/GEN_FIP/myir-st-optee/lib/libutils/ext/snprintk.c:408
    5db0:	36300356 	tbz	w22, #6, 5e18 <kprintf.constprop.0+0x4a4>
/media/home/beste/01_Pro/ld25x/bsp_hu/MYD-LD25X-Uboot-L2022.10-V1.0.0/GEN_FIP/myir-st-optee/lib/libutils/ext/snprintk.c:409
    5db4:	37f80204 	tbnz	w4, #31, 5df4 <kprintf.constprop.0+0x480>
    5db8:	91003c73 	add	x19, x3, #0xf
    5dbc:	2a0403f4 	mov	w20, w4
    5dc0:	927df273 	and	x19, x19, #0xfffffffffffffff8
    5dc4:	f9400060 	ldr	x0, [x3]
    5dc8:	7900001a 	strh	w26, [x0]
    5dcc:	17ffff00 	b	59cc <kprintf.constprop.0+0x58>
/media/home/beste/01_Pro/ld25x/bsp_hu/MYD-LD25X-Uboot-L2022.10-V1.0.0/GEN_FIP/myir-st-optee/lib/libutils/ext/snprintk.c:407
    5dd0:	11002094 	add	w20, w4, #0x8
    5dd4:	7100029f 	cmp	w20, #0x0
    5dd8:	5400008d 	b.le	5de8 <kprintf.constprop.0+0x474>
    5ddc:	91003c73 	add	x19, x3, #0xf
    5de0:	927df273 	and	x19, x19, #0xfffffffffffffff8
    5de4:	17ffffeb 	b	5d90 <kprintf.constprop.0+0x41c>
    5de8:	aa0303f3 	mov	x19, x3
    5dec:	8b24c363 	add	x3, x27, w4, sxtw
    5df0:	17ffffe8 	b	5d90 <kprintf.constprop.0+0x41c>
/media/home/beste/01_Pro/ld25x/bsp_hu/MYD-LD25X-Uboot-L2022.10-V1.0.0/GEN_FIP/myir-st-optee/lib/libutils/ext/snprintk.c:409
    5df4:	11002094 	add	w20, w4, #0x8
    5df8:	7100029f 	cmp	w20, #0x0
    5dfc:	5400008d 	b.le	5e0c <kprintf.constprop.0+0x498>
    5e00:	91003c73 	add	x19, x3, #0xf
    5e04:	927df273 	and	x19, x19, #0xfffffffffffffff8
    5e08:	17ffffef 	b	5dc4 <kprintf.constprop.0+0x450>
    5e0c:	aa0303f3 	mov	x19, x3
    5e10:	8b24c363 	add	x3, x27, w4, sxtw
    5e14:	17ffffec 	b	5dc4 <kprintf.constprop.0+0x450>
/media/home/beste/01_Pro/ld25x/bsp_hu/MYD-LD25X-Uboot-L2022.10-V1.0.0/GEN_FIP/myir-st-optee/lib/libutils/ext/snprintk.c:411
    5e18:	37f800e4 	tbnz	w4, #31, 5e34 <kprintf.constprop.0+0x4c0>
    5e1c:	91003c73 	add	x19, x3, #0xf
    5e20:	2a0403f4 	mov	w20, w4
    5e24:	927df273 	and	x19, x19, #0xfffffffffffffff8
    5e28:	f9400060 	ldr	x0, [x3]
    5e2c:	b900001a 	str	w26, [x0]
    5e30:	17fffee7 	b	59cc <kprintf.constprop.0+0x58>
    5e34:	11002094 	add	w20, w4, #0x8
    5e38:	7100029f 	cmp	w20, #0x0
    5e3c:	5400008d 	b.le	5e4c <kprintf.constprop.0+0x4d8>
    5e40:	91003c73 	add	x19, x3, #0xf
    5e44:	927df273 	and	x19, x19, #0xfffffffffffffff8
    5e48:	17fffff8 	b	5e28 <kprintf.constprop.0+0x4b4>
    5e4c:	aa0303f3 	mov	x19, x3
    5e50:	8b24c363 	add	x3, x27, w4, sxtw
    5e54:	17fffff5 	b	5e28 <kprintf.constprop.0+0x4b4>
/media/home/beste/01_Pro/ld25x/bsp_hu/MYD-LD25X-Uboot-L2022.10-V1.0.0/GEN_FIP/myir-st-optee/lib/libutils/ext/snprintk.c:414
    5e58:	321c02d6 	orr	w22, w22, #0x10
/media/home/beste/01_Pro/ld25x/bsp_hu/MYD-LD25X-Uboot-L2022.10-V1.0.0/GEN_FIP/myir-st-optee/lib/libutils/ext/snprintk.c:417
    5e5c:	36380356 	tbz	w22, #7, 5ec4 <kprintf.constprop.0+0x550>
    5e60:	37f80484 	tbnz	w4, #31, 5ef0 <kprintf.constprop.0+0x57c>
    5e64:	91003c73 	add	x19, x3, #0xf
    5e68:	2a0403f4 	mov	w20, w4
    5e6c:	927df273 	and	x19, x19, #0xfffffffffffffff8
    5e70:	f9400062 	ldr	x2, [x3]
/media/home/beste/01_Pro/ld25x/bsp_hu/MYD-LD25X-Uboot-L2022.10-V1.0.0/GEN_FIP/myir-st-optee/lib/libutils/ext/snprintk.c:494
    5e74:	52800001 	mov	w1, #0x0                   	// #0
    5e78:	310004bf 	cmn	w5, #0x1
    5e7c:	54002761 	b.ne	6368 <kprintf.constprop.0+0x9f4>  // b.any
/media/home/beste/01_Pro/ld25x/bsp_hu/MYD-LD25X-Uboot-L2022.10-V1.0.0/GEN_FIP/myir-st-optee/lib/libutils/ext/snprintk.c:502
    5e80:	9103b7ed 	add	x13, sp, #0xed
/media/home/beste/01_Pro/ld25x/bsp_hu/MYD-LD25X-Uboot-L2022.10-V1.0.0/GEN_FIP/myir-st-optee/lib/libutils/ext/snprintk.c:512
    5e84:	12000840 	and	w0, w2, #0x7
    5e88:	aa0d03e4 	mov	x4, x13
    5e8c:	1100c000 	add	w0, w0, #0x30
    5e90:	381ffda0 	strb	w0, [x13, #-1]!
/media/home/beste/01_Pro/ld25x/bsp_hu/MYD-LD25X-Uboot-L2022.10-V1.0.0/GEN_FIP/myir-st-optee/lib/libutils/ext/snprintk.c:513
    5e94:	d343fc42 	lsr	x2, x2, #3
/media/home/beste/01_Pro/ld25x/bsp_hu/MYD-LD25X-Uboot-L2022.10-V1.0.0/GEN_FIP/myir-st-optee/lib/libutils/ext/snprintk.c:514
    5e98:	b5ffff62 	cbnz	x2, 5e84 <kprintf.constprop.0+0x510>
/media/home/beste/01_Pro/ld25x/bsp_hu/MYD-LD25X-Uboot-L2022.10-V1.0.0/GEN_FIP/myir-st-optee/lib/libutils/ext/snprintk.c:516
    5e9c:	360000d6 	tbz	w22, #0, 5eb4 <kprintf.constprop.0+0x540>
    5ea0:	7100c01f 	cmp	w0, #0x30
    5ea4:	54000080 	b.eq	5eb4 <kprintf.constprop.0+0x540>  // b.none
/media/home/beste/01_Pro/ld25x/bsp_hu/MYD-LD25X-Uboot-L2022.10-V1.0.0/GEN_FIP/myir-st-optee/lib/libutils/ext/snprintk.c:517
    5ea8:	52800600 	mov	w0, #0x30                  	// #48
    5eac:	381ff1a0 	sturb	w0, [x13, #-1]
    5eb0:	d100088d 	sub	x13, x4, #0x2
/media/home/beste/01_Pro/ld25x/bsp_hu/MYD-LD25X-Uboot-L2022.10-V1.0.0/GEN_FIP/myir-st-optee/lib/libutils/ext/snprintk.c:543
    5eb4:	2a0503e2 	mov	w2, w5
    5eb8:	9103b7e5 	add	x5, sp, #0xed
    5ebc:	4b0d00a5 	sub	w5, w5, w13
    5ec0:	1400005b 	b	602c <kprintf.constprop.0+0x6b8>
/media/home/beste/01_Pro/ld25x/bsp_hu/MYD-LD25X-Uboot-L2022.10-V1.0.0/GEN_FIP/myir-st-optee/lib/libutils/ext/snprintk.c:417
    5ec4:	3747fcf6 	tbnz	w22, #8, 5e60 <kprintf.constprop.0+0x4ec>
    5ec8:	374ffcd6 	tbnz	w22, #9, 5e60 <kprintf.constprop.0+0x4ec>
    5ecc:	372ffcb6 	tbnz	w22, #5, 5e60 <kprintf.constprop.0+0x4ec>
    5ed0:	3727fc96 	tbnz	w22, #4, 5e60 <kprintf.constprop.0+0x4ec>
    5ed4:	36300336 	tbz	w22, #6, 5f38 <kprintf.constprop.0+0x5c4>
    5ed8:	37f801e4 	tbnz	w4, #31, 5f14 <kprintf.constprop.0+0x5a0>
    5edc:	91002c73 	add	x19, x3, #0xb
    5ee0:	2a0403f4 	mov	w20, w4
    5ee4:	927df273 	and	x19, x19, #0xfffffffffffffff8
    5ee8:	79400062 	ldrh	w2, [x3]
    5eec:	17ffffe2 	b	5e74 <kprintf.constprop.0+0x500>
    5ef0:	11002094 	add	w20, w4, #0x8
    5ef4:	7100029f 	cmp	w20, #0x0
    5ef8:	5400008d 	b.le	5f08 <kprintf.constprop.0+0x594>
    5efc:	91003c73 	add	x19, x3, #0xf
    5f00:	927df273 	and	x19, x19, #0xfffffffffffffff8
    5f04:	17ffffdb 	b	5e70 <kprintf.constprop.0+0x4fc>
    5f08:	aa0303f3 	mov	x19, x3
    5f0c:	8b24c363 	add	x3, x27, w4, sxtw
    5f10:	17ffffd8 	b	5e70 <kprintf.constprop.0+0x4fc>
    5f14:	11002094 	add	w20, w4, #0x8
    5f18:	7100029f 	cmp	w20, #0x0
    5f1c:	5400008d 	b.le	5f2c <kprintf.constprop.0+0x5b8>
    5f20:	91002c73 	add	x19, x3, #0xb
    5f24:	927df273 	and	x19, x19, #0xfffffffffffffff8
    5f28:	17fffff0 	b	5ee8 <kprintf.constprop.0+0x574>
    5f2c:	aa0303f3 	mov	x19, x3
    5f30:	8b24c363 	add	x3, x27, w4, sxtw
    5f34:	17ffffed 	b	5ee8 <kprintf.constprop.0+0x574>
    5f38:	37f800c4 	tbnz	w4, #31, 5f50 <kprintf.constprop.0+0x5dc>
    5f3c:	91002c73 	add	x19, x3, #0xb
    5f40:	2a0403f4 	mov	w20, w4
    5f44:	927df273 	and	x19, x19, #0xfffffffffffffff8
    5f48:	b9400062 	ldr	w2, [x3]
    5f4c:	17ffffca 	b	5e74 <kprintf.constprop.0+0x500>
    5f50:	11002094 	add	w20, w4, #0x8
    5f54:	7100029f 	cmp	w20, #0x0
    5f58:	5400008d 	b.le	5f68 <kprintf.constprop.0+0x5f4>
    5f5c:	91002c73 	add	x19, x3, #0xb
    5f60:	927df273 	and	x19, x19, #0xfffffffffffffff8
    5f64:	17fffff9 	b	5f48 <kprintf.constprop.0+0x5d4>
    5f68:	aa0303f3 	mov	x19, x3
    5f6c:	8b24c363 	add	x3, x27, w4, sxtw
    5f70:	17fffff6 	b	5f48 <kprintf.constprop.0+0x5d4>
/media/home/beste/01_Pro/ld25x/bsp_hu/MYD-LD25X-Uboot-L2022.10-V1.0.0/GEN_FIP/myir-st-optee/lib/libutils/ext/snprintk.c:421
    5f74:	b940abe0 	ldr	w0, [sp, #168]
    5f78:	340009c0 	cbz	w0, 60b0 <kprintf.constprop.0+0x73c>
    5f7c:	39400380 	ldrb	w0, [x28]
    5f80:	7101541f 	cmp	w0, #0x55
    5f84:	54000961 	b.ne	60b0 <kprintf.constprop.0+0x73c>  // b.any
    5f88:	39400780 	ldrb	w0, [x28, #1]
    5f8c:	7101b01f 	cmp	w0, #0x6c
    5f90:	54000901 	b.ne	60b0 <kprintf.constprop.0+0x73c>  // b.any
/media/home/beste/01_Pro/ld25x/bsp_hu/MYD-LD25X-Uboot-L2022.10-V1.0.0/GEN_FIP/myir-st-optee/lib/libutils/ext/snprintk.c:426
    5f94:	91000b9c 	add	x28, x28, #0x2
/media/home/beste/01_Pro/ld25x/bsp_hu/MYD-LD25X-Uboot-L2022.10-V1.0.0/GEN_FIP/myir-st-optee/lib/libutils/ext/snprintk.c:427
    5f98:	37f807a4 	tbnz	w4, #31, 608c <kprintf.constprop.0+0x718>
    5f9c:	91003c73 	add	x19, x3, #0xf
    5fa0:	2a0403f4 	mov	w20, w4
    5fa4:	927df273 	and	x19, x19, #0xfffffffffffffff8
    5fa8:	f9400061 	ldr	x1, [x3]
uuid2str():
/media/home/beste/01_Pro/ld25x/bsp_hu/MYD-LD25X-Uboot-L2022.10-V1.0.0/GEN_FIP/myir-st-optee/lib/libutils/ext/snprintk.c:229
    5fac:	910323ed 	add	x13, sp, #0xc8
    5fb0:	d0000002 	adrp	x2, 7000 <trace_ext_prefix+0x6bc>
    5fb4:	91255c42 	add	x2, x2, #0x957
    5fb8:	f90053ed 	str	x13, [sp, #160]
    5fbc:	39403c20 	ldrb	w0, [x1, #15]
    5fc0:	39402427 	ldrb	w7, [x1, #9]
    5fc4:	39402026 	ldrb	w6, [x1, #8]
    5fc8:	79400c25 	ldrh	w5, [x1, #6]
    5fcc:	79400824 	ldrh	w4, [x1, #4]
    5fd0:	b9002be0 	str	w0, [sp, #40]
    5fd4:	b900afea 	str	w10, [sp, #172]
    5fd8:	39403820 	ldrb	w0, [x1, #14]
    5fdc:	b90023e0 	str	w0, [sp, #32]
    5fe0:	f9005beb 	str	x11, [sp, #176]
    5fe4:	39403420 	ldrb	w0, [x1, #13]
    5fe8:	b9001be0 	str	w0, [sp, #24]
    5fec:	39403020 	ldrb	w0, [x1, #12]
    5ff0:	b90013e0 	str	w0, [sp, #16]
    5ff4:	39402c20 	ldrb	w0, [x1, #11]
    5ff8:	b9000be0 	str	w0, [sp, #8]
    5ffc:	39402820 	ldrb	w0, [x1, #10]
    6000:	b90003e0 	str	w0, [sp]
    6004:	aa0d03e0 	mov	x0, x13
    6008:	b9400023 	ldr	w3, [x1]
    600c:	d28004a1 	mov	x1, #0x25                  	// #37
    6010:	97fffe45 	bl	5924 <snprintk>
    6014:	f94053ed 	ldr	x13, [sp, #160]
kprintf():
/media/home/beste/01_Pro/ld25x/bsp_hu/MYD-LD25X-Uboot-L2022.10-V1.0.0/GEN_FIP/myir-st-optee/lib/libutils/ext/snprintk.c:466
    6018:	2a0003e5 	mov	w5, w0
    601c:	f9405beb 	ldr	x11, [sp, #176]
/media/home/beste/01_Pro/ld25x/bsp_hu/MYD-LD25X-Uboot-L2022.10-V1.0.0/GEN_FIP/myir-st-optee/lib/libutils/ext/snprintk.c:291
    6020:	52800002 	mov	w2, #0x0                   	// #0
    6024:	b940afea 	ldr	w10, [sp, #172]
/media/home/beste/01_Pro/ld25x/bsp_hu/MYD-LD25X-Uboot-L2022.10-V1.0.0/GEN_FIP/myir-st-optee/lib/libutils/ext/snprintk.c:467
    6028:	52800001 	mov	w1, #0x0                   	// #0
/media/home/beste/01_Pro/ld25x/bsp_hu/MYD-LD25X-Uboot-L2022.10-V1.0.0/GEN_FIP/myir-st-optee/lib/libutils/ext/snprintk.c:571
    602c:	6b05005f 	cmp	w2, w5
/media/home/beste/01_Pro/ld25x/bsp_hu/MYD-LD25X-Uboot-L2022.10-V1.0.0/GEN_FIP/myir-st-optee/lib/libutils/ext/snprintk.c:581
    6030:	52808084 	mov	w4, #0x404                 	// #1028
/media/home/beste/01_Pro/ld25x/bsp_hu/MYD-LD25X-Uboot-L2022.10-V1.0.0/GEN_FIP/myir-st-optee/lib/libutils/ext/snprintk.c:571
    6034:	1a85a040 	csel	w0, w2, w5, ge	// ge = tcont
/media/home/beste/01_Pro/ld25x/bsp_hu/MYD-LD25X-Uboot-L2022.10-V1.0.0/GEN_FIP/myir-st-optee/lib/libutils/ext/snprintk.c:581
    6038:	0a0402c4 	and	w4, w22, w4
/media/home/beste/01_Pro/ld25x/bsp_hu/MYD-LD25X-Uboot-L2022.10-V1.0.0/GEN_FIP/myir-st-optee/lib/libutils/ext/snprintk.c:572
    603c:	34001d01 	cbz	w1, 63dc <kprintf.constprop.0+0xa68>
/media/home/beste/01_Pro/ld25x/bsp_hu/MYD-LD25X-Uboot-L2022.10-V1.0.0/GEN_FIP/myir-st-optee/lib/libutils/ext/snprintk.c:573
    6040:	11000400 	add	w0, w0, #0x1
/media/home/beste/01_Pro/ld25x/bsp_hu/MYD-LD25X-Uboot-L2022.10-V1.0.0/GEN_FIP/myir-st-optee/lib/libutils/ext/snprintk.c:578
    6044:	6b0a001f 	cmp	w0, w10
    6048:	1a8aa006 	csel	w6, w0, w10, ge	// ge = tcont
    604c:	0b06035a 	add	w26, w26, w6
/media/home/beste/01_Pro/ld25x/bsp_hu/MYD-LD25X-Uboot-L2022.10-V1.0.0/GEN_FIP/myir-st-optee/lib/libutils/ext/snprintk.c:581
    6050:	35001f64 	cbnz	w4, 643c <kprintf.constprop.0+0xac8>
/media/home/beste/01_Pro/ld25x/bsp_hu/MYD-LD25X-Uboot-L2022.10-V1.0.0/GEN_FIP/myir-st-optee/lib/libutils/ext/snprintk.c:582
    6054:	4b000144 	sub	w4, w10, w0
/media/home/beste/01_Pro/ld25x/bsp_hu/MYD-LD25X-Uboot-L2022.10-V1.0.0/GEN_FIP/myir-st-optee/lib/libutils/ext/snprintk.c:583
    6058:	7100009f 	cmp	w4, #0x0
    605c:	5400012d 	b.le	6080 <kprintf.constprop.0+0x70c>
/media/home/beste/01_Pro/ld25x/bsp_hu/MYD-LD25X-Uboot-L2022.10-V1.0.0/GEN_FIP/myir-st-optee/lib/libutils/ext/snprintk.c:584
    6060:	b4001eb5 	cbz	x21, 6434 <kprintf.constprop.0+0xac0>
    6064:	f100017f 	cmp	x11, #0x0
    6068:	fa551322 	ccmp	x25, x21, #0x2, ne	// ne = any
    606c:	54001e49 	b.ls	6434 <kprintf.constprop.0+0xac0>  // b.plast
    6070:	52800403 	mov	w3, #0x20                  	// #32
    6074:	380016a3 	strb	w3, [x21], #1
/media/home/beste/01_Pro/ld25x/bsp_hu/MYD-LD25X-Uboot-L2022.10-V1.0.0/GEN_FIP/myir-st-optee/lib/libutils/ext/snprintk.c:583
    6078:	71000484 	subs	w4, w4, #0x1
    607c:	54ffff41 	b.ne	6064 <kprintf.constprop.0+0x6f0>  // b.any
/media/home/beste/01_Pro/ld25x/bsp_hu/MYD-LD25X-Uboot-L2022.10-V1.0.0/GEN_FIP/myir-st-optee/lib/libutils/ext/snprintk.c:588
    6080:	350025c1 	cbnz	w1, 6538 <kprintf.constprop.0+0xbc4>
    6084:	52800004 	mov	w4, #0x0                   	// #0
    6088:	140000db 	b	63f4 <kprintf.constprop.0+0xa80>
/media/home/beste/01_Pro/ld25x/bsp_hu/MYD-LD25X-Uboot-L2022.10-V1.0.0/GEN_FIP/myir-st-optee/lib/libutils/ext/snprintk.c:427
    608c:	11002094 	add	w20, w4, #0x8
    6090:	7100029f 	cmp	w20, #0x0
    6094:	5400008d 	b.le	60a4 <kprintf.constprop.0+0x730>
    6098:	91003c73 	add	x19, x3, #0xf
    609c:	927df273 	and	x19, x19, #0xfffffffffffffff8
    60a0:	17ffffc2 	b	5fa8 <kprintf.constprop.0+0x634>
    60a4:	aa0303f3 	mov	x19, x3
    60a8:	8b24c363 	add	x3, x27, w4, sxtw
    60ac:	17ffffbf 	b	5fa8 <kprintf.constprop.0+0x634>
/media/home/beste/01_Pro/ld25x/bsp_hu/MYD-LD25X-Uboot-L2022.10-V1.0.0/GEN_FIP/myir-st-optee/lib/libutils/ext/snprintk.c:441
    60b0:	37f801c4 	tbnz	w4, #31, 60e8 <kprintf.constprop.0+0x774>
    60b4:	91003c73 	add	x19, x3, #0xf
    60b8:	2a0403f4 	mov	w20, w4
    60bc:	927df273 	and	x19, x19, #0xfffffffffffffff8
    60c0:	f9400062 	ldr	x2, [x3]
/media/home/beste/01_Pro/ld25x/bsp_hu/MYD-LD25X-Uboot-L2022.10-V1.0.0/GEN_FIP/myir-st-optee/lib/libutils/ext/snprintk.c:443
    60c4:	b0000017 	adrp	x23, 7000 <trace_ext_prefix+0x6bc>
/media/home/beste/01_Pro/ld25x/bsp_hu/MYD-LD25X-Uboot-L2022.10-V1.0.0/GEN_FIP/myir-st-optee/lib/libutils/ext/snprintk.c:444
    60c8:	321f02d6 	orr	w22, w22, #0x2
/media/home/beste/01_Pro/ld25x/bsp_hu/MYD-LD25X-Uboot-L2022.10-V1.0.0/GEN_FIP/myir-st-optee/lib/libutils/ext/snprintk.c:443
    60cc:	912666f7 	add	x23, x23, #0x999
/media/home/beste/01_Pro/ld25x/bsp_hu/MYD-LD25X-Uboot-L2022.10-V1.0.0/GEN_FIP/myir-st-optee/lib/libutils/ext/snprintk.c:445
    60d0:	52800f18 	mov	w24, #0x78                  	// #120
/media/home/beste/01_Pro/ld25x/bsp_hu/MYD-LD25X-Uboot-L2022.10-V1.0.0/GEN_FIP/myir-st-optee/lib/libutils/ext/snprintk.c:494
    60d4:	52800001 	mov	w1, #0x0                   	// #0
    60d8:	310004bf 	cmn	w5, #0x1
    60dc:	54ffdea0 	b.eq	5cb0 <kprintf.constprop.0+0x33c>  // b.none
    60e0:	52800040 	mov	w0, #0x2                   	// #2
    60e4:	140000a2 	b	636c <kprintf.constprop.0+0x9f8>
/media/home/beste/01_Pro/ld25x/bsp_hu/MYD-LD25X-Uboot-L2022.10-V1.0.0/GEN_FIP/myir-st-optee/lib/libutils/ext/snprintk.c:441
    60e8:	11002094 	add	w20, w4, #0x8
    60ec:	7100029f 	cmp	w20, #0x0
    60f0:	5400008d 	b.le	6100 <kprintf.constprop.0+0x78c>
    60f4:	91003c73 	add	x19, x3, #0xf
    60f8:	927df273 	and	x19, x19, #0xfffffffffffffff8
    60fc:	17fffff1 	b	60c0 <kprintf.constprop.0+0x74c>
    6100:	aa0303f3 	mov	x19, x3
    6104:	8b24c363 	add	x3, x27, w4, sxtw
    6108:	17ffffee 	b	60c0 <kprintf.constprop.0+0x74c>
/media/home/beste/01_Pro/ld25x/bsp_hu/MYD-LD25X-Uboot-L2022.10-V1.0.0/GEN_FIP/myir-st-optee/lib/libutils/ext/snprintk.c:448
    610c:	37f80364 	tbnz	w4, #31, 6178 <kprintf.constprop.0+0x804>
    6110:	91003c73 	add	x19, x3, #0xf
    6114:	2a0403f4 	mov	w20, w4
    6118:	927df273 	and	x19, x19, #0xfffffffffffffff8
    611c:	f940006d 	ldr	x13, [x3]
    6120:	b500006d 	cbnz	x13, 612c <kprintf.constprop.0+0x7b8>
/media/home/beste/01_Pro/ld25x/bsp_hu/MYD-LD25X-Uboot-L2022.10-V1.0.0/GEN_FIP/myir-st-optee/lib/libutils/ext/snprintk.c:450
    6124:	b0000003 	adrp	x3, 7000 <trace_ext_prefix+0x6bc>
    6128:	9125406d 	add	x13, x3, #0x950
/media/home/beste/01_Pro/ld25x/bsp_hu/MYD-LD25X-Uboot-L2022.10-V1.0.0/GEN_FIP/myir-st-optee/lib/libutils/ext/snprintk.c:451
    612c:	310004bf 	cmn	w5, #0x1
    6130:	54000360 	b.eq	619c <kprintf.constprop.0+0x828>  // b.none
/media/home/beste/01_Pro/ld25x/bsp_hu/MYD-LD25X-Uboot-L2022.10-V1.0.0/GEN_FIP/myir-st-optee/lib/libutils/ext/snprintk.c:457
    6134:	93407ca2 	sxtw	x2, w5
    6138:	aa0d03e0 	mov	x0, x13
    613c:	52800001 	mov	w1, #0x0                   	// #0
    6140:	f90053ed 	str	x13, [sp, #160]
    6144:	2915abe5 	stp	w5, w10, [sp, #172]
    6148:	f9005feb 	str	x11, [sp, #184]
    614c:	94000191 	bl	6790 <memchr>
/media/home/beste/01_Pro/ld25x/bsp_hu/MYD-LD25X-Uboot-L2022.10-V1.0.0/GEN_FIP/myir-st-optee/lib/libutils/ext/snprintk.c:459
    6150:	f94053ed 	ldr	x13, [sp, #160]
    6154:	f9405feb 	ldr	x11, [sp, #184]
    6158:	2955abe5 	ldp	w5, w10, [sp, #172]
    615c:	b4000080 	cbz	x0, 616c <kprintf.constprop.0+0x7f8>
/media/home/beste/01_Pro/ld25x/bsp_hu/MYD-LD25X-Uboot-L2022.10-V1.0.0/GEN_FIP/myir-st-optee/lib/libutils/ext/snprintk.c:460
    6160:	cb0d0000 	sub	x0, x0, x13
    6164:	6b0000bf 	cmp	w5, w0
    6168:	1a80d0a5 	csel	w5, w5, w0, le
/media/home/beste/01_Pro/ld25x/bsp_hu/MYD-LD25X-Uboot-L2022.10-V1.0.0/GEN_FIP/myir-st-optee/lib/libutils/ext/snprintk.c:291
    616c:	52800002 	mov	w2, #0x0                   	// #0
/media/home/beste/01_Pro/ld25x/bsp_hu/MYD-LD25X-Uboot-L2022.10-V1.0.0/GEN_FIP/myir-st-optee/lib/libutils/ext/snprintk.c:467
    6170:	52800001 	mov	w1, #0x0                   	// #0
    6174:	17ffffae 	b	602c <kprintf.constprop.0+0x6b8>
/media/home/beste/01_Pro/ld25x/bsp_hu/MYD-LD25X-Uboot-L2022.10-V1.0.0/GEN_FIP/myir-st-optee/lib/libutils/ext/snprintk.c:448
    6178:	11002094 	add	w20, w4, #0x8
    617c:	7100029f 	cmp	w20, #0x0
    6180:	5400008d 	b.le	6190 <kprintf.constprop.0+0x81c>
    6184:	91003c73 	add	x19, x3, #0xf
    6188:	927df273 	and	x19, x19, #0xfffffffffffffff8
    618c:	17ffffe4 	b	611c <kprintf.constprop.0+0x7a8>
    6190:	aa0303f3 	mov	x19, x3
    6194:	8b24c363 	add	x3, x27, w4, sxtw
    6198:	17ffffe1 	b	611c <kprintf.constprop.0+0x7a8>
/media/home/beste/01_Pro/ld25x/bsp_hu/MYD-LD25X-Uboot-L2022.10-V1.0.0/GEN_FIP/myir-st-optee/lib/libutils/ext/snprintk.c:466
    619c:	aa0d03e0 	mov	x0, x13
    61a0:	f90053ed 	str	x13, [sp, #160]
    61a4:	b900afea 	str	w10, [sp, #172]
    61a8:	f9005beb 	str	x11, [sp, #176]
    61ac:	94000184 	bl	67bc <strlen>
    61b0:	17ffff99 	b	6014 <kprintf.constprop.0+0x6a0>
/media/home/beste/01_Pro/ld25x/bsp_hu/MYD-LD25X-Uboot-L2022.10-V1.0.0/GEN_FIP/myir-st-optee/lib/libutils/ext/snprintk.c:470
    61b4:	321c02d6 	orr	w22, w22, #0x10
/media/home/beste/01_Pro/ld25x/bsp_hu/MYD-LD25X-Uboot-L2022.10-V1.0.0/GEN_FIP/myir-st-optee/lib/libutils/ext/snprintk.c:473
    61b8:	36380236 	tbz	w22, #7, 61fc <kprintf.constprop.0+0x888>
    61bc:	37f80364 	tbnz	w4, #31, 6228 <kprintf.constprop.0+0x8b4>
    61c0:	91003c73 	add	x19, x3, #0xf
    61c4:	2a0403f4 	mov	w20, w4
    61c8:	927df273 	and	x19, x19, #0xfffffffffffffff8
    61cc:	f9400062 	ldr	x2, [x3]
/media/home/beste/01_Pro/ld25x/bsp_hu/MYD-LD25X-Uboot-L2022.10-V1.0.0/GEN_FIP/myir-st-optee/lib/libutils/ext/snprintk.c:488
    61d0:	52800001 	mov	w1, #0x0                   	// #0
/media/home/beste/01_Pro/ld25x/bsp_hu/MYD-LD25X-Uboot-L2022.10-V1.0.0/GEN_FIP/myir-st-optee/lib/libutils/ext/snprintk.c:494
    61d4:	310004bf 	cmn	w5, #0x1
    61d8:	54000d81 	b.ne	6388 <kprintf.constprop.0+0xa14>  // b.any
/media/home/beste/01_Pro/ld25x/bsp_hu/MYD-LD25X-Uboot-L2022.10-V1.0.0/GEN_FIP/myir-st-optee/lib/libutils/ext/snprintk.c:502
    61dc:	9103b7e0 	add	x0, sp, #0xed
/media/home/beste/01_Pro/ld25x/bsp_hu/MYD-LD25X-Uboot-L2022.10-V1.0.0/GEN_FIP/myir-st-optee/lib/libutils/ext/snprintk.c:523
    61e0:	d2800144 	mov	x4, #0xa                   	// #10
    61e4:	d100040d 	sub	x13, x0, #0x1
/media/home/beste/01_Pro/ld25x/bsp_hu/MYD-LD25X-Uboot-L2022.10-V1.0.0/GEN_FIP/myir-st-optee/lib/libutils/ext/snprintk.c:522
    61e8:	f100245f 	cmp	x2, #0x9
    61ec:	54000d28 	b.hi	6390 <kprintf.constprop.0+0xa1c>  // b.pmore
/media/home/beste/01_Pro/ld25x/bsp_hu/MYD-LD25X-Uboot-L2022.10-V1.0.0/GEN_FIP/myir-st-optee/lib/libutils/ext/snprintk.c:526
    61f0:	1100c042 	add	w2, w2, #0x30
    61f4:	381ff002 	sturb	w2, [x0, #-1]
/media/home/beste/01_Pro/ld25x/bsp_hu/MYD-LD25X-Uboot-L2022.10-V1.0.0/GEN_FIP/myir-st-optee/lib/libutils/ext/snprintk.c:527
    61f8:	17ffff2f 	b	5eb4 <kprintf.constprop.0+0x540>
/media/home/beste/01_Pro/ld25x/bsp_hu/MYD-LD25X-Uboot-L2022.10-V1.0.0/GEN_FIP/myir-st-optee/lib/libutils/ext/snprintk.c:473
    61fc:	3747fe16 	tbnz	w22, #8, 61bc <kprintf.constprop.0+0x848>
    6200:	374ffdf6 	tbnz	w22, #9, 61bc <kprintf.constprop.0+0x848>
    6204:	372ffdd6 	tbnz	w22, #5, 61bc <kprintf.constprop.0+0x848>
    6208:	3727fdb6 	tbnz	w22, #4, 61bc <kprintf.constprop.0+0x848>
    620c:	36300336 	tbz	w22, #6, 6270 <kprintf.constprop.0+0x8fc>
    6210:	37f801e4 	tbnz	w4, #31, 624c <kprintf.constprop.0+0x8d8>
    6214:	91002c73 	add	x19, x3, #0xb
    6218:	2a0403f4 	mov	w20, w4
    621c:	927df273 	and	x19, x19, #0xfffffffffffffff8
    6220:	79400062 	ldrh	w2, [x3]
    6224:	17ffffeb 	b	61d0 <kprintf.constprop.0+0x85c>
    6228:	11002094 	add	w20, w4, #0x8
    622c:	7100029f 	cmp	w20, #0x0
    6230:	5400008d 	b.le	6240 <kprintf.constprop.0+0x8cc>
    6234:	91003c73 	add	x19, x3, #0xf
    6238:	927df273 	and	x19, x19, #0xfffffffffffffff8
    623c:	17ffffe4 	b	61cc <kprintf.constprop.0+0x858>
    6240:	aa0303f3 	mov	x19, x3
    6244:	8b24c363 	add	x3, x27, w4, sxtw
    6248:	17ffffe1 	b	61cc <kprintf.constprop.0+0x858>
    624c:	11002094 	add	w20, w4, #0x8
    6250:	7100029f 	cmp	w20, #0x0
    6254:	5400008d 	b.le	6264 <kprintf.constprop.0+0x8f0>
    6258:	91002c73 	add	x19, x3, #0xb
    625c:	927df273 	and	x19, x19, #0xfffffffffffffff8
    6260:	17fffff0 	b	6220 <kprintf.constprop.0+0x8ac>
    6264:	aa0303f3 	mov	x19, x3
    6268:	8b24c363 	add	x3, x27, w4, sxtw
    626c:	17ffffed 	b	6220 <kprintf.constprop.0+0x8ac>
    6270:	37f800c4 	tbnz	w4, #31, 6288 <kprintf.constprop.0+0x914>
    6274:	91002c73 	add	x19, x3, #0xb
    6278:	2a0403f4 	mov	w20, w4
    627c:	927df273 	and	x19, x19, #0xfffffffffffffff8
    6280:	b9400062 	ldr	w2, [x3]
    6284:	17ffffd3 	b	61d0 <kprintf.constprop.0+0x85c>
    6288:	11002094 	add	w20, w4, #0x8
    628c:	7100029f 	cmp	w20, #0x0
    6290:	5400008d 	b.le	62a0 <kprintf.constprop.0+0x92c>
    6294:	91002c73 	add	x19, x3, #0xb
    6298:	927df273 	and	x19, x19, #0xfffffffffffffff8
    629c:	17fffff9 	b	6280 <kprintf.constprop.0+0x90c>
    62a0:	aa0303f3 	mov	x19, x3
    62a4:	8b24c363 	add	x3, x27, w4, sxtw
    62a8:	17fffff6 	b	6280 <kprintf.constprop.0+0x90c>
/media/home/beste/01_Pro/ld25x/bsp_hu/MYD-LD25X-Uboot-L2022.10-V1.0.0/GEN_FIP/myir-st-optee/lib/libutils/ext/snprintk.c:297
    62ac:	b0000017 	adrp	x23, 7000 <trace_ext_prefix+0x6bc>
    62b0:	912622f7 	add	x23, x23, #0x988
    62b4:	17fffdf3 	b	5a80 <kprintf.constprop.0+0x10c>
/media/home/beste/01_Pro/ld25x/bsp_hu/MYD-LD25X-Uboot-L2022.10-V1.0.0/GEN_FIP/myir-st-optee/lib/libutils/ext/snprintk.c:481
    62b8:	3747be76 	tbnz	w22, #8, 5a84 <kprintf.constprop.0+0x110>
    62bc:	374fbe56 	tbnz	w22, #9, 5a84 <kprintf.constprop.0+0x110>
    62c0:	372fbe36 	tbnz	w22, #5, 5a84 <kprintf.constprop.0+0x110>
    62c4:	3727be16 	tbnz	w22, #4, 5a84 <kprintf.constprop.0+0x110>
    62c8:	36300336 	tbz	w22, #6, 632c <kprintf.constprop.0+0x9b8>
    62cc:	37f801e4 	tbnz	w4, #31, 6308 <kprintf.constprop.0+0x994>
    62d0:	91002c73 	add	x19, x3, #0xb
    62d4:	2a0403f4 	mov	w20, w4
    62d8:	927df273 	and	x19, x19, #0xfffffffffffffff8
    62dc:	79400062 	ldrh	w2, [x3]
    62e0:	17fffdee 	b	5a98 <kprintf.constprop.0+0x124>
    62e4:	11002094 	add	w20, w4, #0x8
    62e8:	7100029f 	cmp	w20, #0x0
    62ec:	5400008d 	b.le	62fc <kprintf.constprop.0+0x988>
    62f0:	91003c73 	add	x19, x3, #0xf
    62f4:	927df273 	and	x19, x19, #0xfffffffffffffff8
    62f8:	17fffde7 	b	5a94 <kprintf.constprop.0+0x120>
    62fc:	aa0303f3 	mov	x19, x3
    6300:	8b24c363 	add	x3, x27, w4, sxtw
    6304:	17fffde4 	b	5a94 <kprintf.constprop.0+0x120>
    6308:	11002094 	add	w20, w4, #0x8
    630c:	7100029f 	cmp	w20, #0x0
    6310:	5400008d 	b.le	6320 <kprintf.constprop.0+0x9ac>
    6314:	91002c73 	add	x19, x3, #0xb
    6318:	927df273 	and	x19, x19, #0xfffffffffffffff8
    631c:	17fffff0 	b	62dc <kprintf.constprop.0+0x968>
    6320:	aa0303f3 	mov	x19, x3
    6324:	8b24c363 	add	x3, x27, w4, sxtw
    6328:	17ffffed 	b	62dc <kprintf.constprop.0+0x968>
    632c:	37f800c4 	tbnz	w4, #31, 6344 <kprintf.constprop.0+0x9d0>
    6330:	91002c73 	add	x19, x3, #0xb
    6334:	2a0403f4 	mov	w20, w4
    6338:	927df273 	and	x19, x19, #0xfffffffffffffff8
    633c:	b9400062 	ldr	w2, [x3]
    6340:	17fffdd6 	b	5a98 <kprintf.constprop.0+0x124>
    6344:	11002094 	add	w20, w4, #0x8
    6348:	7100029f 	cmp	w20, #0x0
    634c:	5400008d 	b.le	635c <kprintf.constprop.0+0x9e8>
    6350:	91002c73 	add	x19, x3, #0xb
    6354:	927df273 	and	x19, x19, #0xfffffffffffffff8
    6358:	17fffff9 	b	633c <kprintf.constprop.0+0x9c8>
    635c:	aa0303f3 	mov	x19, x3
    6360:	8b24c363 	add	x3, x27, w4, sxtw
    6364:	17fffff6 	b	633c <kprintf.constprop.0+0x9c8>
/media/home/beste/01_Pro/ld25x/bsp_hu/MYD-LD25X-Uboot-L2022.10-V1.0.0/GEN_FIP/myir-st-optee/lib/libutils/ext/snprintk.c:494
    6368:	52800000 	mov	w0, #0x0                   	// #0
/media/home/beste/01_Pro/ld25x/bsp_hu/MYD-LD25X-Uboot-L2022.10-V1.0.0/GEN_FIP/myir-st-optee/lib/libutils/ext/snprintk.c:503
    636c:	f100005f 	cmp	x2, #0x0
/media/home/beste/01_Pro/ld25x/bsp_hu/MYD-LD25X-Uboot-L2022.10-V1.0.0/GEN_FIP/myir-st-optee/lib/libutils/ext/snprintk.c:495
    6370:	12157ad6 	and	w22, w22, #0xfffffbff
/media/home/beste/01_Pro/ld25x/bsp_hu/MYD-LD25X-Uboot-L2022.10-V1.0.0/GEN_FIP/myir-st-optee/lib/libutils/ext/snprintk.c:503
    6374:	7a4008a0 	ccmp	w5, #0x0, #0x0, eq	// eq = none
    6378:	54ffc941 	b.ne	5ca0 <kprintf.constprop.0+0x32c>  // b.any
/media/home/beste/01_Pro/ld25x/bsp_hu/MYD-LD25X-Uboot-L2022.10-V1.0.0/GEN_FIP/myir-st-optee/lib/libutils/ext/snprintk.c:502
    637c:	9103b7ed 	add	x13, sp, #0xed
    6380:	52800005 	mov	w5, #0x0                   	// #0
    6384:	17fffecc 	b	5eb4 <kprintf.constprop.0+0x540>
/media/home/beste/01_Pro/ld25x/bsp_hu/MYD-LD25X-Uboot-L2022.10-V1.0.0/GEN_FIP/myir-st-optee/lib/libutils/ext/snprintk.c:494
    6388:	52800020 	mov	w0, #0x1                   	// #1
    638c:	17fffff8 	b	636c <kprintf.constprop.0+0x9f8>
/media/home/beste/01_Pro/ld25x/bsp_hu/MYD-LD25X-Uboot-L2022.10-V1.0.0/GEN_FIP/myir-st-optee/lib/libutils/ext/snprintk.c:523
    6390:	9ac40846 	udiv	x6, x2, x4
    6394:	9b0488c2 	msub	x2, x6, x4, x2
    6398:	1100c042 	add	w2, w2, #0x30
    639c:	381ff002 	sturb	w2, [x0, #-1]
/media/home/beste/01_Pro/ld25x/bsp_hu/MYD-LD25X-Uboot-L2022.10-V1.0.0/GEN_FIP/myir-st-optee/lib/libutils/ext/snprintk.c:524
    63a0:	aa0603e2 	mov	x2, x6
/media/home/beste/01_Pro/ld25x/bsp_hu/MYD-LD25X-Uboot-L2022.10-V1.0.0/GEN_FIP/myir-st-optee/lib/libutils/ext/snprintk.c:523
    63a4:	aa0d03e0 	mov	x0, x13
    63a8:	17ffff8f 	b	61e4 <kprintf.constprop.0+0x870>
/media/home/beste/01_Pro/ld25x/bsp_hu/MYD-LD25X-Uboot-L2022.10-V1.0.0/GEN_FIP/myir-st-optee/lib/libutils/ext/snprintk.c:547
    63ac:	35ffb898 	cbnz	w24, 5abc <kprintf.constprop.0+0x148>
/media/home/beste/01_Pro/ld25x/bsp_hu/MYD-LD25X-Uboot-L2022.10-V1.0.0/GEN_FIP/myir-st-optee/lib/libutils/ext/snprintk.c:619
    63b0:	b400004b 	cbz	x11, 63b8 <kprintf.constprop.0+0xa44>
/media/home/beste/01_Pro/ld25x/bsp_hu/MYD-LD25X-Uboot-L2022.10-V1.0.0/GEN_FIP/myir-st-optee/lib/libutils/ext/snprintk.c:620
    63b4:	f9000175 	str	x21, [x11]
/media/home/beste/01_Pro/ld25x/bsp_hu/MYD-LD25X-Uboot-L2022.10-V1.0.0/GEN_FIP/myir-st-optee/lib/libutils/ext/snprintk.c:622
    63b8:	a9437bfd 	ldp	x29, x30, [sp, #48]
    63bc:	2a1a03e0 	mov	w0, w26
    63c0:	a94453f3 	ldp	x19, x20, [sp, #64]
    63c4:	a9455bf5 	ldp	x21, x22, [sp, #80]
    63c8:	a94663f7 	ldp	x23, x24, [sp, #96]
    63cc:	a9476bf9 	ldp	x25, x26, [sp, #112]
    63d0:	a94873fb 	ldp	x27, x28, [sp, #128]
    63d4:	9103c3ff 	add	sp, sp, #0xf0
    63d8:	d65f03c0 	ret
/media/home/beste/01_Pro/ld25x/bsp_hu/MYD-LD25X-Uboot-L2022.10-V1.0.0/GEN_FIP/myir-st-optee/lib/libutils/ext/snprintk.c:574
    63dc:	36080056 	tbz	w22, #1, 63e4 <kprintf.constprop.0+0xa70>
/media/home/beste/01_Pro/ld25x/bsp_hu/MYD-LD25X-Uboot-L2022.10-V1.0.0/GEN_FIP/myir-st-optee/lib/libutils/ext/snprintk.c:575
    63e0:	11000800 	add	w0, w0, #0x2
/media/home/beste/01_Pro/ld25x/bsp_hu/MYD-LD25X-Uboot-L2022.10-V1.0.0/GEN_FIP/myir-st-optee/lib/libutils/ext/snprintk.c:578
    63e4:	6b0a001f 	cmp	w0, w10
    63e8:	1a8aa006 	csel	w6, w0, w10, ge	// ge = tcont
    63ec:	0b06035a 	add	w26, w26, w6
/media/home/beste/01_Pro/ld25x/bsp_hu/MYD-LD25X-Uboot-L2022.10-V1.0.0/GEN_FIP/myir-st-optee/lib/libutils/ext/snprintk.c:581
    63f0:	34ffe324 	cbz	w4, 6054 <kprintf.constprop.0+0x6e0>
/media/home/beste/01_Pro/ld25x/bsp_hu/MYD-LD25X-Uboot-L2022.10-V1.0.0/GEN_FIP/myir-st-optee/lib/libutils/ext/snprintk.c:590
    63f4:	36080276 	tbz	w22, #1, 6440 <kprintf.constprop.0+0xacc>
/media/home/beste/01_Pro/ld25x/bsp_hu/MYD-LD25X-Uboot-L2022.10-V1.0.0/GEN_FIP/myir-st-optee/lib/libutils/ext/snprintk.c:591
    63f8:	b4000255 	cbz	x21, 6440 <kprintf.constprop.0+0xacc>
    63fc:	f100017f 	cmp	x11, #0x0
    6400:	1a9f17e6 	cset	w6, eq	// eq = none
    6404:	710000df 	cmp	w6, #0x0
    6408:	fa550322 	ccmp	x25, x21, #0x2, eq	// eq = none
    640c:	540001a9 	b.ls	6440 <kprintf.constprop.0+0xacc>  // b.plast
    6410:	aa1503e1 	mov	x1, x21
    6414:	52800607 	mov	w7, #0x30                  	// #48
/media/home/beste/01_Pro/ld25x/bsp_hu/MYD-LD25X-Uboot-L2022.10-V1.0.0/GEN_FIP/myir-st-optee/lib/libutils/ext/snprintk.c:592
    6418:	710000df 	cmp	w6, #0x0
/media/home/beste/01_Pro/ld25x/bsp_hu/MYD-LD25X-Uboot-L2022.10-V1.0.0/GEN_FIP/myir-st-optee/lib/libutils/ext/snprintk.c:591
    641c:	38001427 	strb	w7, [x1], #1
/media/home/beste/01_Pro/ld25x/bsp_hu/MYD-LD25X-Uboot-L2022.10-V1.0.0/GEN_FIP/myir-st-optee/lib/libutils/ext/snprintk.c:592
    6420:	fa410322 	ccmp	x25, x1, #0x2, eq	// eq = none
    6424:	54000769 	b.ls	6510 <kprintf.constprop.0+0xb9c>  // b.plast
    6428:	91000ab5 	add	x21, x21, #0x2
    642c:	381ff2b8 	sturb	w24, [x21, #-1]
    6430:	14000004 	b	6440 <kprintf.constprop.0+0xacc>
    6434:	51000484 	sub	w4, w4, #0x1
    6438:	17ffff08 	b	6058 <kprintf.constprop.0+0x6e4>
/media/home/beste/01_Pro/ld25x/bsp_hu/MYD-LD25X-Uboot-L2022.10-V1.0.0/GEN_FIP/myir-st-optee/lib/libutils/ext/snprintk.c:589
    643c:	b5000835 	cbnz	x21, 6540 <kprintf.constprop.0+0xbcc>
/media/home/beste/01_Pro/ld25x/bsp_hu/MYD-LD25X-Uboot-L2022.10-V1.0.0/GEN_FIP/myir-st-optee/lib/libutils/ext/snprintk.c:596
    6440:	7110009f 	cmp	w4, #0x400
    6444:	54000181 	b.ne	6474 <kprintf.constprop.0+0xb00>  // b.any
/media/home/beste/01_Pro/ld25x/bsp_hu/MYD-LD25X-Uboot-L2022.10-V1.0.0/GEN_FIP/myir-st-optee/lib/libutils/ext/snprintk.c:597
    6448:	4b000141 	sub	w1, w10, w0
/media/home/beste/01_Pro/ld25x/bsp_hu/MYD-LD25X-Uboot-L2022.10-V1.0.0/GEN_FIP/myir-st-optee/lib/libutils/ext/snprintk.c:599
    644c:	52800604 	mov	w4, #0x30                  	// #48
/media/home/beste/01_Pro/ld25x/bsp_hu/MYD-LD25X-Uboot-L2022.10-V1.0.0/GEN_FIP/myir-st-optee/lib/libutils/ext/snprintk.c:598
    6450:	7100003f 	cmp	w1, #0x0
    6454:	5400010d 	b.le	6474 <kprintf.constprop.0+0xb00>
/media/home/beste/01_Pro/ld25x/bsp_hu/MYD-LD25X-Uboot-L2022.10-V1.0.0/GEN_FIP/myir-st-optee/lib/libutils/ext/snprintk.c:599
    6458:	b4000615 	cbz	x21, 6518 <kprintf.constprop.0+0xba4>
    645c:	f100017f 	cmp	x11, #0x0
    6460:	fa551322 	ccmp	x25, x21, #0x2, ne	// ne = any
    6464:	540005a9 	b.ls	6518 <kprintf.constprop.0+0xba4>  // b.plast
    6468:	380016a4 	strb	w4, [x21], #1
/media/home/beste/01_Pro/ld25x/bsp_hu/MYD-LD25X-Uboot-L2022.10-V1.0.0/GEN_FIP/myir-st-optee/lib/libutils/ext/snprintk.c:598
    646c:	71000421 	subs	w1, w1, #0x1
    6470:	54ffff61 	b.ne	645c <kprintf.constprop.0+0xae8>  // b.any
/media/home/beste/01_Pro/ld25x/bsp_hu/MYD-LD25X-Uboot-L2022.10-V1.0.0/GEN_FIP/myir-st-optee/lib/libutils/ext/snprintk.c:603
    6474:	4b050042 	sub	w2, w2, w5
/media/home/beste/01_Pro/ld25x/bsp_hu/MYD-LD25X-Uboot-L2022.10-V1.0.0/GEN_FIP/myir-st-optee/lib/libutils/ext/snprintk.c:605
    6478:	52800601 	mov	w1, #0x30                  	// #48
/media/home/beste/01_Pro/ld25x/bsp_hu/MYD-LD25X-Uboot-L2022.10-V1.0.0/GEN_FIP/myir-st-optee/lib/libutils/ext/snprintk.c:604
    647c:	7100005f 	cmp	w2, #0x0
    6480:	5400010d 	b.le	64a0 <kprintf.constprop.0+0xb2c>
/media/home/beste/01_Pro/ld25x/bsp_hu/MYD-LD25X-Uboot-L2022.10-V1.0.0/GEN_FIP/myir-st-optee/lib/libutils/ext/snprintk.c:605
    6484:	b40004f5 	cbz	x21, 6520 <kprintf.constprop.0+0xbac>
    6488:	f100017f 	cmp	x11, #0x0
    648c:	fa551322 	ccmp	x25, x21, #0x2, ne	// ne = any
    6490:	54000489 	b.ls	6520 <kprintf.constprop.0+0xbac>  // b.plast
    6494:	380016a1 	strb	w1, [x21], #1
/media/home/beste/01_Pro/ld25x/bsp_hu/MYD-LD25X-Uboot-L2022.10-V1.0.0/GEN_FIP/myir-st-optee/lib/libutils/ext/snprintk.c:604
    6498:	71000442 	subs	w2, w2, #0x1
    649c:	54ffff61 	b.ne	6488 <kprintf.constprop.0+0xb14>  // b.any
    64a0:	2a0503e5 	mov	w5, w5
/media/home/beste/01_Pro/ld25x/bsp_hu/MYD-LD25X-Uboot-L2022.10-V1.0.0/GEN_FIP/myir-st-optee/lib/libutils/ext/snprintk.c:609
    64a4:	d2800001 	mov	x1, #0x0                   	// #0
/media/home/beste/01_Pro/ld25x/bsp_hu/MYD-LD25X-Uboot-L2022.10-V1.0.0/GEN_FIP/myir-st-optee/lib/libutils/ext/snprintk.c:608
    64a8:	eb0100bf 	cmp	x5, x1
    64ac:	54000140 	b.eq	64d4 <kprintf.constprop.0+0xb60>  // b.none
/media/home/beste/01_Pro/ld25x/bsp_hu/MYD-LD25X-Uboot-L2022.10-V1.0.0/GEN_FIP/myir-st-optee/lib/libutils/ext/snprintk.c:609
    64b0:	b40003d5 	cbz	x21, 6528 <kprintf.constprop.0+0xbb4>
    64b4:	f100017f 	cmp	x11, #0x0
    64b8:	fa551322 	ccmp	x25, x21, #0x2, ne	// ne = any
    64bc:	54000369 	b.ls	6528 <kprintf.constprop.0+0xbb4>  // b.plast
    64c0:	386169a2 	ldrb	w2, [x13, x1]
    64c4:	91000421 	add	x1, x1, #0x1
    64c8:	380016a2 	strb	w2, [x21], #1
/media/home/beste/01_Pro/ld25x/bsp_hu/MYD-LD25X-Uboot-L2022.10-V1.0.0/GEN_FIP/myir-st-optee/lib/libutils/ext/snprintk.c:608
    64cc:	eb0100bf 	cmp	x5, x1
    64d0:	54ffff21 	b.ne	64b4 <kprintf.constprop.0+0xb40>  // b.any
/media/home/beste/01_Pro/ld25x/bsp_hu/MYD-LD25X-Uboot-L2022.10-V1.0.0/GEN_FIP/myir-st-optee/lib/libutils/ext/snprintk.c:611
    64d4:	3617a7d6 	tbz	w22, #2, 59cc <kprintf.constprop.0+0x58>
/media/home/beste/01_Pro/ld25x/bsp_hu/MYD-LD25X-Uboot-L2022.10-V1.0.0/GEN_FIP/myir-st-optee/lib/libutils/ext/snprintk.c:612
    64d8:	4b000140 	sub	w0, w10, w0
/media/home/beste/01_Pro/ld25x/bsp_hu/MYD-LD25X-Uboot-L2022.10-V1.0.0/GEN_FIP/myir-st-optee/lib/libutils/ext/snprintk.c:613
    64dc:	7100001f 	cmp	w0, #0x0
    64e0:	54ffa76d 	b.le	59cc <kprintf.constprop.0+0x58>
/media/home/beste/01_Pro/ld25x/bsp_hu/MYD-LD25X-Uboot-L2022.10-V1.0.0/GEN_FIP/myir-st-optee/lib/libutils/ext/snprintk.c:614
    64e4:	b4000275 	cbz	x21, 6530 <kprintf.constprop.0+0xbbc>
    64e8:	f100017f 	cmp	x11, #0x0
    64ec:	aa1503e1 	mov	x1, x21
    64f0:	fa551322 	ccmp	x25, x21, #0x2, ne	// ne = any
    64f4:	540001e9 	b.ls	6530 <kprintf.constprop.0+0xbbc>  // b.plast
    64f8:	52800402 	mov	w2, #0x20                  	// #32
    64fc:	39000022 	strb	w2, [x1]
    6500:	910006b5 	add	x21, x21, #0x1
/media/home/beste/01_Pro/ld25x/bsp_hu/MYD-LD25X-Uboot-L2022.10-V1.0.0/GEN_FIP/myir-st-optee/lib/libutils/ext/snprintk.c:613
    6504:	71000400 	subs	w0, w0, #0x1
    6508:	54ffff01 	b.ne	64e8 <kprintf.constprop.0+0xb74>  // b.any
    650c:	17fffd30 	b	59cc <kprintf.constprop.0+0x58>
/media/home/beste/01_Pro/ld25x/bsp_hu/MYD-LD25X-Uboot-L2022.10-V1.0.0/GEN_FIP/myir-st-optee/lib/libutils/ext/snprintk.c:591
    6510:	aa0103f5 	mov	x21, x1
    6514:	17ffffcb 	b	6440 <kprintf.constprop.0+0xacc>
    6518:	51000421 	sub	w1, w1, #0x1
    651c:	17ffffcd 	b	6450 <kprintf.constprop.0+0xadc>
    6520:	51000442 	sub	w2, w2, #0x1
    6524:	17ffffd6 	b	647c <kprintf.constprop.0+0xb08>
/media/home/beste/01_Pro/ld25x/bsp_hu/MYD-LD25X-Uboot-L2022.10-V1.0.0/GEN_FIP/myir-st-optee/lib/libutils/ext/snprintk.c:608
    6528:	91000421 	add	x1, x1, #0x1
    652c:	17ffffdf 	b	64a8 <kprintf.constprop.0+0xb34>
    6530:	51000400 	sub	w0, w0, #0x1
    6534:	17ffffea 	b	64dc <kprintf.constprop.0+0xb68>
/media/home/beste/01_Pro/ld25x/bsp_hu/MYD-LD25X-Uboot-L2022.10-V1.0.0/GEN_FIP/myir-st-optee/lib/libutils/ext/snprintk.c:589
    6538:	b4fff9f5 	cbz	x21, 6474 <kprintf.constprop.0+0xb00>
    653c:	52800004 	mov	w4, #0x0                   	// #0
    6540:	f100017f 	cmp	x11, #0x0
    6544:	fa551322 	ccmp	x25, x21, #0x2, ne	// ne = any
    6548:	54fff7c9 	b.ls	6440 <kprintf.constprop.0+0xacc>  // b.plast
    654c:	380016a1 	strb	w1, [x21], #1
    6550:	17ffffbc 	b	6440 <kprintf.constprop.0+0xacc>

0000000000006554 <trace_vprintf>:
trace_vprintf():
/media/home/beste/01_Pro/ld25x/bsp_hu/MYD-LD25X-Uboot-L2022.10-V1.0.0/GEN_FIP/myir-st-optee/lib/libutils/ext/trace.c:113
    6554:	a9a87bfd 	stp	x29, x30, [sp, #-384]!
    6558:	910003fd 	mov	x29, sp
    655c:	a90153f3 	stp	x19, x20, [sp, #16]
    6560:	2a0203f3 	mov	w19, w2
    6564:	a9025bf5 	stp	x21, x22, [sp, #32]
    6568:	aa0003f6 	mov	x22, x0
    656c:	a90363f7 	stp	x23, x24, [sp, #48]
    6570:	aa0403f7 	mov	x23, x4
    6574:	aa0503f8 	mov	x24, x5
    6578:	a9046bf9 	stp	x25, x26, [sp, #64]
    657c:	2a0103f9 	mov	w25, w1
/media/home/beste/01_Pro/ld25x/bsp_hu/MYD-LD25X-Uboot-L2022.10-V1.0.0/GEN_FIP/myir-st-optee/lib/libutils/ext/trace.c:118
    6580:	72001c7a 	ands	w26, w3, #0xff
/media/home/beste/01_Pro/ld25x/bsp_hu/MYD-LD25X-Uboot-L2022.10-V1.0.0/GEN_FIP/myir-st-optee/lib/libutils/ext/trace.c:113
    6584:	f9002bfb 	str	x27, [sp, #80]
/media/home/beste/01_Pro/ld25x/bsp_hu/MYD-LD25X-Uboot-L2022.10-V1.0.0/GEN_FIP/myir-st-optee/lib/libutils/ext/trace.c:118
    6588:	54000b60 	b.eq	66f4 <trace_vprintf+0x1a0>  // b.none
/media/home/beste/01_Pro/ld25x/bsp_hu/MYD-LD25X-Uboot-L2022.10-V1.0.0/GEN_FIP/myir-st-optee/lib/libutils/ext/trace.c:118 (discriminator 1)
    658c:	d0000003 	adrp	x3, 8000 <_DYNAMIC>
    6590:	f9409c63 	ldr	x3, [x3, #312]
    6594:	b9400060 	ldr	w0, [x3]
    6598:	6b02001f 	cmp	w0, w2
    659c:	540009eb 	b.lt	66d8 <trace_vprintf+0x184>  // b.tstop
trace_level_to_string():
/media/home/beste/01_Pro/ld25x/bsp_hu/MYD-LD25X-Uboot-L2022.10-V1.0.0/GEN_FIP/myir-st-optee/lib/libutils/ext/trace.c:51
    65a0:	7100105f 	cmp	w2, #0x4
/media/home/beste/01_Pro/ld25x/bsp_hu/MYD-LD25X-Uboot-L2022.10-V1.0.0/GEN_FIP/myir-st-optee/lib/libutils/ext/trace.c:54
    65a4:	b0000000 	adrp	x0, 7000 <trace_ext_prefix+0x6bc>
/media/home/beste/01_Pro/ld25x/bsp_hu/MYD-LD25X-Uboot-L2022.10-V1.0.0/GEN_FIP/myir-st-optee/lib/libutils/ext/trace.c:51
    65a8:	1a9f9041 	csel	w1, w2, wzr, ls	// ls = plast
/media/home/beste/01_Pro/ld25x/bsp_hu/MYD-LD25X-Uboot-L2022.10-V1.0.0/GEN_FIP/myir-st-optee/lib/libutils/ext/trace.c:54
    65ac:	91271000 	add	x0, x0, #0x9c4
    65b0:	3861c803 	ldrb	w3, [x0, w1, sxtw]
trace_vprintf():
/media/home/beste/01_Pro/ld25x/bsp_hu/MYD-LD25X-Uboot-L2022.10-V1.0.0/GEN_FIP/myir-st-optee/lib/libutils/ext/trace.c:122
    65b4:	910203f5 	add	x21, sp, #0x80
    65b8:	b0000002 	adrp	x2, 7000 <trace_ext_prefix+0x6bc>
    65bc:	aa1503e0 	mov	x0, x21
    65c0:	9126a842 	add	x2, x2, #0x9aa
    65c4:	d2802001 	mov	x1, #0x100                 	// #256
    65c8:	97fffcd7 	bl	5924 <snprintk>
/media/home/beste/01_Pro/ld25x/bsp_hu/MYD-LD25X-Uboot-L2022.10-V1.0.0/GEN_FIP/myir-st-optee/lib/libutils/ext/trace.c:124
    65cc:	37f80860 	tbnz	w0, #31, 66d8 <trace_vprintf+0x184>
/media/home/beste/01_Pro/ld25x/bsp_hu/MYD-LD25X-Uboot-L2022.10-V1.0.0/GEN_FIP/myir-st-optee/lib/libutils/ext/trace.c:129
    65d0:	d0000003 	adrp	x3, 8000 <_DYNAMIC>
    65d4:	d280201b 	mov	x27, #0x100                 	// #256
/media/home/beste/01_Pro/ld25x/bsp_hu/MYD-LD25X-Uboot-L2022.10-V1.0.0/GEN_FIP/myir-st-optee/lib/libutils/ext/trace.c:126
    65d8:	93407c14 	sxtw	x20, w0
/media/home/beste/01_Pro/ld25x/bsp_hu/MYD-LD25X-Uboot-L2022.10-V1.0.0/GEN_FIP/myir-st-optee/lib/libutils/ext/trace.c:129
    65dc:	cb20c361 	sub	x1, x27, w0, sxtw
    65e0:	f940a063 	ldr	x3, [x3, #320]
    65e4:	b0000002 	adrp	x2, 7000 <trace_ext_prefix+0x6bc>
    65e8:	8b20c2a0 	add	x0, x21, w0, sxtw
    65ec:	9126b842 	add	x2, x2, #0x9ae
    65f0:	97fffccd 	bl	5924 <snprintk>
/media/home/beste/01_Pro/ld25x/bsp_hu/MYD-LD25X-Uboot-L2022.10-V1.0.0/GEN_FIP/myir-st-optee/lib/libutils/ext/trace.c:131
    65f4:	37f80720 	tbnz	w0, #31, 66d8 <trace_vprintf+0x184>
/media/home/beste/01_Pro/ld25x/bsp_hu/MYD-LD25X-Uboot-L2022.10-V1.0.0/GEN_FIP/myir-st-optee/lib/libutils/ext/trace.c:133
    65f8:	8b20c294 	add	x20, x20, w0, sxtw
/media/home/beste/01_Pro/ld25x/bsp_hu/MYD-LD25X-Uboot-L2022.10-V1.0.0/GEN_FIP/myir-st-optee/lib/libutils/ext/trace.c:135
    65fc:	3400093a 	cbz	w26, 6720 <trace_vprintf+0x1cc>
/media/home/beste/01_Pro/ld25x/bsp_hu/MYD-LD25X-Uboot-L2022.10-V1.0.0/GEN_FIP/myir-st-optee/lib/libutils/ext/trace.c:135 (discriminator 1)
    6600:	52800340 	mov	w0, #0x1a                  	// #26
    6604:	1ad32400 	lsr	w0, w0, w19
    6608:	360008c0 	tbz	w0, #0, 6720 <trace_vprintf+0x1cc>
print_thread_id():
/media/home/beste/01_Pro/ld25x/bsp_hu/MYD-LD25X-Uboot-L2022.10-V1.0.0/GEN_FIP/myir-st-optee/lib/libutils/ext/trace.c:66
    660c:	9400007d 	bl	6800 <trace_ext_get_thread_id>
trace_vprintf():
/media/home/beste/01_Pro/ld25x/bsp_hu/MYD-LD25X-Uboot-L2022.10-V1.0.0/GEN_FIP/myir-st-optee/lib/libutils/ext/trace.c:137
    6610:	8b1402ba 	add	x26, x21, x20
    6614:	cb14037b 	sub	x27, x27, x20
print_thread_id():
/media/home/beste/01_Pro/ld25x/bsp_hu/MYD-LD25X-Uboot-L2022.10-V1.0.0/GEN_FIP/myir-st-optee/lib/libutils/ext/trace.c:66
    6618:	2a0003e4 	mov	w4, w0
/media/home/beste/01_Pro/ld25x/bsp_hu/MYD-LD25X-Uboot-L2022.10-V1.0.0/GEN_FIP/myir-st-optee/lib/libutils/ext/trace.c:68
    661c:	37f80700 	tbnz	w0, #31, 66fc <trace_vprintf+0x1a8>
/media/home/beste/01_Pro/ld25x/bsp_hu/MYD-LD25X-Uboot-L2022.10-V1.0.0/GEN_FIP/myir-st-optee/lib/libutils/ext/trace.c:69
    6620:	b0000002 	adrp	x2, 7000 <trace_ext_prefix+0x6bc>
    6624:	aa1b03e1 	mov	x1, x27
    6628:	9126c842 	add	x2, x2, #0x9b2
    662c:	aa1a03e0 	mov	x0, x26
    6630:	52800023 	mov	w3, #0x1                   	// #1
    6634:	97fffcbc 	bl	5924 <snprintk>
trace_vprintf():
/media/home/beste/01_Pro/ld25x/bsp_hu/MYD-LD25X-Uboot-L2022.10-V1.0.0/GEN_FIP/myir-st-optee/lib/libutils/ext/trace.c:144
    6638:	37f80500 	tbnz	w0, #31, 66d8 <trace_vprintf+0x184>
/media/home/beste/01_Pro/ld25x/bsp_hu/MYD-LD25X-Uboot-L2022.10-V1.0.0/GEN_FIP/myir-st-optee/lib/libutils/ext/trace.c:146
    663c:	8b20c293 	add	x19, x20, w0, sxtw
/media/home/beste/01_Pro/ld25x/bsp_hu/MYD-LD25X-Uboot-L2022.10-V1.0.0/GEN_FIP/myir-st-optee/lib/libutils/ext/trace.c:148
    6640:	b4000176 	cbz	x22, 666c <trace_vprintf+0x118>
/media/home/beste/01_Pro/ld25x/bsp_hu/MYD-LD25X-Uboot-L2022.10-V1.0.0/GEN_FIP/myir-st-optee/lib/libutils/ext/trace.c:149
    6644:	b0000002 	adrp	x2, 7000 <trace_ext_prefix+0x6bc>
    6648:	d2802001 	mov	x1, #0x100                 	// #256
    664c:	2a1903e4 	mov	w4, w25
    6650:	aa1603e3 	mov	x3, x22
    6654:	9126f442 	add	x2, x2, #0x9bd
    6658:	cb130021 	sub	x1, x1, x19
    665c:	8b1302a0 	add	x0, x21, x19
    6660:	97fffcb1 	bl	5924 <snprintk>
/media/home/beste/01_Pro/ld25x/bsp_hu/MYD-LD25X-Uboot-L2022.10-V1.0.0/GEN_FIP/myir-st-optee/lib/libutils/ext/trace.c:151
    6664:	37f803a0 	tbnz	w0, #31, 66d8 <trace_vprintf+0x184>
/media/home/beste/01_Pro/ld25x/bsp_hu/MYD-LD25X-Uboot-L2022.10-V1.0.0/GEN_FIP/myir-st-optee/lib/libutils/ext/trace.c:153
    6668:	8b20c273 	add	x19, x19, w0, sxtw
/media/home/beste/01_Pro/ld25x/bsp_hu/MYD-LD25X-Uboot-L2022.10-V1.0.0/GEN_FIP/myir-st-optee/lib/libutils/ext/trace.c:163
    666c:	910183e3 	add	x3, sp, #0x60
    6670:	aa1803e1 	mov	x1, x24
    6674:	aa0303e0 	mov	x0, x3
    6678:	d2800402 	mov	x2, #0x20                  	// #32
    667c:	97ffe67d 	bl	70 <memcpy>
    6680:	aa0003e3 	mov	x3, x0
    6684:	d2802001 	mov	x1, #0x100                 	// #256
    6688:	aa1703e2 	mov	x2, x23
    668c:	cb130021 	sub	x1, x1, x19
    6690:	8b1302a0 	add	x0, x21, x19
    6694:	97fffc8e 	bl	58cc <vsnprintk>
/media/home/beste/01_Pro/ld25x/bsp_hu/MYD-LD25X-Uboot-L2022.10-V1.0.0/GEN_FIP/myir-st-optee/lib/libutils/ext/trace.c:164
    6698:	7100001f 	cmp	w0, #0x0
    669c:	5400004d 	b.le	66a4 <trace_vprintf+0x150>
/media/home/beste/01_Pro/ld25x/bsp_hu/MYD-LD25X-Uboot-L2022.10-V1.0.0/GEN_FIP/myir-st-optee/lib/libutils/ext/trace.c:165
    66a0:	8b20c273 	add	x19, x19, w0, sxtw
/media/home/beste/01_Pro/ld25x/bsp_hu/MYD-LD25X-Uboot-L2022.10-V1.0.0/GEN_FIP/myir-st-optee/lib/libutils/ext/trace.c:167
    66a4:	f103fa7f 	cmp	x19, #0xfe
    66a8:	d2801fc0 	mov	x0, #0xfe                  	// #254
    66ac:	9a809273 	csel	x19, x19, x0, ls	// ls = plast
/media/home/beste/01_Pro/ld25x/bsp_hu/MYD-LD25X-Uboot-L2022.10-V1.0.0/GEN_FIP/myir-st-optee/lib/libutils/ext/trace.c:170
    66b0:	52800140 	mov	w0, #0xa                   	// #10
    66b4:	38336aa0 	strb	w0, [x21, x19]
/media/home/beste/01_Pro/ld25x/bsp_hu/MYD-LD25X-Uboot-L2022.10-V1.0.0/GEN_FIP/myir-st-optee/lib/libutils/ext/trace.c:171
    66b8:	b4000093 	cbz	x19, 66c8 <trace_vprintf+0x174>
/media/home/beste/01_Pro/ld25x/bsp_hu/MYD-LD25X-Uboot-L2022.10-V1.0.0/GEN_FIP/myir-st-optee/lib/libutils/ext/trace.c:171 (discriminator 1)
    66bc:	38736aa0 	ldrb	w0, [x21, x19]
    66c0:	7100281f 	cmp	w0, #0xa
    66c4:	540003c0 	b.eq	673c <trace_vprintf+0x1e8>  // b.none
/media/home/beste/01_Pro/ld25x/bsp_hu/MYD-LD25X-Uboot-L2022.10-V1.0.0/GEN_FIP/myir-st-optee/lib/libutils/ext/trace.c:174
    66c8:	91020be0 	add	x0, sp, #0x82
    66cc:	3833681f 	strb	wzr, [x0, x19]
/media/home/beste/01_Pro/ld25x/bsp_hu/MYD-LD25X-Uboot-L2022.10-V1.0.0/GEN_FIP/myir-st-optee/lib/libutils/ext/trace.c:176
    66d0:	aa1503e0 	mov	x0, x21
    66d4:	94000041 	bl	67d8 <trace_ext_puts>
/media/home/beste/01_Pro/ld25x/bsp_hu/MYD-LD25X-Uboot-L2022.10-V1.0.0/GEN_FIP/myir-st-optee/lib/libutils/ext/trace.c:177
    66d8:	a94153f3 	ldp	x19, x20, [sp, #16]
    66dc:	a9425bf5 	ldp	x21, x22, [sp, #32]
    66e0:	a94363f7 	ldp	x23, x24, [sp, #48]
    66e4:	a9446bf9 	ldp	x25, x26, [sp, #64]
    66e8:	f9402bfb 	ldr	x27, [sp, #80]
    66ec:	a8d87bfd 	ldp	x29, x30, [sp], #384
    66f0:	d65f03c0 	ret
trace_level_to_string():
/media/home/beste/01_Pro/ld25x/bsp_hu/MYD-LD25X-Uboot-L2022.10-V1.0.0/GEN_FIP/myir-st-optee/lib/libutils/ext/trace.c:49
    66f4:	528009a3 	mov	w3, #0x4d                  	// #77
    66f8:	17ffffaf 	b	65b4 <trace_vprintf+0x60>
print_thread_id():
/media/home/beste/01_Pro/ld25x/bsp_hu/MYD-LD25X-Uboot-L2022.10-V1.0.0/GEN_FIP/myir-st-optee/lib/libutils/ext/trace.c:71
    66fc:	aa1b03e1 	mov	x1, x27
    6700:	aa1a03e0 	mov	x0, x26
    6704:	90000004 	adrp	x4, 6000 <kprintf.constprop.0+0x68c>
    6708:	52800023 	mov	w3, #0x1                   	// #1
    670c:	912c4484 	add	x4, x4, #0xb11
    6710:	b0000002 	adrp	x2, 7000 <trace_ext_prefix+0x6bc>
    6714:	9126e042 	add	x2, x2, #0x9b8
    6718:	97fffc83 	bl	5924 <snprintk>
    671c:	17ffffc7 	b	6638 <trace_vprintf+0xe4>
trace_vprintf():
/media/home/beste/01_Pro/ld25x/bsp_hu/MYD-LD25X-Uboot-L2022.10-V1.0.0/GEN_FIP/myir-st-optee/lib/libutils/ext/trace.c:157
    6720:	f103fa9f 	cmp	x20, #0xfe
    6724:	54fffda8 	b.hi	66d8 <trace_vprintf+0x184>  // b.pmore
/media/home/beste/01_Pro/ld25x/bsp_hu/MYD-LD25X-Uboot-L2022.10-V1.0.0/GEN_FIP/myir-st-optee/lib/libutils/ext/trace.c:159
    6728:	91000693 	add	x19, x20, #0x1
    672c:	52800400 	mov	w0, #0x20                  	// #32
    6730:	38346aa0 	strb	w0, [x21, x20]
/media/home/beste/01_Pro/ld25x/bsp_hu/MYD-LD25X-Uboot-L2022.10-V1.0.0/GEN_FIP/myir-st-optee/lib/libutils/ext/trace.c:160
    6734:	38336abf 	strb	wzr, [x21, x19]
    6738:	17ffffcd 	b	666c <trace_vprintf+0x118>
/media/home/beste/01_Pro/ld25x/bsp_hu/MYD-LD25X-Uboot-L2022.10-V1.0.0/GEN_FIP/myir-st-optee/lib/libutils/ext/trace.c:172
    673c:	d1000673 	sub	x19, x19, #0x1
    6740:	17ffffde 	b	66b8 <trace_vprintf+0x164>

0000000000006744 <trace_printf>:
trace_printf():
/media/home/beste/01_Pro/ld25x/bsp_hu/MYD-LD25X-Uboot-L2022.10-V1.0.0/GEN_FIP/myir-st-optee/lib/libutils/ext/trace.c:104
    6744:	a9b97bfd 	stp	x29, x30, [sp, #-112]!
    6748:	910003fd 	mov	x29, sp
    674c:	a9059be5 	stp	x5, x6, [sp, #88]
/media/home/beste/01_Pro/ld25x/bsp_hu/MYD-LD25X-Uboot-L2022.10-V1.0.0/GEN_FIP/myir-st-optee/lib/libutils/ext/trace.c:107
    6750:	9101c3e5 	add	x5, sp, #0x70
    6754:	a90317e5 	stp	x5, x5, [sp, #48]
    6758:	910143e5 	add	x5, sp, #0x50
    675c:	f90023e5 	str	x5, [sp, #64]
    6760:	128002e5 	mov	w5, #0xffffffe8            	// #-24
    6764:	b9004be5 	str	w5, [sp, #72]
/media/home/beste/01_Pro/ld25x/bsp_hu/MYD-LD25X-Uboot-L2022.10-V1.0.0/GEN_FIP/myir-st-optee/lib/libutils/ext/trace.c:108
    6768:	910043e5 	add	x5, sp, #0x10
/media/home/beste/01_Pro/ld25x/bsp_hu/MYD-LD25X-Uboot-L2022.10-V1.0.0/GEN_FIP/myir-st-optee/lib/libutils/ext/trace.c:107
    676c:	b9004fff 	str	wzr, [sp, #76]
/media/home/beste/01_Pro/ld25x/bsp_hu/MYD-LD25X-Uboot-L2022.10-V1.0.0/GEN_FIP/myir-st-optee/lib/libutils/ext/trace.c:104
    6770:	f90037e7 	str	x7, [sp, #104]
/media/home/beste/01_Pro/ld25x/bsp_hu/MYD-LD25X-Uboot-L2022.10-V1.0.0/GEN_FIP/myir-st-optee/lib/libutils/ext/trace.c:108
    6774:	a9431fe6 	ldp	x6, x7, [sp, #48]
    6778:	a9011fe6 	stp	x6, x7, [sp, #16]
    677c:	a9441fe6 	ldp	x6, x7, [sp, #64]
    6780:	a9021fe6 	stp	x6, x7, [sp, #32]
    6784:	97ffff74 	bl	6554 <trace_vprintf>
/media/home/beste/01_Pro/ld25x/bsp_hu/MYD-LD25X-Uboot-L2022.10-V1.0.0/GEN_FIP/myir-st-optee/lib/libutils/ext/trace.c:110
    6788:	a8c77bfd 	ldp	x29, x30, [sp], #112
    678c:	d65f03c0 	ret

0000000000006790 <memchr>:
memchr():
/media/home/beste/01_Pro/ld25x/bsp_hu/MYD-LD25X-Uboot-L2022.10-V1.0.0/GEN_FIP/myir-st-optee/lib/libutils/isoc/newlib/memchr.c:109
    6790:	12001c21 	and	w1, w1, #0xff
/media/home/beste/01_Pro/ld25x/bsp_hu/MYD-LD25X-Uboot-L2022.10-V1.0.0/GEN_FIP/myir-st-optee/lib/libutils/isoc/newlib/memchr.c:153
    6794:	8b020002 	add	x2, x0, x2
    6798:	eb02001f 	cmp	x0, x2
    679c:	54000061 	b.ne	67a8 <memchr+0x18>  // b.any
/media/home/beste/01_Pro/ld25x/bsp_hu/MYD-LD25X-Uboot-L2022.10-V1.0.0/GEN_FIP/myir-st-optee/lib/libutils/isoc/newlib/memchr.c:159
    67a0:	d2800000 	mov	x0, #0x0                   	// #0
/media/home/beste/01_Pro/ld25x/bsp_hu/MYD-LD25X-Uboot-L2022.10-V1.0.0/GEN_FIP/myir-st-optee/lib/libutils/isoc/newlib/memchr.c:160
    67a4:	d65f03c0 	ret
/media/home/beste/01_Pro/ld25x/bsp_hu/MYD-LD25X-Uboot-L2022.10-V1.0.0/GEN_FIP/myir-st-optee/lib/libutils/isoc/newlib/memchr.c:154
    67a8:	39400003 	ldrb	w3, [x0]
    67ac:	6b01007f 	cmp	w3, w1
    67b0:	54ffffa0 	b.eq	67a4 <memchr+0x14>  // b.none
/media/home/beste/01_Pro/ld25x/bsp_hu/MYD-LD25X-Uboot-L2022.10-V1.0.0/GEN_FIP/myir-st-optee/lib/libutils/isoc/newlib/memchr.c:156
    67b4:	91000400 	add	x0, x0, #0x1
    67b8:	17fffff8 	b	6798 <memchr+0x8>

00000000000067bc <strlen>:
strlen():
/media/home/beste/01_Pro/ld25x/bsp_hu/MYD-LD25X-Uboot-L2022.10-V1.0.0/GEN_FIP/myir-st-optee/lib/libutils/isoc/newlib/strlen.c:117
    67bc:	aa0003e1 	mov	x1, x0
    67c0:	39400022 	ldrb	w2, [x1]
    67c4:	35000062 	cbnz	w2, 67d0 <strlen+0x14>
/media/home/beste/01_Pro/ld25x/bsp_hu/MYD-LD25X-Uboot-L2022.10-V1.0.0/GEN_FIP/myir-st-optee/lib/libutils/isoc/newlib/strlen.c:120
    67c8:	cb000020 	sub	x0, x1, x0
    67cc:	d65f03c0 	ret
/media/home/beste/01_Pro/ld25x/bsp_hu/MYD-LD25X-Uboot-L2022.10-V1.0.0/GEN_FIP/myir-st-optee/lib/libutils/isoc/newlib/strlen.c:118
    67d0:	91000421 	add	x1, x1, #0x1
    67d4:	17fffffb 	b	67c0 <strlen+0x4>

00000000000067d8 <trace_ext_puts>:
trace_ext_puts():
/media/home/beste/01_Pro/ld25x/bsp_hu/MYD-LD25X-Uboot-L2022.10-V1.0.0/GEN_FIP/myir-st-optee/lib/libutee/trace_ext.c:22
    67d8:	a9be7bfd 	stp	x29, x30, [sp, #-32]!
    67dc:	910003fd 	mov	x29, sp
    67e0:	f9000bf3 	str	x19, [sp, #16]
    67e4:	aa0003f3 	mov	x19, x0
/media/home/beste/01_Pro/ld25x/bsp_hu/MYD-LD25X-Uboot-L2022.10-V1.0.0/GEN_FIP/myir-st-optee/lib/libutee/trace_ext.c:24
    67e8:	97fffff5 	bl	67bc <strlen>
    67ec:	aa0003e1 	mov	x1, x0
    67f0:	aa1303e0 	mov	x0, x19
/media/home/beste/01_Pro/ld25x/bsp_hu/MYD-LD25X-Uboot-L2022.10-V1.0.0/GEN_FIP/myir-st-optee/lib/libutee/trace_ext.c:28
    67f4:	f9400bf3 	ldr	x19, [sp, #16]
    67f8:	a8c27bfd 	ldp	x29, x30, [sp], #32
/media/home/beste/01_Pro/ld25x/bsp_hu/MYD-LD25X-Uboot-L2022.10-V1.0.0/GEN_FIP/myir-st-optee/lib/libutee/trace_ext.c:24
    67fc:	17ffe659 	b	160 <_ldelf_log>

0000000000006800 <trace_ext_get_thread_id>:
trace_ext_get_thread_id():
/media/home/beste/01_Pro/ld25x/bsp_hu/MYD-LD25X-Uboot-L2022.10-V1.0.0/GEN_FIP/myir-st-optee/lib/libutee/trace_ext.c:33
    6800:	12800000 	mov	w0, #0xffffffff            	// #-1
    6804:	d65f03c0 	ret
