
../build/myb-stm32mp257x-2GB-ca35tdcid-ostl/ldelf/ldelf.elf:     file format elf64-littleaarch64
../build/myb-stm32mp257x-2GB-ca35tdcid-ostl/ldelf/ldelf.elf
architecture: aarch64, flags 0x00000150:
HAS_SYMS, DYNAMIC, D_PAGED
start address 0x0000000000000000

Program Header:
    LOAD off    0x0000000000001000 vaddr 0x0000000000000000 paddr 0x0000000000000000 align 2**12
         filesz 0x0000000000007b00 memsz 0x0000000000007b00 flags r-x
    LOAD off    0x0000000000009000 vaddr 0x0000000000008000 paddr 0x0000000000008000 align 2**12
         filesz 0x00000000000001f4 memsz 0x0000000000000210 flags rw-
 DYNAMIC off    0x0000000000009000 vaddr 0x0000000000008000 paddr 0x0000000000008000 align 2**3
         filesz 0x0000000000000110 memsz 0x0000000000000110 flags rw-
   STACK off    0x0000000000000000 vaddr 0x0000000000000000 paddr 0x0000000000000000 align 2**4
         filesz 0x0000000000000000 memsz 0x0000000000000000 flags rw-

Dynamic Section:
  HASH                 0x0000000000007a40
  GNU_HASH             0x00000000000079d0
  STRTAB               0x0000000000007a38
  SYMTAB               0x00000000000079f0
  STRSZ                0x0000000000000001
  SYMENT               0x0000000000000018
  DEBUG                0x0000000000000000
  RELA                 0x0000000000007a58
  RELASZ               0x00000000000000a8
  RELAENT              0x0000000000000018
  FLAGS_1              0x0000000008000000
  RELACOUNT            0x0000000000000003
private flags = 0x0:

Sections:
Idx Name          Size      VMA               LMA               File off  Algn
  0 .text         00006808  0000000000000000  0000000000000000  00001000  2**4
                  CONTENTS, ALLOC, LOAD, READONLY, CODE
  1 .rodata       000011c1  0000000000006808  0000000000006808  00007808  2**2
                  CONTENTS, ALLOC, LOAD, READONLY, DATA
  2 .gnu.hash     0000001c  00000000000079d0  00000000000079d0  000089d0  2**3
                  CONTENTS, ALLOC, LOAD, READONLY, DATA
  3 .dynsym       00000048  00000000000079f0  00000000000079f0  000089f0  2**3
                  CONTENTS, ALLOC, LOAD, READONLY, DATA
  4 .dynstr       00000001  0000000000007a38  0000000000007a38  00008a38  2**0
                  CONTENTS, ALLOC, LOAD, READONLY, DATA
  5 .hash         00000018  0000000000007a40  0000000000007a40  00008a40  2**3
                  CONTENTS, ALLOC, LOAD, READONLY, DATA
  6 .rela.got     00000060  0000000000007a58  0000000000007a58  00008a58  2**3
                  CONTENTS, ALLOC, LOAD, READONLY, DATA
  7 .dynamic      00000110  0000000000008000  0000000000008000  00009000  2**3
                  CONTENTS, ALLOC, LOAD, DATA
  8 .got          00000040  0000000000008110  0000000000008110  00009110  2**3
                  CONTENTS, ALLOC, LOAD, DATA
  9 .data         000000a4  0000000000008150  0000000000008150  00009150  2**3
                  CONTENTS, ALLOC, LOAD, DATA
 10 .bss          00000018  00000000000081f8  00000000000081f8  000091f4  2**3
                  ALLOC
 11 .debug_line   000070e9  0000000000000000  0000000000000000  000091f4  2**0
                  CONTENTS, READONLY, DEBUGGING, OCTETS
 12 .debug_line_str 00000729  0000000000000000  0000000000000000  000102dd  2**0
                  CONTENTS, READONLY, DEBUGGING, OCTETS
 13 .debug_info   00010075  0000000000000000  0000000000000000  00010a06  2**0
                  CONTENTS, READONLY, DEBUGGING, OCTETS
 14 .debug_abbrev 00002d2a  0000000000000000  0000000000000000  00020a7b  2**0
                  CONTENTS, READONLY, DEBUGGING, OCTETS
 15 .debug_aranges 00001050  0000000000000000  0000000000000000  000237b0  2**4
                  CONTENTS, READONLY, DEBUGGING, OCTETS
 16 .debug_str    00015de4  0000000000000000  0000000000000000  00024800  2**0
                  CONTENTS, READONLY, DEBUGGING, OCTETS
 17 .rela.dyn     00000048  0000000000007ab8  0000000000007ab8  00008ab8  2**3
                  CONTENTS, ALLOC, LOAD, READONLY, DATA
 18 .debug_rnglists 000012a2  0000000000000000  0000000000000000  0003a5e4  2**0
                  CONTENTS, READONLY, DEBUGGING, OCTETS
 19 .debug_loclists 0000a8d0  0000000000000000  0000000000000000  0003b886  2**0
                  CONTENTS, READONLY, DEBUGGING, OCTETS
 20 .debug_macro  000133bd  0000000000000000  0000000000000000  00046156  2**0
                  CONTENTS, READONLY, DEBUGGING, OCTETS
 21 .comment      00000012  0000000000000000  0000000000000000  00059513  2**0
                  CONTENTS, READONLY
SYMBOL TABLE:
0000000000000000 l    d  .text	0000000000000000 .text
0000000000006808 l    d  .rodata	0000000000000000 .rodata
00000000000079d0 l    d  .gnu.hash	0000000000000000 .gnu.hash
00000000000079f0 l    d  .dynsym	0000000000000000 .dynsym
0000000000007a38 l    d  .dynstr	0000000000000000 .dynstr
0000000000007a40 l    d  .hash	0000000000000000 .hash
0000000000007a58 l    d  .rela.got	0000000000000000 .rela.got
0000000000008000 l    d  .dynamic	0000000000000000 .dynamic
0000000000008110 l    d  .got	0000000000000000 .got
0000000000008150 l    d  .data	0000000000000000 .data
00000000000081f8 l    d  .bss	0000000000000000 .bss
0000000000000000 l    d  .debug_line	0000000000000000 .debug_line
0000000000000000 l    d  .debug_line_str	0000000000000000 .debug_line_str
0000000000000000 l    d  .debug_info	0000000000000000 .debug_info
0000000000000000 l    d  .debug_abbrev	0000000000000000 .debug_abbrev
0000000000000000 l    d  .debug_aranges	0000000000000000 .debug_aranges
0000000000000000 l    d  .debug_str	0000000000000000 .debug_str
0000000000007ab8 l    d  .rela.dyn	0000000000000000 .rela.dyn
0000000000000000 l    d  .debug_rnglists	0000000000000000 .debug_rnglists
0000000000000000 l    d  .debug_loclists	0000000000000000 .debug_loclists
0000000000000000 l    d  .debug_macro	0000000000000000 .debug_macro
0000000000000000 l    d  .comment	0000000000000000 .comment
0000000000000000 l    df *ABS*	0000000000000000 start_a64.o
000000000000005c l       .text	0000000000000000 reloc_begin_rel
0000000000000060 l       .text	0000000000000000 reloc_end_rel
0000000000000000 l    df *ABS*	0000000000000000 memcpy.c
0000000000000000 l    df *ABS*	0000000000000000 syscalls_a64.o
0000000000000000 l    df *ABS*	0000000000000000 tlsdesc_rel_a64.o
0000000000000000 l    df *ABS*	0000000000000000 dl.c
0000000000000000 l    df *ABS*	0000000000000000 main.c
00000000000002b4 l     F .text	000000000000003c dl_entry
00000000000002f0 l     F .text	000000000000004c print_to_console
000000000000033c l     F .text	00000000000000f0 dump_ta_state
000000000000690e l     O .rodata	000000000000000e __func__.0
00000000000081f8 l     O .bss	0000000000000008 mpool_base
000000000000691c l     O .rodata	0000000000000006 __func__.1
0000000000000000 l    df *ABS*	0000000000000000 sys.c
0000000000000000 l    df *ABS*	0000000000000000 ta_elf.c
0000000000000670 l     F .text	00000000000000a8 check_range
000000000000720d l     O .rodata	000000000000000c __func__.18
0000000000000718 l     F .text	0000000000000058 check_hashtab
00000000000071ca l     O .rodata	000000000000000e __func__.14
0000000000000770 l     F .text	0000000000000068 queue_elf_helper
00000000000007d8 l     F .text	00000000000000d4 add_segment
000000000000726c l     O .rodata	000000000000000c __func__.23
00000000000008ac l     F .text	0000000000000034 get_pad_begin
00000000000008e0 l     F .text	0000000000000084 ta_elf_add_bti
00000000000072b4 l     O .rodata	000000000000000f __func__.29
0000000000000964 l     F .text	00000000000002a8 init_elf
0000000000007297 l     O .rodata	0000000000000009 __func__.27
0000000000000c0c l     F .text	000000000000005c close_handle
0000000000007192 l     O .rodata	000000000000000d __func__.11
0000000000000c68 l     F .text	0000000000000058 print_wrapper
0000000000000cc0 l     F .text	0000000000000070 check_phdr_in_range.constprop.0
0000000000007219 l     O .rodata	0000000000000014 __func__.19
0000000000000d30 l     F .text	0000000000000020 _assert_trap.constprop.0
0000000000000d50 l     F .text	000000000000013c print_seg
0000000000008208 l     O .bss	0000000000000008 ta_stack
0000000000000e8c l     F .text	0000000000000114 copy_section_headers
00000000000071f8 l     O .rodata	0000000000000015 __func__.17
0000000000000fa0 l     F .text	00000000000004a0 populate_segments
00000000000072d4 l     O .rodata	0000000000000012 __func__.32
00000000000072c3 l     O .rodata	0000000000000011 __func__.31
0000000000001440 l     F .text	00000000000004c8 map_segments
000000000000728a l     O .rodata	000000000000000d __func__.26
0000000000008150 l     O .data	0000000000000008 last_tls_mod_id.25
0000000000007278 l     O .rodata	0000000000000012 __func__.24
000000000000725c l     O .rodata	0000000000000010 __func__.22
0000000000001908 l     F .text	00000000000000d4 get_next_in_order
0000000000007120 l     O .rodata	0000000000000012 __func__.5
00000000000019dc l     F .text	0000000000000044 read_dyn
0000000000001a20 l     F .text	00000000000000ec save_soname_from_segment
000000000000719f l     O .rodata	0000000000000019 __func__.12
0000000000001b0c l     F .text	0000000000000434 save_symtab
00000000000071d8 l     O .rodata	0000000000000010 __func__.15
00000000000071e8 l     O .rodata	0000000000000010 __func__.16
00000000000071b8 l     O .rodata	0000000000000012 __func__.13
0000000000001f40 l     F .text	0000000000000128 get_init_fini_array.constprop.0
00000000000070e2 l     O .rodata	0000000000000014 __func__.2
0000000000002068 l     F .text	0000000000000094 elf_get_init_fini_array.constprop.0
0000000000002144 l     F .text	000000000000005c queue_elf
00000000000072f0 l     O .rodata	000000000000000a __func__.34
00000000000021a0 l     F .text	00000000000001a0 add_deps_from_segment
000000000000722d l     O .rodata	0000000000000016 __func__.20
0000000000002340 l     F .text	0000000000000080 add_dependencies
00000000000072fa l     O .rodata	0000000000000011 __func__.35
0000000000008158 l     O .data	0000000000000008 next_offs.30
00000000000072a0 l     O .rodata	0000000000000014 __func__.28
0000000000007243 l     O .rodata	0000000000000019 __func__.21
00000000000072e6 l     O .rodata	000000000000000a __func__.33
0000000000008200 l     O .bss	0000000000000008 ta_stack_size
0000000000007161 l     O .rodata	0000000000000017 __func__.9
0000000000007148 l     O .rodata	0000000000000019 __func__.8
0000000000007132 l     O .rodata	0000000000000016 __func__.7
00000000000070ff l     O .rodata	0000000000000021 __func__.4
00000000000070f6 l     O .rodata	0000000000000009 __func__.3
00000000000070c9 l     O .rodata	0000000000000019 __func__.1
00000000000070b6 l     O .rodata	0000000000000013 __func__.0
0000000000007178 l     O .rodata	000000000000001a __func__.10
0000000000000000 l    df *ABS*	0000000000000000 ta_elf_rel.c
0000000000003338 l     F .text	00000000000001dc check_found_sym
000000000000760a l     O .rodata	0000000000000010 __func__.7
00000000000075fe l     O .rodata	000000000000000c __func__.6
0000000000003514 l     F .text	0000000000000234 resolve_sym_helper
000000000000761a l     O .rodata	0000000000000013 __func__.8
0000000000003748 l     F .text	00000000000000b0 e32_get_sym_name.constprop.0.isra.0
00000000000075e0 l     O .rodata	0000000000000011 __func__.4
00000000000037f8 l     F .text	00000000000000ac e64_get_sym_name.constprop.0.isra.0
00000000000075a3 l     O .rodata	0000000000000011 __func__.0
0000000000003960 l     F .text	0000000000000070 resolve_sym
00000000000075d4 l     O .rodata	000000000000000c __func__.3
00000000000039d0 l     F .text	0000000000000054 e32_process_dyn_rel
0000000000003a24 l     F .text	0000000000000054 e64_process_dyn_rela
0000000000003a78 l     F .text	0000000000000080 e64_process_tls_tprel_rela
00000000000075f1 l     O .rodata	000000000000000d __func__.5
00000000000075c1 l     O .rodata	0000000000000013 __func__.2
00000000000075b4 l     O .rodata	000000000000000d __func__.1
0000000000000000 l    df *ABS*	0000000000000000 unwind_arm32.c
00000000000043a8 l     F .text	000000000000005c pop_vsp
0000000000004404 l     F .text	0000000000000088 unwind_exec_read_byte
0000000000000000 l    df *ABS*	0000000000000000 unwind_arm64.c
0000000000000000 l    df *ABS*	0000000000000000 assert.c
0000000000000000 l    df *ABS*	0000000000000000 tee_uuid_from_str.c
0000000000004ae0 l     F .text	0000000000000084 parse_hex
0000000000000000 l    df *ABS*	0000000000000000 utee_syscalls_a64.o
0000000000000000 l    df *ABS*	0000000000000000 bget_malloc.c
0000000000004cd4 l     F .text	0000000000000038 raw_malloc_return_hook
0000000000004d0c l     F .text	0000000000000010 _assert_trap
0000000000004d1c l     F .text	0000000000000028 bget_buf_size.part.0
000000000000792c l     O .rodata	000000000000000e __func__.2
000000000000794b l     O .rodata	0000000000000005 __func__.8
0000000000007945 l     O .rodata	0000000000000006 __func__.7
0000000000007940 l     O .rodata	0000000000000005 __func__.5
000000000000793a l     O .rodata	0000000000000006 __func__.4
0000000000008170 l     O .data	0000000000000080 malloc_ctx
00000000000055b8 l     F .text	00000000000000d0 gen_malloc_add_pool
0000000000007918 l     O .rodata	0000000000000014 __func__.1
0000000000000000 l    df *ABS*	0000000000000000 isxdigit.c
0000000000000000 l    df *ABS*	0000000000000000 snprintf.c
0000000000000000 l    df *ABS*	0000000000000000 tolower.c
0000000000000000 l    df *ABS*	0000000000000000 memcmp.c
0000000000000000 l    df *ABS*	0000000000000000 memset.c
0000000000000000 l    df *ABS*	0000000000000000 strcmp.c
0000000000000000 l    df *ABS*	0000000000000000 strcpy.c
0000000000000000 l    df *ABS*	0000000000000000 strnlen.c
0000000000000000 l    df *ABS*	0000000000000000 snprintk.c
0000000000005974 l     F .text	0000000000000be0 kprintf.constprop.0
0000000000007999 l     O .rodata	0000000000000011 hexdigits
0000000000007988 l     O .rodata	0000000000000011 HEXDIGITS
0000000000000000 l    df *ABS*	0000000000000000 trace.c
00000000000079c4 l     O .rodata	0000000000000005 lvl_strs.0
0000000000000000 l    df *ABS*	0000000000000000 memchr.c
0000000000000000 l    df *ABS*	0000000000000000 strlen.c
0000000000000000 l    df *ABS*	0000000000000000 trace_ext.c
0000000000000000 l    df *ABS*	0000000000000000 
00000000000057fc l     F .text	0000000000000018 strcpy
0000000000005444 l     F .text	0000000000000010 raw_free
00000000000038a4 l     F .text	00000000000000bc ta_elf_resolve_sym
0000000000004b64 l     F .text	0000000000000158 tee_uuid_from_str
00000000000058cc l     F .text	0000000000000058 vsnprintk
0000000000005720 l     F .text	0000000000000054 snprintf
0000000000008000 l     O *ABS*	0000000000000000 _DYNAMIC
0000000000003af8 l     F .text	00000000000008b0 ta_elf_relocate
00000000000020fc l     F .text	0000000000000048 ta_elf_find_elf
0000000000006744 l     F .text	000000000000004c trace_printf
0000000000000070 l     F .text	00000000000000d8 memcpy
00000000000005ec l     F .text	0000000000000010 sys_return_cleanup
0000000000005774 l     F .text	0000000000000014 tolower
0000000000005688 l     F .text	0000000000000018 malloc
00000000000049f8 l     F .text	0000000000000090 print_stack_arm64
0000000000000668 l     F .text	0000000000000004 sys_remap
000000000000297c l     F .text	0000000000000260 ta_elf_print_mappings
00000000000053f0 l     F .text	0000000000000054 raw_malloc
000000000000501c l     F .text	0000000000000084 bgetz
0000000000000550 l     F .text	000000000000009c __panic
0000000000006554 l     F .text	00000000000001f0 trace_vprintf
0000000000004a88 l     F .text	0000000000000044 _assert_log
00000000000056f8 l     F .text	0000000000000028 isxdigit
0000000000005814 l     F .text	0000000000000028 strnlen
0000000000002c60 l     F .text	0000000000000048 ta_elf_stack_trace_a32
00000000000056a0 l     F .text	000000000000001c calloc
00000000000001ec l     F .text	0000000000000060 dlopen_entry
0000000000000618 l     F .text	0000000000000004 sys_unmap
0000000000006790 l     F .text	000000000000002c memchr
0000000000002f84 l     F .text	0000000000000238 ta_elf_set_elf_phdr_info
0000000000004954 l     F .text	0000000000000004 ftrace_map_lr
00000000000028ec l     F .text	0000000000000090 ta_elf_finalize_mappings
000000000000328c l     F .text	00000000000000ac ta_elf_add_library
00000000000056bc l     F .text	0000000000000018 realloc
000000000000024c l     F .text	0000000000000068 dlsym_entry
0000000000005788 l     F .text	0000000000000034 memcmp
00000000000056e4 l     F .text	0000000000000014 malloc_add_pool
00000000000054c4 l     F .text	00000000000000f4 raw_realloc
00000000000031bc l     F .text	00000000000000d0 ta_elf_finalize_load_main
000000000000532c l     F .text	00000000000000c4 bpool
000000000000061c l     F .text	000000000000000c sys_open_ta_bin
0000000000004958 l     F .text	0000000000000004 pauth_strip_pac
00000000000057bc l     F .text	000000000000001c memset
0000000000002bdc l     F .text	0000000000000084 find_exidx
00000000000057d8 l     F .text	0000000000000024 strcmp
0000000000000628 l     F .text	0000000000000008 sys_close_ta_bin
00000000000048d0 l     F .text	0000000000000084 print_stack_arm32
0000000000002ca8 l     F .text	0000000000000030 ta_elf_stack_trace_a64
0000000000005924 l     F .text	0000000000000050 snprintk
000000000000448c l     F .text	0000000000000444 unwind_stack_arm32
0000000000004d44 l     F .text	00000000000002d8 bget
00000000000005fc l     F .text	000000000000001c sys_map_zi
0000000000000630 l     F .text	000000000000001c sys_map_ta_bin
000000000000042c l     F .text	0000000000000124 ldelf
0000000000004acc l     F .text	0000000000000014 _assert_break
0000000000008128 l     O *ABS*	0000000000000000 _GLOBAL_OFFSET_TABLE_
0000000000002800 l     F .text	00000000000000ec ta_elf_load_dependency
000000000000583c l     F .text	0000000000000090 __vsnprintf
000000000000066c l     F .text	0000000000000004 sys_gen_random_num
00000000000067d8 l     F .text	0000000000000028 trace_ext_puts
0000000000006800 l     F .text	0000000000000008 trace_ext_get_thread_id
0000000000000660 l     F .text	0000000000000008 sys_set_prot
0000000000005454 l     F .text	0000000000000070 raw_calloc
000000000000495c l     F .text	000000000000009c unwind_stack_arm64
00000000000067bc l     F .text	000000000000001c strlen
00000000000050a0 l     F .text	000000000000028c brel
00000000000023c0 l     F .text	0000000000000440 ta_elf_load_main
0000000000002cd8 l     F .text	00000000000002ac ta_elf_set_init_fini_info_compat
000000000000064c l     F .text	0000000000000014 sys_copy_from_ta_bin
00000000000056d4 l     F .text	0000000000000010 free
0000000000007a58 g       .rela.got	0000000000000000 __reloc_begin
00000000000001cc g     F .text	000000000000000c _ldelf_remap
0000000000008160 g     O .data	0000000000000010 .hidden main_elf_queue
0000000000000000 g       .text	0000000000000000 __text_start
00000000000001b4 g     F .text	000000000000000c _ldelf_cp_from_bin
0000000000000154 g     F .text	000000000000000c _ldelf_return
0000000000000148 g     F .text	000000000000000c _ldelf_panic
00000000000081f0 g     O .data	0000000000000004 .hidden trace_level
0000000000006944 g     O .rodata	0000000000000003 .hidden trace_ext_prefix
0000000000000160 g     F .text	000000000000000c _ldelf_log
00000000000001a8 g     F .text	000000000000000c _ldelf_map_bin
0000000000004cc8 g     F .text	000000000000000c __utee_panic
0000000000004cbc g     F .text	000000000000000c _utee_panic
0000000000007b00 g       .rela.dyn	0000000000000000 __reloc_end
00000000000001d8 g     F .text	000000000000000c _ldelf_gen_rnd_num
0000000000000000 g     F .text	0000000000000064 _ldelf_start
000000000000019c g     F .text	000000000000000c _ldelf_close_bin
0000000000006808 g       .text	0000000000000000 __text_end
0000000000000184 g     F .text	000000000000000c _ldelf_unmap
00000000000001e4 g     F .text	0000000000000008 tlsdesc_resolve
0000000000000190 g     F .text	000000000000000c _ldelf_open_bin
00000000000001c0 g     F .text	000000000000000c _ldelf_set_prot
0000000000000178 g     F .text	000000000000000c _ldelf_map_zi
000000000000016c g     F .text	000000000000000c __ldelf_panic



Disassembly of section .text:

0000000000000000 <_ldelf_start>:
_ldelf_start():
/media/home/beste/01_Pro/ld25x/bsp_hu/MYD-LD25X-Uboot-L2022.10-V1.0.0/GEN_FIP/myir-st-optee/ldelf/start_a64.S:24
       0:	100002e4 	adr	x4, 5c <reloc_begin_rel>
/media/home/beste/01_Pro/ld25x/bsp_hu/MYD-LD25X-Uboot-L2022.10-V1.0.0/GEN_FIP/myir-st-optee/ldelf/start_a64.S:25
       4:	180002c5 	ldr	w5, 5c <reloc_begin_rel>
/media/home/beste/01_Pro/ld25x/bsp_hu/MYD-LD25X-Uboot-L2022.10-V1.0.0/GEN_FIP/myir-st-optee/ldelf/start_a64.S:26
       8:	180002c6 	ldr	w6, 60 <reloc_end_rel>
/media/home/beste/01_Pro/ld25x/bsp_hu/MYD-LD25X-Uboot-L2022.10-V1.0.0/GEN_FIP/myir-st-optee/ldelf/start_a64.S:27
       c:	8b0400a5 	add	x5, x5, x4
/media/home/beste/01_Pro/ld25x/bsp_hu/MYD-LD25X-Uboot-L2022.10-V1.0.0/GEN_FIP/myir-st-optee/ldelf/start_a64.S:28
      10:	8b0400c6 	add	x6, x6, x4
/media/home/beste/01_Pro/ld25x/bsp_hu/MYD-LD25X-Uboot-L2022.10-V1.0.0/GEN_FIP/myir-st-optee/ldelf/start_a64.S:29
      14:	eb0600bf 	cmp	x5, x6
/media/home/beste/01_Pro/ld25x/bsp_hu/MYD-LD25X-Uboot-L2022.10-V1.0.0/GEN_FIP/myir-st-optee/ldelf/start_a64.S:30
      18:	54000180 	b.eq	48 <_ldelf_start+0x48>  // b.none
/media/home/beste/01_Pro/ld25x/bsp_hu/MYD-LD25X-Uboot-L2022.10-V1.0.0/GEN_FIP/myir-st-optee/ldelf/start_a64.S:32
      1c:	10ffff24 	adr	x4, 0 <_ldelf_start>
/media/home/beste/01_Pro/ld25x/bsp_hu/MYD-LD25X-Uboot-L2022.10-V1.0.0/GEN_FIP/myir-st-optee/ldelf/start_a64.S:35
      20:	a8c120a7 	ldp	x7, x8, [x5], #16
/media/home/beste/01_Pro/ld25x/bsp_hu/MYD-LD25X-Uboot-L2022.10-V1.0.0/GEN_FIP/myir-st-optee/ldelf/start_a64.S:36
      24:	f84084a9 	ldr	x9, [x5], #8
/media/home/beste/01_Pro/ld25x/bsp_hu/MYD-LD25X-Uboot-L2022.10-V1.0.0/GEN_FIP/myir-st-optee/ldelf/start_a64.S:37
      28:	92407d08 	and	x8, x8, #0xffffffff
/media/home/beste/01_Pro/ld25x/bsp_hu/MYD-LD25X-Uboot-L2022.10-V1.0.0/GEN_FIP/myir-st-optee/ldelf/start_a64.S:38
      2c:	f1100d1f 	cmp	x8, #0x403
/media/home/beste/01_Pro/ld25x/bsp_hu/MYD-LD25X-Uboot-L2022.10-V1.0.0/GEN_FIP/myir-st-optee/ldelf/start_a64.S:40
      30:	54000121 	b.ne	54 <_ldelf_start+0x54>  // b.any
/media/home/beste/01_Pro/ld25x/bsp_hu/MYD-LD25X-Uboot-L2022.10-V1.0.0/GEN_FIP/myir-st-optee/ldelf/start_a64.S:46
      34:	8b0400e7 	add	x7, x7, x4
/media/home/beste/01_Pro/ld25x/bsp_hu/MYD-LD25X-Uboot-L2022.10-V1.0.0/GEN_FIP/myir-st-optee/ldelf/start_a64.S:47
      38:	8b040129 	add	x9, x9, x4
/media/home/beste/01_Pro/ld25x/bsp_hu/MYD-LD25X-Uboot-L2022.10-V1.0.0/GEN_FIP/myir-st-optee/ldelf/start_a64.S:48
      3c:	f90000e9 	str	x9, [x7]
/media/home/beste/01_Pro/ld25x/bsp_hu/MYD-LD25X-Uboot-L2022.10-V1.0.0/GEN_FIP/myir-st-optee/ldelf/start_a64.S:50
      40:	eb0600bf 	cmp	x5, x6
/media/home/beste/01_Pro/ld25x/bsp_hu/MYD-LD25X-Uboot-L2022.10-V1.0.0/GEN_FIP/myir-st-optee/ldelf/start_a64.S:51
      44:	54fffee3 	b.cc	20 <_ldelf_start+0x20>  // b.lo, b.ul, b.last
/media/home/beste/01_Pro/ld25x/bsp_hu/MYD-LD25X-Uboot-L2022.10-V1.0.0/GEN_FIP/myir-st-optee/ldelf/start_a64.S:53
      48:	940000f9 	bl	42c <ldelf>
/media/home/beste/01_Pro/ld25x/bsp_hu/MYD-LD25X-Uboot-L2022.10-V1.0.0/GEN_FIP/myir-st-optee/ldelf/start_a64.S:54
      4c:	d2800000 	mov	x0, #0x0                   	// #0
/media/home/beste/01_Pro/ld25x/bsp_hu/MYD-LD25X-Uboot-L2022.10-V1.0.0/GEN_FIP/myir-st-optee/ldelf/start_a64.S:55
      50:	94000041 	bl	154 <_ldelf_return>
/media/home/beste/01_Pro/ld25x/bsp_hu/MYD-LD25X-Uboot-L2022.10-V1.0.0/GEN_FIP/myir-st-optee/ldelf/start_a64.S:56
      54:	d2800000 	mov	x0, #0x0                   	// #0
/media/home/beste/01_Pro/ld25x/bsp_hu/MYD-LD25X-Uboot-L2022.10-V1.0.0/GEN_FIP/myir-st-optee/ldelf/start_a64.S:57
      58:	9400003c 	bl	148 <_ldelf_panic>

000000000000005c <reloc_begin_rel>:
      5c:	000079fc 	.word	0x000079fc

0000000000000060 <reloc_end_rel>:
      60:	00007aa0 	.word	0x00007aa0
	...

0000000000000070 <memcpy>:
raw_memalign():
/media/home/beste/01_Pro/ld25x/bsp_hu/MYD-LD25X-Uboot-L2022.10-V1.0.0/GEN_FIP/myir-st-optee/lib/libutils/isoc/bget_malloc.c:369
      70:	aa0003e5 	mov	x5, x0
bpool_foreach_pool():
/media/home/beste/01_Pro/ld25x/bsp_hu/MYD-LD25X-Uboot-L2022.10-V1.0.0/GEN_FIP/myir-st-optee/lib/libutils/isoc/bget_malloc.c:406
      74:	f1007c5f 	cmp	x2, #0x1f
      78:	540004c9 	b.ls	110 <memcpy+0xa0>  // b.plast
      7c:	aa010006 	orr	x6, x0, x1
/media/home/beste/01_Pro/ld25x/bsp_hu/MYD-LD25X-Uboot-L2022.10-V1.0.0/GEN_FIP/myir-st-optee/lib/libutils/isoc/bget_malloc.c:913
      80:	f24008c6 	ands	x6, x6, #0x7
/media/home/beste/01_Pro/ld25x/bsp_hu/MYD-LD25X-Uboot-L2022.10-V1.0.0/GEN_FIP/myir-st-optee/lib/libutils/isoc/bget_malloc.c:1005
      84:	540005a1 	b.ne	138 <memcpy+0xc8>  // b.any
      88:	d1008048 	sub	x8, x2, #0x20
/media/home/beste/01_Pro/ld25x/bsp_hu/MYD-LD25X-Uboot-L2022.10-V1.0.0/GEN_FIP/myir-st-optee/lib/libutils/isoc/bget_malloc.c:382
      8c:	aa0103e4 	mov	x4, x1
      90:	927be908 	and	x8, x8, #0xffffffffffffffe0
      94:	aa0003e3 	mov	x3, x0
      98:	91008108 	add	x8, x8, #0x20
      9c:	8b080005 	add	x5, x0, x8
      a0:	f9400087 	ldr	x7, [x4]
      a4:	f9000067 	str	x7, [x3]
      a8:	91008084 	add	x4, x4, #0x20
      ac:	91008063 	add	x3, x3, #0x20
      b0:	f85e8087 	ldur	x7, [x4, #-24]
      b4:	f81e8067 	stur	x7, [x3, #-24]
      b8:	f85f0087 	ldur	x7, [x4, #-16]
/media/home/beste/01_Pro/ld25x/bsp_hu/MYD-LD25X-Uboot-L2022.10-V1.0.0/GEN_FIP/myir-st-optee/lib/libutils/isoc/bget_malloc.c:383
      bc:	f81f0067 	stur	x7, [x3, #-16]
      c0:	f85f8087 	ldur	x7, [x4, #-8]
      c4:	f81f8067 	stur	x7, [x3, #-8]
      c8:	eb05007f 	cmp	x3, x5
      cc:	54fffea1 	b.ne	a0 <memcpy+0x30>  // b.any
bget_buf_size():
/media/home/beste/01_Pro/ld25x/bsp_hu/MYD-LD25X-Uboot-L2022.10-V1.0.0/GEN_FIP/myir-st-optee/lib/libutils/isoc/bget_malloc.c:383
      d0:	8b080021 	add	x1, x1, x8
      d4:	92401043 	and	x3, x2, #0x1f
      d8:	f27d045f 	tst	x2, #0x18
      dc:	54000320 	b.eq	140 <memcpy+0xd0>  // b.none
bpool_foreach():
/media/home/beste/01_Pro/ld25x/bsp_hu/MYD-LD25X-Uboot-L2022.10-V1.0.0/GEN_FIP/myir-st-optee/lib/libutils/isoc/bget_malloc.c:383
      e0:	f8666824 	ldr	x4, [x1, x6]
      e4:	f82668a4 	str	x4, [x5, x6]
gen_malloc_buffer_is_within_alloced():
/media/home/beste/01_Pro/ld25x/bsp_hu/MYD-LD25X-Uboot-L2022.10-V1.0.0/GEN_FIP/myir-st-optee/lib/libutils/isoc/bget_malloc.c:383
      e8:	910020c6 	add	x6, x6, #0x8
/media/home/beste/01_Pro/ld25x/bsp_hu/MYD-LD25X-Uboot-L2022.10-V1.0.0/GEN_FIP/myir-st-optee/lib/libutils/isoc/bget_malloc.c:389
      ec:	cb060064 	sub	x4, x3, x6
/media/home/beste/01_Pro/ld25x/bsp_hu/MYD-LD25X-Uboot-L2022.10-V1.0.0/GEN_FIP/myir-st-optee/lib/libutils/isoc/bget_malloc.c:401
      f0:	f1001c9f 	cmp	x4, #0x7
/media/home/beste/01_Pro/ld25x/bsp_hu/MYD-LD25X-Uboot-L2022.10-V1.0.0/GEN_FIP/myir-st-optee/lib/libutils/isoc/bget_malloc.c:410
      f4:	54ffff68 	b.hi	e0 <memcpy+0x70>  // b.pmore
bpool_foreach_pool():
/media/home/beste/01_Pro/ld25x/bsp_hu/MYD-LD25X-Uboot-L2022.10-V1.0.0/GEN_FIP/myir-st-optee/lib/libutils/isoc/bget_malloc.c:410
      f8:	d1002063 	sub	x3, x3, #0x8
      fc:	92400842 	and	x2, x2, #0x7
/media/home/beste/01_Pro/ld25x/bsp_hu/MYD-LD25X-Uboot-L2022.10-V1.0.0/GEN_FIP/myir-st-optee/lib/libutils/isoc/bget_malloc.c:913
     100:	927df063 	and	x3, x3, #0xfffffffffffffff8
malloc_buffer_is_within_alloced():
/media/home/beste/01_Pro/ld25x/bsp_hu/MYD-LD25X-Uboot-L2022.10-V1.0.0/GEN_FIP/myir-st-optee/lib/libutils/isoc/bget_malloc.c:1005
     104:	91002063 	add	x3, x3, #0x8
/media/home/beste/01_Pro/ld25x/bsp_hu/MYD-LD25X-Uboot-L2022.10-V1.0.0/GEN_FIP/myir-st-optee/lib/libutils/isoc/bget_malloc.c:1003
     108:	8b0300a5 	add	x5, x5, x3
     10c:	8b030021 	add	x1, x1, x3
gen_malloc_buffer_is_within_alloced():
/media/home/beste/01_Pro/ld25x/bsp_hu/MYD-LD25X-Uboot-L2022.10-V1.0.0/GEN_FIP/myir-st-optee/lib/libutils/isoc/bget_malloc.c:372
     110:	d1000446 	sub	x6, x2, #0x1
/media/home/beste/01_Pro/ld25x/bsp_hu/MYD-LD25X-Uboot-L2022.10-V1.0.0/GEN_FIP/myir-st-optee/lib/libutils/isoc/bget_malloc.c:386
     114:	b4000102 	cbz	x2, 134 <memcpy+0xc4>
/media/home/beste/01_Pro/ld25x/bsp_hu/MYD-LD25X-Uboot-L2022.10-V1.0.0/GEN_FIP/myir-st-optee/lib/libutils/isoc/bget_malloc.c:389
     118:	d2800002 	mov	x2, #0x0                   	// #0
/media/home/beste/01_Pro/ld25x/bsp_hu/MYD-LD25X-Uboot-L2022.10-V1.0.0/GEN_FIP/myir-st-optee/lib/libutils/isoc/bget_malloc.c:207
     11c:	d503201f 	nop
/media/home/beste/01_Pro/ld25x/bsp_hu/MYD-LD25X-Uboot-L2022.10-V1.0.0/GEN_FIP/myir-st-optee/lib/libutils/isoc/bget_malloc.c:208
     120:	38626824 	ldrb	w4, [x1, x2]
     124:	eb0200df 	cmp	x6, x2
     128:	382268a4 	strb	w4, [x5, x2]
memcpy():
/media/home/beste/01_Pro/ld25x/bsp_hu/MYD-LD25X-Uboot-L2022.10-V1.0.0/GEN_FIP/myir-st-optee/lib/libutils/isoc/newlib/memcpy.c:130
     12c:	91000442 	add	x2, x2, #0x1
     130:	54ffff81 	b.ne	120 <memcpy+0xb0>  // b.any
/media/home/beste/01_Pro/ld25x/bsp_hu/MYD-LD25X-Uboot-L2022.10-V1.0.0/GEN_FIP/myir-st-optee/lib/libutils/isoc/newlib/memcpy.c:135
     134:	d65f03c0 	ret
/media/home/beste/01_Pro/ld25x/bsp_hu/MYD-LD25X-Uboot-L2022.10-V1.0.0/GEN_FIP/myir-st-optee/lib/libutils/isoc/newlib/memcpy.c:130
     138:	d1000446 	sub	x6, x2, #0x1
     13c:	17fffff7 	b	118 <memcpy+0xa8>
/media/home/beste/01_Pro/ld25x/bsp_hu/MYD-LD25X-Uboot-L2022.10-V1.0.0/GEN_FIP/myir-st-optee/lib/libutils/isoc/newlib/memcpy.c:116
     140:	aa0303e2 	mov	x2, x3
     144:	17fffff3 	b	110 <memcpy+0xa0>

0000000000000148 <_ldelf_panic>:
_ldelf_panic():
/media/home/beste/01_Pro/ld25x/bsp_hu/MYD-LD25X-Uboot-L2022.10-V1.0.0/GEN_FIP/myir-st-optee/ldelf/syscalls_a64.S:25
     148:	a9bf7bfd 	stp	x29, x30, [sp, #-16]!
/media/home/beste/01_Pro/ld25x/bsp_hu/MYD-LD25X-Uboot-L2022.10-V1.0.0/GEN_FIP/myir-st-optee/ldelf/syscalls_a64.S:26
     14c:	910003e1 	mov	x1, sp
/media/home/beste/01_Pro/ld25x/bsp_hu/MYD-LD25X-Uboot-L2022.10-V1.0.0/GEN_FIP/myir-st-optee/ldelf/syscalls_a64.S:27
     150:	94000007 	bl	16c <__ldelf_panic>

0000000000000154 <_ldelf_return>:
_ldelf_return():
/media/home/beste/01_Pro/ld25x/bsp_hu/MYD-LD25X-Uboot-L2022.10-V1.0.0/GEN_FIP/myir-st-optee/ldelf/syscalls_asm.S:9
     154:	d2800008 	mov	x8, #0x0                   	// #0
     158:	d4000001 	svc	#0x0
     15c:	d65f03c0 	ret

0000000000000160 <_ldelf_log>:
_ldelf_log():
/media/home/beste/01_Pro/ld25x/bsp_hu/MYD-LD25X-Uboot-L2022.10-V1.0.0/GEN_FIP/myir-st-optee/ldelf/syscalls_asm.S:10
     160:	d2800028 	mov	x8, #0x1                   	// #1
     164:	d4000001 	svc	#0x0
     168:	d65f03c0 	ret

000000000000016c <__ldelf_panic>:
__ldelf_panic():
/media/home/beste/01_Pro/ld25x/bsp_hu/MYD-LD25X-Uboot-L2022.10-V1.0.0/GEN_FIP/myir-st-optee/ldelf/syscalls_asm.S:11
     16c:	d2800048 	mov	x8, #0x2                   	// #2
     170:	d4000001 	svc	#0x0
     174:	d65f03c0 	ret

0000000000000178 <_ldelf_map_zi>:
_ldelf_map_zi():
/media/home/beste/01_Pro/ld25x/bsp_hu/MYD-LD25X-Uboot-L2022.10-V1.0.0/GEN_FIP/myir-st-optee/ldelf/syscalls_asm.S:12
     178:	d2800068 	mov	x8, #0x3                   	// #3
     17c:	d4000001 	svc	#0x0
     180:	d65f03c0 	ret

0000000000000184 <_ldelf_unmap>:
_ldelf_unmap():
/media/home/beste/01_Pro/ld25x/bsp_hu/MYD-LD25X-Uboot-L2022.10-V1.0.0/GEN_FIP/myir-st-optee/ldelf/syscalls_asm.S:13
     184:	d2800088 	mov	x8, #0x4                   	// #4
     188:	d4000001 	svc	#0x0
     18c:	d65f03c0 	ret

0000000000000190 <_ldelf_open_bin>:
_ldelf_open_bin():
/media/home/beste/01_Pro/ld25x/bsp_hu/MYD-LD25X-Uboot-L2022.10-V1.0.0/GEN_FIP/myir-st-optee/ldelf/syscalls_asm.S:14
     190:	d28000a8 	mov	x8, #0x5                   	// #5
     194:	d4000001 	svc	#0x0
     198:	d65f03c0 	ret

000000000000019c <_ldelf_close_bin>:
_ldelf_close_bin():
/media/home/beste/01_Pro/ld25x/bsp_hu/MYD-LD25X-Uboot-L2022.10-V1.0.0/GEN_FIP/myir-st-optee/ldelf/syscalls_asm.S:15
     19c:	d28000c8 	mov	x8, #0x6                   	// #6
     1a0:	d4000001 	svc	#0x0
     1a4:	d65f03c0 	ret

00000000000001a8 <_ldelf_map_bin>:
_ldelf_map_bin():
/media/home/beste/01_Pro/ld25x/bsp_hu/MYD-LD25X-Uboot-L2022.10-V1.0.0/GEN_FIP/myir-st-optee/ldelf/syscalls_asm.S:16
     1a8:	d28000e8 	mov	x8, #0x7                   	// #7
     1ac:	d4000001 	svc	#0x0
     1b0:	d65f03c0 	ret

00000000000001b4 <_ldelf_cp_from_bin>:
_ldelf_cp_from_bin():
/media/home/beste/01_Pro/ld25x/bsp_hu/MYD-LD25X-Uboot-L2022.10-V1.0.0/GEN_FIP/myir-st-optee/ldelf/syscalls_asm.S:17
     1b4:	d2800108 	mov	x8, #0x8                   	// #8
     1b8:	d4000001 	svc	#0x0
     1bc:	d65f03c0 	ret

00000000000001c0 <_ldelf_set_prot>:
_ldelf_set_prot():
/media/home/beste/01_Pro/ld25x/bsp_hu/MYD-LD25X-Uboot-L2022.10-V1.0.0/GEN_FIP/myir-st-optee/ldelf/syscalls_asm.S:18
     1c0:	d2800128 	mov	x8, #0x9                   	// #9
     1c4:	d4000001 	svc	#0x0
     1c8:	d65f03c0 	ret

00000000000001cc <_ldelf_remap>:
_ldelf_remap():
/media/home/beste/01_Pro/ld25x/bsp_hu/MYD-LD25X-Uboot-L2022.10-V1.0.0/GEN_FIP/myir-st-optee/ldelf/syscalls_asm.S:19
     1cc:	d2800148 	mov	x8, #0xa                   	// #10
     1d0:	d4000001 	svc	#0x0
     1d4:	d65f03c0 	ret

00000000000001d8 <_ldelf_gen_rnd_num>:
_ldelf_gen_rnd_num():
/media/home/beste/01_Pro/ld25x/bsp_hu/MYD-LD25X-Uboot-L2022.10-V1.0.0/GEN_FIP/myir-st-optee/ldelf/syscalls_asm.S:20
     1d8:	d2800168 	mov	x8, #0xb                   	// #11
     1dc:	d4000001 	svc	#0x0
     1e0:	d65f03c0 	ret

00000000000001e4 <tlsdesc_resolve>:
tlsdesc_resolve():
/media/home/beste/01_Pro/ld25x/bsp_hu/MYD-LD25X-Uboot-L2022.10-V1.0.0/GEN_FIP/myir-st-optee/ldelf/tlsdesc_rel_a64.S:17
     1e4:	f9400400 	ldr	x0, [x0, #8]
/media/home/beste/01_Pro/ld25x/bsp_hu/MYD-LD25X-Uboot-L2022.10-V1.0.0/GEN_FIP/myir-st-optee/ldelf/tlsdesc_rel_a64.S:18
     1e8:	d65f03c0 	ret

00000000000001ec <dlopen_entry>:
dlopen_entry():
/media/home/beste/01_Pro/ld25x/bsp_hu/MYD-LD25X-Uboot-L2022.10-V1.0.0/GEN_FIP/myir-st-optee/ldelf/dl.c:12
     1ec:	a9bd7bfd 	stp	x29, x30, [sp, #-48]!
/media/home/beste/01_Pro/ld25x/bsp_hu/MYD-LD25X-Uboot-L2022.10-V1.0.0/GEN_FIP/myir-st-optee/ldelf/dl.c:15
     1f0:	52822041 	mov	w1, #0x1102                	// #4354
/media/home/beste/01_Pro/ld25x/bsp_hu/MYD-LD25X-Uboot-L2022.10-V1.0.0/GEN_FIP/myir-st-optee/ldelf/dl.c:12
     1f4:	910003fd 	mov	x29, sp
/media/home/beste/01_Pro/ld25x/bsp_hu/MYD-LD25X-Uboot-L2022.10-V1.0.0/GEN_FIP/myir-st-optee/ldelf/dl.c:15
     1f8:	b9401802 	ldr	w2, [x0, #24]
/media/home/beste/01_Pro/ld25x/bsp_hu/MYD-LD25X-Uboot-L2022.10-V1.0.0/GEN_FIP/myir-st-optee/ldelf/dl.c:12
     1fc:	f9000bf3 	str	x19, [sp, #16]
/media/home/beste/01_Pro/ld25x/bsp_hu/MYD-LD25X-Uboot-L2022.10-V1.0.0/GEN_FIP/myir-st-optee/ldelf/dl.c:13
     200:	a9027fff 	stp	xzr, xzr, [sp, #32]
/media/home/beste/01_Pro/ld25x/bsp_hu/MYD-LD25X-Uboot-L2022.10-V1.0.0/GEN_FIP/myir-st-optee/ldelf/dl.c:15
     204:	6b01005f 	cmp	w2, w1
     208:	54000161 	b.ne	234 <dlopen_entry+0x48>  // b.any
/media/home/beste/01_Pro/ld25x/bsp_hu/MYD-LD25X-Uboot-L2022.10-V1.0.0/GEN_FIP/myir-st-optee/ldelf/dl.c:18
     20c:	91002013 	add	x19, x0, #0x8
     210:	910083e1 	add	x1, sp, #0x20
     214:	aa1303e0 	mov	x0, x19
     218:	d2800202 	mov	x2, #0x10                  	// #16
     21c:	9400155b 	bl	5788 <memcmp>
     220:	34000120 	cbz	w0, 244 <dlopen_entry+0x58>
/media/home/beste/01_Pro/ld25x/bsp_hu/MYD-LD25X-Uboot-L2022.10-V1.0.0/GEN_FIP/myir-st-optee/ldelf/dl.c:21
     224:	aa1303e0 	mov	x0, x19
/media/home/beste/01_Pro/ld25x/bsp_hu/MYD-LD25X-Uboot-L2022.10-V1.0.0/GEN_FIP/myir-st-optee/ldelf/dl.c:22
     228:	f9400bf3 	ldr	x19, [sp, #16]
     22c:	a8c37bfd 	ldp	x29, x30, [sp], #48
/media/home/beste/01_Pro/ld25x/bsp_hu/MYD-LD25X-Uboot-L2022.10-V1.0.0/GEN_FIP/myir-st-optee/ldelf/dl.c:21
     230:	14000c17 	b	328c <ta_elf_add_library>
/media/home/beste/01_Pro/ld25x/bsp_hu/MYD-LD25X-Uboot-L2022.10-V1.0.0/GEN_FIP/myir-st-optee/ldelf/dl.c:16
     234:	129fff20 	mov	w0, #0xffff0006            	// #-65530
/media/home/beste/01_Pro/ld25x/bsp_hu/MYD-LD25X-Uboot-L2022.10-V1.0.0/GEN_FIP/myir-st-optee/ldelf/dl.c:22
     238:	f9400bf3 	ldr	x19, [sp, #16]
     23c:	a8c37bfd 	ldp	x29, x30, [sp], #48
     240:	d65f03c0 	ret
/media/home/beste/01_Pro/ld25x/bsp_hu/MYD-LD25X-Uboot-L2022.10-V1.0.0/GEN_FIP/myir-st-optee/ldelf/dl.c:19
     244:	52800000 	mov	w0, #0x0                   	// #0
     248:	17fffffc 	b	238 <dlopen_entry+0x4c>

000000000000024c <dlsym_entry>:
dlsym_entry():
/media/home/beste/01_Pro/ld25x/bsp_hu/MYD-LD25X-Uboot-L2022.10-V1.0.0/GEN_FIP/myir-st-optee/ldelf/dl.c:25
     24c:	a9bd7bfd 	stp	x29, x30, [sp, #-48]!
/media/home/beste/01_Pro/ld25x/bsp_hu/MYD-LD25X-Uboot-L2022.10-V1.0.0/GEN_FIP/myir-st-optee/ldelf/dl.c:29
     250:	d2800202 	mov	x2, #0x10                  	// #16
/media/home/beste/01_Pro/ld25x/bsp_hu/MYD-LD25X-Uboot-L2022.10-V1.0.0/GEN_FIP/myir-st-optee/ldelf/dl.c:25
     254:	910003fd 	mov	x29, sp
     258:	a90153f3 	stp	x19, x20, [sp, #16]
/media/home/beste/01_Pro/ld25x/bsp_hu/MYD-LD25X-Uboot-L2022.10-V1.0.0/GEN_FIP/myir-st-optee/ldelf/dl.c:29
     25c:	91002014 	add	x20, x0, #0x8
/media/home/beste/01_Pro/ld25x/bsp_hu/MYD-LD25X-Uboot-L2022.10-V1.0.0/GEN_FIP/myir-st-optee/ldelf/dl.c:25
     260:	aa0003f3 	mov	x19, x0
/media/home/beste/01_Pro/ld25x/bsp_hu/MYD-LD25X-Uboot-L2022.10-V1.0.0/GEN_FIP/myir-st-optee/ldelf/dl.c:29
     264:	910083e1 	add	x1, sp, #0x20
     268:	aa1403e0 	mov	x0, x20
/media/home/beste/01_Pro/ld25x/bsp_hu/MYD-LD25X-Uboot-L2022.10-V1.0.0/GEN_FIP/myir-st-optee/ldelf/dl.c:27
     26c:	a9027fff 	stp	xzr, xzr, [sp, #32]
/media/home/beste/01_Pro/ld25x/bsp_hu/MYD-LD25X-Uboot-L2022.10-V1.0.0/GEN_FIP/myir-st-optee/ldelf/dl.c:29
     270:	94001546 	bl	5788 <memcmp>
     274:	34000120 	cbz	w0, 298 <dlsym_entry+0x4c>
/media/home/beste/01_Pro/ld25x/bsp_hu/MYD-LD25X-Uboot-L2022.10-V1.0.0/GEN_FIP/myir-st-optee/ldelf/dl.c:30
     278:	aa1403e0 	mov	x0, x20
     27c:	940007a0 	bl	20fc <ta_elf_find_elf>
     280:	aa0003e3 	mov	x3, x0
/media/home/beste/01_Pro/ld25x/bsp_hu/MYD-LD25X-Uboot-L2022.10-V1.0.0/GEN_FIP/myir-st-optee/ldelf/dl.c:31
     284:	b50000c0 	cbnz	x0, 29c <dlsym_entry+0x50>
/media/home/beste/01_Pro/ld25x/bsp_hu/MYD-LD25X-Uboot-L2022.10-V1.0.0/GEN_FIP/myir-st-optee/ldelf/dl.c:37
     288:	a94153f3 	ldp	x19, x20, [sp, #16]
     28c:	129ffee0 	mov	w0, #0xffff0008            	// #-65528
     290:	a8c37bfd 	ldp	x29, x30, [sp], #48
     294:	d65f03c0 	ret
/media/home/beste/01_Pro/ld25x/bsp_hu/MYD-LD25X-Uboot-L2022.10-V1.0.0/GEN_FIP/myir-st-optee/ldelf/dl.c:26
     298:	d2800003 	mov	x3, #0x0                   	// #0
/media/home/beste/01_Pro/ld25x/bsp_hu/MYD-LD25X-Uboot-L2022.10-V1.0.0/GEN_FIP/myir-st-optee/ldelf/dl.c:35
     29c:	91006261 	add	x1, x19, #0x18
     2a0:	91008260 	add	x0, x19, #0x20
/media/home/beste/01_Pro/ld25x/bsp_hu/MYD-LD25X-Uboot-L2022.10-V1.0.0/GEN_FIP/myir-st-optee/ldelf/dl.c:37
     2a4:	a94153f3 	ldp	x19, x20, [sp, #16]
/media/home/beste/01_Pro/ld25x/bsp_hu/MYD-LD25X-Uboot-L2022.10-V1.0.0/GEN_FIP/myir-st-optee/ldelf/dl.c:35
     2a8:	d2800002 	mov	x2, #0x0                   	// #0
/media/home/beste/01_Pro/ld25x/bsp_hu/MYD-LD25X-Uboot-L2022.10-V1.0.0/GEN_FIP/myir-st-optee/ldelf/dl.c:37
     2ac:	a8c37bfd 	ldp	x29, x30, [sp], #48
/media/home/beste/01_Pro/ld25x/bsp_hu/MYD-LD25X-Uboot-L2022.10-V1.0.0/GEN_FIP/myir-st-optee/ldelf/dl.c:35
     2b0:	14000d7d 	b	38a4 <ta_elf_resolve_sym>

00000000000002b4 <dl_entry>:
dl_entry():
/media/home/beste/01_Pro/ld25x/bsp_hu/MYD-LD25X-Uboot-L2022.10-V1.0.0/GEN_FIP/myir-st-optee/ldelf/main.c:107
     2b4:	a9be7bfd 	stp	x29, x30, [sp, #-32]!
     2b8:	910003fd 	mov	x29, sp
/media/home/beste/01_Pro/ld25x/bsp_hu/MYD-LD25X-Uboot-L2022.10-V1.0.0/GEN_FIP/myir-st-optee/ldelf/main.c:108
     2bc:	b9400001 	ldr	w1, [x0]
/media/home/beste/01_Pro/ld25x/bsp_hu/MYD-LD25X-Uboot-L2022.10-V1.0.0/GEN_FIP/myir-st-optee/ldelf/main.c:107
     2c0:	f9000bf3 	str	x19, [sp, #16]
     2c4:	aa0003f3 	mov	x19, x0
/media/home/beste/01_Pro/ld25x/bsp_hu/MYD-LD25X-Uboot-L2022.10-V1.0.0/GEN_FIP/myir-st-optee/ldelf/main.c:108
     2c8:	340000c1 	cbz	w1, 2e0 <dl_entry+0x2c>
     2cc:	7100043f 	cmp	w1, #0x1
     2d0:	540000c0 	b.eq	2e8 <dl_entry+0x34>  // b.none
     2d4:	129ffea0 	mov	w0, #0xffff000a            	// #-65526
/media/home/beste/01_Pro/ld25x/bsp_hu/MYD-LD25X-Uboot-L2022.10-V1.0.0/GEN_FIP/myir-st-optee/ldelf/main.c:110
     2d8:	b9000660 	str	w0, [x19, #4]
/media/home/beste/01_Pro/ld25x/bsp_hu/MYD-LD25X-Uboot-L2022.10-V1.0.0/GEN_FIP/myir-st-optee/ldelf/main.c:119
     2dc:	940000c4 	bl	5ec <sys_return_cleanup>
/media/home/beste/01_Pro/ld25x/bsp_hu/MYD-LD25X-Uboot-L2022.10-V1.0.0/GEN_FIP/myir-st-optee/ldelf/main.c:110
     2e0:	97ffffc3 	bl	1ec <dlopen_entry>
/media/home/beste/01_Pro/ld25x/bsp_hu/MYD-LD25X-Uboot-L2022.10-V1.0.0/GEN_FIP/myir-st-optee/ldelf/main.c:111
     2e4:	17fffffd 	b	2d8 <dl_entry+0x24>
/media/home/beste/01_Pro/ld25x/bsp_hu/MYD-LD25X-Uboot-L2022.10-V1.0.0/GEN_FIP/myir-st-optee/ldelf/main.c:113
     2e8:	97ffffd9 	bl	24c <dlsym_entry>
/media/home/beste/01_Pro/ld25x/bsp_hu/MYD-LD25X-Uboot-L2022.10-V1.0.0/GEN_FIP/myir-st-optee/ldelf/main.c:114
     2ec:	17fffffb 	b	2d8 <dl_entry+0x24>

00000000000002f0 <print_to_console>:
print_to_console():
/media/home/beste/01_Pro/ld25x/bsp_hu/MYD-LD25X-Uboot-L2022.10-V1.0.0/GEN_FIP/myir-st-optee/ldelf/main.c:27
     2f0:	a9bc7bfd 	stp	x29, x30, [sp, #-64]!
/media/home/beste/01_Pro/ld25x/bsp_hu/MYD-LD25X-Uboot-L2022.10-V1.0.0/GEN_FIP/myir-st-optee/ldelf/main.c:28
     2f4:	910083e5 	add	x5, sp, #0x20
/media/home/beste/01_Pro/ld25x/bsp_hu/MYD-LD25X-Uboot-L2022.10-V1.0.0/GEN_FIP/myir-st-optee/ldelf/main.c:27
     2f8:	910003fd 	mov	x29, sp
/media/home/beste/01_Pro/ld25x/bsp_hu/MYD-LD25X-Uboot-L2022.10-V1.0.0/GEN_FIP/myir-st-optee/ldelf/main.c:28
     2fc:	aa0503e0 	mov	x0, x5
/media/home/beste/01_Pro/ld25x/bsp_hu/MYD-LD25X-Uboot-L2022.10-V1.0.0/GEN_FIP/myir-st-optee/ldelf/main.c:27
     300:	f9000bf3 	str	x19, [sp, #16]
     304:	aa0103f3 	mov	x19, x1
     308:	aa0203e1 	mov	x1, x2
/media/home/beste/01_Pro/ld25x/bsp_hu/MYD-LD25X-Uboot-L2022.10-V1.0.0/GEN_FIP/myir-st-optee/ldelf/main.c:28
     30c:	d2800402 	mov	x2, #0x20                  	// #32
     310:	97ffff58 	bl	70 <memcpy>
     314:	aa0003e5 	mov	x5, x0
     318:	aa1303e4 	mov	x4, x19
     31c:	52800023 	mov	w3, #0x1                   	// #1
     320:	52800022 	mov	w2, #0x1                   	// #1
     324:	52800001 	mov	w1, #0x0                   	// #0
     328:	d2800000 	mov	x0, #0x0                   	// #0
     32c:	9400188a 	bl	6554 <trace_vprintf>
/media/home/beste/01_Pro/ld25x/bsp_hu/MYD-LD25X-Uboot-L2022.10-V1.0.0/GEN_FIP/myir-st-optee/ldelf/main.c:29
     330:	f9400bf3 	ldr	x19, [sp, #16]
     334:	a8c47bfd 	ldp	x29, x30, [sp], #64
     338:	d65f03c0 	ret

000000000000033c <dump_ta_state>:
dump_ta_state():
/media/home/beste/01_Pro/ld25x/bsp_hu/MYD-LD25X-Uboot-L2022.10-V1.0.0/GEN_FIP/myir-st-optee/ldelf/main.c:32
     33c:	a9bd7bfd 	stp	x29, x30, [sp, #-48]!
     340:	910003fd 	mov	x29, sp
     344:	a90153f3 	stp	x19, x20, [sp, #16]
/media/home/beste/01_Pro/ld25x/bsp_hu/MYD-LD25X-Uboot-L2022.10-V1.0.0/GEN_FIP/myir-st-optee/ldelf/main.c:33
     348:	90000054 	adrp	x20, 8000 <_DYNAMIC>
     34c:	f9409a94 	ldr	x20, [x20, #304]
/media/home/beste/01_Pro/ld25x/bsp_hu/MYD-LD25X-Uboot-L2022.10-V1.0.0/GEN_FIP/myir-st-optee/ldelf/main.c:32
     350:	f90013f5 	str	x21, [sp, #32]
/media/home/beste/01_Pro/ld25x/bsp_hu/MYD-LD25X-Uboot-L2022.10-V1.0.0/GEN_FIP/myir-st-optee/ldelf/main.c:33
     354:	f9400295 	ldr	x21, [x20]
/media/home/beste/01_Pro/ld25x/bsp_hu/MYD-LD25X-Uboot-L2022.10-V1.0.0/GEN_FIP/myir-st-optee/ldelf/main.c:35
     358:	b4000095 	cbz	x21, 368 <dump_ta_state+0x2c>
     35c:	aa0003f3 	mov	x19, x0
/media/home/beste/01_Pro/ld25x/bsp_hu/MYD-LD25X-Uboot-L2022.10-V1.0.0/GEN_FIP/myir-st-optee/ldelf/main.c:35 (discriminator 2)
     360:	394002a0 	ldrb	w0, [x21]
     364:	35000140 	cbnz	w0, 38c <dump_ta_state+0x50>
_assert_trap():
/media/home/beste/01_Pro/ld25x/bsp_hu/MYD-LD25X-Uboot-L2022.10-V1.0.0/GEN_FIP/myir-st-optee/lib/libutils/isoc/include/assert.h:19
     368:	d0000023 	adrp	x3, 6000 <kprintf.constprop.0+0x68c>
     36c:	d0000021 	adrp	x1, 6000 <kprintf.constprop.0+0x68c>
     370:	91243863 	add	x3, x3, #0x90e
     374:	9122d821 	add	x1, x1, #0x8b6
     378:	d0000020 	adrp	x0, 6000 <kprintf.constprop.0+0x68c>
     37c:	91230c00 	add	x0, x0, #0x8c3
     380:	52800462 	mov	w2, #0x23                  	// #35
     384:	940011c1 	bl	4a88 <_assert_log>
/media/home/beste/01_Pro/ld25x/bsp_hu/MYD-LD25X-Uboot-L2022.10-V1.0.0/GEN_FIP/myir-st-optee/lib/libutils/isoc/include/assert.h:20
     388:	940011d1 	bl	4acc <_assert_break>
dump_ta_state():
/media/home/beste/01_Pro/ld25x/bsp_hu/MYD-LD25X-Uboot-L2022.10-V1.0.0/GEN_FIP/myir-st-optee/ldelf/main.c:36
     38c:	910442a5 	add	x5, x21, #0x110
     390:	52800023 	mov	w3, #0x1                   	// #1
     394:	52800022 	mov	w2, #0x1                   	// #1
     398:	52800001 	mov	w1, #0x0                   	// #0
     39c:	d2800000 	mov	x0, #0x0                   	// #0
     3a0:	d0000024 	adrp	x4, 6000 <kprintf.constprop.0+0x68c>
     3a4:	91235c84 	add	x4, x4, #0x8d7
     3a8:	940018e7 	bl	6744 <trace_printf>
/media/home/beste/01_Pro/ld25x/bsp_hu/MYD-LD25X-Uboot-L2022.10-V1.0.0/GEN_FIP/myir-st-optee/ldelf/main.c:37
     3ac:	394006a1 	ldrb	w1, [x21, #1]
     3b0:	d0000020 	adrp	x0, 6000 <kprintf.constprop.0+0x68c>
     3b4:	d0000025 	adrp	x5, 6000 <kprintf.constprop.0+0x68c>
     3b8:	9122a800 	add	x0, x0, #0x8aa
     3bc:	7100003f 	cmp	w1, #0x0
     3c0:	9122b8a5 	add	x5, x5, #0x8ae
     3c4:	9a8000a5 	csel	x5, x5, x0, eq	// eq = none
     3c8:	52800023 	mov	w3, #0x1                   	// #1
     3cc:	52800022 	mov	w2, #0x1                   	// #1
     3d0:	52800001 	mov	w1, #0x0                   	// #0
     3d4:	d2800000 	mov	x0, #0x0                   	// #0
     3d8:	d0000024 	adrp	x4, 6000 <kprintf.constprop.0+0x68c>
     3dc:	9123a484 	add	x4, x4, #0x8e9
     3e0:	940018d9 	bl	6744 <trace_printf>
/media/home/beste/01_Pro/ld25x/bsp_hu/MYD-LD25X-Uboot-L2022.10-V1.0.0/GEN_FIP/myir-st-optee/ldelf/main.c:40
     3e4:	90000040 	adrp	x0, 8000 <_DYNAMIC>
     3e8:	91014264 	add	x4, x19, #0x50
     3ec:	f9402663 	ldr	x3, [x19, #72]
     3f0:	aa1403e2 	mov	x2, x20
     3f4:	f940fc05 	ldr	x5, [x0, #504]
     3f8:	90000001 	adrp	x1, 0 <_ldelf_start>
     3fc:	d2800000 	mov	x0, #0x0                   	// #0
     400:	910bc021 	add	x1, x1, #0x2f0
     404:	9400095e 	bl	297c <ta_elf_print_mappings>
/media/home/beste/01_Pro/ld25x/bsp_hu/MYD-LD25X-Uboot-L2022.10-V1.0.0/GEN_FIP/myir-st-optee/ldelf/main.c:43
     408:	39410260 	ldrb	w0, [x19, #64]
     40c:	34000080 	cbz	w0, 41c <dump_ta_state+0xe0>
/media/home/beste/01_Pro/ld25x/bsp_hu/MYD-LD25X-Uboot-L2022.10-V1.0.0/GEN_FIP/myir-st-optee/ldelf/main.c:44
     410:	aa1303e0 	mov	x0, x19
     414:	94000a13 	bl	2c60 <ta_elf_stack_trace_a32>
/media/home/beste/01_Pro/ld25x/bsp_hu/MYD-LD25X-Uboot-L2022.10-V1.0.0/GEN_FIP/myir-st-optee/ldelf/main.c:49
     418:	94000075 	bl	5ec <sys_return_cleanup>
/media/home/beste/01_Pro/ld25x/bsp_hu/MYD-LD25X-Uboot-L2022.10-V1.0.0/GEN_FIP/myir-st-optee/ldelf/main.c:46
     41c:	a9400660 	ldp	x0, x1, [x19]
     420:	f9400a62 	ldr	x2, [x19, #16]
     424:	94000a21 	bl	2ca8 <ta_elf_stack_trace_a64>
     428:	17fffffc 	b	418 <dump_ta_state+0xdc>

000000000000042c <ldelf>:
ldelf():
/media/home/beste/01_Pro/ld25x/bsp_hu/MYD-LD25X-Uboot-L2022.10-V1.0.0/GEN_FIP/myir-st-optee/ldelf/main.c:130
     42c:	a9bd7bfd 	stp	x29, x30, [sp, #-48]!
/media/home/beste/01_Pro/ld25x/bsp_hu/MYD-LD25X-Uboot-L2022.10-V1.0.0/GEN_FIP/myir-st-optee/ldelf/main.c:135
     430:	d2800004 	mov	x4, #0x0                   	// #0
     434:	d2800003 	mov	x3, #0x0                   	// #0
/media/home/beste/01_Pro/ld25x/bsp_hu/MYD-LD25X-Uboot-L2022.10-V1.0.0/GEN_FIP/myir-st-optee/ldelf/main.c:130
     438:	910003fd 	mov	x29, sp
/media/home/beste/01_Pro/ld25x/bsp_hu/MYD-LD25X-Uboot-L2022.10-V1.0.0/GEN_FIP/myir-st-optee/ldelf/main.c:135
     43c:	52800001 	mov	w1, #0x0                   	// #0
/media/home/beste/01_Pro/ld25x/bsp_hu/MYD-LD25X-Uboot-L2022.10-V1.0.0/GEN_FIP/myir-st-optee/ldelf/main.c:130
     440:	a90153f3 	stp	x19, x20, [sp, #16]
     444:	aa0003f3 	mov	x19, x0
/media/home/beste/01_Pro/ld25x/bsp_hu/MYD-LD25X-Uboot-L2022.10-V1.0.0/GEN_FIP/myir-st-optee/ldelf/main.c:135
     448:	90000054 	adrp	x20, 8000 <_DYNAMIC>
     44c:	d2880000 	mov	x0, #0x4000                	// #16384
     450:	9107e282 	add	x2, x20, #0x1f8
/media/home/beste/01_Pro/ld25x/bsp_hu/MYD-LD25X-Uboot-L2022.10-V1.0.0/GEN_FIP/myir-st-optee/ldelf/main.c:130
     454:	f90013f5 	str	x21, [sp, #32]
/media/home/beste/01_Pro/ld25x/bsp_hu/MYD-LD25X-Uboot-L2022.10-V1.0.0/GEN_FIP/myir-st-optee/ldelf/main.c:135
     458:	94000069 	bl	5fc <sys_map_zi>
/media/home/beste/01_Pro/ld25x/bsp_hu/MYD-LD25X-Uboot-L2022.10-V1.0.0/GEN_FIP/myir-st-optee/ldelf/main.c:136
     45c:	34000220 	cbz	w0, 4a0 <ldelf+0x74>
     460:	2a0003e6 	mov	w6, w0
/media/home/beste/01_Pro/ld25x/bsp_hu/MYD-LD25X-Uboot-L2022.10-V1.0.0/GEN_FIP/myir-st-optee/ldelf/main.c:137
     464:	d0000024 	adrp	x4, 6000 <kprintf.constprop.0+0x68c>
     468:	9123cc84 	add	x4, x4, #0x8f3
     46c:	d0000033 	adrp	x19, 6000 <kprintf.constprop.0+0x68c>
     470:	d2880005 	mov	x5, #0x4000                	// #16384
     474:	91247273 	add	x19, x19, #0x91c
     478:	52800023 	mov	w3, #0x1                   	// #1
     47c:	aa1303e0 	mov	x0, x19
     480:	52800022 	mov	w2, #0x1                   	// #1
     484:	52801121 	mov	w1, #0x89                  	// #137
     488:	940018af 	bl	6744 <trace_printf>
/media/home/beste/01_Pro/ld25x/bsp_hu/MYD-LD25X-Uboot-L2022.10-V1.0.0/GEN_FIP/myir-st-optee/ldelf/main.c:138
     48c:	d0000020 	adrp	x0, 6000 <kprintf.constprop.0+0x68c>
     490:	aa1303e2 	mov	x2, x19
     494:	9122d800 	add	x0, x0, #0x8b6
     498:	52801141 	mov	w1, #0x8a                  	// #138
     49c:	9400002d 	bl	550 <__panic>
/media/home/beste/01_Pro/ld25x/bsp_hu/MYD-LD25X-Uboot-L2022.10-V1.0.0/GEN_FIP/myir-st-optee/ldelf/main.c:140
     4a0:	f940fe80 	ldr	x0, [x20, #504]
     4a4:	d2880001 	mov	x1, #0x4000                	// #16384
     4a8:	9400148f 	bl	56e4 <malloc_add_pool>
/media/home/beste/01_Pro/ld25x/bsp_hu/MYD-LD25X-Uboot-L2022.10-V1.0.0/GEN_FIP/myir-st-optee/ldelf/main.c:143
     4ac:	91004261 	add	x1, x19, #0x10
     4b0:	aa1303e0 	mov	x0, x19
     4b4:	91005263 	add	x3, x19, #0x14
     4b8:	91008262 	add	x2, x19, #0x20
     4bc:	940007c1 	bl	23c0 <ta_elf_load_main>
/media/home/beste/01_Pro/ld25x/bsp_hu/MYD-LD25X-Uboot-L2022.10-V1.0.0/GEN_FIP/myir-st-optee/ldelf/main.c:151
     4c0:	90000041 	adrp	x1, 8000 <_DYNAMIC>
     4c4:	aa0103f5 	mov	x21, x1
     4c8:	f9409820 	ldr	x0, [x1, #304]
     4cc:	f9400014 	ldr	x20, [x0]
/media/home/beste/01_Pro/ld25x/bsp_hu/MYD-LD25X-Uboot-L2022.10-V1.0.0/GEN_FIP/myir-st-optee/ldelf/main.c:151 (discriminator 1)
     4d0:	b5000234 	cbnz	x20, 514 <ldelf+0xe8>
/media/home/beste/01_Pro/ld25x/bsp_hu/MYD-LD25X-Uboot-L2022.10-V1.0.0/GEN_FIP/myir-st-optee/ldelf/main.c:154
     4d4:	f9409aa0 	ldr	x0, [x21, #304]
     4d8:	f9400014 	ldr	x20, [x0]
/media/home/beste/01_Pro/ld25x/bsp_hu/MYD-LD25X-Uboot-L2022.10-V1.0.0/GEN_FIP/myir-st-optee/ldelf/main.c:154 (discriminator 1)
     4dc:	b50002b4 	cbnz	x20, 530 <ldelf+0x104>
/media/home/beste/01_Pro/ld25x/bsp_hu/MYD-LD25X-Uboot-L2022.10-V1.0.0/GEN_FIP/myir-st-optee/ldelf/main.c:159
     4e0:	91006260 	add	x0, x19, #0x18
     4e4:	94000b36 	bl	31bc <ta_elf_finalize_load_main>
/media/home/beste/01_Pro/ld25x/bsp_hu/MYD-LD25X-Uboot-L2022.10-V1.0.0/GEN_FIP/myir-st-optee/ldelf/main.c:167
     4e8:	f9409ab5 	ldr	x21, [x21, #304]
/media/home/beste/01_Pro/ld25x/bsp_hu/MYD-LD25X-Uboot-L2022.10-V1.0.0/GEN_FIP/myir-st-optee/ldelf/main.c:161
     4ec:	f9001a7f 	str	xzr, [x19, #48]
/media/home/beste/01_Pro/ld25x/bsp_hu/MYD-LD25X-Uboot-L2022.10-V1.0.0/GEN_FIP/myir-st-optee/ldelf/main.c:167
     4f0:	f94002a0 	ldr	x0, [x21]
/media/home/beste/01_Pro/ld25x/bsp_hu/MYD-LD25X-Uboot-L2022.10-V1.0.0/GEN_FIP/myir-st-optee/ldelf/main.c:167 (discriminator 1)
     4f4:	b50002a0 	cbnz	x0, 548 <ldelf+0x11c>
/media/home/beste/01_Pro/ld25x/bsp_hu/MYD-LD25X-Uboot-L2022.10-V1.0.0/GEN_FIP/myir-st-optee/ldelf/main.c:172
     4f8:	90000000 	adrp	x0, 0 <_ldelf_start>
     4fc:	910cf000 	add	x0, x0, #0x33c
     500:	f9001660 	str	x0, [x19, #40]
/media/home/beste/01_Pro/ld25x/bsp_hu/MYD-LD25X-Uboot-L2022.10-V1.0.0/GEN_FIP/myir-st-optee/ldelf/main.c:176
     504:	90000000 	adrp	x0, 0 <_ldelf_start>
     508:	910ad000 	add	x0, x0, #0x2b4
     50c:	f9001e60 	str	x0, [x19, #56]
/media/home/beste/01_Pro/ld25x/bsp_hu/MYD-LD25X-Uboot-L2022.10-V1.0.0/GEN_FIP/myir-st-optee/ldelf/main.c:178
     510:	94000037 	bl	5ec <sys_return_cleanup>
/media/home/beste/01_Pro/ld25x/bsp_hu/MYD-LD25X-Uboot-L2022.10-V1.0.0/GEN_FIP/myir-st-optee/ldelf/main.c:152 (discriminator 3)
     514:	b9401260 	ldr	w0, [x19, #16]
     518:	7100001f 	cmp	w0, #0x0
     51c:	aa1403e0 	mov	x0, x20
     520:	1a9f07e1 	cset	w1, ne	// ne = any
     524:	940008b7 	bl	2800 <ta_elf_load_dependency>
/media/home/beste/01_Pro/ld25x/bsp_hu/MYD-LD25X-Uboot-L2022.10-V1.0.0/GEN_FIP/myir-st-optee/ldelf/main.c:151 (discriminator 3)
     528:	f9409294 	ldr	x20, [x20, #288]
     52c:	17ffffe9 	b	4d0 <ldelf+0xa4>
/media/home/beste/01_Pro/ld25x/bsp_hu/MYD-LD25X-Uboot-L2022.10-V1.0.0/GEN_FIP/myir-st-optee/ldelf/main.c:155 (discriminator 3)
     530:	aa1403e0 	mov	x0, x20
     534:	94000d71 	bl	3af8 <ta_elf_relocate>
/media/home/beste/01_Pro/ld25x/bsp_hu/MYD-LD25X-Uboot-L2022.10-V1.0.0/GEN_FIP/myir-st-optee/ldelf/main.c:156 (discriminator 3)
     538:	aa1403e0 	mov	x0, x20
     53c:	940008ec 	bl	28ec <ta_elf_finalize_mappings>
/media/home/beste/01_Pro/ld25x/bsp_hu/MYD-LD25X-Uboot-L2022.10-V1.0.0/GEN_FIP/myir-st-optee/ldelf/main.c:154 (discriminator 3)
     540:	f9409294 	ldr	x20, [x20, #288]
     544:	17ffffe6 	b	4dc <ldelf+0xb0>
/media/home/beste/01_Pro/ld25x/bsp_hu/MYD-LD25X-Uboot-L2022.10-V1.0.0/GEN_FIP/myir-st-optee/ldelf/main.c:167 (discriminator 3)
     548:	f9409000 	ldr	x0, [x0, #288]
     54c:	17ffffea 	b	4f4 <ldelf+0xc8>

0000000000000550 <__panic>:
__panic():
/media/home/beste/01_Pro/ld25x/bsp_hu/MYD-LD25X-Uboot-L2022.10-V1.0.0/GEN_FIP/myir-st-optee/ldelf/sys.c:17
     550:	d10083ff 	sub	sp, sp, #0x20
     554:	aa0003e5 	mov	x5, x0
/media/home/beste/01_Pro/ld25x/bsp_hu/MYD-LD25X-Uboot-L2022.10-V1.0.0/GEN_FIP/myir-st-optee/ldelf/sys.c:18
     558:	aa020000 	orr	x0, x0, x2
/media/home/beste/01_Pro/ld25x/bsp_hu/MYD-LD25X-Uboot-L2022.10-V1.0.0/GEN_FIP/myir-st-optee/ldelf/sys.c:17
     55c:	a9017bfd 	stp	x29, x30, [sp, #16]
     560:	910043fd 	add	x29, sp, #0x10
/media/home/beste/01_Pro/ld25x/bsp_hu/MYD-LD25X-Uboot-L2022.10-V1.0.0/GEN_FIP/myir-st-optee/ldelf/sys.c:18
     564:	b5000140 	cbnz	x0, 58c <__panic+0x3c>
/media/home/beste/01_Pro/ld25x/bsp_hu/MYD-LD25X-Uboot-L2022.10-V1.0.0/GEN_FIP/myir-st-optee/ldelf/sys.c:19
     568:	d0000024 	adrp	x4, 6000 <kprintf.constprop.0+0x68c>
     56c:	52800023 	mov	w3, #0x1                   	// #1
     570:	9124a084 	add	x4, x4, #0x928
     574:	52800022 	mov	w2, #0x1                   	// #1
     578:	52800001 	mov	w1, #0x0                   	// #0
     57c:	94001872 	bl	6744 <trace_printf>
/media/home/beste/01_Pro/ld25x/bsp_hu/MYD-LD25X-Uboot-L2022.10-V1.0.0/GEN_FIP/myir-st-optee/ldelf/sys.c:25
     580:	d2800020 	mov	x0, #0x1                   	// #1
     584:	97fffef1 	bl	148 <_ldelf_panic>
/media/home/beste/01_Pro/ld25x/bsp_hu/MYD-LD25X-Uboot-L2022.10-V1.0.0/GEN_FIP/myir-st-optee/ldelf/sys.c:27 (discriminator 1)
     588:	14000000 	b	588 <__panic+0x38>
     58c:	2a0103e6 	mov	w6, w1
/media/home/beste/01_Pro/ld25x/bsp_hu/MYD-LD25X-Uboot-L2022.10-V1.0.0/GEN_FIP/myir-st-optee/ldelf/sys.c:21
     590:	b5000085 	cbnz	x5, 5a0 <__panic+0x50>
     594:	d0000025 	adrp	x5, 6000 <kprintf.constprop.0+0x68c>
     598:	912488a5 	add	x5, x5, #0x922
     59c:	52800006 	mov	w6, #0x0                   	// #0
/media/home/beste/01_Pro/ld25x/bsp_hu/MYD-LD25X-Uboot-L2022.10-V1.0.0/GEN_FIP/myir-st-optee/ldelf/sys.c:21 (discriminator 8)
     5a0:	b50001c2 	cbnz	x2, 5d8 <__panic+0x88>
/media/home/beste/01_Pro/ld25x/bsp_hu/MYD-LD25X-Uboot-L2022.10-V1.0.0/GEN_FIP/myir-st-optee/ldelf/sys.c:21
     5a4:	d0000022 	adrp	x2, 6000 <kprintf.constprop.0+0x68c>
     5a8:	912c4442 	add	x2, x2, #0xb11
     5ac:	aa0203e7 	mov	x7, x2
     5b0:	aa0203e0 	mov	x0, x2
/media/home/beste/01_Pro/ld25x/bsp_hu/MYD-LD25X-Uboot-L2022.10-V1.0.0/GEN_FIP/myir-st-optee/ldelf/sys.c:21 (discriminator 20)
     5b4:	a90003e2 	stp	x2, x0, [sp]
     5b8:	d0000024 	adrp	x4, 6000 <kprintf.constprop.0+0x68c>
     5bc:	52800023 	mov	w3, #0x1                   	// #1
     5c0:	9124b884 	add	x4, x4, #0x92e
     5c4:	52800001 	mov	w1, #0x0                   	// #0
     5c8:	52800022 	mov	w2, #0x1                   	// #1
     5cc:	d2800000 	mov	x0, #0x0                   	// #0
     5d0:	9400185d 	bl	6744 <trace_printf>
     5d4:	17ffffeb 	b	580 <__panic+0x30>
/media/home/beste/01_Pro/ld25x/bsp_hu/MYD-LD25X-Uboot-L2022.10-V1.0.0/GEN_FIP/myir-st-optee/ldelf/sys.c:21
     5d8:	d0000027 	adrp	x7, 6000 <kprintf.constprop.0+0x68c>
     5dc:	d0000020 	adrp	x0, 6000 <kprintf.constprop.0+0x68c>
     5e0:	912490e7 	add	x7, x7, #0x924
     5e4:	91249800 	add	x0, x0, #0x926
     5e8:	17fffff3 	b	5b4 <__panic+0x64>

00000000000005ec <sys_return_cleanup>:
sys_return_cleanup():
/media/home/beste/01_Pro/ld25x/bsp_hu/MYD-LD25X-Uboot-L2022.10-V1.0.0/GEN_FIP/myir-st-optee/ldelf/sys.c:32
     5ec:	a9bf7bfd 	stp	x29, x30, [sp, #-16]!
/media/home/beste/01_Pro/ld25x/bsp_hu/MYD-LD25X-Uboot-L2022.10-V1.0.0/GEN_FIP/myir-st-optee/ldelf/sys.c:33
     5f0:	d2800000 	mov	x0, #0x0                   	// #0
/media/home/beste/01_Pro/ld25x/bsp_hu/MYD-LD25X-Uboot-L2022.10-V1.0.0/GEN_FIP/myir-st-optee/ldelf/sys.c:32
     5f4:	910003fd 	mov	x29, sp
/media/home/beste/01_Pro/ld25x/bsp_hu/MYD-LD25X-Uboot-L2022.10-V1.0.0/GEN_FIP/myir-st-optee/ldelf/sys.c:33
     5f8:	97fffed7 	bl	154 <_ldelf_return>

00000000000005fc <sys_map_zi>:
sys_map_zi():
/media/home/beste/01_Pro/ld25x/bsp_hu/MYD-LD25X-Uboot-L2022.10-V1.0.0/GEN_FIP/myir-st-optee/ldelf/sys.c:41
     5fc:	aa0003e5 	mov	x5, x0
     600:	aa0203e0 	mov	x0, x2
     604:	aa0303e2 	mov	x2, x3
     608:	aa0403e3 	mov	x3, x4
/media/home/beste/01_Pro/ld25x/bsp_hu/MYD-LD25X-Uboot-L2022.10-V1.0.0/GEN_FIP/myir-st-optee/ldelf/sys.c:42
     60c:	2a0103e4 	mov	w4, w1
     610:	aa0503e1 	mov	x1, x5
     614:	17fffed9 	b	178 <_ldelf_map_zi>

0000000000000618 <sys_unmap>:
sys_unmap():
/media/home/beste/01_Pro/ld25x/bsp_hu/MYD-LD25X-Uboot-L2022.10-V1.0.0/GEN_FIP/myir-st-optee/ldelf/sys.c:47
     618:	17fffedb 	b	184 <_ldelf_unmap>

000000000000061c <sys_open_ta_bin>:
sys_open_ta_bin():
/media/home/beste/01_Pro/ld25x/bsp_hu/MYD-LD25X-Uboot-L2022.10-V1.0.0/GEN_FIP/myir-st-optee/ldelf/sys.c:52
     61c:	aa0103e2 	mov	x2, x1
     620:	d2800201 	mov	x1, #0x10                  	// #16
     624:	17fffedb 	b	190 <_ldelf_open_bin>

0000000000000628 <sys_close_ta_bin>:
sys_close_ta_bin():
/media/home/beste/01_Pro/ld25x/bsp_hu/MYD-LD25X-Uboot-L2022.10-V1.0.0/GEN_FIP/myir-st-optee/ldelf/sys.c:57
     628:	2a0003e0 	mov	w0, w0
     62c:	17fffedc 	b	19c <_ldelf_close_bin>

0000000000000630 <sys_map_ta_bin>:
sys_map_ta_bin():
/media/home/beste/01_Pro/ld25x/bsp_hu/MYD-LD25X-Uboot-L2022.10-V1.0.0/GEN_FIP/myir-st-optee/ldelf/sys.c:63
     630:	2a0303e7 	mov	w7, w3
     634:	aa0403e3 	mov	x3, x4
     638:	aa0503e4 	mov	x4, x5
     63c:	aa0603e5 	mov	x5, x6
/media/home/beste/01_Pro/ld25x/bsp_hu/MYD-LD25X-Uboot-L2022.10-V1.0.0/GEN_FIP/myir-st-optee/ldelf/sys.c:64
     640:	2a0203e6 	mov	w6, w2
     644:	2a0703e2 	mov	w2, w7
     648:	17fffed8 	b	1a8 <_ldelf_map_bin>

000000000000064c <sys_copy_from_ta_bin>:
sys_copy_from_ta_bin():
/media/home/beste/01_Pro/ld25x/bsp_hu/MYD-LD25X-Uboot-L2022.10-V1.0.0/GEN_FIP/myir-st-optee/ldelf/sys.c:71
     64c:	aa0103e4 	mov	x4, x1
     650:	aa0303e1 	mov	x1, x3
/media/home/beste/01_Pro/ld25x/bsp_hu/MYD-LD25X-Uboot-L2022.10-V1.0.0/GEN_FIP/myir-st-optee/ldelf/sys.c:72
     654:	2a0203e3 	mov	w3, w2
     658:	aa0403e2 	mov	x2, x4
     65c:	17fffed6 	b	1b4 <_ldelf_cp_from_bin>

0000000000000660 <sys_set_prot>:
sys_set_prot():
/media/home/beste/01_Pro/ld25x/bsp_hu/MYD-LD25X-Uboot-L2022.10-V1.0.0/GEN_FIP/myir-st-optee/ldelf/sys.c:77
     660:	2a0203e2 	mov	w2, w2
     664:	17fffed7 	b	1c0 <_ldelf_set_prot>

0000000000000668 <sys_remap>:
sys_remap():
/media/home/beste/01_Pro/ld25x/bsp_hu/MYD-LD25X-Uboot-L2022.10-V1.0.0/GEN_FIP/myir-st-optee/ldelf/sys.c:83
     668:	17fffed9 	b	1cc <_ldelf_remap>

000000000000066c <sys_gen_random_num>:
sys_gen_random_num():
/media/home/beste/01_Pro/ld25x/bsp_hu/MYD-LD25X-Uboot-L2022.10-V1.0.0/GEN_FIP/myir-st-optee/ldelf/sys.c:88
     66c:	17fffedb 	b	1d8 <_ldelf_gen_rnd_num>

0000000000000670 <check_range>:
check_range():
/media/home/beste/01_Pro/ld25x/bsp_hu/MYD-LD25X-Uboot-L2022.10-V1.0.0/GEN_FIP/myir-st-optee/ldelf/ta_elf.c:196
     670:	a9bf7bfd 	stp	x29, x30, [sp, #-16]!
     674:	aa0103e5 	mov	x5, x1
     678:	aa0203e6 	mov	x6, x2
     67c:	910003fd 	mov	x29, sp
/media/home/beste/01_Pro/ld25x/bsp_hu/MYD-LD25X-Uboot-L2022.10-V1.0.0/GEN_FIP/myir-st-optee/ldelf/ta_elf.c:199
     680:	f9400401 	ldr	x1, [x0, #8]
     684:	eb02003f 	cmp	x1, x2
     688:	54000169 	b.ls	6b4 <check_range+0x44>  // b.plast
/media/home/beste/01_Pro/ld25x/bsp_hu/MYD-LD25X-Uboot-L2022.10-V1.0.0/GEN_FIP/myir-st-optee/ldelf/ta_elf.c:200
     68c:	d0000024 	adrp	x4, 6000 <kprintf.constprop.0+0x68c>
     690:	f0000020 	adrp	x0, 7000 <trace_ext_prefix+0x6bc>
     694:	91251c84 	add	x4, x4, #0x947
     698:	91083400 	add	x0, x0, #0x20d
     69c:	52800023 	mov	w3, #0x1                   	// #1
     6a0:	52800022 	mov	w2, #0x1                   	// #1
     6a4:	52801901 	mov	w1, #0xc8                  	// #200
     6a8:	94001827 	bl	6744 <trace_printf>
/media/home/beste/01_Pro/ld25x/bsp_hu/MYD-LD25X-Uboot-L2022.10-V1.0.0/GEN_FIP/myir-st-optee/ldelf/ta_elf.c:203
     6ac:	129fff40 	mov	w0, #0xffff0005            	// #-65531
     6b0:	97fffea9 	bl	154 <_ldelf_return>
/media/home/beste/01_Pro/ld25x/bsp_hu/MYD-LD25X-Uboot-L2022.10-V1.0.0/GEN_FIP/myir-st-optee/ldelf/ta_elf.c:202
     6b4:	ab030047 	adds	x7, x2, x3
     6b8:	540001a2 	b.cs	6ec <check_range+0x7c>  // b.hs, b.nlast
/media/home/beste/01_Pro/ld25x/bsp_hu/MYD-LD25X-Uboot-L2022.10-V1.0.0/GEN_FIP/myir-st-optee/ldelf/ta_elf.c:205
     6bc:	f9400800 	ldr	x0, [x0, #16]
     6c0:	eb0000ff 	cmp	x7, x0
     6c4:	54000269 	b.ls	710 <check_range+0xa0>  // b.plast
/media/home/beste/01_Pro/ld25x/bsp_hu/MYD-LD25X-Uboot-L2022.10-V1.0.0/GEN_FIP/myir-st-optee/ldelf/ta_elf.c:206
     6c8:	d0000024 	adrp	x4, 6000 <kprintf.constprop.0+0x68c>
     6cc:	52800023 	mov	w3, #0x1                   	// #1
     6d0:	9125b084 	add	x4, x4, #0x96c
     6d4:	52800022 	mov	w2, #0x1                   	// #1
     6d8:	528019c1 	mov	w1, #0xce                  	// #206
     6dc:	f0000020 	adrp	x0, 7000 <trace_ext_prefix+0x6bc>
     6e0:	91083400 	add	x0, x0, #0x20d
     6e4:	94001818 	bl	6744 <trace_printf>
     6e8:	17fffff1 	b	6ac <check_range+0x3c>
/media/home/beste/01_Pro/ld25x/bsp_hu/MYD-LD25X-Uboot-L2022.10-V1.0.0/GEN_FIP/myir-st-optee/ldelf/ta_elf.c:203
     6ec:	d0000024 	adrp	x4, 6000 <kprintf.constprop.0+0x68c>
     6f0:	52800023 	mov	w3, #0x1                   	// #1
     6f4:	91256884 	add	x4, x4, #0x95a
     6f8:	52800022 	mov	w2, #0x1                   	// #1
     6fc:	52801961 	mov	w1, #0xcb                  	// #203
     700:	f0000020 	adrp	x0, 7000 <trace_ext_prefix+0x6bc>
     704:	91083400 	add	x0, x0, #0x20d
     708:	9400180f 	bl	6744 <trace_printf>
     70c:	17ffffe8 	b	6ac <check_range+0x3c>
/media/home/beste/01_Pro/ld25x/bsp_hu/MYD-LD25X-Uboot-L2022.10-V1.0.0/GEN_FIP/myir-st-optee/ldelf/ta_elf.c:208
     710:	a8c17bfd 	ldp	x29, x30, [sp], #16
     714:	d65f03c0 	ret

0000000000000718 <check_hashtab>:
check_hashtab():
/media/home/beste/01_Pro/ld25x/bsp_hu/MYD-LD25X-Uboot-L2022.10-V1.0.0/GEN_FIP/myir-st-optee/ldelf/ta_elf.c:212
     718:	aa0103e5 	mov	x5, x1
/media/home/beste/01_Pro/ld25x/bsp_hu/MYD-LD25X-Uboot-L2022.10-V1.0.0/GEN_FIP/myir-st-optee/ldelf/ta_elf.c:223
     71c:	f240043f 	tst	x1, #0x3
     720:	540001a0 	b.eq	754 <check_hashtab+0x3c>  // b.none
/media/home/beste/01_Pro/ld25x/bsp_hu/MYD-LD25X-Uboot-L2022.10-V1.0.0/GEN_FIP/myir-st-optee/ldelf/ta_elf.c:212
     724:	a9bf7bfd 	stp	x29, x30, [sp, #-16]!
/media/home/beste/01_Pro/ld25x/bsp_hu/MYD-LD25X-Uboot-L2022.10-V1.0.0/GEN_FIP/myir-st-optee/ldelf/ta_elf.c:224
     728:	d0000024 	adrp	x4, 6000 <kprintf.constprop.0+0x68c>
     72c:	91261484 	add	x4, x4, #0x985
     730:	52800023 	mov	w3, #0x1                   	// #1
     734:	52800022 	mov	w2, #0x1                   	// #1
     738:	52801c01 	mov	w1, #0xe0                  	// #224
/media/home/beste/01_Pro/ld25x/bsp_hu/MYD-LD25X-Uboot-L2022.10-V1.0.0/GEN_FIP/myir-st-optee/ldelf/ta_elf.c:212
     73c:	910003fd 	mov	x29, sp
/media/home/beste/01_Pro/ld25x/bsp_hu/MYD-LD25X-Uboot-L2022.10-V1.0.0/GEN_FIP/myir-st-optee/ldelf/ta_elf.c:224
     740:	f0000020 	adrp	x0, 7000 <trace_ext_prefix+0x6bc>
     744:	91072800 	add	x0, x0, #0x1ca
     748:	940017ff 	bl	6744 <trace_printf>
     74c:	129fff40 	mov	w0, #0xffff0005            	// #-65531
     750:	97fffe81 	bl	154 <_ldelf_return>
/media/home/beste/01_Pro/ld25x/bsp_hu/MYD-LD25X-Uboot-L2022.10-V1.0.0/GEN_FIP/myir-st-optee/ldelf/ta_elf.c:227
     754:	91000863 	add	x3, x3, #0x2
     758:	8b020063 	add	x3, x3, x2
/media/home/beste/01_Pro/ld25x/bsp_hu/MYD-LD25X-Uboot-L2022.10-V1.0.0/GEN_FIP/myir-st-optee/ldelf/ta_elf.c:231
     75c:	aa0103e2 	mov	x2, x1
     760:	d0000021 	adrp	x1, 6000 <kprintf.constprop.0+0x68c>
     764:	91268421 	add	x1, x1, #0x9a1
     768:	d37ef463 	lsl	x3, x3, #2
     76c:	17ffffc1 	b	670 <check_range>

0000000000000770 <queue_elf_helper>:
queue_elf_helper():
/media/home/beste/01_Pro/ld25x/bsp_hu/MYD-LD25X-Uboot-L2022.10-V1.0.0/GEN_FIP/myir-st-optee/ldelf/ta_elf.c:63
     770:	a9be7bfd 	stp	x29, x30, [sp, #-32]!
/media/home/beste/01_Pro/ld25x/bsp_hu/MYD-LD25X-Uboot-L2022.10-V1.0.0/GEN_FIP/myir-st-optee/ldelf/ta_elf.c:64
     774:	d2802601 	mov	x1, #0x130                 	// #304
/media/home/beste/01_Pro/ld25x/bsp_hu/MYD-LD25X-Uboot-L2022.10-V1.0.0/GEN_FIP/myir-st-optee/ldelf/ta_elf.c:63
     778:	910003fd 	mov	x29, sp
     77c:	a90153f3 	stp	x19, x20, [sp, #16]
     780:	aa0003f4 	mov	x20, x0
/media/home/beste/01_Pro/ld25x/bsp_hu/MYD-LD25X-Uboot-L2022.10-V1.0.0/GEN_FIP/myir-st-optee/ldelf/ta_elf.c:64
     784:	d2800020 	mov	x0, #0x1                   	// #1
     788:	940013c6 	bl	56a0 <calloc>
     78c:	aa0003f3 	mov	x19, x0
/media/home/beste/01_Pro/ld25x/bsp_hu/MYD-LD25X-Uboot-L2022.10-V1.0.0/GEN_FIP/myir-st-optee/ldelf/ta_elf.c:66
     790:	b40001c0 	cbz	x0, 7c8 <queue_elf_helper+0x58>
/media/home/beste/01_Pro/ld25x/bsp_hu/MYD-LD25X-Uboot-L2022.10-V1.0.0/GEN_FIP/myir-st-optee/ldelf/ta_elf.c:69
     794:	91028000 	add	x0, x0, #0xa0
     798:	f9005660 	str	x0, [x19, #168]
/media/home/beste/01_Pro/ld25x/bsp_hu/MYD-LD25X-Uboot-L2022.10-V1.0.0/GEN_FIP/myir-st-optee/ldelf/ta_elf.c:71
     79c:	aa1403e1 	mov	x1, x20
     7a0:	91044260 	add	x0, x19, #0x110
     7a4:	d2800202 	mov	x2, #0x10                  	// #16
     7a8:	97fffe32 	bl	70 <memcpy>
/media/home/beste/01_Pro/ld25x/bsp_hu/MYD-LD25X-Uboot-L2022.10-V1.0.0/GEN_FIP/myir-st-optee/ldelf/ta_elf.c:72
     7ac:	90000040 	adrp	x0, 8000 <_DYNAMIC>
     7b0:	91058000 	add	x0, x0, #0x160
     7b4:	f9400401 	ldr	x1, [x0, #8]
     7b8:	a912067f 	stp	xzr, x1, [x19, #288]
     7bc:	f9000033 	str	x19, [x1]
     7c0:	91048261 	add	x1, x19, #0x120
     7c4:	f9000401 	str	x1, [x0, #8]
/media/home/beste/01_Pro/ld25x/bsp_hu/MYD-LD25X-Uboot-L2022.10-V1.0.0/GEN_FIP/myir-st-optee/ldelf/ta_elf.c:74
     7c8:	aa1303e0 	mov	x0, x19
     7cc:	a94153f3 	ldp	x19, x20, [sp, #16]
     7d0:	a8c27bfd 	ldp	x29, x30, [sp], #32
     7d4:	d65f03c0 	ret

00000000000007d8 <add_segment>:
add_segment():
/media/home/beste/01_Pro/ld25x/bsp_hu/MYD-LD25X-Uboot-L2022.10-V1.0.0/GEN_FIP/myir-st-optee/ldelf/ta_elf.c:502
     7d8:	a9bb7bfd 	stp	x29, x30, [sp, #-80]!
     7dc:	910003fd 	mov	x29, sp
     7e0:	a90153f3 	stp	x19, x20, [sp, #16]
     7e4:	aa0003f3 	mov	x19, x0
     7e8:	aa0403f4 	mov	x20, x4
/media/home/beste/01_Pro/ld25x/bsp_hu/MYD-LD25X-Uboot-L2022.10-V1.0.0/GEN_FIP/myir-st-optee/ldelf/ta_elf.c:503
     7ec:	d2800020 	mov	x0, #0x1                   	// #1
/media/home/beste/01_Pro/ld25x/bsp_hu/MYD-LD25X-Uboot-L2022.10-V1.0.0/GEN_FIP/myir-st-optee/ldelf/ta_elf.c:502
     7f0:	a9025bf5 	stp	x21, x22, [sp, #32]
     7f4:	aa0303f5 	mov	x21, x3
     7f8:	aa0603f6 	mov	x22, x6
     7fc:	a90363f7 	stp	x23, x24, [sp, #48]
     800:	aa0203f8 	mov	x24, x2
     804:	aa0503f7 	mov	x23, x5
     808:	f90023f9 	str	x25, [sp, #64]
     80c:	aa0103f9 	mov	x25, x1
/media/home/beste/01_Pro/ld25x/bsp_hu/MYD-LD25X-Uboot-L2022.10-V1.0.0/GEN_FIP/myir-st-optee/ldelf/ta_elf.c:503
     810:	d2800901 	mov	x1, #0x48                  	// #72
     814:	940013a3 	bl	56a0 <calloc>
/media/home/beste/01_Pro/ld25x/bsp_hu/MYD-LD25X-Uboot-L2022.10-V1.0.0/GEN_FIP/myir-st-optee/ldelf/ta_elf.c:505
     818:	b5000160 	cbnz	x0, 844 <add_segment+0x6c>
/media/home/beste/01_Pro/ld25x/bsp_hu/MYD-LD25X-Uboot-L2022.10-V1.0.0/GEN_FIP/myir-st-optee/ldelf/ta_elf.c:506
     81c:	d0000024 	adrp	x4, 6000 <kprintf.constprop.0+0x68c>
     820:	52800023 	mov	w3, #0x1                   	// #1
     824:	9126a484 	add	x4, x4, #0x9a9
     828:	52800022 	mov	w2, #0x1                   	// #1
     82c:	52803f41 	mov	w1, #0x1fa                 	// #506
     830:	f0000020 	adrp	x0, 7000 <trace_ext_prefix+0x6bc>
     834:	9109b000 	add	x0, x0, #0x26c
     838:	940017c3 	bl	6744 <trace_printf>
     83c:	129ffe60 	mov	w0, #0xffff000c            	// #-65524
/media/home/beste/01_Pro/ld25x/bsp_hu/MYD-LD25X-Uboot-L2022.10-V1.0.0/GEN_FIP/myir-st-optee/ldelf/ta_elf.c:509
     840:	97fffe45 	bl	154 <_ldelf_return>
/media/home/beste/01_Pro/ld25x/bsp_hu/MYD-LD25X-Uboot-L2022.10-V1.0.0/GEN_FIP/myir-st-optee/ldelf/ta_elf.c:508
     844:	eb15029f 	cmp	x20, x21
     848:	54000162 	b.cs	874 <add_segment+0x9c>  // b.hs, b.nlast
/media/home/beste/01_Pro/ld25x/bsp_hu/MYD-LD25X-Uboot-L2022.10-V1.0.0/GEN_FIP/myir-st-optee/ldelf/ta_elf.c:509
     84c:	d0000024 	adrp	x4, 6000 <kprintf.constprop.0+0x68c>
     850:	52800023 	mov	w3, #0x1                   	// #1
     854:	9126c084 	add	x4, x4, #0x9b0
     858:	52800022 	mov	w2, #0x1                   	// #1
     85c:	52803fa1 	mov	w1, #0x1fd                 	// #509
     860:	f0000020 	adrp	x0, 7000 <trace_ext_prefix+0x6bc>
     864:	9109b000 	add	x0, x0, #0x26c
     868:	940017b7 	bl	6744 <trace_printf>
     86c:	129fff40 	mov	w0, #0xffff0005            	// #-65531
     870:	17fffff4 	b	840 <add_segment+0x68>
/media/home/beste/01_Pro/ld25x/bsp_hu/MYD-LD25X-Uboot-L2022.10-V1.0.0/GEN_FIP/myir-st-optee/ldelf/ta_elf.c:518
     874:	f9405661 	ldr	x1, [x19, #168]
/media/home/beste/01_Pro/ld25x/bsp_hu/MYD-LD25X-Uboot-L2022.10-V1.0.0/GEN_FIP/myir-st-optee/ldelf/ta_elf.c:512
     878:	a9006019 	stp	x25, x24, [x0]
/media/home/beste/01_Pro/ld25x/bsp_hu/MYD-LD25X-Uboot-L2022.10-V1.0.0/GEN_FIP/myir-st-optee/ldelf/ta_elf.c:514
     87c:	a9015015 	stp	x21, x20, [x0, #16]
/media/home/beste/01_Pro/ld25x/bsp_hu/MYD-LD25X-Uboot-L2022.10-V1.0.0/GEN_FIP/myir-st-optee/ldelf/ta_elf.c:516
     880:	a9025817 	stp	x23, x22, [x0, #32]
/media/home/beste/01_Pro/ld25x/bsp_hu/MYD-LD25X-Uboot-L2022.10-V1.0.0/GEN_FIP/myir-st-optee/ldelf/ta_elf.c:518
     884:	a903841f 	stp	xzr, x1, [x0, #56]
/media/home/beste/01_Pro/ld25x/bsp_hu/MYD-LD25X-Uboot-L2022.10-V1.0.0/GEN_FIP/myir-st-optee/ldelf/ta_elf.c:519
     888:	a9425bf5 	ldp	x21, x22, [sp, #32]
     88c:	a94363f7 	ldp	x23, x24, [sp, #48]
     890:	f94023f9 	ldr	x25, [sp, #64]
/media/home/beste/01_Pro/ld25x/bsp_hu/MYD-LD25X-Uboot-L2022.10-V1.0.0/GEN_FIP/myir-st-optee/ldelf/ta_elf.c:518
     894:	f9000020 	str	x0, [x1]
     898:	9100e001 	add	x1, x0, #0x38
     89c:	f9005661 	str	x1, [x19, #168]
/media/home/beste/01_Pro/ld25x/bsp_hu/MYD-LD25X-Uboot-L2022.10-V1.0.0/GEN_FIP/myir-st-optee/ldelf/ta_elf.c:519
     8a0:	a94153f3 	ldp	x19, x20, [sp, #16]
     8a4:	a8c57bfd 	ldp	x29, x30, [sp], #80
     8a8:	d65f03c0 	ret

00000000000008ac <get_pad_begin>:
get_pad_begin():
/media/home/beste/01_Pro/ld25x/bsp_hu/MYD-LD25X-Uboot-L2022.10-V1.0.0/GEN_FIP/myir-st-optee/ldelf/ta_elf.c:722
     8ac:	a9be7bfd 	stp	x29, x30, [sp, #-32]!
/media/home/beste/01_Pro/ld25x/bsp_hu/MYD-LD25X-Uboot-L2022.10-V1.0.0/GEN_FIP/myir-st-optee/ldelf/ta_elf.c:733
     8b0:	d2800081 	mov	x1, #0x4                   	// #4
/media/home/beste/01_Pro/ld25x/bsp_hu/MYD-LD25X-Uboot-L2022.10-V1.0.0/GEN_FIP/myir-st-optee/ldelf/ta_elf.c:722
     8b4:	910003fd 	mov	x29, sp
/media/home/beste/01_Pro/ld25x/bsp_hu/MYD-LD25X-Uboot-L2022.10-V1.0.0/GEN_FIP/myir-st-optee/ldelf/ta_elf.c:733
     8b8:	910073e0 	add	x0, sp, #0x1c
/media/home/beste/01_Pro/ld25x/bsp_hu/MYD-LD25X-Uboot-L2022.10-V1.0.0/GEN_FIP/myir-st-optee/ldelf/ta_elf.c:727
     8bc:	b9001fff 	str	wzr, [sp, #28]
/media/home/beste/01_Pro/ld25x/bsp_hu/MYD-LD25X-Uboot-L2022.10-V1.0.0/GEN_FIP/myir-st-optee/ldelf/ta_elf.c:733
     8c0:	97ffff6b 	bl	66c <sys_gen_random_num>
/media/home/beste/01_Pro/ld25x/bsp_hu/MYD-LD25X-Uboot-L2022.10-V1.0.0/GEN_FIP/myir-st-optee/ldelf/ta_elf.c:734
     8c4:	350000a0 	cbnz	w0, 8d8 <get_pad_begin+0x2c>
/media/home/beste/01_Pro/ld25x/bsp_hu/MYD-LD25X-Uboot-L2022.10-V1.0.0/GEN_FIP/myir-st-optee/ldelf/ta_elf.c:741
     8c8:	b9401fe0 	ldr	w0, [sp, #28]
     8cc:	d3741800 	ubfiz	x0, x0, #12, #7
/media/home/beste/01_Pro/ld25x/bsp_hu/MYD-LD25X-Uboot-L2022.10-V1.0.0/GEN_FIP/myir-st-optee/ldelf/ta_elf.c:745
     8d0:	a8c27bfd 	ldp	x29, x30, [sp], #32
     8d4:	d65f03c0 	ret
/media/home/beste/01_Pro/ld25x/bsp_hu/MYD-LD25X-Uboot-L2022.10-V1.0.0/GEN_FIP/myir-st-optee/ldelf/ta_elf.c:736
     8d8:	d2800000 	mov	x0, #0x0                   	// #0
     8dc:	17fffffd 	b	8d0 <get_pad_begin+0x24>

00000000000008e0 <ta_elf_add_bti>:
ta_elf_add_bti():
/media/home/beste/01_Pro/ld25x/bsp_hu/MYD-LD25X-Uboot-L2022.10-V1.0.0/GEN_FIP/myir-st-optee/ldelf/ta_elf.c:880
     8e0:	a9bd7bfd 	stp	x29, x30, [sp, #-48]!
     8e4:	910003fd 	mov	x29, sp
     8e8:	a90153f3 	stp	x19, x20, [sp, #16]
     8ec:	aa0003f4 	mov	x20, x0
/media/home/beste/01_Pro/ld25x/bsp_hu/MYD-LD25X-Uboot-L2022.10-V1.0.0/GEN_FIP/myir-st-optee/ldelf/ta_elf.c:885
     8f0:	f9405013 	ldr	x19, [x0, #160]
/media/home/beste/01_Pro/ld25x/bsp_hu/MYD-LD25X-Uboot-L2022.10-V1.0.0/GEN_FIP/myir-st-optee/ldelf/ta_elf.c:880
     8f4:	f90013f5 	str	x21, [sp, #32]
/media/home/beste/01_Pro/ld25x/bsp_hu/MYD-LD25X-Uboot-L2022.10-V1.0.0/GEN_FIP/myir-st-optee/ldelf/ta_elf.c:885 (discriminator 1)
     8f8:	b50000b3 	cbnz	x19, 90c <ta_elf_add_bti+0x2c>
/media/home/beste/01_Pro/ld25x/bsp_hu/MYD-LD25X-Uboot-L2022.10-V1.0.0/GEN_FIP/myir-st-optee/ldelf/ta_elf.c:894
     8fc:	a94153f3 	ldp	x19, x20, [sp, #16]
     900:	f94013f5 	ldr	x21, [sp, #32]
     904:	a8c37bfd 	ldp	x29, x30, [sp], #48
     908:	d65f03c0 	ret
/media/home/beste/01_Pro/ld25x/bsp_hu/MYD-LD25X-Uboot-L2022.10-V1.0.0/GEN_FIP/myir-st-optee/ldelf/ta_elf.c:888
     90c:	f9401261 	ldr	x1, [x19, #32]
/media/home/beste/01_Pro/ld25x/bsp_hu/MYD-LD25X-Uboot-L2022.10-V1.0.0/GEN_FIP/myir-st-optee/ldelf/ta_elf.c:886
     910:	f9400660 	ldr	x0, [x19, #8]
     914:	f9400683 	ldr	x3, [x20, #8]
/media/home/beste/01_Pro/ld25x/bsp_hu/MYD-LD25X-Uboot-L2022.10-V1.0.0/GEN_FIP/myir-st-optee/ldelf/ta_elf.c:888
     918:	36000221 	tbz	w1, #0, 95c <ta_elf_add_bti+0x7c>
/media/home/beste/01_Pro/ld25x/bsp_hu/MYD-LD25X-Uboot-L2022.10-V1.0.0/GEN_FIP/myir-st-optee/ldelf/ta_elf.c:889
     91c:	f9400e61 	ldr	x1, [x19, #24]
     920:	8b000060 	add	x0, x3, x0
     924:	52800182 	mov	w2, #0xc                   	// #12
     928:	97ffff4e 	bl	660 <sys_set_prot>
     92c:	2a0003f5 	mov	w21, w0
/media/home/beste/01_Pro/ld25x/bsp_hu/MYD-LD25X-Uboot-L2022.10-V1.0.0/GEN_FIP/myir-st-optee/ldelf/ta_elf.c:890
     930:	34000160 	cbz	w0, 95c <ta_elf_add_bti+0x7c>
/media/home/beste/01_Pro/ld25x/bsp_hu/MYD-LD25X-Uboot-L2022.10-V1.0.0/GEN_FIP/myir-st-optee/ldelf/ta_elf.c:891
     934:	d0000024 	adrp	x4, 6000 <kprintf.constprop.0+0x68c>
     938:	91272884 	add	x4, x4, #0x9ca
     93c:	52800023 	mov	w3, #0x1                   	// #1
     940:	52800022 	mov	w2, #0x1                   	// #1
     944:	52806f61 	mov	w1, #0x37b                 	// #891
     948:	f0000020 	adrp	x0, 7000 <trace_ext_prefix+0x6bc>
     94c:	910ad000 	add	x0, x0, #0x2b4
     950:	9400177d 	bl	6744 <trace_printf>
     954:	2a1503e0 	mov	w0, w21
     958:	97fffdff 	bl	154 <_ldelf_return>
/media/home/beste/01_Pro/ld25x/bsp_hu/MYD-LD25X-Uboot-L2022.10-V1.0.0/GEN_FIP/myir-st-optee/ldelf/ta_elf.c:885
     95c:	f9401e73 	ldr	x19, [x19, #56]
     960:	17ffffe6 	b	8f8 <ta_elf_add_bti+0x18>

0000000000000964 <init_elf>:
init_elf():
/media/home/beste/01_Pro/ld25x/bsp_hu/MYD-LD25X-Uboot-L2022.10-V1.0.0/GEN_FIP/myir-st-optee/ldelf/ta_elf.c:445
     964:	a9bc7bfd 	stp	x29, x30, [sp, #-64]!
/media/home/beste/01_Pro/ld25x/bsp_hu/MYD-LD25X-Uboot-L2022.10-V1.0.0/GEN_FIP/myir-st-optee/ldelf/ta_elf.c:451
     968:	91040001 	add	x1, x0, #0x100
/media/home/beste/01_Pro/ld25x/bsp_hu/MYD-LD25X-Uboot-L2022.10-V1.0.0/GEN_FIP/myir-st-optee/ldelf/ta_elf.c:445
     96c:	910003fd 	mov	x29, sp
     970:	f90013f5 	str	x21, [sp, #32]
/media/home/beste/01_Pro/ld25x/bsp_hu/MYD-LD25X-Uboot-L2022.10-V1.0.0/GEN_FIP/myir-st-optee/ldelf/ta_elf.c:451
     974:	91044015 	add	x21, x0, #0x110
/media/home/beste/01_Pro/ld25x/bsp_hu/MYD-LD25X-Uboot-L2022.10-V1.0.0/GEN_FIP/myir-st-optee/ldelf/ta_elf.c:445
     978:	a90153f3 	stp	x19, x20, [sp, #16]
     97c:	aa0003f3 	mov	x19, x0
/media/home/beste/01_Pro/ld25x/bsp_hu/MYD-LD25X-Uboot-L2022.10-V1.0.0/GEN_FIP/myir-st-optee/ldelf/ta_elf.c:451
     980:	aa1503e0 	mov	x0, x21
/media/home/beste/01_Pro/ld25x/bsp_hu/MYD-LD25X-Uboot-L2022.10-V1.0.0/GEN_FIP/myir-st-optee/ldelf/ta_elf.c:447
     984:	f9001fff 	str	xzr, [sp, #56]
/media/home/beste/01_Pro/ld25x/bsp_hu/MYD-LD25X-Uboot-L2022.10-V1.0.0/GEN_FIP/myir-st-optee/ldelf/ta_elf.c:451
     988:	97ffff25 	bl	61c <sys_open_ta_bin>
/media/home/beste/01_Pro/ld25x/bsp_hu/MYD-LD25X-Uboot-L2022.10-V1.0.0/GEN_FIP/myir-st-optee/ldelf/ta_elf.c:452
     98c:	340001a0 	cbz	w0, 9c0 <init_elf+0x5c>
     990:	2a0003f4 	mov	w20, w0
/media/home/beste/01_Pro/ld25x/bsp_hu/MYD-LD25X-Uboot-L2022.10-V1.0.0/GEN_FIP/myir-st-optee/ldelf/ta_elf.c:453
     994:	d0000024 	adrp	x4, 6000 <kprintf.constprop.0+0x68c>
     998:	f0000020 	adrp	x0, 7000 <trace_ext_prefix+0x6bc>
     99c:	aa1503e5 	mov	x5, x21
     9a0:	91275c84 	add	x4, x4, #0x9d7
     9a4:	910a5c00 	add	x0, x0, #0x297
     9a8:	52800023 	mov	w3, #0x1                   	// #1
     9ac:	52800022 	mov	w2, #0x1                   	// #1
     9b0:	528038a1 	mov	w1, #0x1c5                 	// #453
     9b4:	94001764 	bl	6744 <trace_printf>
/media/home/beste/01_Pro/ld25x/bsp_hu/MYD-LD25X-Uboot-L2022.10-V1.0.0/GEN_FIP/myir-st-optee/ldelf/ta_elf.c:463
     9b8:	2a1403e0 	mov	w0, w20
     9bc:	97fffde6 	bl	154 <_ldelf_return>
/media/home/beste/01_Pro/ld25x/bsp_hu/MYD-LD25X-Uboot-L2022.10-V1.0.0/GEN_FIP/myir-st-optee/ldelf/ta_elf.c:459
     9c0:	39400260 	ldrb	w0, [x19]
/media/home/beste/01_Pro/ld25x/bsp_hu/MYD-LD25X-Uboot-L2022.10-V1.0.0/GEN_FIP/myir-st-optee/ldelf/ta_elf.c:448
     9c4:	52800035 	mov	w21, #0x1                   	// #1
/media/home/beste/01_Pro/ld25x/bsp_hu/MYD-LD25X-Uboot-L2022.10-V1.0.0/GEN_FIP/myir-st-optee/ldelf/ta_elf.c:461
     9c8:	b9410263 	ldr	w3, [x19, #256]
     9cc:	d2800006 	mov	x6, #0x0                   	// #0
/media/home/beste/01_Pro/ld25x/bsp_hu/MYD-LD25X-Uboot-L2022.10-V1.0.0/GEN_FIP/myir-st-optee/ldelf/ta_elf.c:448
     9d0:	7100001f 	cmp	w0, #0x0
/media/home/beste/01_Pro/ld25x/bsp_hu/MYD-LD25X-Uboot-L2022.10-V1.0.0/GEN_FIP/myir-st-optee/ldelf/ta_elf.c:461
     9d4:	d2800005 	mov	x5, #0x0                   	// #0
     9d8:	9100e3e0 	add	x0, sp, #0x38
     9dc:	d2800004 	mov	x4, #0x0                   	// #0
     9e0:	528000a2 	mov	w2, #0x5                   	// #5
     9e4:	d2820001 	mov	x1, #0x1000                	// #4096
     9e8:	1a950042 	csel	w2, w2, w21, eq	// eq = none
     9ec:	97ffff11 	bl	630 <sys_map_ta_bin>
     9f0:	2a0003f4 	mov	w20, w0
/media/home/beste/01_Pro/ld25x/bsp_hu/MYD-LD25X-Uboot-L2022.10-V1.0.0/GEN_FIP/myir-st-optee/ldelf/ta_elf.c:462
     9f4:	34000140 	cbz	w0, a1c <init_elf+0xb8>
/media/home/beste/01_Pro/ld25x/bsp_hu/MYD-LD25X-Uboot-L2022.10-V1.0.0/GEN_FIP/myir-st-optee/ldelf/ta_elf.c:463
     9f8:	2a1503e3 	mov	w3, w21
     9fc:	2a1503e2 	mov	w2, w21
     a00:	d0000024 	adrp	x4, 6000 <kprintf.constprop.0+0x68c>
     a04:	528039e1 	mov	w1, #0x1cf                 	// #463
     a08:	9127b484 	add	x4, x4, #0x9ed
     a0c:	f0000020 	adrp	x0, 7000 <trace_ext_prefix+0x6bc>
     a10:	910a5c00 	add	x0, x0, #0x297
     a14:	9400174c 	bl	6744 <trace_printf>
     a18:	17ffffe8 	b	9b8 <init_elf+0x54>
/media/home/beste/01_Pro/ld25x/bsp_hu/MYD-LD25X-Uboot-L2022.10-V1.0.0/GEN_FIP/myir-st-optee/ldelf/ta_elf.c:465
     a1c:	39400261 	ldrb	w1, [x19]
/media/home/beste/01_Pro/ld25x/bsp_hu/MYD-LD25X-Uboot-L2022.10-V1.0.0/GEN_FIP/myir-st-optee/ldelf/ta_elf.c:464
     a20:	f9401fe0 	ldr	x0, [sp, #56]
     a24:	f9001260 	str	x0, [x19, #32]
/media/home/beste/01_Pro/ld25x/bsp_hu/MYD-LD25X-Uboot-L2022.10-V1.0.0/GEN_FIP/myir-st-optee/ldelf/ta_elf.c:465
     a28:	350000a1 	cbnz	w1, a3c <init_elf+0xd8>
/media/home/beste/01_Pro/ld25x/bsp_hu/MYD-LD25X-Uboot-L2022.10-V1.0.0/GEN_FIP/myir-st-optee/ldelf/ta_elf.c:467
     a2c:	91400401 	add	x1, x0, #0x1, lsl #12
     a30:	a9008660 	stp	x0, x1, [x19, #8]
/media/home/beste/01_Pro/ld25x/bsp_hu/MYD-LD25X-Uboot-L2022.10-V1.0.0/GEN_FIP/myir-st-optee/ldelf/ta_elf.c:468
     a34:	d2820001 	mov	x1, #0x1000                	// #4096
     a38:	f9000e61 	str	x1, [x19, #24]
/media/home/beste/01_Pro/ld25x/bsp_hu/MYD-LD25X-Uboot-L2022.10-V1.0.0/GEN_FIP/myir-st-optee/ldelf/ta_elf.c:471
     a3c:	b9400002 	ldr	w2, [x0]
     a40:	5288afe1 	mov	w1, #0x457f                	// #17791
     a44:	72a8c981 	movk	w1, #0x464c, lsl #16
     a48:	6b01005f 	cmp	w2, w1
     a4c:	54000160 	b.eq	a78 <init_elf+0x114>  // b.none
/media/home/beste/01_Pro/ld25x/bsp_hu/MYD-LD25X-Uboot-L2022.10-V1.0.0/GEN_FIP/myir-st-optee/ldelf/ta_elf.c:472
     a50:	d0000024 	adrp	x4, 6000 <kprintf.constprop.0+0x68c>
     a54:	9127f084 	add	x4, x4, #0x9fc
     a58:	52800023 	mov	w3, #0x1                   	// #1
     a5c:	52800022 	mov	w2, #0x1                   	// #1
     a60:	52803b01 	mov	w1, #0x1d8                 	// #472
/media/home/beste/01_Pro/ld25x/bsp_hu/MYD-LD25X-Uboot-L2022.10-V1.0.0/GEN_FIP/myir-st-optee/ldelf/ta_elf.c:482
     a64:	f0000020 	adrp	x0, 7000 <trace_ext_prefix+0x6bc>
     a68:	910a5c00 	add	x0, x0, #0x297
     a6c:	94001736 	bl	6744 <trace_printf>
     a70:	129fff40 	mov	w0, #0xffff0005            	// #-65531
     a74:	17ffffd2 	b	9bc <init_elf+0x58>
e32_parse_ehdr():
/media/home/beste/01_Pro/ld25x/bsp_hu/MYD-LD25X-Uboot-L2022.10-V1.0.0/GEN_FIP/myir-st-optee/ldelf/ta_elf.c:103
     a78:	b9400402 	ldr	w2, [x0, #4]
     a7c:	52802021 	mov	w1, #0x101                 	// #257
     a80:	72a00021 	movk	w1, #0x1, lsl #16
     a84:	6b01005f 	cmp	w2, w1
     a88:	540005e1 	b.ne	b44 <init_elf+0x1e0>  // b.any
/media/home/beste/01_Pro/ld25x/bsp_hu/MYD-LD25X-Uboot-L2022.10-V1.0.0/GEN_FIP/myir-st-optee/ldelf/ta_elf.c:107
     a8c:	b9401002 	ldr	w2, [x0, #16]
     a90:	52800061 	mov	w1, #0x3                   	// #3
     a94:	72a00501 	movk	w1, #0x28, lsl #16
     a98:	6b01005f 	cmp	w2, w1
     a9c:	54000541 	b.ne	b44 <init_elf+0x1e0>  // b.any
/media/home/beste/01_Pro/ld25x/bsp_hu/MYD-LD25X-Uboot-L2022.10-V1.0.0/GEN_FIP/myir-st-optee/ldelf/ta_elf.c:108
     aa0:	b9402401 	ldr	w1, [x0, #36]
/media/home/beste/01_Pro/ld25x/bsp_hu/MYD-LD25X-Uboot-L2022.10-V1.0.0/GEN_FIP/myir-st-optee/ldelf/ta_elf.c:107
     aa4:	52a0a002 	mov	w2, #0x5000000             	// #83886080
/media/home/beste/01_Pro/ld25x/bsp_hu/MYD-LD25X-Uboot-L2022.10-V1.0.0/GEN_FIP/myir-st-optee/ldelf/ta_elf.c:108
     aa8:	12081c21 	and	w1, w1, #0xff000000
/media/home/beste/01_Pro/ld25x/bsp_hu/MYD-LD25X-Uboot-L2022.10-V1.0.0/GEN_FIP/myir-st-optee/ldelf/ta_elf.c:107
     aac:	6b02003f 	cmp	w1, w2
     ab0:	540004a1 	b.ne	b44 <init_elf+0x1e0>  // b.any
/media/home/beste/01_Pro/ld25x/bsp_hu/MYD-LD25X-Uboot-L2022.10-V1.0.0/GEN_FIP/myir-st-optee/ldelf/ta_elf.c:108
     ab4:	79405401 	ldrh	w1, [x0, #42]
     ab8:	7100803f 	cmp	w1, #0x20
     abc:	54000441 	b.ne	b44 <init_elf+0x1e0>  // b.any
/media/home/beste/01_Pro/ld25x/bsp_hu/MYD-LD25X-Uboot-L2022.10-V1.0.0/GEN_FIP/myir-st-optee/ldelf/ta_elf.c:112
     ac0:	79405c02 	ldrh	w2, [x0, #46]
     ac4:	7100a05f 	cmp	w2, #0x28
     ac8:	540003e1 	b.ne	b44 <init_elf+0x1e0>  // b.any
/media/home/beste/01_Pro/ld25x/bsp_hu/MYD-LD25X-Uboot-L2022.10-V1.0.0/GEN_FIP/myir-st-optee/ldelf/ta_elf.c:116
     acc:	52800023 	mov	w3, #0x1                   	// #1
     ad0:	39000663 	strb	w3, [x19, #1]
/media/home/beste/01_Pro/ld25x/bsp_hu/MYD-LD25X-Uboot-L2022.10-V1.0.0/GEN_FIP/myir-st-optee/ldelf/ta_elf.c:117
     ad4:	b9401803 	ldr	w3, [x0, #24]
     ad8:	f9001663 	str	x3, [x19, #40]
/media/home/beste/01_Pro/ld25x/bsp_hu/MYD-LD25X-Uboot-L2022.10-V1.0.0/GEN_FIP/myir-st-optee/ldelf/ta_elf.c:118
     adc:	b9401c03 	ldr	w3, [x0, #28]
     ae0:	f9001a63 	str	x3, [x19, #48]
/media/home/beste/01_Pro/ld25x/bsp_hu/MYD-LD25X-Uboot-L2022.10-V1.0.0/GEN_FIP/myir-st-optee/ldelf/ta_elf.c:119
     ae4:	b9402003 	ldr	w3, [x0, #32]
     ae8:	f9001e63 	str	x3, [x19, #56]
/media/home/beste/01_Pro/ld25x/bsp_hu/MYD-LD25X-Uboot-L2022.10-V1.0.0/GEN_FIP/myir-st-optee/ldelf/ta_elf.c:120
     aec:	79405803 	ldrh	w3, [x0, #44]
     af0:	b9004263 	str	w3, [x19, #64]
/media/home/beste/01_Pro/ld25x/bsp_hu/MYD-LD25X-Uboot-L2022.10-V1.0.0/GEN_FIP/myir-st-optee/ldelf/ta_elf.c:121
     af4:	79406003 	ldrh	w3, [x0, #48]
     af8:	b9004663 	str	w3, [x19, #68]
init_elf():
/media/home/beste/01_Pro/ld25x/bsp_hu/MYD-LD25X-Uboot-L2022.10-V1.0.0/GEN_FIP/myir-st-optee/ldelf/ta_elf.c:480
     afc:	b9404263 	ldr	w3, [x19, #64]
e32_parse_ehdr():
/media/home/beste/01_Pro/ld25x/bsp_hu/MYD-LD25X-Uboot-L2022.10-V1.0.0/GEN_FIP/myir-st-optee/ldelf/ta_elf.c:123
     b00:	29090a61 	stp	w1, w2, [x19, #72]
init_elf():
/media/home/beste/01_Pro/ld25x/bsp_hu/MYD-LD25X-Uboot-L2022.10-V1.0.0/GEN_FIP/myir-st-optee/ldelf/ta_elf.c:481
     b04:	f9401a62 	ldr	x2, [x19, #48]
/media/home/beste/01_Pro/ld25x/bsp_hu/MYD-LD25X-Uboot-L2022.10-V1.0.0/GEN_FIP/myir-st-optee/ldelf/ta_elf.c:480
     b08:	9ba37c21 	umull	x1, w1, w3
/media/home/beste/01_Pro/ld25x/bsp_hu/MYD-LD25X-Uboot-L2022.10-V1.0.0/GEN_FIP/myir-st-optee/ldelf/ta_elf.c:481
     b0c:	ab020021 	adds	x1, x1, x2
     b10:	54000662 	b.cs	bdc <init_elf+0x278>  // b.hs, b.nlast
/media/home/beste/01_Pro/ld25x/bsp_hu/MYD-LD25X-Uboot-L2022.10-V1.0.0/GEN_FIP/myir-st-optee/ldelf/ta_elf.c:484
     b14:	f140043f 	cmp	x1, #0x1, lsl #12
     b18:	540006e9 	b.ls	bf4 <init_elf+0x290>  // b.plast
/media/home/beste/01_Pro/ld25x/bsp_hu/MYD-LD25X-Uboot-L2022.10-V1.0.0/GEN_FIP/myir-st-optee/ldelf/ta_elf.c:485
     b1c:	d0000024 	adrp	x4, 6000 <kprintf.constprop.0+0x68c>
     b20:	52800023 	mov	w3, #0x1                   	// #1
     b24:	9128f084 	add	x4, x4, #0xa3c
     b28:	52800022 	mov	w2, #0x1                   	// #1
     b2c:	52803ca1 	mov	w1, #0x1e5                 	// #485
     b30:	f0000020 	adrp	x0, 7000 <trace_ext_prefix+0x6bc>
     b34:	910a5c00 	add	x0, x0, #0x297
     b38:	94001703 	bl	6744 <trace_printf>
     b3c:	129ffea0 	mov	w0, #0xffff000a            	// #-65526
     b40:	17ffff9f 	b	9bc <init_elf+0x58>
e64_parse_ehdr():
/media/home/beste/01_Pro/ld25x/bsp_hu/MYD-LD25X-Uboot-L2022.10-V1.0.0/GEN_FIP/myir-st-optee/ldelf/ta_elf.c:133
     b44:	f9400001 	ldr	x1, [x0]
/media/home/beste/01_Pro/ld25x/bsp_hu/MYD-LD25X-Uboot-L2022.10-V1.0.0/GEN_FIP/myir-st-optee/ldelf/ta_elf.c:131
     b48:	d2c02042 	mov	x2, #0x10200000000         	// #1108101562368
     b4c:	f2e00022 	movk	x2, #0x1, lsl #48
/media/home/beste/01_Pro/ld25x/bsp_hu/MYD-LD25X-Uboot-L2022.10-V1.0.0/GEN_FIP/myir-st-optee/ldelf/ta_elf.c:133
     b50:	92607c21 	and	x1, x1, #0xffffffff00000000
/media/home/beste/01_Pro/ld25x/bsp_hu/MYD-LD25X-Uboot-L2022.10-V1.0.0/GEN_FIP/myir-st-optee/ldelf/ta_elf.c:131
     b54:	eb02003f 	cmp	x1, x2
     b58:	54000361 	b.ne	bc4 <init_elf+0x260>  // b.any
/media/home/beste/01_Pro/ld25x/bsp_hu/MYD-LD25X-Uboot-L2022.10-V1.0.0/GEN_FIP/myir-st-optee/ldelf/ta_elf.c:135
     b5c:	b9401002 	ldr	w2, [x0, #16]
     b60:	d2800061 	mov	x1, #0x3                   	// #3
     b64:	f2a016e1 	movk	x1, #0xb7, lsl #16
     b68:	eb01005f 	cmp	x2, x1
     b6c:	540002c1 	b.ne	bc4 <init_elf+0x260>  // b.any
/media/home/beste/01_Pro/ld25x/bsp_hu/MYD-LD25X-Uboot-L2022.10-V1.0.0/GEN_FIP/myir-st-optee/ldelf/ta_elf.c:136
     b70:	f9401801 	ldr	x1, [x0, #48]
     b74:	d2e00702 	mov	x2, #0x38000000000000      	// #15762598695796736
     b78:	9250bc21 	and	x1, x1, #0xffff0000ffffffff
     b7c:	eb02003f 	cmp	x1, x2
     b80:	54000221 	b.ne	bc4 <init_elf+0x260>  // b.any
     b84:	79407402 	ldrh	w2, [x0, #58]
     b88:	7101005f 	cmp	w2, #0x40
     b8c:	540001c1 	b.ne	bc4 <init_elf+0x260>  // b.any
/media/home/beste/01_Pro/ld25x/bsp_hu/MYD-LD25X-Uboot-L2022.10-V1.0.0/GEN_FIP/myir-st-optee/ldelf/ta_elf.c:142
     b90:	f9400c01 	ldr	x1, [x0, #24]
     b94:	f9001661 	str	x1, [x19, #40]
/media/home/beste/01_Pro/ld25x/bsp_hu/MYD-LD25X-Uboot-L2022.10-V1.0.0/GEN_FIP/myir-st-optee/ldelf/ta_elf.c:143
     b98:	f9401001 	ldr	x1, [x0, #32]
     b9c:	f9001a61 	str	x1, [x19, #48]
/media/home/beste/01_Pro/ld25x/bsp_hu/MYD-LD25X-Uboot-L2022.10-V1.0.0/GEN_FIP/myir-st-optee/ldelf/ta_elf.c:144
     ba0:	f9401401 	ldr	x1, [x0, #40]
     ba4:	f9001e61 	str	x1, [x19, #56]
/media/home/beste/01_Pro/ld25x/bsp_hu/MYD-LD25X-Uboot-L2022.10-V1.0.0/GEN_FIP/myir-st-optee/ldelf/ta_elf.c:145
     ba8:	79407001 	ldrh	w1, [x0, #56]
     bac:	b9004261 	str	w1, [x19, #64]
/media/home/beste/01_Pro/ld25x/bsp_hu/MYD-LD25X-Uboot-L2022.10-V1.0.0/GEN_FIP/myir-st-optee/ldelf/ta_elf.c:146
     bb0:	79407801 	ldrh	w1, [x0, #60]
/media/home/beste/01_Pro/ld25x/bsp_hu/MYD-LD25X-Uboot-L2022.10-V1.0.0/GEN_FIP/myir-st-optee/ldelf/ta_elf.c:141
     bb4:	3900067f 	strb	wzr, [x19, #1]
/media/home/beste/01_Pro/ld25x/bsp_hu/MYD-LD25X-Uboot-L2022.10-V1.0.0/GEN_FIP/myir-st-optee/ldelf/ta_elf.c:146
     bb8:	b9004661 	str	w1, [x19, #68]
/media/home/beste/01_Pro/ld25x/bsp_hu/MYD-LD25X-Uboot-L2022.10-V1.0.0/GEN_FIP/myir-st-optee/ldelf/ta_elf.c:147
     bbc:	79406c01 	ldrh	w1, [x0, #54]
init_elf():
/media/home/beste/01_Pro/ld25x/bsp_hu/MYD-LD25X-Uboot-L2022.10-V1.0.0/GEN_FIP/myir-st-optee/ldelf/ta_elf.c:477
     bc0:	17ffffcf 	b	afc <init_elf+0x198>
/media/home/beste/01_Pro/ld25x/bsp_hu/MYD-LD25X-Uboot-L2022.10-V1.0.0/GEN_FIP/myir-st-optee/ldelf/ta_elf.c:478
     bc4:	d0000024 	adrp	x4, 6000 <kprintf.constprop.0+0x68c>
     bc8:	52800023 	mov	w3, #0x1                   	// #1
     bcc:	91283484 	add	x4, x4, #0xa0d
     bd0:	52800022 	mov	w2, #0x1                   	// #1
     bd4:	52803bc1 	mov	w1, #0x1de                 	// #478
     bd8:	17ffffa3 	b	a64 <init_elf+0x100>
/media/home/beste/01_Pro/ld25x/bsp_hu/MYD-LD25X-Uboot-L2022.10-V1.0.0/GEN_FIP/myir-st-optee/ldelf/ta_elf.c:482
     bdc:	d0000024 	adrp	x4, 6000 <kprintf.constprop.0+0x68c>
     be0:	52800023 	mov	w3, #0x1                   	// #1
     be4:	91287884 	add	x4, x4, #0xa1e
     be8:	52800022 	mov	w2, #0x1                   	// #1
     bec:	52803c41 	mov	w1, #0x1e2                 	// #482
     bf0:	17ffff9d 	b	a64 <init_elf+0x100>
/media/home/beste/01_Pro/ld25x/bsp_hu/MYD-LD25X-Uboot-L2022.10-V1.0.0/GEN_FIP/myir-st-optee/ldelf/ta_elf.c:488
     bf4:	f94013f5 	ldr	x21, [sp, #32]
/media/home/beste/01_Pro/ld25x/bsp_hu/MYD-LD25X-Uboot-L2022.10-V1.0.0/GEN_FIP/myir-st-optee/ldelf/ta_elf.c:487
     bf8:	8b020000 	add	x0, x0, x2
     bfc:	f9002a60 	str	x0, [x19, #80]
/media/home/beste/01_Pro/ld25x/bsp_hu/MYD-LD25X-Uboot-L2022.10-V1.0.0/GEN_FIP/myir-st-optee/ldelf/ta_elf.c:488
     c00:	a94153f3 	ldp	x19, x20, [sp, #16]
     c04:	a8c47bfd 	ldp	x29, x30, [sp], #64
     c08:	d65f03c0 	ret

0000000000000c0c <close_handle>:
close_handle():
/media/home/beste/01_Pro/ld25x/bsp_hu/MYD-LD25X-Uboot-L2022.10-V1.0.0/GEN_FIP/myir-st-optee/ldelf/ta_elf.c:1096
     c0c:	a9be7bfd 	stp	x29, x30, [sp, #-32]!
     c10:	910003fd 	mov	x29, sp
     c14:	a90153f3 	stp	x19, x20, [sp, #16]
     c18:	aa0003f3 	mov	x19, x0
/media/home/beste/01_Pro/ld25x/bsp_hu/MYD-LD25X-Uboot-L2022.10-V1.0.0/GEN_FIP/myir-st-optee/ldelf/ta_elf.c:1097
     c1c:	b9410000 	ldr	w0, [x0, #256]
     c20:	97fffe82 	bl	628 <sys_close_ta_bin>
/media/home/beste/01_Pro/ld25x/bsp_hu/MYD-LD25X-Uboot-L2022.10-V1.0.0/GEN_FIP/myir-st-optee/ldelf/ta_elf.c:1099
     c24:	34000180 	cbz	w0, c54 <close_handle+0x48>
/media/home/beste/01_Pro/ld25x/bsp_hu/MYD-LD25X-Uboot-L2022.10-V1.0.0/GEN_FIP/myir-st-optee/ldelf/ta_elf.c:1100
     c28:	d0000024 	adrp	x4, 6000 <kprintf.constprop.0+0x68c>
     c2c:	91296084 	add	x4, x4, #0xa58
     c30:	52800023 	mov	w3, #0x1                   	// #1
     c34:	52800022 	mov	w2, #0x1                   	// #1
     c38:	52808981 	mov	w1, #0x44c                 	// #1100
     c3c:	2a0003f4 	mov	w20, w0
     c40:	f0000020 	adrp	x0, 7000 <trace_ext_prefix+0x6bc>
     c44:	91064800 	add	x0, x0, #0x192
     c48:	940016bf 	bl	6744 <trace_printf>
     c4c:	2a1403e0 	mov	w0, w20
     c50:	97fffd41 	bl	154 <_ldelf_return>
/media/home/beste/01_Pro/ld25x/bsp_hu/MYD-LD25X-Uboot-L2022.10-V1.0.0/GEN_FIP/myir-st-optee/ldelf/ta_elf.c:1101
     c54:	12800000 	mov	w0, #0xffffffff            	// #-1
     c58:	b9010260 	str	w0, [x19, #256]
/media/home/beste/01_Pro/ld25x/bsp_hu/MYD-LD25X-Uboot-L2022.10-V1.0.0/GEN_FIP/myir-st-optee/ldelf/ta_elf.c:1102
     c5c:	a94153f3 	ldp	x19, x20, [sp, #16]
     c60:	a8c27bfd 	ldp	x29, x30, [sp], #32
     c64:	d65f03c0 	ret

0000000000000c68 <print_wrapper>:
print_wrapper():
/media/home/beste/01_Pro/ld25x/bsp_hu/MYD-LD25X-Uboot-L2022.10-V1.0.0/GEN_FIP/myir-st-optee/ldelf/ta_elf.c:1313
     c68:	a9b87bfd 	stp	x29, x30, [sp, #-128]!
     c6c:	aa0103e8 	mov	x8, x1
     c70:	aa0203e1 	mov	x1, x2
     c74:	910003fd 	mov	x29, sp
/media/home/beste/01_Pro/ld25x/bsp_hu/MYD-LD25X-Uboot-L2022.10-V1.0.0/GEN_FIP/myir-st-optee/ldelf/ta_elf.c:1316
     c78:	910203e2 	add	x2, sp, #0x80
     c7c:	a9030be2 	stp	x2, x2, [sp, #48]
     c80:	910143e2 	add	x2, sp, #0x50
     c84:	f90023e2 	str	x2, [sp, #64]
     c88:	128004e2 	mov	w2, #0xffffffd8            	// #-40
     c8c:	b9004be2 	str	w2, [sp, #72]
     c90:	b9004fff 	str	wzr, [sp, #76]
/media/home/beste/01_Pro/ld25x/bsp_hu/MYD-LD25X-Uboot-L2022.10-V1.0.0/GEN_FIP/myir-st-optee/ldelf/ta_elf.c:1313
     c94:	a90593e3 	stp	x3, x4, [sp, #88]
/media/home/beste/01_Pro/ld25x/bsp_hu/MYD-LD25X-Uboot-L2022.10-V1.0.0/GEN_FIP/myir-st-optee/ldelf/ta_elf.c:1317
     c98:	a9430fe2 	ldp	x2, x3, [sp, #48]
     c9c:	a9010fe2 	stp	x2, x3, [sp, #16]
     ca0:	a9440fe2 	ldp	x2, x3, [sp, #64]
     ca4:	a9020fe2 	stp	x2, x3, [sp, #32]
/media/home/beste/01_Pro/ld25x/bsp_hu/MYD-LD25X-Uboot-L2022.10-V1.0.0/GEN_FIP/myir-st-optee/ldelf/ta_elf.c:1313
     ca8:	a9069be5 	stp	x5, x6, [sp, #104]
/media/home/beste/01_Pro/ld25x/bsp_hu/MYD-LD25X-Uboot-L2022.10-V1.0.0/GEN_FIP/myir-st-optee/ldelf/ta_elf.c:1317
     cac:	910043e2 	add	x2, sp, #0x10
/media/home/beste/01_Pro/ld25x/bsp_hu/MYD-LD25X-Uboot-L2022.10-V1.0.0/GEN_FIP/myir-st-optee/ldelf/ta_elf.c:1313
     cb0:	f9003fe7 	str	x7, [sp, #120]
/media/home/beste/01_Pro/ld25x/bsp_hu/MYD-LD25X-Uboot-L2022.10-V1.0.0/GEN_FIP/myir-st-optee/ldelf/ta_elf.c:1317
     cb4:	d63f0100 	blr	x8
/media/home/beste/01_Pro/ld25x/bsp_hu/MYD-LD25X-Uboot-L2022.10-V1.0.0/GEN_FIP/myir-st-optee/ldelf/ta_elf.c:1319
     cb8:	a8c87bfd 	ldp	x29, x30, [sp], #128
     cbc:	d65f03c0 	ret

0000000000000cc0 <check_phdr_in_range.constprop.0>:
check_phdr_in_range():
/media/home/beste/01_Pro/ld25x/bsp_hu/MYD-LD25X-Uboot-L2022.10-V1.0.0/GEN_FIP/myir-st-optee/ldelf/ta_elf.c:160
     cc0:	a9bf7bfd 	stp	x29, x30, [sp, #-16]!
/media/home/beste/01_Pro/ld25x/bsp_hu/MYD-LD25X-Uboot-L2022.10-V1.0.0/GEN_FIP/myir-st-optee/ldelf/ta_elf.c:165
     cc4:	ab020021 	adds	x1, x1, x2
/media/home/beste/01_Pro/ld25x/bsp_hu/MYD-LD25X-Uboot-L2022.10-V1.0.0/GEN_FIP/myir-st-optee/ldelf/ta_elf.c:160
     cc8:	910003fd 	mov	x29, sp
/media/home/beste/01_Pro/ld25x/bsp_hu/MYD-LD25X-Uboot-L2022.10-V1.0.0/GEN_FIP/myir-st-optee/ldelf/ta_elf.c:165
     ccc:	54000182 	b.cs	cfc <check_phdr_in_range.constprop.0+0x3c>  // b.hs, b.nlast
/media/home/beste/01_Pro/ld25x/bsp_hu/MYD-LD25X-Uboot-L2022.10-V1.0.0/GEN_FIP/myir-st-optee/ldelf/ta_elf.c:173
     cd0:	a9408800 	ldp	x0, x2, [x0, #8]
     cd4:	cb000040 	sub	x0, x2, x0
     cd8:	eb00003f 	cmp	x1, x0
     cdc:	54000269 	b.ls	d28 <check_phdr_in_range.constprop.0+0x68>  // b.plast
/media/home/beste/01_Pro/ld25x/bsp_hu/MYD-LD25X-Uboot-L2022.10-V1.0.0/GEN_FIP/myir-st-optee/ldelf/ta_elf.c:174
     ce0:	d0000024 	adrp	x4, 6000 <kprintf.constprop.0+0x68c>
     ce4:	52800045 	mov	w5, #0x2                   	// #2
     ce8:	912a1484 	add	x4, x4, #0xa85
     cec:	52800023 	mov	w3, #0x1                   	// #1
     cf0:	52800022 	mov	w2, #0x1                   	// #1
     cf4:	528015c1 	mov	w1, #0xae                  	// #174
     cf8:	14000007 	b	d14 <check_phdr_in_range.constprop.0+0x54>
/media/home/beste/01_Pro/ld25x/bsp_hu/MYD-LD25X-Uboot-L2022.10-V1.0.0/GEN_FIP/myir-st-optee/ldelf/ta_elf.c:166
     cfc:	d0000024 	adrp	x4, 6000 <kprintf.constprop.0+0x68c>
     d00:	9129a484 	add	x4, x4, #0xa69
     d04:	52800045 	mov	w5, #0x2                   	// #2
     d08:	52800023 	mov	w3, #0x1                   	// #1
     d0c:	52800022 	mov	w2, #0x1                   	// #1
     d10:	528014c1 	mov	w1, #0xa6                  	// #166
/media/home/beste/01_Pro/ld25x/bsp_hu/MYD-LD25X-Uboot-L2022.10-V1.0.0/GEN_FIP/myir-st-optee/ldelf/ta_elf.c:174
     d14:	f0000020 	adrp	x0, 7000 <trace_ext_prefix+0x6bc>
     d18:	91086400 	add	x0, x0, #0x219
     d1c:	9400168a 	bl	6744 <trace_printf>
     d20:	129fff40 	mov	w0, #0xffff0005            	// #-65531
     d24:	97fffd0c 	bl	154 <_ldelf_return>
/media/home/beste/01_Pro/ld25x/bsp_hu/MYD-LD25X-Uboot-L2022.10-V1.0.0/GEN_FIP/myir-st-optee/ldelf/ta_elf.c:176
     d28:	a8c17bfd 	ldp	x29, x30, [sp], #16
     d2c:	d65f03c0 	ret

0000000000000d30 <_assert_trap.constprop.0>:
_assert_trap():
/media/home/beste/01_Pro/ld25x/bsp_hu/MYD-LD25X-Uboot-L2022.10-V1.0.0/GEN_FIP/myir-st-optee/lib/libutils/isoc/include/assert.h:19
     d30:	aa0203e3 	mov	x3, x2
     d34:	2a0103e2 	mov	w2, w1
     d38:	d0000021 	adrp	x1, 6000 <kprintf.constprop.0+0x68c>
     d3c:	912a9821 	add	x1, x1, #0xaa6
/media/home/beste/01_Pro/ld25x/bsp_hu/MYD-LD25X-Uboot-L2022.10-V1.0.0/GEN_FIP/myir-st-optee/lib/libutils/isoc/include/assert.h:15
     d40:	a9bf7bfd 	stp	x29, x30, [sp, #-16]!
     d44:	910003fd 	mov	x29, sp
/media/home/beste/01_Pro/ld25x/bsp_hu/MYD-LD25X-Uboot-L2022.10-V1.0.0/GEN_FIP/myir-st-optee/lib/libutils/isoc/include/assert.h:19
     d48:	94000f50 	bl	4a88 <_assert_log>
/media/home/beste/01_Pro/ld25x/bsp_hu/MYD-LD25X-Uboot-L2022.10-V1.0.0/GEN_FIP/myir-st-optee/lib/libutils/isoc/include/assert.h:20
     d4c:	94000f60 	bl	4acc <_assert_break>

0000000000000d50 <print_seg>:
print_seg():
/media/home/beste/01_Pro/ld25x/bsp_hu/MYD-LD25X-Uboot-L2022.10-V1.0.0/GEN_FIP/myir-st-optee/ldelf/ta_elf.c:1325
     d50:	d10243ff 	sub	sp, sp, #0x90
     d54:	a9027bfd 	stp	x29, x30, [sp, #32]
     d58:	910083fd 	add	x29, sp, #0x20
     d5c:	a9045bf5 	stp	x21, x22, [sp, #64]
     d60:	aa0003f6 	mov	x22, x0
/media/home/beste/01_Pro/ld25x/bsp_hu/MYD-LD25X-Uboot-L2022.10-V1.0.0/GEN_FIP/myir-st-optee/ldelf/ta_elf.c:1329
     d64:	5285a5a0 	mov	w0, #0x2d2d                	// #11565
     d68:	72a5a5a0 	movk	w0, #0x2d2d, lsl #16
/media/home/beste/01_Pro/ld25x/bsp_hu/MYD-LD25X-Uboot-L2022.10-V1.0.0/GEN_FIP/myir-st-optee/ldelf/ta_elf.c:1325
     d6c:	a90353f3 	stp	x19, x20, [sp, #48]
     d70:	aa0403f5 	mov	x21, x4
     d74:	a90563f7 	stp	x23, x24, [sp, #80]
     d78:	2a0703f3 	mov	w19, w7
     d7c:	aa0103f7 	mov	x23, x1
     d80:	a9066bf9 	stp	x25, x26, [sp, #96]
     d84:	aa0203f8 	mov	x24, x2
     d88:	aa0503f9 	mov	x25, x5
/media/home/beste/01_Pro/ld25x/bsp_hu/MYD-LD25X-Uboot-L2022.10-V1.0.0/GEN_FIP/myir-st-optee/ldelf/ta_elf.c:1329
     d8c:	b9007be0 	str	w0, [sp, #120]
/media/home/beste/01_Pro/ld25x/bsp_hu/MYD-LD25X-Uboot-L2022.10-V1.0.0/GEN_FIP/myir-st-optee/ldelf/ta_elf.c:1325
     d90:	aa0603fa 	mov	x26, x6
/media/home/beste/01_Pro/ld25x/bsp_hu/MYD-LD25X-Uboot-L2022.10-V1.0.0/GEN_FIP/myir-st-optee/ldelf/ta_elf.c:1329
     d94:	3901f3ff 	strb	wzr, [sp, #124]
     d98:	910203f4 	add	x20, sp, #0x80
/media/home/beste/01_Pro/ld25x/bsp_hu/MYD-LD25X-Uboot-L2022.10-V1.0.0/GEN_FIP/myir-st-optee/ldelf/ta_elf.c:1328
     d9c:	f90043ff 	str	xzr, [sp, #128]
     da0:	b9008bff 	str	wzr, [sp, #136]
     da4:	79011bff 	strh	wzr, [sp, #140]
/media/home/beste/01_Pro/ld25x/bsp_hu/MYD-LD25X-Uboot-L2022.10-V1.0.0/GEN_FIP/myir-st-optee/ldelf/ta_elf.c:1331
     da8:	37f804c3 	tbnz	w3, #31, e40 <print_seg+0xf0>
/media/home/beste/01_Pro/ld25x/bsp_hu/MYD-LD25X-Uboot-L2022.10-V1.0.0/GEN_FIP/myir-st-optee/ldelf/ta_elf.c:1332
     dac:	d0000022 	adrp	x2, 6000 <kprintf.constprop.0+0x68c>
     db0:	aa1403e0 	mov	x0, x20
     db4:	912ad442 	add	x2, x2, #0xab5
     db8:	d28001c1 	mov	x1, #0xe                   	// #14
     dbc:	94001259 	bl	5720 <snprintf>
/media/home/beste/01_Pro/ld25x/bsp_hu/MYD-LD25X-Uboot-L2022.10-V1.0.0/GEN_FIP/myir-st-optee/ldelf/ta_elf.c:1349
     dc0:	36000073 	tbz	w19, #0, dcc <print_seg+0x7c>
/media/home/beste/01_Pro/ld25x/bsp_hu/MYD-LD25X-Uboot-L2022.10-V1.0.0/GEN_FIP/myir-st-optee/ldelf/ta_elf.c:1350
     dc4:	52800e40 	mov	w0, #0x72                  	// #114
     dc8:	3901e3e0 	strb	w0, [sp, #120]
/media/home/beste/01_Pro/ld25x/bsp_hu/MYD-LD25X-Uboot-L2022.10-V1.0.0/GEN_FIP/myir-st-optee/ldelf/ta_elf.c:1351
     dcc:	36080073 	tbz	w19, #1, dd8 <print_seg+0x88>
/media/home/beste/01_Pro/ld25x/bsp_hu/MYD-LD25X-Uboot-L2022.10-V1.0.0/GEN_FIP/myir-st-optee/ldelf/ta_elf.c:1352
     dd0:	52800ee0 	mov	w0, #0x77                  	// #119
     dd4:	3901e7e0 	strb	w0, [sp, #121]
/media/home/beste/01_Pro/ld25x/bsp_hu/MYD-LD25X-Uboot-L2022.10-V1.0.0/GEN_FIP/myir-st-optee/ldelf/ta_elf.c:1353
     dd8:	36100073 	tbz	w19, #2, de4 <print_seg+0x94>
/media/home/beste/01_Pro/ld25x/bsp_hu/MYD-LD25X-Uboot-L2022.10-V1.0.0/GEN_FIP/myir-st-optee/ldelf/ta_elf.c:1354
     ddc:	52800f00 	mov	w0, #0x78                  	// #120
     de0:	3901ebe0 	strb	w0, [sp, #122]
/media/home/beste/01_Pro/ld25x/bsp_hu/MYD-LD25X-Uboot-L2022.10-V1.0.0/GEN_FIP/myir-st-optee/ldelf/ta_elf.c:1355
     de4:	36180073 	tbz	w19, #3, df0 <print_seg+0xa0>
/media/home/beste/01_Pro/ld25x/bsp_hu/MYD-LD25X-Uboot-L2022.10-V1.0.0/GEN_FIP/myir-st-optee/ldelf/ta_elf.c:1356
     de8:	52800e60 	mov	w0, #0x73                  	// #115
     dec:	3901efe0 	strb	w0, [sp, #123]
/media/home/beste/01_Pro/ld25x/bsp_hu/MYD-LD25X-Uboot-L2022.10-V1.0.0/GEN_FIP/myir-st-optee/ldelf/ta_elf.c:1358
     df0:	9101e3e0 	add	x0, sp, #0x78
     df4:	a90003fa 	stp	x26, x0, [sp]
     df8:	aa1903e7 	mov	x7, x25
     dfc:	f9000bf4 	str	x20, [sp, #16]
     e00:	aa1503e5 	mov	x5, x21
     e04:	aa1803e3 	mov	x3, x24
     e08:	aa1703e1 	mov	x1, x23
     e0c:	aa1603e0 	mov	x0, x22
     e10:	52800106 	mov	w6, #0x8                   	// #8
     e14:	d0000022 	adrp	x2, 6000 <kprintf.constprop.0+0x68c>
     e18:	2a0603e4 	mov	w4, w6
     e1c:	912b5842 	add	x2, x2, #0xad6
     e20:	97ffff92 	bl	c68 <print_wrapper>
/media/home/beste/01_Pro/ld25x/bsp_hu/MYD-LD25X-Uboot-L2022.10-V1.0.0/GEN_FIP/myir-st-optee/ldelf/ta_elf.c:1361
     e24:	a9427bfd 	ldp	x29, x30, [sp, #32]
     e28:	a94353f3 	ldp	x19, x20, [sp, #48]
     e2c:	a9445bf5 	ldp	x21, x22, [sp, #64]
     e30:	a94563f7 	ldp	x23, x24, [sp, #80]
     e34:	a9466bf9 	ldp	x25, x26, [sp, #96]
     e38:	910243ff 	add	sp, sp, #0x90
     e3c:	d65f03c0 	ret
/media/home/beste/01_Pro/ld25x/bsp_hu/MYD-LD25X-Uboot-L2022.10-V1.0.0/GEN_FIP/myir-st-optee/ldelf/ta_elf.c:1335
     e40:	362000b3 	tbz	w19, #4, e54 <print_seg+0x104>
/media/home/beste/01_Pro/ld25x/bsp_hu/MYD-LD25X-Uboot-L2022.10-V1.0.0/GEN_FIP/myir-st-optee/ldelf/ta_elf.c:1336
     e44:	d0000021 	adrp	x1, 6000 <kprintf.constprop.0+0x68c>
     e48:	aa1403e0 	mov	x0, x20
     e4c:	912aec21 	add	x1, x1, #0xabb
     e50:	9400126b 	bl	57fc <strcpy>
/media/home/beste/01_Pro/ld25x/bsp_hu/MYD-LD25X-Uboot-L2022.10-V1.0.0/GEN_FIP/myir-st-optee/ldelf/ta_elf.c:1339
     e54:	363800b3 	tbz	w19, #7, e68 <print_seg+0x118>
/media/home/beste/01_Pro/ld25x/bsp_hu/MYD-LD25X-Uboot-L2022.10-V1.0.0/GEN_FIP/myir-st-optee/ldelf/ta_elf.c:1340
     e58:	d0000021 	adrp	x1, 6000 <kprintf.constprop.0+0x68c>
     e5c:	aa1403e0 	mov	x0, x20
     e60:	912b1021 	add	x1, x1, #0xac4
     e64:	94001266 	bl	57fc <strcpy>
/media/home/beste/01_Pro/ld25x/bsp_hu/MYD-LD25X-Uboot-L2022.10-V1.0.0/GEN_FIP/myir-st-optee/ldelf/ta_elf.c:1343
     e68:	90000040 	adrp	x0, 8000 <_DYNAMIC>
     e6c:	f9410400 	ldr	x0, [x0, #520]
     e70:	eb15001f 	cmp	x0, x21
     e74:	54fffa61 	b.ne	dc0 <print_seg+0x70>  // b.any
/media/home/beste/01_Pro/ld25x/bsp_hu/MYD-LD25X-Uboot-L2022.10-V1.0.0/GEN_FIP/myir-st-optee/ldelf/ta_elf.c:1344
     e78:	aa1403e0 	mov	x0, x20
     e7c:	d0000021 	adrp	x1, 6000 <kprintf.constprop.0+0x68c>
     e80:	912b3421 	add	x1, x1, #0xacd
     e84:	9400125e 	bl	57fc <strcpy>
/media/home/beste/01_Pro/ld25x/bsp_hu/MYD-LD25X-Uboot-L2022.10-V1.0.0/GEN_FIP/myir-st-optee/ldelf/ta_elf.c:1345
     e88:	17ffffce 	b	dc0 <print_seg+0x70>

0000000000000e8c <copy_section_headers>:
copy_section_headers():
/media/home/beste/01_Pro/ld25x/bsp_hu/MYD-LD25X-Uboot-L2022.10-V1.0.0/GEN_FIP/myir-st-optee/ldelf/ta_elf.c:1062
     e8c:	a9bc7bfd 	stp	x29, x30, [sp, #-64]!
     e90:	910003fd 	mov	x29, sp
     e94:	a90153f3 	stp	x19, x20, [sp, #16]
     e98:	aa0003f4 	mov	x20, x0
     e9c:	a9025bf5 	stp	x21, x22, [sp, #32]
/media/home/beste/01_Pro/ld25x/bsp_hu/MYD-LD25X-Uboot-L2022.10-V1.0.0/GEN_FIP/myir-st-optee/ldelf/ta_elf.c:1067
     ea0:	b9404415 	ldr	w21, [x0, #68]
     ea4:	b9404c00 	ldr	w0, [x0, #76]
/media/home/beste/01_Pro/ld25x/bsp_hu/MYD-LD25X-Uboot-L2022.10-V1.0.0/GEN_FIP/myir-st-optee/ldelf/ta_elf.c:1062
     ea8:	f9001bf7 	str	x23, [sp, #48]
/media/home/beste/01_Pro/ld25x/bsp_hu/MYD-LD25X-Uboot-L2022.10-V1.0.0/GEN_FIP/myir-st-optee/ldelf/ta_elf.c:1067
     eac:	9ba07eb5 	umull	x21, w21, w0
/media/home/beste/01_Pro/ld25x/bsp_hu/MYD-LD25X-Uboot-L2022.10-V1.0.0/GEN_FIP/myir-st-optee/ldelf/ta_elf.c:1070
     eb0:	aa1503e0 	mov	x0, x21
     eb4:	940011f5 	bl	5688 <malloc>
     eb8:	f9002e80 	str	x0, [x20, #88]
/media/home/beste/01_Pro/ld25x/bsp_hu/MYD-LD25X-Uboot-L2022.10-V1.0.0/GEN_FIP/myir-st-optee/ldelf/ta_elf.c:1071
     ebc:	b5000160 	cbnz	x0, ee8 <copy_section_headers+0x5c>
/media/home/beste/01_Pro/ld25x/bsp_hu/MYD-LD25X-Uboot-L2022.10-V1.0.0/GEN_FIP/myir-st-optee/ldelf/ta_elf.c:1072
     ec0:	d0000024 	adrp	x4, 6000 <kprintf.constprop.0+0x68c>
     ec4:	52800023 	mov	w3, #0x1                   	// #1
     ec8:	912c4884 	add	x4, x4, #0xb12
     ecc:	52800022 	mov	w2, #0x1                   	// #1
     ed0:	52808601 	mov	w1, #0x430                 	// #1072
     ed4:	f0000020 	adrp	x0, 7000 <trace_ext_prefix+0x6bc>
     ed8:	9107e000 	add	x0, x0, #0x1f8
     edc:	9400161a 	bl	6744 <trace_printf>
     ee0:	129ffe60 	mov	w0, #0xffff000c            	// #-65524
/media/home/beste/01_Pro/ld25x/bsp_hu/MYD-LD25X-Uboot-L2022.10-V1.0.0/GEN_FIP/myir-st-optee/ldelf/ta_elf.c:1091
     ee4:	97fffc9c 	bl	154 <_ldelf_return>
/media/home/beste/01_Pro/ld25x/bsp_hu/MYD-LD25X-Uboot-L2022.10-V1.0.0/GEN_FIP/myir-st-optee/ldelf/ta_elf.c:1079
     ee8:	f9401e97 	ldr	x23, [x20, #56]
     eec:	aa0003f6 	mov	x22, x0
     ef0:	f13ffeff 	cmp	x23, #0xfff
     ef4:	54000488 	b.hi	f84 <copy_section_headers+0xf8>  // b.pmore
/media/home/beste/01_Pro/ld25x/bsp_hu/MYD-LD25X-Uboot-L2022.10-V1.0.0/GEN_FIP/myir-st-optee/ldelf/ta_elf.c:1080
     ef8:	39400281 	ldrb	w1, [x20]
     efc:	340000e1 	cbz	w1, f18 <copy_section_headers+0x8c>
/media/home/beste/01_Pro/ld25x/bsp_hu/MYD-LD25X-Uboot-L2022.10-V1.0.0/GEN_FIP/myir-st-optee/ldelf/ta_elf.c:1080 (discriminator 1)
     f00:	f0000022 	adrp	x2, 7000 <trace_ext_prefix+0x6bc>
     f04:	d0000020 	adrp	x0, 6000 <kprintf.constprop.0+0x68c>
     f08:	9107e042 	add	x2, x2, #0x1f8
     f0c:	912c6400 	add	x0, x0, #0xb19
     f10:	52808701 	mov	w1, #0x438                 	// #1080
     f14:	97ffff87 	bl	d30 <_assert_trap.constprop.0>
/media/home/beste/01_Pro/ld25x/bsp_hu/MYD-LD25X-Uboot-L2022.10-V1.0.0/GEN_FIP/myir-st-optee/ldelf/ta_elf.c:1081
     f18:	d2820013 	mov	x19, #0x1000                	// #4096
     f1c:	cb170273 	sub	x19, x19, x23
/media/home/beste/01_Pro/ld25x/bsp_hu/MYD-LD25X-Uboot-L2022.10-V1.0.0/GEN_FIP/myir-st-optee/ldelf/ta_elf.c:1082
     f20:	f9400681 	ldr	x1, [x20, #8]
/media/home/beste/01_Pro/ld25x/bsp_hu/MYD-LD25X-Uboot-L2022.10-V1.0.0/GEN_FIP/myir-st-optee/ldelf/ta_elf.c:1081
     f24:	eb15027f 	cmp	x19, x21
     f28:	9a959273 	csel	x19, x19, x21, ls	// ls = plast
/media/home/beste/01_Pro/ld25x/bsp_hu/MYD-LD25X-Uboot-L2022.10-V1.0.0/GEN_FIP/myir-st-optee/ldelf/ta_elf.c:1082
     f2c:	aa1303e2 	mov	x2, x19
     f30:	8b0102e1 	add	x1, x23, x1
     f34:	97fffc4f 	bl	70 <memcpy>
/media/home/beste/01_Pro/ld25x/bsp_hu/MYD-LD25X-Uboot-L2022.10-V1.0.0/GEN_FIP/myir-st-optee/ldelf/ta_elf.c:1086
     f38:	eb1302bf 	cmp	x21, x19
     f3c:	54000289 	b.ls	f8c <copy_section_headers+0x100>  // b.plast
/media/home/beste/01_Pro/ld25x/bsp_hu/MYD-LD25X-Uboot-L2022.10-V1.0.0/GEN_FIP/myir-st-optee/ldelf/ta_elf.c:1087
     f40:	b9410282 	ldr	w2, [x20, #256]
     f44:	8b1302e3 	add	x3, x23, x19
     f48:	cb1302a1 	sub	x1, x21, x19
     f4c:	8b1302c0 	add	x0, x22, x19
     f50:	97fffdbf 	bl	64c <sys_copy_from_ta_bin>
     f54:	2a0003f3 	mov	w19, w0
/media/home/beste/01_Pro/ld25x/bsp_hu/MYD-LD25X-Uboot-L2022.10-V1.0.0/GEN_FIP/myir-st-optee/ldelf/ta_elf.c:1090
     f58:	340001a0 	cbz	w0, f8c <copy_section_headers+0x100>
/media/home/beste/01_Pro/ld25x/bsp_hu/MYD-LD25X-Uboot-L2022.10-V1.0.0/GEN_FIP/myir-st-optee/ldelf/ta_elf.c:1091
     f5c:	d0000024 	adrp	x4, 6000 <kprintf.constprop.0+0x68c>
     f60:	52800023 	mov	w3, #0x1                   	// #1
     f64:	912c9c84 	add	x4, x4, #0xb27
     f68:	52800022 	mov	w2, #0x1                   	// #1
     f6c:	52808861 	mov	w1, #0x443                 	// #1091
     f70:	f0000020 	adrp	x0, 7000 <trace_ext_prefix+0x6bc>
     f74:	9107e000 	add	x0, x0, #0x1f8
     f78:	940015f3 	bl	6744 <trace_printf>
     f7c:	2a1303e0 	mov	w0, w19
     f80:	17ffffd9 	b	ee4 <copy_section_headers+0x58>
/media/home/beste/01_Pro/ld25x/bsp_hu/MYD-LD25X-Uboot-L2022.10-V1.0.0/GEN_FIP/myir-st-optee/ldelf/ta_elf.c:1065
     f84:	d2800013 	mov	x19, #0x0                   	// #0
     f88:	17ffffec 	b	f38 <copy_section_headers+0xac>
/media/home/beste/01_Pro/ld25x/bsp_hu/MYD-LD25X-Uboot-L2022.10-V1.0.0/GEN_FIP/myir-st-optee/ldelf/ta_elf.c:1093
     f8c:	a94153f3 	ldp	x19, x20, [sp, #16]
     f90:	a9425bf5 	ldp	x21, x22, [sp, #32]
     f94:	f9401bf7 	ldr	x23, [sp, #48]
     f98:	a8c47bfd 	ldp	x29, x30, [sp], #64
     f9c:	d65f03c0 	ret

0000000000000fa0 <populate_segments>:
populate_segments():
/media/home/beste/01_Pro/ld25x/bsp_hu/MYD-LD25X-Uboot-L2022.10-V1.0.0/GEN_FIP/myir-st-optee/ldelf/ta_elf.c:748
     fa0:	a9b97bfd 	stp	x29, x30, [sp, #-112]!
     fa4:	910003fd 	mov	x29, sp
     fa8:	a90153f3 	stp	x19, x20, [sp, #16]
     fac:	aa0003f3 	mov	x19, x0
/media/home/beste/01_Pro/ld25x/bsp_hu/MYD-LD25X-Uboot-L2022.10-V1.0.0/GEN_FIP/myir-st-optee/ldelf/ta_elf.c:754
     fb0:	39400800 	ldrb	w0, [x0, #2]
/media/home/beste/01_Pro/ld25x/bsp_hu/MYD-LD25X-Uboot-L2022.10-V1.0.0/GEN_FIP/myir-st-optee/ldelf/ta_elf.c:748
     fb4:	a9025bf5 	stp	x21, x22, [sp, #32]
     fb8:	a90363f7 	stp	x23, x24, [sp, #48]
     fbc:	a9046bf9 	stp	x25, x26, [sp, #64]
     fc0:	a90573fb 	stp	x27, x28, [sp, #80]
/media/home/beste/01_Pro/ld25x/bsp_hu/MYD-LD25X-Uboot-L2022.10-V1.0.0/GEN_FIP/myir-st-optee/ldelf/ta_elf.c:751
     fc4:	f90037ff 	str	xzr, [sp, #104]
/media/home/beste/01_Pro/ld25x/bsp_hu/MYD-LD25X-Uboot-L2022.10-V1.0.0/GEN_FIP/myir-st-optee/ldelf/ta_elf.c:754
     fc8:	340000e0 	cbz	w0, fe4 <populate_segments+0x44>
/media/home/beste/01_Pro/ld25x/bsp_hu/MYD-LD25X-Uboot-L2022.10-V1.0.0/GEN_FIP/myir-st-optee/ldelf/ta_elf.c:754 (discriminator 1)
     fcc:	f0000022 	adrp	x2, 7000 <trace_ext_prefix+0x6bc>
     fd0:	d0000020 	adrp	x0, 6000 <kprintf.constprop.0+0x68c>
     fd4:	910b5042 	add	x2, x2, #0x2d4
     fd8:	912cf000 	add	x0, x0, #0xb3c
     fdc:	52805e41 	mov	w1, #0x2f2                 	// #754
/media/home/beste/01_Pro/ld25x/bsp_hu/MYD-LD25X-Uboot-L2022.10-V1.0.0/GEN_FIP/myir-st-optee/ldelf/ta_elf.c:764 (discriminator 1)
     fe0:	97ffff54 	bl	d30 <_assert_trap.constprop.0>
/media/home/beste/01_Pro/ld25x/bsp_hu/MYD-LD25X-Uboot-L2022.10-V1.0.0/GEN_FIP/myir-st-optee/ldelf/ta_elf.c:755
     fe4:	f9405275 	ldr	x21, [x19, #160]
     fe8:	9101a3f6 	add	x22, sp, #0x68
/media/home/beste/01_Pro/ld25x/bsp_hu/MYD-LD25X-Uboot-L2022.10-V1.0.0/GEN_FIP/myir-st-optee/ldelf/ta_elf.c:755 (discriminator 1)
     fec:	b5000115 	cbnz	x21, 100c <populate_segments+0x6c>
/media/home/beste/01_Pro/ld25x/bsp_hu/MYD-LD25X-Uboot-L2022.10-V1.0.0/GEN_FIP/myir-st-optee/ldelf/ta_elf.c:877
     ff0:	a94153f3 	ldp	x19, x20, [sp, #16]
     ff4:	a9425bf5 	ldp	x21, x22, [sp, #32]
     ff8:	a94363f7 	ldp	x23, x24, [sp, #48]
     ffc:	a9446bf9 	ldp	x25, x26, [sp, #64]
    1000:	a94573fb 	ldp	x27, x28, [sp, #80]
    1004:	a8c77bfd 	ldp	x29, x30, [sp], #112
    1008:	d65f03c0 	ret
/media/home/beste/01_Pro/ld25x/bsp_hu/MYD-LD25X-Uboot-L2022.10-V1.0.0/GEN_FIP/myir-st-optee/ldelf/ta_elf.c:756
    100c:	f9405660 	ldr	x0, [x19, #168]
/media/home/beste/01_Pro/ld25x/bsp_hu/MYD-LD25X-Uboot-L2022.10-V1.0.0/GEN_FIP/myir-st-optee/ldelf/ta_elf.c:758
    1010:	f94006a3 	ldr	x3, [x21, #8]
/media/home/beste/01_Pro/ld25x/bsp_hu/MYD-LD25X-Uboot-L2022.10-V1.0.0/GEN_FIP/myir-st-optee/ldelf/ta_elf.c:756
    1014:	f9400400 	ldr	x0, [x0, #8]
/media/home/beste/01_Pro/ld25x/bsp_hu/MYD-LD25X-Uboot-L2022.10-V1.0.0/GEN_FIP/myir-st-optee/ldelf/ta_elf.c:758
    1018:	f9400eb9 	ldr	x25, [x21, #24]
/media/home/beste/01_Pro/ld25x/bsp_hu/MYD-LD25X-Uboot-L2022.10-V1.0.0/GEN_FIP/myir-st-optee/ldelf/ta_elf.c:756
    101c:	f9400000 	ldr	x0, [x0]
roundup():
/media/home/beste/01_Pro/ld25x/bsp_hu/MYD-LD25X-Uboot-L2022.10-V1.0.0/GEN_FIP/myir-st-optee/ldelf/ta_elf.c:492
    1020:	8b190062 	add	x2, x3, x25
    1024:	f9400418 	ldr	x24, [x0, #8]
    1028:	f9400c00 	ldr	x0, [x0, #24]
    102c:	8b000318 	add	x24, x24, x0
populate_segments():
/media/home/beste/01_Pro/ld25x/bsp_hu/MYD-LD25X-Uboot-L2022.10-V1.0.0/GEN_FIP/myir-st-optee/ldelf/ta_elf.c:760
    1030:	3940c2a0 	ldrb	w0, [x21, #48]
roundup():
/media/home/beste/01_Pro/ld25x/bsp_hu/MYD-LD25X-Uboot-L2022.10-V1.0.0/GEN_FIP/myir-st-optee/ldelf/ta_elf.c:492
    1034:	cb020318 	sub	x24, x24, x2
    1038:	913fff18 	add	x24, x24, #0xfff
    103c:	9274cf18 	and	x24, x24, #0xfffffffffffff000
populate_segments():
/media/home/beste/01_Pro/ld25x/bsp_hu/MYD-LD25X-Uboot-L2022.10-V1.0.0/GEN_FIP/myir-st-optee/ldelf/ta_elf.c:760
    1040:	34000b00 	cbz	w0, 11a0 <populate_segments+0x200>
roundup():
/media/home/beste/01_Pro/ld25x/bsp_hu/MYD-LD25X-Uboot-L2022.10-V1.0.0/GEN_FIP/myir-st-optee/ldelf/ta_elf.c:492
    1044:	913ffc54 	add	x20, x2, #0xfff
rounddown():
/media/home/beste/01_Pro/ld25x/bsp_hu/MYD-LD25X-Uboot-L2022.10-V1.0.0/GEN_FIP/myir-st-optee/ldelf/ta_elf.c:497
    1048:	9274cc60 	and	x0, x3, #0xfffffffffffff000
roundup():
/media/home/beste/01_Pro/ld25x/bsp_hu/MYD-LD25X-Uboot-L2022.10-V1.0.0/GEN_FIP/myir-st-optee/ldelf/ta_elf.c:492
    104c:	9274ce94 	and	x20, x20, #0xfffffffffffff000
populate_segments():
/media/home/beste/01_Pro/ld25x/bsp_hu/MYD-LD25X-Uboot-L2022.10-V1.0.0/GEN_FIP/myir-st-optee/ldelf/ta_elf.c:761
    1050:	cb000294 	sub	x20, x20, x0
/media/home/beste/01_Pro/ld25x/bsp_hu/MYD-LD25X-Uboot-L2022.10-V1.0.0/GEN_FIP/myir-st-optee/ldelf/ta_elf.c:764
    1054:	f9400660 	ldr	x0, [x19, #8]
    1058:	b50000e0 	cbnz	x0, 1074 <populate_segments+0xd4>
/media/home/beste/01_Pro/ld25x/bsp_hu/MYD-LD25X-Uboot-L2022.10-V1.0.0/GEN_FIP/myir-st-optee/ldelf/ta_elf.c:764 (discriminator 1)
    105c:	d0000022 	adrp	x2, 7000 <trace_ext_prefix+0x6bc>
    1060:	b0000020 	adrp	x0, 6000 <kprintf.constprop.0+0x68c>
    1064:	910b5042 	add	x2, x2, #0x2d4
    1068:	912d3000 	add	x0, x0, #0xb4c
    106c:	52805f81 	mov	w1, #0x2fc                 	// #764
    1070:	17ffffdc 	b	fe0 <populate_segments+0x40>
/media/home/beste/01_Pro/ld25x/bsp_hu/MYD-LD25X-Uboot-L2022.10-V1.0.0/GEN_FIP/myir-st-optee/ldelf/ta_elf.c:765
    1074:	8b000063 	add	x3, x3, x0
/media/home/beste/01_Pro/ld25x/bsp_hu/MYD-LD25X-Uboot-L2022.10-V1.0.0/GEN_FIP/myir-st-optee/ldelf/ta_elf.c:766
    1078:	f9400a60 	ldr	x0, [x19, #16]
rounddown():
/media/home/beste/01_Pro/ld25x/bsp_hu/MYD-LD25X-Uboot-L2022.10-V1.0.0/GEN_FIP/myir-st-optee/ldelf/ta_elf.c:497
    107c:	9274cc63 	and	x3, x3, #0xfffffffffffff000
populate_segments():
/media/home/beste/01_Pro/ld25x/bsp_hu/MYD-LD25X-Uboot-L2022.10-V1.0.0/GEN_FIP/myir-st-optee/ldelf/ta_elf.c:765
    1080:	f90037e3 	str	x3, [sp, #104]
/media/home/beste/01_Pro/ld25x/bsp_hu/MYD-LD25X-Uboot-L2022.10-V1.0.0/GEN_FIP/myir-st-optee/ldelf/ta_elf.c:766
    1084:	eb03001f 	cmp	x0, x3
    1088:	540000e9 	b.ls	10a4 <populate_segments+0x104>  // b.plast
/media/home/beste/01_Pro/ld25x/bsp_hu/MYD-LD25X-Uboot-L2022.10-V1.0.0/GEN_FIP/myir-st-optee/ldelf/ta_elf.c:766 (discriminator 1)
    108c:	d0000022 	adrp	x2, 7000 <trace_ext_prefix+0x6bc>
    1090:	b0000020 	adrp	x0, 6000 <kprintf.constprop.0+0x68c>
    1094:	910b5042 	add	x2, x2, #0x2d4
    1098:	912d6c00 	add	x0, x0, #0xb5b
    109c:	52805fc1 	mov	w1, #0x2fe                 	// #766
    10a0:	17ffffd0 	b	fe0 <populate_segments+0x40>
/media/home/beste/01_Pro/ld25x/bsp_hu/MYD-LD25X-Uboot-L2022.10-V1.0.0/GEN_FIP/myir-st-optee/ldelf/ta_elf.c:767
    10a4:	aa1803e4 	mov	x4, x24
    10a8:	aa1603e2 	mov	x2, x22
    10ac:	aa1403e0 	mov	x0, x20
    10b0:	d2800003 	mov	x3, #0x0                   	// #0
    10b4:	52800001 	mov	w1, #0x0                   	// #0
    10b8:	97fffd51 	bl	5fc <sys_map_zi>
    10bc:	2a0003f8 	mov	w24, w0
/media/home/beste/01_Pro/ld25x/bsp_hu/MYD-LD25X-Uboot-L2022.10-V1.0.0/GEN_FIP/myir-st-optee/ldelf/ta_elf.c:768
    10c0:	34000160 	cbz	w0, 10ec <populate_segments+0x14c>
/media/home/beste/01_Pro/ld25x/bsp_hu/MYD-LD25X-Uboot-L2022.10-V1.0.0/GEN_FIP/myir-st-optee/ldelf/ta_elf.c:769
    10c4:	b0000024 	adrp	x4, 6000 <kprintf.constprop.0+0x68c>
    10c8:	912dbc84 	add	x4, x4, #0xb6f
    10cc:	52800023 	mov	w3, #0x1                   	// #1
    10d0:	52800022 	mov	w2, #0x1                   	// #1
    10d4:	52806021 	mov	w1, #0x301                 	// #769
/media/home/beste/01_Pro/ld25x/bsp_hu/MYD-LD25X-Uboot-L2022.10-V1.0.0/GEN_FIP/myir-st-optee/ldelf/ta_elf.c:854
    10d8:	d0000020 	adrp	x0, 7000 <trace_ext_prefix+0x6bc>
    10dc:	910b5000 	add	x0, x0, #0x2d4
    10e0:	94001599 	bl	6744 <trace_printf>
    10e4:	2a1803e0 	mov	w0, w24
    10e8:	14000025 	b	117c <populate_segments+0x1dc>
copy_remapped_to():
/media/home/beste/01_Pro/ld25x/bsp_hu/MYD-LD25X-Uboot-L2022.10-V1.0.0/GEN_FIP/myir-st-optee/ldelf/ta_elf.c:564
    10ec:	a94012b8 	ldp	x24, x4, [x21]
    10f0:	f9400660 	ldr	x0, [x19, #8]
/media/home/beste/01_Pro/ld25x/bsp_hu/MYD-LD25X-Uboot-L2022.10-V1.0.0/GEN_FIP/myir-st-optee/ldelf/ta_elf.c:567
    10f4:	f9400aba 	ldr	x26, [x21, #16]
/media/home/beste/01_Pro/ld25x/bsp_hu/MYD-LD25X-Uboot-L2022.10-V1.0.0/GEN_FIP/myir-st-optee/ldelf/ta_elf.c:564
    10f8:	8b000084 	add	x4, x4, x0
/media/home/beste/01_Pro/ld25x/bsp_hu/MYD-LD25X-Uboot-L2022.10-V1.0.0/GEN_FIP/myir-st-optee/ldelf/ta_elf.c:569
    10fc:	f9400e60 	ldr	x0, [x19, #24]
    1100:	eb00031f 	cmp	x24, x0
    1104:	540001a2 	b.cs	1138 <populate_segments+0x198>  // b.hs, b.nlast
/media/home/beste/01_Pro/ld25x/bsp_hu/MYD-LD25X-Uboot-L2022.10-V1.0.0/GEN_FIP/myir-st-optee/ldelf/ta_elf.c:571
    1108:	f9400a61 	ldr	x1, [x19, #16]
/media/home/beste/01_Pro/ld25x/bsp_hu/MYD-LD25X-Uboot-L2022.10-V1.0.0/GEN_FIP/myir-st-optee/ldelf/ta_elf.c:570
    110c:	cb180019 	sub	x25, x0, x24
    1110:	eb1a033f 	cmp	x25, x26
    1114:	9a9a9339 	csel	x25, x25, x26, ls	// ls = plast
/media/home/beste/01_Pro/ld25x/bsp_hu/MYD-LD25X-Uboot-L2022.10-V1.0.0/GEN_FIP/myir-st-optee/ldelf/ta_elf.c:571
    1118:	cb000021 	sub	x1, x1, x0
    111c:	8b180021 	add	x1, x1, x24
    1120:	aa0403e0 	mov	x0, x4
    1124:	aa1903e2 	mov	x2, x25
/media/home/beste/01_Pro/ld25x/bsp_hu/MYD-LD25X-Uboot-L2022.10-V1.0.0/GEN_FIP/myir-st-optee/ldelf/ta_elf.c:574
    1128:	cb19035a 	sub	x26, x26, x25
/media/home/beste/01_Pro/ld25x/bsp_hu/MYD-LD25X-Uboot-L2022.10-V1.0.0/GEN_FIP/myir-st-optee/ldelf/ta_elf.c:571
    112c:	97fffbd1 	bl	70 <memcpy>
/media/home/beste/01_Pro/ld25x/bsp_hu/MYD-LD25X-Uboot-L2022.10-V1.0.0/GEN_FIP/myir-st-optee/ldelf/ta_elf.c:573
    1130:	8b190318 	add	x24, x24, x25
/media/home/beste/01_Pro/ld25x/bsp_hu/MYD-LD25X-Uboot-L2022.10-V1.0.0/GEN_FIP/myir-st-optee/ldelf/ta_elf.c:572
    1134:	8b190004 	add	x4, x0, x25
/media/home/beste/01_Pro/ld25x/bsp_hu/MYD-LD25X-Uboot-L2022.10-V1.0.0/GEN_FIP/myir-st-optee/ldelf/ta_elf.c:577
    1138:	b40002ba 	cbz	x26, 118c <populate_segments+0x1ec>
/media/home/beste/01_Pro/ld25x/bsp_hu/MYD-LD25X-Uboot-L2022.10-V1.0.0/GEN_FIP/myir-st-optee/ldelf/ta_elf.c:578
    113c:	b9410262 	ldr	w2, [x19, #256]
    1140:	aa1803e3 	mov	x3, x24
    1144:	aa1a03e1 	mov	x1, x26
    1148:	aa0403e0 	mov	x0, x4
    114c:	97fffd40 	bl	64c <sys_copy_from_ta_bin>
    1150:	2a0003f9 	mov	w25, w0
/media/home/beste/01_Pro/ld25x/bsp_hu/MYD-LD25X-Uboot-L2022.10-V1.0.0/GEN_FIP/myir-st-optee/ldelf/ta_elf.c:581
    1154:	34000160 	cbz	w0, 1180 <populate_segments+0x1e0>
/media/home/beste/01_Pro/ld25x/bsp_hu/MYD-LD25X-Uboot-L2022.10-V1.0.0/GEN_FIP/myir-st-optee/ldelf/ta_elf.c:582
    1158:	b0000024 	adrp	x4, 6000 <kprintf.constprop.0+0x68c>
    115c:	52800023 	mov	w3, #0x1                   	// #1
    1160:	912c9c84 	add	x4, x4, #0xb27
    1164:	52800022 	mov	w2, #0x1                   	// #1
    1168:	528048c1 	mov	w1, #0x246                 	// #582
    116c:	d0000020 	adrp	x0, 7000 <trace_ext_prefix+0x6bc>
    1170:	910b0c00 	add	x0, x0, #0x2c3
    1174:	94001574 	bl	6744 <trace_printf>
    1178:	2a1903e0 	mov	w0, w25
populate_segments():
/media/home/beste/01_Pro/ld25x/bsp_hu/MYD-LD25X-Uboot-L2022.10-V1.0.0/GEN_FIP/myir-st-optee/ldelf/ta_elf.c:868
    117c:	97fffbf6 	bl	154 <_ldelf_return>
copy_remapped_to():
/media/home/beste/01_Pro/ld25x/bsp_hu/MYD-LD25X-Uboot-L2022.10-V1.0.0/GEN_FIP/myir-st-optee/ldelf/ta_elf.c:583
    1180:	f9400e60 	ldr	x0, [x19, #24]
    1184:	8b180000 	add	x0, x0, x24
    1188:	f9000e60 	str	x0, [x19, #24]
populate_segments():
/media/home/beste/01_Pro/ld25x/bsp_hu/MYD-LD25X-Uboot-L2022.10-V1.0.0/GEN_FIP/myir-st-optee/ldelf/ta_elf.c:772
    118c:	f94037e0 	ldr	x0, [sp, #104]
    1190:	8b140000 	add	x0, x0, x20
/media/home/beste/01_Pro/ld25x/bsp_hu/MYD-LD25X-Uboot-L2022.10-V1.0.0/GEN_FIP/myir-st-optee/ldelf/ta_elf.c:810
    1194:	f9000a60 	str	x0, [x19, #16]
/media/home/beste/01_Pro/ld25x/bsp_hu/MYD-LD25X-Uboot-L2022.10-V1.0.0/GEN_FIP/myir-st-optee/ldelf/ta_elf.c:755 (discriminator 2)
    1198:	f9401eb5 	ldr	x21, [x21, #56]
    119c:	17ffff94 	b	fec <populate_segments+0x4c>
/media/home/beste/01_Pro/ld25x/bsp_hu/MYD-LD25X-Uboot-L2022.10-V1.0.0/GEN_FIP/myir-st-optee/ldelf/ta_elf.c:777
    11a0:	f94002ba 	ldr	x26, [x21]
/media/home/beste/01_Pro/ld25x/bsp_hu/MYD-LD25X-Uboot-L2022.10-V1.0.0/GEN_FIP/myir-st-optee/ldelf/ta_elf.c:780
    11a4:	f9400e60 	ldr	x0, [x19, #24]
/media/home/beste/01_Pro/ld25x/bsp_hu/MYD-LD25X-Uboot-L2022.10-V1.0.0/GEN_FIP/myir-st-optee/ldelf/ta_elf.c:775
    11a8:	f9400ab4 	ldr	x20, [x21, #16]
/media/home/beste/01_Pro/ld25x/bsp_hu/MYD-LD25X-Uboot-L2022.10-V1.0.0/GEN_FIP/myir-st-optee/ldelf/ta_elf.c:780
    11ac:	eb1a001f 	cmp	x0, x26
    11b0:	54000589 	b.ls	1260 <populate_segments+0x2c0>  // b.plast
/media/home/beste/01_Pro/ld25x/bsp_hu/MYD-LD25X-Uboot-L2022.10-V1.0.0/GEN_FIP/myir-st-optee/ldelf/ta_elf.c:786
    11b4:	8b140060 	add	x0, x3, x20
    11b8:	f13ffc1f 	cmp	x0, #0xfff
    11bc:	540004a8 	b.hi	1250 <populate_segments+0x2b0>  // b.pmore
/media/home/beste/01_Pro/ld25x/bsp_hu/MYD-LD25X-Uboot-L2022.10-V1.0.0/GEN_FIP/myir-st-optee/ldelf/ta_elf.c:793
    11c0:	f140045f 	cmp	x2, #0x1, lsl #12
    11c4:	54fffea9 	b.ls	1198 <populate_segments+0x1f8>  // b.plast
/media/home/beste/01_Pro/ld25x/bsp_hu/MYD-LD25X-Uboot-L2022.10-V1.0.0/GEN_FIP/myir-st-optee/ldelf/ta_elf.c:801
    11c8:	f9400a60 	ldr	x0, [x19, #16]
roundup():
/media/home/beste/01_Pro/ld25x/bsp_hu/MYD-LD25X-Uboot-L2022.10-V1.0.0/GEN_FIP/myir-st-optee/ldelf/ta_elf.c:492
    11cc:	913ffc54 	add	x20, x2, #0xfff
    11d0:	913ffc63 	add	x3, x3, #0xfff
    11d4:	9274ce94 	and	x20, x20, #0xfffffffffffff000
    11d8:	9274cc63 	and	x3, x3, #0xfffffffffffff000
populate_segments():
/media/home/beste/01_Pro/ld25x/bsp_hu/MYD-LD25X-Uboot-L2022.10-V1.0.0/GEN_FIP/myir-st-optee/ldelf/ta_elf.c:801
    11dc:	f90037e0 	str	x0, [sp, #104]
/media/home/beste/01_Pro/ld25x/bsp_hu/MYD-LD25X-Uboot-L2022.10-V1.0.0/GEN_FIP/myir-st-optee/ldelf/ta_elf.c:802
    11e0:	cb030294 	sub	x20, x20, x3
/media/home/beste/01_Pro/ld25x/bsp_hu/MYD-LD25X-Uboot-L2022.10-V1.0.0/GEN_FIP/myir-st-optee/ldelf/ta_elf.c:805
    11e4:	f1400694 	subs	x20, x20, #0x1, lsl #12
    11e8:	540000e1 	b.ne	1204 <populate_segments+0x264>  // b.any
/media/home/beste/01_Pro/ld25x/bsp_hu/MYD-LD25X-Uboot-L2022.10-V1.0.0/GEN_FIP/myir-st-optee/ldelf/ta_elf.c:805 (discriminator 1)
    11ec:	d0000022 	adrp	x2, 7000 <trace_ext_prefix+0x6bc>
    11f0:	b0000020 	adrp	x0, 6000 <kprintf.constprop.0+0x68c>
    11f4:	910b5042 	add	x2, x2, #0x2d4
    11f8:	912de800 	add	x0, x0, #0xb7a
    11fc:	528064a1 	mov	w1, #0x325                 	// #805
    1200:	17ffff78 	b	fe0 <populate_segments+0x40>
/media/home/beste/01_Pro/ld25x/bsp_hu/MYD-LD25X-Uboot-L2022.10-V1.0.0/GEN_FIP/myir-st-optee/ldelf/ta_elf.c:806
    1204:	aa1603e2 	mov	x2, x22
    1208:	aa1403e0 	mov	x0, x20
    120c:	d2800004 	mov	x4, #0x0                   	// #0
    1210:	d2800003 	mov	x3, #0x0                   	// #0
    1214:	52800001 	mov	w1, #0x0                   	// #0
    1218:	97fffcf9 	bl	5fc <sys_map_zi>
    121c:	2a0003f8 	mov	w24, w0
/media/home/beste/01_Pro/ld25x/bsp_hu/MYD-LD25X-Uboot-L2022.10-V1.0.0/GEN_FIP/myir-st-optee/ldelf/ta_elf.c:808
    1220:	340000e0 	cbz	w0, 123c <populate_segments+0x29c>
/media/home/beste/01_Pro/ld25x/bsp_hu/MYD-LD25X-Uboot-L2022.10-V1.0.0/GEN_FIP/myir-st-optee/ldelf/ta_elf.c:809
    1224:	b0000024 	adrp	x4, 6000 <kprintf.constprop.0+0x68c>
    1228:	52800023 	mov	w3, #0x1                   	// #1
    122c:	912dbc84 	add	x4, x4, #0xb6f
    1230:	52800022 	mov	w2, #0x1                   	// #1
    1234:	52806521 	mov	w1, #0x329                 	// #809
    1238:	17ffffa8 	b	10d8 <populate_segments+0x138>
roundup():
/media/home/beste/01_Pro/ld25x/bsp_hu/MYD-LD25X-Uboot-L2022.10-V1.0.0/GEN_FIP/myir-st-optee/ldelf/ta_elf.c:492
    123c:	f94037e0 	ldr	x0, [sp, #104]
    1240:	913ffc00 	add	x0, x0, #0xfff
    1244:	8b140000 	add	x0, x0, x20
    1248:	9274cc00 	and	x0, x0, #0xfffffffffffff000
    124c:	17ffffd2 	b	1194 <populate_segments+0x1f4>
populate_segments():
/media/home/beste/01_Pro/ld25x/bsp_hu/MYD-LD25X-Uboot-L2022.10-V1.0.0/GEN_FIP/myir-st-optee/ldelf/ta_elf.c:815
    1250:	91400463 	add	x3, x3, #0x1, lsl #12
/media/home/beste/01_Pro/ld25x/bsp_hu/MYD-LD25X-Uboot-L2022.10-V1.0.0/GEN_FIP/myir-st-optee/ldelf/ta_elf.c:816
    1254:	d1400694 	sub	x20, x20, #0x1, lsl #12
/media/home/beste/01_Pro/ld25x/bsp_hu/MYD-LD25X-Uboot-L2022.10-V1.0.0/GEN_FIP/myir-st-optee/ldelf/ta_elf.c:817
    1258:	d1400739 	sub	x25, x25, #0x1, lsl #12
/media/home/beste/01_Pro/ld25x/bsp_hu/MYD-LD25X-Uboot-L2022.10-V1.0.0/GEN_FIP/myir-st-optee/ldelf/ta_elf.c:818
    125c:	9140075a 	add	x26, x26, #0x1, lsl #12
/media/home/beste/01_Pro/ld25x/bsp_hu/MYD-LD25X-Uboot-L2022.10-V1.0.0/GEN_FIP/myir-st-optee/ldelf/ta_elf.c:821
    1260:	f9400660 	ldr	x0, [x19, #8]
    1264:	b5000280 	cbnz	x0, 12b4 <populate_segments+0x314>
/media/home/beste/01_Pro/ld25x/bsp_hu/MYD-LD25X-Uboot-L2022.10-V1.0.0/GEN_FIP/myir-st-optee/ldelf/ta_elf.c:822
    1268:	f90037ff 	str	xzr, [sp, #104]
/media/home/beste/01_Pro/ld25x/bsp_hu/MYD-LD25X-Uboot-L2022.10-V1.0.0/GEN_FIP/myir-st-optee/ldelf/ta_elf.c:823
    126c:	97fffd90 	bl	8ac <get_pad_begin>
    1270:	aa0003f7 	mov	x23, x0
/media/home/beste/01_Pro/ld25x/bsp_hu/MYD-LD25X-Uboot-L2022.10-V1.0.0/GEN_FIP/myir-st-optee/ldelf/ta_elf.c:834
    1274:	f94012a0 	ldr	x0, [x21, #32]
/media/home/beste/01_Pro/ld25x/bsp_hu/MYD-LD25X-Uboot-L2022.10-V1.0.0/GEN_FIP/myir-st-optee/ldelf/ta_elf.c:837
    1278:	5301041c 	ubfx	w28, w0, #1, #1
    127c:	1100079c 	add	w28, w28, #0x1
/media/home/beste/01_Pro/ld25x/bsp_hu/MYD-LD25X-Uboot-L2022.10-V1.0.0/GEN_FIP/myir-st-optee/ldelf/ta_elf.c:838
    1280:	36000040 	tbz	w0, #0, 1288 <populate_segments+0x2e8>
/media/home/beste/01_Pro/ld25x/bsp_hu/MYD-LD25X-Uboot-L2022.10-V1.0.0/GEN_FIP/myir-st-optee/ldelf/ta_elf.c:839
    1284:	321e039c 	orr	w28, w28, #0x4
/media/home/beste/01_Pro/ld25x/bsp_hu/MYD-LD25X-Uboot-L2022.10-V1.0.0/GEN_FIP/myir-st-optee/ldelf/ta_elf.c:840
    1288:	371001e0 	tbnz	w0, #2, 12c4 <populate_segments+0x324>
/media/home/beste/01_Pro/ld25x/bsp_hu/MYD-LD25X-Uboot-L2022.10-V1.0.0/GEN_FIP/myir-st-optee/ldelf/ta_elf.c:841
    128c:	b0000024 	adrp	x4, 6000 <kprintf.constprop.0+0x68c>
    1290:	52800023 	mov	w3, #0x1                   	// #1
    1294:	912e1084 	add	x4, x4, #0xb84
    1298:	52800022 	mov	w2, #0x1                   	// #1
    129c:	52806921 	mov	w1, #0x349                 	// #841
    12a0:	d0000020 	adrp	x0, 7000 <trace_ext_prefix+0x6bc>
    12a4:	910b5000 	add	x0, x0, #0x2d4
    12a8:	94001527 	bl	6744 <trace_printf>
    12ac:	129ffea0 	mov	w0, #0xffff000a            	// #-65526
    12b0:	17ffffb3 	b	117c <populate_segments+0x1dc>
/media/home/beste/01_Pro/ld25x/bsp_hu/MYD-LD25X-Uboot-L2022.10-V1.0.0/GEN_FIP/myir-st-optee/ldelf/ta_elf.c:830
    12b4:	8b030000 	add	x0, x0, x3
/media/home/beste/01_Pro/ld25x/bsp_hu/MYD-LD25X-Uboot-L2022.10-V1.0.0/GEN_FIP/myir-st-optee/ldelf/ta_elf.c:831
    12b8:	d2800017 	mov	x23, #0x0                   	// #0
/media/home/beste/01_Pro/ld25x/bsp_hu/MYD-LD25X-Uboot-L2022.10-V1.0.0/GEN_FIP/myir-st-optee/ldelf/ta_elf.c:830
    12bc:	f90037e0 	str	x0, [sp, #104]
/media/home/beste/01_Pro/ld25x/bsp_hu/MYD-LD25X-Uboot-L2022.10-V1.0.0/GEN_FIP/myir-st-optee/ldelf/ta_elf.c:831
    12c0:	17ffffed 	b	1274 <populate_segments+0x2d4>
/media/home/beste/01_Pro/ld25x/bsp_hu/MYD-LD25X-Uboot-L2022.10-V1.0.0/GEN_FIP/myir-st-optee/ldelf/ta_elf.c:843
    12c4:	3608057c 	tbz	w28, #1, 1370 <populate_segments+0x3d0>
/media/home/beste/01_Pro/ld25x/bsp_hu/MYD-LD25X-Uboot-L2022.10-V1.0.0/GEN_FIP/myir-st-optee/ldelf/ta_elf.c:844
    12c8:	aa1803e4 	mov	x4, x24
    12cc:	aa1703e3 	mov	x3, x23
    12d0:	aa1603e2 	mov	x2, x22
    12d4:	aa1903e0 	mov	x0, x25
    12d8:	52800001 	mov	w1, #0x0                   	// #0
    12dc:	97fffcc8 	bl	5fc <sys_map_zi>
/media/home/beste/01_Pro/ld25x/bsp_hu/MYD-LD25X-Uboot-L2022.10-V1.0.0/GEN_FIP/myir-st-optee/ldelf/ta_elf.c:846
    12e0:	f10002ff 	cmp	x23, #0x0
/media/home/beste/01_Pro/ld25x/bsp_hu/MYD-LD25X-Uboot-L2022.10-V1.0.0/GEN_FIP/myir-st-optee/ldelf/ta_elf.c:844
    12e4:	2a0003fb 	mov	w27, w0
/media/home/beste/01_Pro/ld25x/bsp_hu/MYD-LD25X-Uboot-L2022.10-V1.0.0/GEN_FIP/myir-st-optee/ldelf/ta_elf.c:846
    12e8:	129ffe60 	mov	w0, #0xffff000c            	// #-65524
    12ec:	7a401360 	ccmp	w27, w0, #0x0, ne	// ne = any
    12f0:	54000101 	b.ne	1310 <populate_segments+0x370>  // b.any
/media/home/beste/01_Pro/ld25x/bsp_hu/MYD-LD25X-Uboot-L2022.10-V1.0.0/GEN_FIP/myir-st-optee/ldelf/ta_elf.c:847
    12f4:	aa1803e4 	mov	x4, x24
    12f8:	aa1603e2 	mov	x2, x22
    12fc:	aa1903e0 	mov	x0, x25
    1300:	d2800003 	mov	x3, #0x0                   	// #0
    1304:	52800001 	mov	w1, #0x0                   	// #0
    1308:	97fffcbd 	bl	5fc <sys_map_zi>
    130c:	2a0003fb 	mov	w27, w0
/media/home/beste/01_Pro/ld25x/bsp_hu/MYD-LD25X-Uboot-L2022.10-V1.0.0/GEN_FIP/myir-st-optee/ldelf/ta_elf.c:849
    1310:	3400017b 	cbz	w27, 133c <populate_segments+0x39c>
/media/home/beste/01_Pro/ld25x/bsp_hu/MYD-LD25X-Uboot-L2022.10-V1.0.0/GEN_FIP/myir-st-optee/ldelf/ta_elf.c:850
    1314:	b0000024 	adrp	x4, 6000 <kprintf.constprop.0+0x68c>
    1318:	912dbc84 	add	x4, x4, #0xb6f
    131c:	52800023 	mov	w3, #0x1                   	// #1
    1320:	52800022 	mov	w2, #0x1                   	// #1
    1324:	52806a41 	mov	w1, #0x352                 	// #850
/media/home/beste/01_Pro/ld25x/bsp_hu/MYD-LD25X-Uboot-L2022.10-V1.0.0/GEN_FIP/myir-st-optee/ldelf/ta_elf.c:868
    1328:	d0000020 	adrp	x0, 7000 <trace_ext_prefix+0x6bc>
    132c:	910b5000 	add	x0, x0, #0x2d4
    1330:	94001505 	bl	6744 <trace_printf>
    1334:	2a1b03e0 	mov	w0, w27
    1338:	17ffff91 	b	117c <populate_segments+0x1dc>
/media/home/beste/01_Pro/ld25x/bsp_hu/MYD-LD25X-Uboot-L2022.10-V1.0.0/GEN_FIP/myir-st-optee/ldelf/ta_elf.c:851
    133c:	f94037e0 	ldr	x0, [sp, #104]
    1340:	aa1a03e3 	mov	x3, x26
    1344:	b9410262 	ldr	w2, [x19, #256]
    1348:	aa1403e1 	mov	x1, x20
    134c:	97fffcc0 	bl	64c <sys_copy_from_ta_bin>
    1350:	2a0003f8 	mov	w24, w0
/media/home/beste/01_Pro/ld25x/bsp_hu/MYD-LD25X-Uboot-L2022.10-V1.0.0/GEN_FIP/myir-st-optee/ldelf/ta_elf.c:853
    1354:	34000600 	cbz	w0, 1414 <populate_segments+0x474>
/media/home/beste/01_Pro/ld25x/bsp_hu/MYD-LD25X-Uboot-L2022.10-V1.0.0/GEN_FIP/myir-st-optee/ldelf/ta_elf.c:854
    1358:	b0000024 	adrp	x4, 6000 <kprintf.constprop.0+0x68c>
    135c:	52800023 	mov	w3, #0x1                   	// #1
    1360:	912c9c84 	add	x4, x4, #0xb27
    1364:	52800022 	mov	w2, #0x1                   	// #1
    1368:	52806ac1 	mov	w1, #0x356                 	// #854
    136c:	17ffff5b 	b	10d8 <populate_segments+0x138>
/media/home/beste/01_Pro/ld25x/bsp_hu/MYD-LD25X-Uboot-L2022.10-V1.0.0/GEN_FIP/myir-st-optee/ldelf/ta_elf.c:856
    1370:	eb19029f 	cmp	x20, x25
    1374:	54000160 	b.eq	13a0 <populate_segments+0x400>  // b.none
/media/home/beste/01_Pro/ld25x/bsp_hu/MYD-LD25X-Uboot-L2022.10-V1.0.0/GEN_FIP/myir-st-optee/ldelf/ta_elf.c:857
    1378:	b0000024 	adrp	x4, 6000 <kprintf.constprop.0+0x68c>
    137c:	52800023 	mov	w3, #0x1                   	// #1
    1380:	912e7484 	add	x4, x4, #0xb9d
    1384:	52800022 	mov	w2, #0x1                   	// #1
    1388:	52806b21 	mov	w1, #0x359                 	// #857
    138c:	d0000020 	adrp	x0, 7000 <trace_ext_prefix+0x6bc>
    1390:	910b5000 	add	x0, x0, #0x2d4
    1394:	940014ec 	bl	6744 <trace_printf>
    1398:	129fff40 	mov	w0, #0xffff0005            	// #-65531
    139c:	17ffff78 	b	117c <populate_segments+0x1dc>
/media/home/beste/01_Pro/ld25x/bsp_hu/MYD-LD25X-Uboot-L2022.10-V1.0.0/GEN_FIP/myir-st-optee/ldelf/ta_elf.c:859
    13a0:	b9410263 	ldr	w3, [x19, #256]
    13a4:	aa1803e6 	mov	x6, x24
    13a8:	aa1703e5 	mov	x5, x23
    13ac:	aa1a03e4 	mov	x4, x26
    13b0:	2a1c03e2 	mov	w2, w28
    13b4:	aa1403e1 	mov	x1, x20
    13b8:	aa1603e0 	mov	x0, x22
    13bc:	97fffc9d 	bl	630 <sys_map_ta_bin>
    13c0:	2a0003fb 	mov	w27, w0
/media/home/beste/01_Pro/ld25x/bsp_hu/MYD-LD25X-Uboot-L2022.10-V1.0.0/GEN_FIP/myir-st-optee/ldelf/ta_elf.c:862
    13c4:	f10002ff 	cmp	x23, #0x0
    13c8:	129ffe60 	mov	w0, #0xffff000c            	// #-65524
    13cc:	7a401360 	ccmp	w27, w0, #0x0, ne	// ne = any
    13d0:	54000141 	b.ne	13f8 <populate_segments+0x458>  // b.any
/media/home/beste/01_Pro/ld25x/bsp_hu/MYD-LD25X-Uboot-L2022.10-V1.0.0/GEN_FIP/myir-st-optee/ldelf/ta_elf.c:863
    13d4:	b9410263 	ldr	w3, [x19, #256]
    13d8:	aa1803e6 	mov	x6, x24
    13dc:	aa1a03e4 	mov	x4, x26
    13e0:	2a1c03e2 	mov	w2, w28
    13e4:	aa1403e1 	mov	x1, x20
    13e8:	aa1603e0 	mov	x0, x22
    13ec:	d2800005 	mov	x5, #0x0                   	// #0
    13f0:	97fffc90 	bl	630 <sys_map_ta_bin>
    13f4:	2a0003fb 	mov	w27, w0
/media/home/beste/01_Pro/ld25x/bsp_hu/MYD-LD25X-Uboot-L2022.10-V1.0.0/GEN_FIP/myir-st-optee/ldelf/ta_elf.c:867
    13f8:	340000fb 	cbz	w27, 1414 <populate_segments+0x474>
/media/home/beste/01_Pro/ld25x/bsp_hu/MYD-LD25X-Uboot-L2022.10-V1.0.0/GEN_FIP/myir-st-optee/ldelf/ta_elf.c:868
    13fc:	b0000024 	adrp	x4, 6000 <kprintf.constprop.0+0x68c>
    1400:	52800023 	mov	w3, #0x1                   	// #1
    1404:	9127b484 	add	x4, x4, #0x9ed
    1408:	52800022 	mov	w2, #0x1                   	// #1
    140c:	52806c81 	mov	w1, #0x364                 	// #868
    1410:	17ffffc6 	b	1328 <populate_segments+0x388>
/media/home/beste/01_Pro/ld25x/bsp_hu/MYD-LD25X-Uboot-L2022.10-V1.0.0/GEN_FIP/myir-st-optee/ldelf/ta_elf.c:871
    1414:	f9400660 	ldr	x0, [x19, #8]
/media/home/beste/01_Pro/ld25x/bsp_hu/MYD-LD25X-Uboot-L2022.10-V1.0.0/GEN_FIP/myir-st-optee/ldelf/ta_elf.c:872
    1418:	f94037e1 	ldr	x1, [sp, #104]
/media/home/beste/01_Pro/ld25x/bsp_hu/MYD-LD25X-Uboot-L2022.10-V1.0.0/GEN_FIP/myir-st-optee/ldelf/ta_elf.c:871
    141c:	b5000040 	cbnz	x0, 1424 <populate_segments+0x484>
/media/home/beste/01_Pro/ld25x/bsp_hu/MYD-LD25X-Uboot-L2022.10-V1.0.0/GEN_FIP/myir-st-optee/ldelf/ta_elf.c:872
    1420:	f9000661 	str	x1, [x19, #8]
/media/home/beste/01_Pro/ld25x/bsp_hu/MYD-LD25X-Uboot-L2022.10-V1.0.0/GEN_FIP/myir-st-optee/ldelf/ta_elf.c:874
    1424:	f9400e60 	ldr	x0, [x19, #24]
roundup():
/media/home/beste/01_Pro/ld25x/bsp_hu/MYD-LD25X-Uboot-L2022.10-V1.0.0/GEN_FIP/myir-st-optee/ldelf/ta_elf.c:492
    1428:	913ffc21 	add	x1, x1, #0xfff
    142c:	8b190021 	add	x1, x1, x25
    1430:	9274cc21 	and	x1, x1, #0xfffffffffffff000
populate_segments():
/media/home/beste/01_Pro/ld25x/bsp_hu/MYD-LD25X-Uboot-L2022.10-V1.0.0/GEN_FIP/myir-st-optee/ldelf/ta_elf.c:874
    1434:	8b140000 	add	x0, x0, x20
    1438:	a9010261 	stp	x1, x0, [x19, #16]
    143c:	17ffff57 	b	1198 <populate_segments+0x1f8>

0000000000001440 <map_segments>:
map_segments():
/media/home/beste/01_Pro/ld25x/bsp_hu/MYD-LD25X-Uboot-L2022.10-V1.0.0/GEN_FIP/myir-st-optee/ldelf/ta_elf.c:960
    1440:	a9bb7bfd 	stp	x29, x30, [sp, #-80]!
    1444:	910003fd 	mov	x29, sp
    1448:	a90153f3 	stp	x19, x20, [sp, #16]
    144c:	aa0003f3 	mov	x19, x0
parse_load_segments():
/media/home/beste/01_Pro/ld25x/bsp_hu/MYD-LD25X-Uboot-L2022.10-V1.0.0/GEN_FIP/myir-st-optee/ldelf/ta_elf.c:526
    1450:	f9402814 	ldr	x20, [x0, #80]
map_segments():
/media/home/beste/01_Pro/ld25x/bsp_hu/MYD-LD25X-Uboot-L2022.10-V1.0.0/GEN_FIP/myir-st-optee/ldelf/ta_elf.c:960
    1454:	a9025bf5 	stp	x21, x22, [sp, #32]
parse_load_segments():
/media/home/beste/01_Pro/ld25x/bsp_hu/MYD-LD25X-Uboot-L2022.10-V1.0.0/GEN_FIP/myir-st-optee/ldelf/ta_elf.c:525
    1458:	39400400 	ldrb	w0, [x0, #1]
map_segments():
/media/home/beste/01_Pro/ld25x/bsp_hu/MYD-LD25X-Uboot-L2022.10-V1.0.0/GEN_FIP/myir-st-optee/ldelf/ta_elf.c:960
    145c:	f9001bf7 	str	x23, [sp, #48]
parse_load_segments():
/media/home/beste/01_Pro/ld25x/bsp_hu/MYD-LD25X-Uboot-L2022.10-V1.0.0/GEN_FIP/myir-st-optee/ldelf/ta_elf.c:528
    1460:	d2800015 	mov	x21, #0x0                   	// #0
/media/home/beste/01_Pro/ld25x/bsp_hu/MYD-LD25X-Uboot-L2022.10-V1.0.0/GEN_FIP/myir-st-optee/ldelf/ta_elf.c:525
    1464:	35000200 	cbnz	w0, 14a4 <map_segments+0x64>
/media/home/beste/01_Pro/ld25x/bsp_hu/MYD-LD25X-Uboot-L2022.10-V1.0.0/GEN_FIP/myir-st-optee/ldelf/ta_elf.c:543
    1468:	b9404260 	ldr	w0, [x19, #64]
    146c:	eb0002bf 	cmp	x21, x0
    1470:	54000242 	b.cs	14b8 <map_segments+0x78>  // b.hs, b.nlast
/media/home/beste/01_Pro/ld25x/bsp_hu/MYD-LD25X-Uboot-L2022.10-V1.0.0/GEN_FIP/myir-st-optee/ldelf/ta_elf.c:544
    1474:	b9400280 	ldr	w0, [x20]
    1478:	7100041f 	cmp	w0, #0x1
    147c:	54000a01 	b.ne	15bc <map_segments+0x17c>  // b.any
/media/home/beste/01_Pro/ld25x/bsp_hu/MYD-LD25X-Uboot-L2022.10-V1.0.0/GEN_FIP/myir-st-optee/ldelf/ta_elf.c:545
    1480:	a9408a81 	ldp	x1, x2, [x20, #8]
    1484:	aa1303e0 	mov	x0, x19
    1488:	a9421283 	ldp	x3, x4, [x20, #32]
    148c:	f9401a86 	ldr	x6, [x20, #48]
    1490:	b9400685 	ldr	w5, [x20, #4]
    1494:	97fffcd1 	bl	7d8 <add_segment>
/media/home/beste/01_Pro/ld25x/bsp_hu/MYD-LD25X-Uboot-L2022.10-V1.0.0/GEN_FIP/myir-st-optee/ldelf/ta_elf.c:543
    1498:	910006b5 	add	x21, x21, #0x1
    149c:	9100e294 	add	x20, x20, #0x38
    14a0:	17fffff2 	b	1468 <map_segments+0x28>
/media/home/beste/01_Pro/ld25x/bsp_hu/MYD-LD25X-Uboot-L2022.10-V1.0.0/GEN_FIP/myir-st-optee/ldelf/ta_elf.c:534
    14a4:	52800036 	mov	w22, #0x1                   	// #1
    14a8:	72ae0016 	movk	w22, #0x7000, lsl #16
/media/home/beste/01_Pro/ld25x/bsp_hu/MYD-LD25X-Uboot-L2022.10-V1.0.0/GEN_FIP/myir-st-optee/ldelf/ta_elf.c:528
    14ac:	b9404260 	ldr	w0, [x19, #64]
    14b0:	eb0002bf 	cmp	x21, x0
    14b4:	540003c3 	b.cc	152c <map_segments+0xec>  // b.lo, b.ul, b.last
adjust_segments():
/media/home/beste/01_Pro/ld25x/bsp_hu/MYD-LD25X-Uboot-L2022.10-V1.0.0/GEN_FIP/myir-st-optee/ldelf/ta_elf.c:596
    14b8:	f9405264 	ldr	x4, [x19, #160]
/media/home/beste/01_Pro/ld25x/bsp_hu/MYD-LD25X-Uboot-L2022.10-V1.0.0/GEN_FIP/myir-st-optee/ldelf/ta_elf.c:592
    14bc:	d2800003 	mov	x3, #0x0                   	// #0
/media/home/beste/01_Pro/ld25x/bsp_hu/MYD-LD25X-Uboot-L2022.10-V1.0.0/GEN_FIP/myir-st-optee/ldelf/ta_elf.c:596
    14c0:	aa0403e0 	mov	x0, x4
    14c4:	b50008e0 	cbnz	x0, 15e0 <map_segments+0x1a0>
/media/home/beste/01_Pro/ld25x/bsp_hu/MYD-LD25X-Uboot-L2022.10-V1.0.0/GEN_FIP/myir-st-optee/ldelf/ta_elf.c:619
    14c8:	b40000a4 	cbz	x4, 14dc <map_segments+0x9c>
/media/home/beste/01_Pro/ld25x/bsp_hu/MYD-LD25X-Uboot-L2022.10-V1.0.0/GEN_FIP/myir-st-optee/ldelf/ta_elf.c:620
    14cc:	f9401c80 	ldr	x0, [x4, #56]
/media/home/beste/01_Pro/ld25x/bsp_hu/MYD-LD25X-Uboot-L2022.10-V1.0.0/GEN_FIP/myir-st-optee/ldelf/ta_elf.c:616
    14d0:	d1000475 	sub	x21, x3, #0x1
/media/home/beste/01_Pro/ld25x/bsp_hu/MYD-LD25X-Uboot-L2022.10-V1.0.0/GEN_FIP/myir-st-optee/ldelf/ta_elf.c:667
    14d4:	52800036 	mov	w22, #0x1                   	// #1
/media/home/beste/01_Pro/ld25x/bsp_hu/MYD-LD25X-Uboot-L2022.10-V1.0.0/GEN_FIP/myir-st-optee/ldelf/ta_elf.c:621
    14d8:	b50011c0 	cbnz	x0, 1710 <map_segments+0x2d0>
map_segments():
/media/home/beste/01_Pro/ld25x/bsp_hu/MYD-LD25X-Uboot-L2022.10-V1.0.0/GEN_FIP/myir-st-optee/ldelf/ta_elf.c:965
    14dc:	f9405260 	ldr	x0, [x19, #160]
    14e0:	f9400000 	ldr	x0, [x0]
    14e4:	f13ffc1f 	cmp	x0, #0xfff
    14e8:	54002068 	b.hi	18f4 <map_segments+0x4b4>  // b.pmore
/media/home/beste/01_Pro/ld25x/bsp_hu/MYD-LD25X-Uboot-L2022.10-V1.0.0/GEN_FIP/myir-st-optee/ldelf/ta_elf.c:967
    14ec:	a940d660 	ldp	x0, x21, [x19, #8]
    14f0:	cb0002b5 	sub	x21, x21, x0
/media/home/beste/01_Pro/ld25x/bsp_hu/MYD-LD25X-Uboot-L2022.10-V1.0.0/GEN_FIP/myir-st-optee/ldelf/ta_elf.c:968
    14f4:	f9405660 	ldr	x0, [x19, #168]
    14f8:	f9400400 	ldr	x0, [x0, #8]
    14fc:	f9400016 	ldr	x22, [x0]
/media/home/beste/01_Pro/ld25x/bsp_hu/MYD-LD25X-Uboot-L2022.10-V1.0.0/GEN_FIP/myir-st-optee/ldelf/ta_elf.c:966
    1500:	f90027ff 	str	xzr, [sp, #72]
/media/home/beste/01_Pro/ld25x/bsp_hu/MYD-LD25X-Uboot-L2022.10-V1.0.0/GEN_FIP/myir-st-optee/ldelf/ta_elf.c:969
    1504:	97fffcea 	bl	8ac <get_pad_begin>
    1508:	aa0003e3 	mov	x3, x0
/media/home/beste/01_Pro/ld25x/bsp_hu/MYD-LD25X-Uboot-L2022.10-V1.0.0/GEN_FIP/myir-st-optee/ldelf/ta_elf.c:975
    150c:	39400260 	ldrb	w0, [x19]
    1510:	340019c0 	cbz	w0, 1848 <map_segments+0x408>
    1514:	d0000022 	adrp	x2, 7000 <trace_ext_prefix+0x6bc>
    1518:	b0000020 	adrp	x0, 6000 <kprintf.constprop.0+0x68c>
    151c:	910a2842 	add	x2, x2, #0x28a
    1520:	912c6400 	add	x0, x0, #0xb19
    1524:	528079e1 	mov	w1, #0x3cf                 	// #975
    1528:	14000020 	b	15a8 <map_segments+0x168>
parse_load_segments():
/media/home/beste/01_Pro/ld25x/bsp_hu/MYD-LD25X-Uboot-L2022.10-V1.0.0/GEN_FIP/myir-st-optee/ldelf/ta_elf.c:529
    152c:	b9400280 	ldr	w0, [x20]
    1530:	7100041f 	cmp	w0, #0x1
    1534:	54000121 	b.ne	1558 <map_segments+0x118>  // b.any
/media/home/beste/01_Pro/ld25x/bsp_hu/MYD-LD25X-Uboot-L2022.10-V1.0.0/GEN_FIP/myir-st-optee/ldelf/ta_elf.c:530
    1538:	29408a81 	ldp	w1, w2, [x20, #4]
    153c:	aa1303e0 	mov	x0, x19
    1540:	29421283 	ldp	w3, w4, [x20, #16]
    1544:	29431a85 	ldp	w5, w6, [x20, #24]
    1548:	97fffca4 	bl	7d8 <add_segment>
/media/home/beste/01_Pro/ld25x/bsp_hu/MYD-LD25X-Uboot-L2022.10-V1.0.0/GEN_FIP/myir-st-optee/ldelf/ta_elf.c:528
    154c:	910006b5 	add	x21, x21, #0x1
    1550:	91008294 	add	x20, x20, #0x20
    1554:	17ffffd6 	b	14ac <map_segments+0x6c>
/media/home/beste/01_Pro/ld25x/bsp_hu/MYD-LD25X-Uboot-L2022.10-V1.0.0/GEN_FIP/myir-st-optee/ldelf/ta_elf.c:534
    1558:	6b16001f 	cmp	w0, w22
    155c:	540000c1 	b.ne	1574 <map_segments+0x134>  // b.any
/media/home/beste/01_Pro/ld25x/bsp_hu/MYD-LD25X-Uboot-L2022.10-V1.0.0/GEN_FIP/myir-st-optee/ldelf/ta_elf.c:535
    1560:	b9400a80 	ldr	w0, [x20, #8]
    1564:	f9005a60 	str	x0, [x19, #176]
/media/home/beste/01_Pro/ld25x/bsp_hu/MYD-LD25X-Uboot-L2022.10-V1.0.0/GEN_FIP/myir-st-optee/ldelf/ta_elf.c:536
    1568:	b9401280 	ldr	w0, [x20, #16]
    156c:	f9005e60 	str	x0, [x19, #184]
    1570:	17fffff7 	b	154c <map_segments+0x10c>
/media/home/beste/01_Pro/ld25x/bsp_hu/MYD-LD25X-Uboot-L2022.10-V1.0.0/GEN_FIP/myir-st-optee/ldelf/ta_elf.c:537
    1574:	71001c1f 	cmp	w0, #0x7
    1578:	54fffea1 	b.ne	154c <map_segments+0x10c>  // b.any
assign_tls_mod_id():
/media/home/beste/01_Pro/ld25x/bsp_hu/MYD-LD25X-Uboot-L2022.10-V1.0.0/GEN_FIP/myir-st-optee/ldelf/ta_elf.c:57
    157c:	39400262 	ldrb	w2, [x19]
/media/home/beste/01_Pro/ld25x/bsp_hu/MYD-LD25X-Uboot-L2022.10-V1.0.0/GEN_FIP/myir-st-optee/ldelf/ta_elf.c:58
    1580:	f0000021 	adrp	x1, 8000 <_DYNAMIC>
    1584:	f940a820 	ldr	x0, [x1, #336]
/media/home/beste/01_Pro/ld25x/bsp_hu/MYD-LD25X-Uboot-L2022.10-V1.0.0/GEN_FIP/myir-st-optee/ldelf/ta_elf.c:57
    1588:	34000122 	cbz	w2, 15ac <map_segments+0x16c>
/media/home/beste/01_Pro/ld25x/bsp_hu/MYD-LD25X-Uboot-L2022.10-V1.0.0/GEN_FIP/myir-st-optee/ldelf/ta_elf.c:58
    158c:	f100041f 	cmp	x0, #0x1
    1590:	540000e0 	b.eq	15ac <map_segments+0x16c>  // b.none
    1594:	d0000022 	adrp	x2, 7000 <trace_ext_prefix+0x6bc>
    1598:	b0000020 	adrp	x0, 6000 <kprintf.constprop.0+0x68c>
    159c:	9109e042 	add	x2, x2, #0x278
    15a0:	912edc00 	add	x0, x0, #0xbb7
    15a4:	52800741 	mov	w1, #0x3a                  	// #58
adjust_segments():
/media/home/beste/01_Pro/ld25x/bsp_hu/MYD-LD25X-Uboot-L2022.10-V1.0.0/GEN_FIP/myir-st-optee/ldelf/ta_elf.c:599
    15a8:	97fffde2 	bl	d30 <_assert_trap.constprop.0>
assign_tls_mod_id():
/media/home/beste/01_Pro/ld25x/bsp_hu/MYD-LD25X-Uboot-L2022.10-V1.0.0/GEN_FIP/myir-st-optee/ldelf/ta_elf.c:59
    15ac:	91000402 	add	x2, x0, #0x1
    15b0:	f900a822 	str	x2, [x1, #336]
    15b4:	f9006260 	str	x0, [x19, #192]
/media/home/beste/01_Pro/ld25x/bsp_hu/MYD-LD25X-Uboot-L2022.10-V1.0.0/GEN_FIP/myir-st-optee/ldelf/ta_elf.c:60
    15b8:	17ffffe5 	b	154c <map_segments+0x10c>
parse_load_segments():
/media/home/beste/01_Pro/ld25x/bsp_hu/MYD-LD25X-Uboot-L2022.10-V1.0.0/GEN_FIP/myir-st-optee/ldelf/ta_elf.c:549
    15bc:	71001c1f 	cmp	w0, #0x7
    15c0:	54fff6c1 	b.ne	1498 <map_segments+0x58>  // b.any
/media/home/beste/01_Pro/ld25x/bsp_hu/MYD-LD25X-Uboot-L2022.10-V1.0.0/GEN_FIP/myir-st-optee/ldelf/ta_elf.c:550
    15c4:	f9400a80 	ldr	x0, [x20, #16]
    15c8:	f9006660 	str	x0, [x19, #200]
/media/home/beste/01_Pro/ld25x/bsp_hu/MYD-LD25X-Uboot-L2022.10-V1.0.0/GEN_FIP/myir-st-optee/ldelf/ta_elf.c:551
    15cc:	f9401280 	ldr	x0, [x20, #32]
    15d0:	f9006a60 	str	x0, [x19, #208]
/media/home/beste/01_Pro/ld25x/bsp_hu/MYD-LD25X-Uboot-L2022.10-V1.0.0/GEN_FIP/myir-st-optee/ldelf/ta_elf.c:552
    15d4:	f9401680 	ldr	x0, [x20, #40]
    15d8:	f9006e60 	str	x0, [x19, #216]
    15dc:	17ffffaf 	b	1498 <map_segments+0x58>
adjust_segments():
/media/home/beste/01_Pro/ld25x/bsp_hu/MYD-LD25X-Uboot-L2022.10-V1.0.0/GEN_FIP/myir-st-optee/ldelf/ta_elf.c:599
    15e0:	f9401405 	ldr	x5, [x0, #40]
    15e4:	f13ffcbf 	cmp	x5, #0xfff
    15e8:	540000e8 	b.hi	1604 <map_segments+0x1c4>  // b.pmore
    15ec:	d0000022 	adrp	x2, 7000 <trace_ext_prefix+0x6bc>
    15f0:	b0000020 	adrp	x0, 6000 <kprintf.constprop.0+0x68c>
    15f4:	91097042 	add	x2, x2, #0x25c
    15f8:	912f3000 	add	x0, x0, #0xbcc
    15fc:	52804ae1 	mov	w1, #0x257                 	// #599
    1600:	17ffffea 	b	15a8 <map_segments+0x168>
/media/home/beste/01_Pro/ld25x/bsp_hu/MYD-LD25X-Uboot-L2022.10-V1.0.0/GEN_FIP/myir-st-optee/ldelf/ta_elf.c:600
    1604:	f9400402 	ldr	x2, [x0, #8]
    1608:	f9400c01 	ldr	x1, [x0, #24]
    160c:	ab010046 	adds	x6, x2, x1
    1610:	54000142 	b.cs	1638 <map_segments+0x1f8>  // b.hs, b.nlast
/media/home/beste/01_Pro/ld25x/bsp_hu/MYD-LD25X-Uboot-L2022.10-V1.0.0/GEN_FIP/myir-st-optee/ldelf/ta_elf.c:601
    1614:	f9400806 	ldr	x6, [x0, #16]
    1618:	eb06003f 	cmp	x1, x6
    161c:	540001a2 	b.cs	1650 <map_segments+0x210>  // b.hs, b.nlast
    1620:	d0000022 	adrp	x2, 7000 <trace_ext_prefix+0x6bc>
    1624:	b0000020 	adrp	x0, 6000 <kprintf.constprop.0+0x68c>
    1628:	91097042 	add	x2, x2, #0x25c
    162c:	91306000 	add	x0, x0, #0xc18
    1630:	52804b21 	mov	w1, #0x259                 	// #601
    1634:	17ffffdd 	b	15a8 <map_segments+0x168>
/media/home/beste/01_Pro/ld25x/bsp_hu/MYD-LD25X-Uboot-L2022.10-V1.0.0/GEN_FIP/myir-st-optee/ldelf/ta_elf.c:600
    1638:	d0000022 	adrp	x2, 7000 <trace_ext_prefix+0x6bc>
    163c:	b0000020 	adrp	x0, 6000 <kprintf.constprop.0+0x68c>
    1640:	91097042 	add	x2, x2, #0x25c
    1644:	912fa800 	add	x0, x0, #0xbea
    1648:	52804b01 	mov	w1, #0x258                 	// #600
    164c:	17ffffd7 	b	15a8 <map_segments+0x168>
/media/home/beste/01_Pro/ld25x/bsp_hu/MYD-LD25X-Uboot-L2022.10-V1.0.0/GEN_FIP/myir-st-optee/ldelf/ta_elf.c:602
    1650:	f9400007 	ldr	x7, [x0]
    1654:	ca070041 	eor	x1, x2, x7
    1658:	f2402c3f 	tst	x1, #0xfff
    165c:	540000e0 	b.eq	1678 <map_segments+0x238>  // b.none
    1660:	d0000022 	adrp	x2, 7000 <trace_ext_prefix+0x6bc>
    1664:	b0000020 	adrp	x0, 6000 <kprintf.constprop.0+0x68c>
    1668:	91097042 	add	x2, x2, #0x25c
    166c:	9130c800 	add	x0, x0, #0xc32
    1670:	52804b41 	mov	w1, #0x25a                 	// #602
    1674:	17ffffcd 	b	15a8 <map_segments+0x168>
/media/home/beste/01_Pro/ld25x/bsp_hu/MYD-LD25X-Uboot-L2022.10-V1.0.0/GEN_FIP/myir-st-optee/ldelf/ta_elf.c:605
    1678:	f9402001 	ldr	x1, [x0, #64]
    167c:	f9400421 	ldr	x1, [x1, #8]
    1680:	f9400021 	ldr	x1, [x1]
/media/home/beste/01_Pro/ld25x/bsp_hu/MYD-LD25X-Uboot-L2022.10-V1.0.0/GEN_FIP/myir-st-optee/ldelf/ta_elf.c:606
    1684:	b40002e1 	cbz	x1, 16e0 <map_segments+0x2a0>
/media/home/beste/01_Pro/ld25x/bsp_hu/MYD-LD25X-Uboot-L2022.10-V1.0.0/GEN_FIP/myir-st-optee/ldelf/ta_elf.c:607
    1688:	f9400426 	ldr	x6, [x1, #8]
    168c:	f9400c28 	ldr	x8, [x1, #24]
    1690:	8b0800c6 	add	x6, x6, x8
    1694:	eb06005f 	cmp	x2, x6
    1698:	540000e2 	b.cs	16b4 <map_segments+0x274>  // b.hs, b.nlast
    169c:	d0000022 	adrp	x2, 7000 <trace_ext_prefix+0x6bc>
    16a0:	b0000020 	adrp	x0, 6000 <kprintf.constprop.0+0x68c>
    16a4:	91097042 	add	x2, x2, #0x25c
    16a8:	9131d000 	add	x0, x0, #0xc74
    16ac:	52804be1 	mov	w1, #0x25f                 	// #607
    16b0:	17ffffbe 	b	15a8 <map_segments+0x168>
/media/home/beste/01_Pro/ld25x/bsp_hu/MYD-LD25X-Uboot-L2022.10-V1.0.0/GEN_FIP/myir-st-optee/ldelf/ta_elf.c:608
    16b4:	f9400022 	ldr	x2, [x1]
    16b8:	f9400821 	ldr	x1, [x1, #16]
    16bc:	8b010041 	add	x1, x2, x1
    16c0:	eb0100ff 	cmp	x7, x1
    16c4:	540000e2 	b.cs	16e0 <map_segments+0x2a0>  // b.hs, b.nlast
    16c8:	d0000022 	adrp	x2, 7000 <trace_ext_prefix+0x6bc>
    16cc:	b0000020 	adrp	x0, 6000 <kprintf.constprop.0+0x68c>
    16d0:	91097042 	add	x2, x2, #0x25c
    16d4:	91329000 	add	x0, x0, #0xca4
    16d8:	52804c01 	mov	w1, #0x260                 	// #608
    16dc:	17ffffb3 	b	15a8 <map_segments+0x168>
/media/home/beste/01_Pro/ld25x/bsp_hu/MYD-LD25X-Uboot-L2022.10-V1.0.0/GEN_FIP/myir-st-optee/ldelf/ta_elf.c:611
    16e0:	b4000123 	cbz	x3, 1704 <map_segments+0x2c4>
/media/home/beste/01_Pro/ld25x/bsp_hu/MYD-LD25X-Uboot-L2022.10-V1.0.0/GEN_FIP/myir-st-optee/ldelf/ta_elf.c:613
    16e4:	eb0300bf 	cmp	x5, x3
    16e8:	54000100 	b.eq	1708 <map_segments+0x2c8>  // b.none
    16ec:	d0000022 	adrp	x2, 7000 <trace_ext_prefix+0x6bc>
    16f0:	b0000020 	adrp	x0, 6000 <kprintf.constprop.0+0x68c>
    16f4:	91097042 	add	x2, x2, #0x25c
    16f8:	91335c00 	add	x0, x0, #0xcd7
    16fc:	52804ca1 	mov	w1, #0x265                 	// #613
    1700:	17ffffaa 	b	15a8 <map_segments+0x168>
    1704:	aa0503e3 	mov	x3, x5
/media/home/beste/01_Pro/ld25x/bsp_hu/MYD-LD25X-Uboot-L2022.10-V1.0.0/GEN_FIP/myir-st-optee/ldelf/ta_elf.c:596
    1708:	f9401c00 	ldr	x0, [x0, #56]
    170c:	17ffff6e 	b	14c4 <map_segments+0x84>
/media/home/beste/01_Pro/ld25x/bsp_hu/MYD-LD25X-Uboot-L2022.10-V1.0.0/GEN_FIP/myir-st-optee/ldelf/ta_elf.c:622
    1710:	f9402004 	ldr	x4, [x0, #64]
/media/home/beste/01_Pro/ld25x/bsp_hu/MYD-LD25X-Uboot-L2022.10-V1.0.0/GEN_FIP/myir-st-optee/ldelf/ta_elf.c:641
    1714:	f9400002 	ldr	x2, [x0]
/media/home/beste/01_Pro/ld25x/bsp_hu/MYD-LD25X-Uboot-L2022.10-V1.0.0/GEN_FIP/myir-st-optee/ldelf/ta_elf.c:622
    1718:	f9400481 	ldr	x1, [x4, #8]
    171c:	f9400034 	ldr	x20, [x1]
/media/home/beste/01_Pro/ld25x/bsp_hu/MYD-LD25X-Uboot-L2022.10-V1.0.0/GEN_FIP/myir-st-optee/ldelf/ta_elf.c:640
    1720:	f9400401 	ldr	x1, [x0, #8]
/media/home/beste/01_Pro/ld25x/bsp_hu/MYD-LD25X-Uboot-L2022.10-V1.0.0/GEN_FIP/myir-st-optee/ldelf/ta_elf.c:623
    1724:	f9400685 	ldr	x5, [x20, #8]
rounddown():
/media/home/beste/01_Pro/ld25x/bsp_hu/MYD-LD25X-Uboot-L2022.10-V1.0.0/GEN_FIP/myir-st-optee/ldelf/ta_elf.c:497
    1728:	9274cc23 	and	x3, x1, #0xfffffffffffff000
adjust_segments():
/media/home/beste/01_Pro/ld25x/bsp_hu/MYD-LD25X-Uboot-L2022.10-V1.0.0/GEN_FIP/myir-st-optee/ldelf/ta_elf.c:623
    172c:	f9400e86 	ldr	x6, [x20, #24]
    1730:	8b0600a7 	add	x7, x5, x6
/media/home/beste/01_Pro/ld25x/bsp_hu/MYD-LD25X-Uboot-L2022.10-V1.0.0/GEN_FIP/myir-st-optee/ldelf/ta_elf.c:640
    1734:	eb0300ff 	cmp	x7, x3
    1738:	54000529 	b.ls	17dc <map_segments+0x39c>  // b.plast
/media/home/beste/01_Pro/ld25x/bsp_hu/MYD-LD25X-Uboot-L2022.10-V1.0.0/GEN_FIP/myir-st-optee/ldelf/ta_elf.c:641
    173c:	ca020022 	eor	x2, x1, x2
    1740:	ea15005f 	tst	x2, x21
    1744:	540000e0 	b.eq	1760 <map_segments+0x320>  // b.none
    1748:	d0000022 	adrp	x2, 7000 <trace_ext_prefix+0x6bc>
    174c:	b0000020 	adrp	x0, 6000 <kprintf.constprop.0+0x68c>
    1750:	91097042 	add	x2, x2, #0x25c
    1754:	9133ac00 	add	x0, x0, #0xceb
    1758:	52805021 	mov	w1, #0x281                 	// #641
    175c:	17ffff93 	b	15a8 <map_segments+0x168>
/media/home/beste/01_Pro/ld25x/bsp_hu/MYD-LD25X-Uboot-L2022.10-V1.0.0/GEN_FIP/myir-st-optee/ldelf/ta_elf.c:642
    1760:	f9400a82 	ldr	x2, [x20, #16]
    1764:	eb0200df 	cmp	x6, x2
    1768:	540000e0 	b.eq	1784 <map_segments+0x344>  // b.none
    176c:	d0000022 	adrp	x2, 7000 <trace_ext_prefix+0x6bc>
    1770:	b0000020 	adrp	x0, 6000 <kprintf.constprop.0+0x68c>
    1774:	91097042 	add	x2, x2, #0x25c
    1778:	91345c00 	add	x0, x0, #0xd17
    177c:	52805041 	mov	w1, #0x282                 	// #642
    1780:	17ffff8a 	b	15a8 <map_segments+0x168>
/media/home/beste/01_Pro/ld25x/bsp_hu/MYD-LD25X-Uboot-L2022.10-V1.0.0/GEN_FIP/myir-st-optee/ldelf/ta_elf.c:649
    1784:	f9400802 	ldr	x2, [x0, #16]
    1788:	8b020022 	add	x2, x1, x2
    178c:	cb050042 	sub	x2, x2, x5
    1790:	f9000a82 	str	x2, [x20, #16]
/media/home/beste/01_Pro/ld25x/bsp_hu/MYD-LD25X-Uboot-L2022.10-V1.0.0/GEN_FIP/myir-st-optee/ldelf/ta_elf.c:651
    1794:	f9400c02 	ldr	x2, [x0, #24]
    1798:	8b020021 	add	x1, x1, x2
    179c:	cb050021 	sub	x1, x1, x5
/media/home/beste/01_Pro/ld25x/bsp_hu/MYD-LD25X-Uboot-L2022.10-V1.0.0/GEN_FIP/myir-st-optee/ldelf/ta_elf.c:653
    17a0:	f9401002 	ldr	x2, [x0, #32]
/media/home/beste/01_Pro/ld25x/bsp_hu/MYD-LD25X-Uboot-L2022.10-V1.0.0/GEN_FIP/myir-st-optee/ldelf/ta_elf.c:651
    17a4:	f9000e81 	str	x1, [x20, #24]
/media/home/beste/01_Pro/ld25x/bsp_hu/MYD-LD25X-Uboot-L2022.10-V1.0.0/GEN_FIP/myir-st-optee/ldelf/ta_elf.c:653
    17a8:	f9401281 	ldr	x1, [x20, #32]
    17ac:	aa020021 	orr	x1, x1, x2
    17b0:	f9001281 	str	x1, [x20, #32]
/media/home/beste/01_Pro/ld25x/bsp_hu/MYD-LD25X-Uboot-L2022.10-V1.0.0/GEN_FIP/myir-st-optee/ldelf/ta_elf.c:655
    17b4:	f9401c01 	ldr	x1, [x0, #56]
    17b8:	b40000e1 	cbz	x1, 17d4 <map_segments+0x394>
    17bc:	f9002024 	str	x4, [x1, #64]
    17c0:	f9402002 	ldr	x2, [x0, #64]
    17c4:	f9000041 	str	x1, [x2]
/media/home/beste/01_Pro/ld25x/bsp_hu/MYD-LD25X-Uboot-L2022.10-V1.0.0/GEN_FIP/myir-st-optee/ldelf/ta_elf.c:656
    17c8:	94000fc3 	bl	56d4 <free>
/media/home/beste/01_Pro/ld25x/bsp_hu/MYD-LD25X-Uboot-L2022.10-V1.0.0/GEN_FIP/myir-st-optee/ldelf/ta_elf.c:657
    17cc:	f9401e80 	ldr	x0, [x20, #56]
/media/home/beste/01_Pro/ld25x/bsp_hu/MYD-LD25X-Uboot-L2022.10-V1.0.0/GEN_FIP/myir-st-optee/ldelf/ta_elf.c:658
    17d0:	17ffff42 	b	14d8 <map_segments+0x98>
/media/home/beste/01_Pro/ld25x/bsp_hu/MYD-LD25X-Uboot-L2022.10-V1.0.0/GEN_FIP/myir-st-optee/ldelf/ta_elf.c:655
    17d4:	f9005664 	str	x4, [x19, #168]
    17d8:	17fffffa 	b	17c0 <map_segments+0x380>
rounddown():
/media/home/beste/01_Pro/ld25x/bsp_hu/MYD-LD25X-Uboot-L2022.10-V1.0.0/GEN_FIP/myir-st-optee/ldelf/ta_elf.c:497
    17dc:	9274cc44 	and	x4, x2, #0xfffffffffffff000
adjust_segments():
/media/home/beste/01_Pro/ld25x/bsp_hu/MYD-LD25X-Uboot-L2022.10-V1.0.0/GEN_FIP/myir-st-optee/ldelf/ta_elf.c:662
    17e0:	ea0202bf 	tst	x21, x2
    17e4:	540001e0 	b.eq	1820 <map_segments+0x3e0>  // b.none
/media/home/beste/01_Pro/ld25x/bsp_hu/MYD-LD25X-Uboot-L2022.10-V1.0.0/GEN_FIP/myir-st-optee/ldelf/ta_elf.c:664
    17e8:	f9400282 	ldr	x2, [x20]
    17ec:	f9400a85 	ldr	x5, [x20, #16]
    17f0:	8b050042 	add	x2, x2, x5
/media/home/beste/01_Pro/ld25x/bsp_hu/MYD-LD25X-Uboot-L2022.10-V1.0.0/GEN_FIP/myir-st-optee/ldelf/ta_elf.c:662
    17f4:	eb04005f 	cmp	x2, x4
    17f8:	54000149 	b.ls	1820 <map_segments+0x3e0>  // b.plast
/media/home/beste/01_Pro/ld25x/bsp_hu/MYD-LD25X-Uboot-L2022.10-V1.0.0/GEN_FIP/myir-st-optee/ldelf/ta_elf.c:666
    17fc:	f9401002 	ldr	x2, [x0, #32]
    1800:	370800e2 	tbnz	w2, #1, 181c <map_segments+0x3dc>
    1804:	d0000022 	adrp	x2, 7000 <trace_ext_prefix+0x6bc>
    1808:	b0000020 	adrp	x0, 6000 <kprintf.constprop.0+0x68c>
    180c:	91097042 	add	x2, x2, #0x25c
    1810:	9134ec00 	add	x0, x0, #0xd3b
    1814:	52805341 	mov	w1, #0x29a                 	// #666
    1818:	17ffff64 	b	15a8 <map_segments+0x168>
/media/home/beste/01_Pro/ld25x/bsp_hu/MYD-LD25X-Uboot-L2022.10-V1.0.0/GEN_FIP/myir-st-optee/ldelf/ta_elf.c:667
    181c:	3900c016 	strb	w22, [x0, #48]
/media/home/beste/01_Pro/ld25x/bsp_hu/MYD-LD25X-Uboot-L2022.10-V1.0.0/GEN_FIP/myir-st-optee/ldelf/ta_elf.c:674
    1820:	f9400802 	ldr	x2, [x0, #16]
    1824:	cb030021 	sub	x1, x1, x3
/media/home/beste/01_Pro/ld25x/bsp_hu/MYD-LD25X-Uboot-L2022.10-V1.0.0/GEN_FIP/myir-st-optee/ldelf/ta_elf.c:676
    1828:	a9000c04 	stp	x4, x3, [x0]
/media/home/beste/01_Pro/ld25x/bsp_hu/MYD-LD25X-Uboot-L2022.10-V1.0.0/GEN_FIP/myir-st-optee/ldelf/ta_elf.c:674
    182c:	8b010042 	add	x2, x2, x1
    1830:	f9000802 	str	x2, [x0, #16]
/media/home/beste/01_Pro/ld25x/bsp_hu/MYD-LD25X-Uboot-L2022.10-V1.0.0/GEN_FIP/myir-st-optee/ldelf/ta_elf.c:675
    1834:	f9400c02 	ldr	x2, [x0, #24]
    1838:	8b010041 	add	x1, x2, x1
    183c:	f9000c01 	str	x1, [x0, #24]
/media/home/beste/01_Pro/ld25x/bsp_hu/MYD-LD25X-Uboot-L2022.10-V1.0.0/GEN_FIP/myir-st-optee/ldelf/ta_elf.c:678
    1840:	f9401c00 	ldr	x0, [x0, #56]
    1844:	17ffff25 	b	14d8 <map_segments+0x98>
map_segments():
/media/home/beste/01_Pro/ld25x/bsp_hu/MYD-LD25X-Uboot-L2022.10-V1.0.0/GEN_FIP/myir-st-optee/ldelf/ta_elf.c:982
    1848:	f94006c4 	ldr	x4, [x22, #8]
    184c:	910123f7 	add	x23, sp, #0x48
    1850:	f9400ec0 	ldr	x0, [x22, #24]
    1854:	aa1503e2 	mov	x2, x21
    1858:	aa1703e1 	mov	x1, x23
    185c:	8b000084 	add	x4, x4, x0
    1860:	f9400660 	ldr	x0, [x19, #8]
roundup():
/media/home/beste/01_Pro/ld25x/bsp_hu/MYD-LD25X-Uboot-L2022.10-V1.0.0/GEN_FIP/myir-st-optee/ldelf/ta_elf.c:492
    1864:	913ffc84 	add	x4, x4, #0xfff
map_segments():
/media/home/beste/01_Pro/ld25x/bsp_hu/MYD-LD25X-Uboot-L2022.10-V1.0.0/GEN_FIP/myir-st-optee/ldelf/ta_elf.c:982
    1868:	9274cc84 	and	x4, x4, #0xfffffffffffff000
    186c:	97fffb7f 	bl	668 <sys_remap>
    1870:	2a0003f4 	mov	w20, w0
/media/home/beste/01_Pro/ld25x/bsp_hu/MYD-LD25X-Uboot-L2022.10-V1.0.0/GEN_FIP/myir-st-optee/ldelf/ta_elf.c:984
    1874:	129ffe60 	mov	w0, #0xffff000c            	// #-65524
    1878:	6b00029f 	cmp	w20, w0
    187c:	54000181 	b.ne	18ac <map_segments+0x46c>  // b.any
/media/home/beste/01_Pro/ld25x/bsp_hu/MYD-LD25X-Uboot-L2022.10-V1.0.0/GEN_FIP/myir-st-optee/ldelf/ta_elf.c:985
    1880:	f94006c4 	ldr	x4, [x22, #8]
    1884:	aa1503e2 	mov	x2, x21
    1888:	f9400ec0 	ldr	x0, [x22, #24]
    188c:	aa1703e1 	mov	x1, x23
    1890:	d2800003 	mov	x3, #0x0                   	// #0
    1894:	8b000084 	add	x4, x4, x0
    1898:	f9400660 	ldr	x0, [x19, #8]
roundup():
/media/home/beste/01_Pro/ld25x/bsp_hu/MYD-LD25X-Uboot-L2022.10-V1.0.0/GEN_FIP/myir-st-optee/ldelf/ta_elf.c:492
    189c:	913ffc84 	add	x4, x4, #0xfff
map_segments():
/media/home/beste/01_Pro/ld25x/bsp_hu/MYD-LD25X-Uboot-L2022.10-V1.0.0/GEN_FIP/myir-st-optee/ldelf/ta_elf.c:985
    18a0:	9274cc84 	and	x4, x4, #0xfffffffffffff000
    18a4:	97fffb71 	bl	668 <sys_remap>
    18a8:	2a0003f4 	mov	w20, w0
/media/home/beste/01_Pro/ld25x/bsp_hu/MYD-LD25X-Uboot-L2022.10-V1.0.0/GEN_FIP/myir-st-optee/ldelf/ta_elf.c:987
    18ac:	34000174 	cbz	w20, 18d8 <map_segments+0x498>
/media/home/beste/01_Pro/ld25x/bsp_hu/MYD-LD25X-Uboot-L2022.10-V1.0.0/GEN_FIP/myir-st-optee/ldelf/ta_elf.c:988
    18b0:	b0000024 	adrp	x4, 6000 <kprintf.constprop.0+0x68c>
    18b4:	91353484 	add	x4, x4, #0xd4d
    18b8:	52800023 	mov	w3, #0x1                   	// #1
    18bc:	52800022 	mov	w2, #0x1                   	// #1
    18c0:	52807b81 	mov	w1, #0x3dc                 	// #988
    18c4:	d0000020 	adrp	x0, 7000 <trace_ext_prefix+0x6bc>
    18c8:	910a2800 	add	x0, x0, #0x28a
    18cc:	9400139e 	bl	6744 <trace_printf>
    18d0:	2a1403e0 	mov	w0, w20
    18d4:	97fffa20 	bl	154 <_ldelf_return>
/media/home/beste/01_Pro/ld25x/bsp_hu/MYD-LD25X-Uboot-L2022.10-V1.0.0/GEN_FIP/myir-st-optee/ldelf/ta_elf.c:992
    18d8:	f9401a61 	ldr	x1, [x19, #48]
/media/home/beste/01_Pro/ld25x/bsp_hu/MYD-LD25X-Uboot-L2022.10-V1.0.0/GEN_FIP/myir-st-optee/ldelf/ta_elf.c:989
    18dc:	f94027e0 	ldr	x0, [sp, #72]
    18e0:	f9001260 	str	x0, [x19, #32]
/media/home/beste/01_Pro/ld25x/bsp_hu/MYD-LD25X-Uboot-L2022.10-V1.0.0/GEN_FIP/myir-st-optee/ldelf/ta_elf.c:991
    18e4:	8b0002b5 	add	x21, x21, x0
    18e8:	a900d660 	stp	x0, x21, [x19, #8]
/media/home/beste/01_Pro/ld25x/bsp_hu/MYD-LD25X-Uboot-L2022.10-V1.0.0/GEN_FIP/myir-st-optee/ldelf/ta_elf.c:992
    18ec:	8b000020 	add	x0, x1, x0
    18f0:	f9002a60 	str	x0, [x19, #80]
/media/home/beste/01_Pro/ld25x/bsp_hu/MYD-LD25X-Uboot-L2022.10-V1.0.0/GEN_FIP/myir-st-optee/ldelf/ta_elf.c:994
    18f4:	a94153f3 	ldp	x19, x20, [sp, #16]
    18f8:	a9425bf5 	ldp	x21, x22, [sp, #32]
    18fc:	f9401bf7 	ldr	x23, [sp, #48]
    1900:	a8c57bfd 	ldp	x29, x30, [sp], #80
    1904:	d65f03c0 	ret

0000000000001908 <get_next_in_order>:
get_next_in_order():
/media/home/beste/01_Pro/ld25x/bsp_hu/MYD-LD25X-Uboot-L2022.10-V1.0.0/GEN_FIP/myir-st-optee/ldelf/ta_elf.c:1375
    1908:	f9400024 	ldr	x4, [x1]
/media/home/beste/01_Pro/ld25x/bsp_hu/MYD-LD25X-Uboot-L2022.10-V1.0.0/GEN_FIP/myir-st-optee/ldelf/ta_elf.c:1376
    190c:	f9400045 	ldr	x5, [x2]
/media/home/beste/01_Pro/ld25x/bsp_hu/MYD-LD25X-Uboot-L2022.10-V1.0.0/GEN_FIP/myir-st-optee/ldelf/ta_elf.c:1377
    1910:	f100009f 	cmp	x4, #0x0
    1914:	1a9f07e7 	cset	w7, ne	// ne = any
    1918:	f10000bf 	cmp	x5, #0x0
    191c:	1a9f07e6 	cset	w6, ne	// ne = any
    1920:	6b0600ff 	cmp	w7, w6
    1924:	54000120 	b.eq	1948 <get_next_in_order+0x40>  // b.none
/media/home/beste/01_Pro/ld25x/bsp_hu/MYD-LD25X-Uboot-L2022.10-V1.0.0/GEN_FIP/myir-st-optee/ldelf/ta_elf.c:1366 (discriminator 1)
    1928:	a9bf7bfd 	stp	x29, x30, [sp, #-16]!
/media/home/beste/01_Pro/ld25x/bsp_hu/MYD-LD25X-Uboot-L2022.10-V1.0.0/GEN_FIP/myir-st-optee/ldelf/ta_elf.c:1377 (discriminator 1)
    192c:	d0000022 	adrp	x2, 7000 <trace_ext_prefix+0x6bc>
    1930:	b0000020 	adrp	x0, 6000 <kprintf.constprop.0+0x68c>
/media/home/beste/01_Pro/ld25x/bsp_hu/MYD-LD25X-Uboot-L2022.10-V1.0.0/GEN_FIP/myir-st-optee/ldelf/ta_elf.c:1366 (discriminator 1)
    1934:	910003fd 	mov	x29, sp
/media/home/beste/01_Pro/ld25x/bsp_hu/MYD-LD25X-Uboot-L2022.10-V1.0.0/GEN_FIP/myir-st-optee/ldelf/ta_elf.c:1377 (discriminator 1)
    1938:	91048042 	add	x2, x2, #0x120
    193c:	91355c00 	add	x0, x0, #0xd57
    1940:	5280ac21 	mov	w1, #0x561                 	// #1377
    1944:	97fffcfb 	bl	d30 <_assert_trap.constprop.0>
/media/home/beste/01_Pro/ld25x/bsp_hu/MYD-LD25X-Uboot-L2022.10-V1.0.0/GEN_FIP/myir-st-optee/ldelf/ta_elf.c:1379
    1948:	b40000c5 	cbz	x5, 1960 <get_next_in_order+0x58>
/media/home/beste/01_Pro/ld25x/bsp_hu/MYD-LD25X-Uboot-L2022.10-V1.0.0/GEN_FIP/myir-st-optee/ldelf/ta_elf.c:1380
    194c:	f9401ca5 	ldr	x5, [x5, #56]
/media/home/beste/01_Pro/ld25x/bsp_hu/MYD-LD25X-Uboot-L2022.10-V1.0.0/GEN_FIP/myir-st-optee/ldelf/ta_elf.c:1381
    1950:	b4000085 	cbz	x5, 1960 <get_next_in_order+0x58>
/media/home/beste/01_Pro/ld25x/bsp_hu/MYD-LD25X-Uboot-L2022.10-V1.0.0/GEN_FIP/myir-st-optee/ldelf/ta_elf.c:1382
    1954:	f9000045 	str	x5, [x2]
/media/home/beste/01_Pro/ld25x/bsp_hu/MYD-LD25X-Uboot-L2022.10-V1.0.0/GEN_FIP/myir-st-optee/ldelf/ta_elf.c:1383
    1958:	52800020 	mov	w0, #0x1                   	// #1
    195c:	d65f03c0 	ret
/media/home/beste/01_Pro/ld25x/bsp_hu/MYD-LD25X-Uboot-L2022.10-V1.0.0/GEN_FIP/myir-st-optee/ldelf/ta_elf.c:1387
    1960:	b40001a4 	cbz	x4, 1994 <get_next_in_order+0x8c>
/media/home/beste/01_Pro/ld25x/bsp_hu/MYD-LD25X-Uboot-L2022.10-V1.0.0/GEN_FIP/myir-st-optee/ldelf/ta_elf.c:1388
    1964:	f9400487 	ldr	x7, [x4, #8]
/media/home/beste/01_Pro/ld25x/bsp_hu/MYD-LD25X-Uboot-L2022.10-V1.0.0/GEN_FIP/myir-st-optee/ldelf/ta_elf.c:1372
    1968:	d2800006 	mov	x6, #0x0                   	// #0
/media/home/beste/01_Pro/ld25x/bsp_hu/MYD-LD25X-Uboot-L2022.10-V1.0.0/GEN_FIP/myir-st-optee/ldelf/ta_elf.c:1392
    196c:	f9400004 	ldr	x4, [x0]
/media/home/beste/01_Pro/ld25x/bsp_hu/MYD-LD25X-Uboot-L2022.10-V1.0.0/GEN_FIP/myir-st-optee/ldelf/ta_elf.c:1369
    1970:	d2800005 	mov	x5, #0x0                   	// #0
/media/home/beste/01_Pro/ld25x/bsp_hu/MYD-LD25X-Uboot-L2022.10-V1.0.0/GEN_FIP/myir-st-optee/ldelf/ta_elf.c:1391
    1974:	d2800000 	mov	x0, #0x0                   	// #0
/media/home/beste/01_Pro/ld25x/bsp_hu/MYD-LD25X-Uboot-L2022.10-V1.0.0/GEN_FIP/myir-st-optee/ldelf/ta_elf.c:1392 (discriminator 1)
    1978:	b5000124 	cbnz	x4, 199c <get_next_in_order+0x94>
/media/home/beste/01_Pro/ld25x/bsp_hu/MYD-LD25X-Uboot-L2022.10-V1.0.0/GEN_FIP/myir-st-optee/ldelf/ta_elf.c:1401
    197c:	b40002c0 	cbz	x0, 19d4 <get_next_in_order+0xcc>
/media/home/beste/01_Pro/ld25x/bsp_hu/MYD-LD25X-Uboot-L2022.10-V1.0.0/GEN_FIP/myir-st-optee/ldelf/ta_elf.c:1404
    1980:	f9000020 	str	x0, [x1]
/media/home/beste/01_Pro/ld25x/bsp_hu/MYD-LD25X-Uboot-L2022.10-V1.0.0/GEN_FIP/myir-st-optee/ldelf/ta_elf.c:1405
    1984:	f9405000 	ldr	x0, [x0, #160]
    1988:	f9000040 	str	x0, [x2]
/media/home/beste/01_Pro/ld25x/bsp_hu/MYD-LD25X-Uboot-L2022.10-V1.0.0/GEN_FIP/myir-st-optee/ldelf/ta_elf.c:1406
    198c:	f9000065 	str	x5, [x3]
/media/home/beste/01_Pro/ld25x/bsp_hu/MYD-LD25X-Uboot-L2022.10-V1.0.0/GEN_FIP/myir-st-optee/ldelf/ta_elf.c:1407
    1990:	17fffff2 	b	1958 <get_next_in_order+0x50>
/media/home/beste/01_Pro/ld25x/bsp_hu/MYD-LD25X-Uboot-L2022.10-V1.0.0/GEN_FIP/myir-st-optee/ldelf/ta_elf.c:1370
    1994:	d2800007 	mov	x7, #0x0                   	// #0
    1998:	17fffff4 	b	1968 <get_next_in_order+0x60>
/media/home/beste/01_Pro/ld25x/bsp_hu/MYD-LD25X-Uboot-L2022.10-V1.0.0/GEN_FIP/myir-st-optee/ldelf/ta_elf.c:1393
    199c:	f9400488 	ldr	x8, [x4, #8]
    19a0:	eb07011f 	cmp	x8, x7
    19a4:	540000c9 	b.ls	19bc <get_next_in_order+0xb4>  // b.plast
/media/home/beste/01_Pro/ld25x/bsp_hu/MYD-LD25X-Uboot-L2022.10-V1.0.0/GEN_FIP/myir-st-optee/ldelf/ta_elf.c:1394
    19a8:	b4000100 	cbz	x0, 19c8 <get_next_in_order+0xc0>
/media/home/beste/01_Pro/ld25x/bsp_hu/MYD-LD25X-Uboot-L2022.10-V1.0.0/GEN_FIP/myir-st-optee/ldelf/ta_elf.c:1394 (discriminator 1)
    19ac:	f9400409 	ldr	x9, [x0, #8]
/media/home/beste/01_Pro/ld25x/bsp_hu/MYD-LD25X-Uboot-L2022.10-V1.0.0/GEN_FIP/myir-st-optee/ldelf/ta_elf.c:1396 (discriminator 1)
    19b0:	eb09011f 	cmp	x8, x9
    19b4:	9a8620a5 	csel	x5, x5, x6, cs	// cs = hs, nlast
    19b8:	9a842000 	csel	x0, x0, x4, cs	// cs = hs, nlast
/media/home/beste/01_Pro/ld25x/bsp_hu/MYD-LD25X-Uboot-L2022.10-V1.0.0/GEN_FIP/myir-st-optee/ldelf/ta_elf.c:1392 (discriminator 2)
    19bc:	f9409084 	ldr	x4, [x4, #288]
/media/home/beste/01_Pro/ld25x/bsp_hu/MYD-LD25X-Uboot-L2022.10-V1.0.0/GEN_FIP/myir-st-optee/ldelf/ta_elf.c:1399 (discriminator 2)
    19c0:	910004c6 	add	x6, x6, #0x1
/media/home/beste/01_Pro/ld25x/bsp_hu/MYD-LD25X-Uboot-L2022.10-V1.0.0/GEN_FIP/myir-st-optee/ldelf/ta_elf.c:1392 (discriminator 2)
    19c4:	17ffffed 	b	1978 <get_next_in_order+0x70>
/media/home/beste/01_Pro/ld25x/bsp_hu/MYD-LD25X-Uboot-L2022.10-V1.0.0/GEN_FIP/myir-st-optee/ldelf/ta_elf.c:1396
    19c8:	aa0603e5 	mov	x5, x6
    19cc:	aa0403e0 	mov	x0, x4
    19d0:	17fffffb 	b	19bc <get_next_in_order+0xb4>
/media/home/beste/01_Pro/ld25x/bsp_hu/MYD-LD25X-Uboot-L2022.10-V1.0.0/GEN_FIP/myir-st-optee/ldelf/ta_elf.c:1402
    19d4:	52800000 	mov	w0, #0x0                   	// #0
/media/home/beste/01_Pro/ld25x/bsp_hu/MYD-LD25X-Uboot-L2022.10-V1.0.0/GEN_FIP/myir-st-optee/ldelf/ta_elf.c:1408
    19d8:	d65f03c0 	ret

00000000000019dc <read_dyn>:
read_dyn():
/media/home/beste/01_Pro/ld25x/bsp_hu/MYD-LD25X-Uboot-L2022.10-V1.0.0/GEN_FIP/myir-st-optee/ldelf/ta_elf.c:182
    19dc:	f9400405 	ldr	x5, [x0, #8]
/media/home/beste/01_Pro/ld25x/bsp_hu/MYD-LD25X-Uboot-L2022.10-V1.0.0/GEN_FIP/myir-st-optee/ldelf/ta_elf.c:181
    19e0:	39400400 	ldrb	w0, [x0, #1]
/media/home/beste/01_Pro/ld25x/bsp_hu/MYD-LD25X-Uboot-L2022.10-V1.0.0/GEN_FIP/myir-st-optee/ldelf/ta_elf.c:182
    19e4:	8b050021 	add	x1, x1, x5
/media/home/beste/01_Pro/ld25x/bsp_hu/MYD-LD25X-Uboot-L2022.10-V1.0.0/GEN_FIP/myir-st-optee/ldelf/ta_elf.c:181
    19e8:	34000100 	cbz	w0, 1a08 <read_dyn+0x2c>
/media/home/beste/01_Pro/ld25x/bsp_hu/MYD-LD25X-Uboot-L2022.10-V1.0.0/GEN_FIP/myir-st-optee/ldelf/ta_elf.c:184
    19ec:	d37df040 	lsl	x0, x2, #3
    19f0:	8b020c22 	add	x2, x1, x2, lsl #3
    19f4:	b8606820 	ldr	w0, [x1, x0]
    19f8:	b9000060 	str	w0, [x3]
/media/home/beste/01_Pro/ld25x/bsp_hu/MYD-LD25X-Uboot-L2022.10-V1.0.0/GEN_FIP/myir-st-optee/ldelf/ta_elf.c:185
    19fc:	b9400440 	ldr	w0, [x2, #4]
    1a00:	f9000080 	str	x0, [x4]
/media/home/beste/01_Pro/ld25x/bsp_hu/MYD-LD25X-Uboot-L2022.10-V1.0.0/GEN_FIP/myir-st-optee/ldelf/ta_elf.c:192
    1a04:	d65f03c0 	ret
/media/home/beste/01_Pro/ld25x/bsp_hu/MYD-LD25X-Uboot-L2022.10-V1.0.0/GEN_FIP/myir-st-optee/ldelf/ta_elf.c:189
    1a08:	d37cec40 	lsl	x0, x2, #4
    1a0c:	8b021022 	add	x2, x1, x2, lsl #4
    1a10:	f8606820 	ldr	x0, [x1, x0]
    1a14:	b9000060 	str	w0, [x3]
/media/home/beste/01_Pro/ld25x/bsp_hu/MYD-LD25X-Uboot-L2022.10-V1.0.0/GEN_FIP/myir-st-optee/ldelf/ta_elf.c:190
    1a18:	f9400440 	ldr	x0, [x2, #8]
    1a1c:	17fffff9 	b	1a00 <read_dyn+0x24>

0000000000001a20 <save_soname_from_segment>:
save_soname_from_segment():
/media/home/beste/01_Pro/ld25x/bsp_hu/MYD-LD25X-Uboot-L2022.10-V1.0.0/GEN_FIP/myir-st-optee/ldelf/ta_elf.c:307
    1a20:	a9be7bfd 	stp	x29, x30, [sp, #-32]!
    1a24:	910003fd 	mov	x29, sp
/media/home/beste/01_Pro/ld25x/bsp_hu/MYD-LD25X-Uboot-L2022.10-V1.0.0/GEN_FIP/myir-st-optee/ldelf/ta_elf.c:311
    1a28:	b90017ff 	str	wzr, [sp, #20]
/media/home/beste/01_Pro/ld25x/bsp_hu/MYD-LD25X-Uboot-L2022.10-V1.0.0/GEN_FIP/myir-st-optee/ldelf/ta_elf.c:312
    1a2c:	f9000fff 	str	xzr, [sp, #24]
/media/home/beste/01_Pro/ld25x/bsp_hu/MYD-LD25X-Uboot-L2022.10-V1.0.0/GEN_FIP/myir-st-optee/ldelf/ta_elf.c:315
    1a30:	7100083f 	cmp	w1, #0x2
    1a34:	54000601 	b.ne	1af4 <save_soname_from_segment+0xd4>  // b.any
    1a38:	aa0003e7 	mov	x7, x0
/media/home/beste/01_Pro/ld25x/bsp_hu/MYD-LD25X-Uboot-L2022.10-V1.0.0/GEN_FIP/myir-st-optee/ldelf/ta_elf.c:318
    1a3c:	39400400 	ldrb	w0, [x0, #1]
/media/home/beste/01_Pro/ld25x/bsp_hu/MYD-LD25X-Uboot-L2022.10-V1.0.0/GEN_FIP/myir-st-optee/ldelf/ta_elf.c:319
    1a40:	d2800206 	mov	x6, #0x10                  	// #16
/media/home/beste/01_Pro/ld25x/bsp_hu/MYD-LD25X-Uboot-L2022.10-V1.0.0/GEN_FIP/myir-st-optee/ldelf/ta_elf.c:326
    1a44:	d2800008 	mov	x8, #0x0                   	// #0
/media/home/beste/01_Pro/ld25x/bsp_hu/MYD-LD25X-Uboot-L2022.10-V1.0.0/GEN_FIP/myir-st-optee/ldelf/ta_elf.c:319
    1a48:	7100001f 	cmp	w0, #0x0
    1a4c:	d2800100 	mov	x0, #0x8                   	// #8
    1a50:	9a8000c6 	csel	x6, x6, x0, eq	// eq = none
/media/home/beste/01_Pro/ld25x/bsp_hu/MYD-LD25X-Uboot-L2022.10-V1.0.0/GEN_FIP/myir-st-optee/ldelf/ta_elf.c:323
    1a54:	9ac6086a 	udiv	x10, x3, x6
    1a58:	9b068d46 	msub	x6, x10, x6, x3
    1a5c:	b5000106 	cbnz	x6, 1a7c <save_soname_from_segment+0x5c>
    1a60:	aa0203e9 	mov	x9, x2
/media/home/beste/01_Pro/ld25x/bsp_hu/MYD-LD25X-Uboot-L2022.10-V1.0.0/GEN_FIP/myir-st-optee/ldelf/ta_elf.c:327
    1a64:	910063e4 	add	x4, sp, #0x18
    1a68:	910053e3 	add	x3, sp, #0x14
/media/home/beste/01_Pro/ld25x/bsp_hu/MYD-LD25X-Uboot-L2022.10-V1.0.0/GEN_FIP/myir-st-optee/ldelf/ta_elf.c:326 (discriminator 1)
    1a6c:	eb0a011f 	cmp	x8, x10
    1a70:	54000121 	b.ne	1a94 <save_soname_from_segment+0x74>  // b.any
/media/home/beste/01_Pro/ld25x/bsp_hu/MYD-LD25X-Uboot-L2022.10-V1.0.0/GEN_FIP/myir-st-optee/ldelf/ta_elf.c:313
    1a74:	d2800008 	mov	x8, #0x0                   	// #0
    1a78:	14000011 	b	1abc <save_soname_from_segment+0x9c>
/media/home/beste/01_Pro/ld25x/bsp_hu/MYD-LD25X-Uboot-L2022.10-V1.0.0/GEN_FIP/myir-st-optee/ldelf/ta_elf.c:323 (discriminator 1)
    1a7c:	d0000022 	adrp	x2, 7000 <trace_ext_prefix+0x6bc>
    1a80:	b0000020 	adrp	x0, 6000 <kprintf.constprop.0+0x68c>
    1a84:	91067c42 	add	x2, x2, #0x19f
    1a88:	91363000 	add	x0, x0, #0xd8c
    1a8c:	52802861 	mov	w1, #0x143                 	// #323
    1a90:	97fffca8 	bl	d30 <_assert_trap.constprop.0>
/media/home/beste/01_Pro/ld25x/bsp_hu/MYD-LD25X-Uboot-L2022.10-V1.0.0/GEN_FIP/myir-st-optee/ldelf/ta_elf.c:327
    1a94:	aa0703e0 	mov	x0, x7
    1a98:	aa0803e2 	mov	x2, x8
    1a9c:	aa0903e1 	mov	x1, x9
    1aa0:	97ffffcf 	bl	19dc <read_dyn>
/media/home/beste/01_Pro/ld25x/bsp_hu/MYD-LD25X-Uboot-L2022.10-V1.0.0/GEN_FIP/myir-st-optee/ldelf/ta_elf.c:328
    1aa4:	b94017e0 	ldr	w0, [sp, #20]
    1aa8:	7100141f 	cmp	w0, #0x5
    1aac:	54000281 	b.ne	1afc <save_soname_from_segment+0xdc>  // b.any
/media/home/beste/01_Pro/ld25x/bsp_hu/MYD-LD25X-Uboot-L2022.10-V1.0.0/GEN_FIP/myir-st-optee/ldelf/ta_elf.c:329
    1ab0:	f94004e8 	ldr	x8, [x7, #8]
    1ab4:	f9400fe0 	ldr	x0, [sp, #24]
    1ab8:	8b000108 	add	x8, x8, x0
/media/home/beste/01_Pro/ld25x/bsp_hu/MYD-LD25X-Uboot-L2022.10-V1.0.0/GEN_FIP/myir-st-optee/ldelf/ta_elf.c:334
    1abc:	910063e4 	add	x4, sp, #0x18
    1ac0:	910053e3 	add	x3, sp, #0x14
/media/home/beste/01_Pro/ld25x/bsp_hu/MYD-LD25X-Uboot-L2022.10-V1.0.0/GEN_FIP/myir-st-optee/ldelf/ta_elf.c:333 (discriminator 1)
    1ac4:	eb0a00df 	cmp	x6, x10
    1ac8:	54000160 	b.eq	1af4 <save_soname_from_segment+0xd4>  // b.none
/media/home/beste/01_Pro/ld25x/bsp_hu/MYD-LD25X-Uboot-L2022.10-V1.0.0/GEN_FIP/myir-st-optee/ldelf/ta_elf.c:334
    1acc:	aa0703e0 	mov	x0, x7
    1ad0:	aa0603e2 	mov	x2, x6
    1ad4:	aa0903e1 	mov	x1, x9
    1ad8:	97ffffc1 	bl	19dc <read_dyn>
/media/home/beste/01_Pro/ld25x/bsp_hu/MYD-LD25X-Uboot-L2022.10-V1.0.0/GEN_FIP/myir-st-optee/ldelf/ta_elf.c:335
    1adc:	b94017e0 	ldr	w0, [sp, #20]
    1ae0:	7100381f 	cmp	w0, #0xe
    1ae4:	54000101 	b.ne	1b04 <save_soname_from_segment+0xe4>  // b.any
/media/home/beste/01_Pro/ld25x/bsp_hu/MYD-LD25X-Uboot-L2022.10-V1.0.0/GEN_FIP/myir-st-optee/ldelf/ta_elf.c:336
    1ae8:	f9400fe0 	ldr	x0, [sp, #24]
    1aec:	8b000108 	add	x8, x8, x0
    1af0:	f9004ce8 	str	x8, [x7, #152]
/media/home/beste/01_Pro/ld25x/bsp_hu/MYD-LD25X-Uboot-L2022.10-V1.0.0/GEN_FIP/myir-st-optee/ldelf/ta_elf.c:340
    1af4:	a8c27bfd 	ldp	x29, x30, [sp], #32
    1af8:	d65f03c0 	ret
/media/home/beste/01_Pro/ld25x/bsp_hu/MYD-LD25X-Uboot-L2022.10-V1.0.0/GEN_FIP/myir-st-optee/ldelf/ta_elf.c:326 (discriminator 2)
    1afc:	91000508 	add	x8, x8, #0x1
    1b00:	17ffffdb 	b	1a6c <save_soname_from_segment+0x4c>
/media/home/beste/01_Pro/ld25x/bsp_hu/MYD-LD25X-Uboot-L2022.10-V1.0.0/GEN_FIP/myir-st-optee/ldelf/ta_elf.c:333 (discriminator 2)
    1b04:	910004c6 	add	x6, x6, #0x1
    1b08:	17ffffef 	b	1ac4 <save_soname_from_segment+0xa4>

0000000000001b0c <save_symtab>:
save_symtab():
/media/home/beste/01_Pro/ld25x/bsp_hu/MYD-LD25X-Uboot-L2022.10-V1.0.0/GEN_FIP/myir-st-optee/ldelf/ta_elf.c:416
    1b0c:	a9bd7bfd 	stp	x29, x30, [sp, #-48]!
    1b10:	910003fd 	mov	x29, sp
/media/home/beste/01_Pro/ld25x/bsp_hu/MYD-LD25X-Uboot-L2022.10-V1.0.0/GEN_FIP/myir-st-optee/ldelf/ta_elf.c:422
    1b14:	b9404401 	ldr	w1, [x0, #68]
/media/home/beste/01_Pro/ld25x/bsp_hu/MYD-LD25X-Uboot-L2022.10-V1.0.0/GEN_FIP/myir-st-optee/ldelf/ta_elf.c:416
    1b18:	a90153f3 	stp	x19, x20, [sp, #16]
    1b1c:	aa0003f3 	mov	x19, x0
    1b20:	a9025bf5 	stp	x21, x22, [sp, #32]
/media/home/beste/01_Pro/ld25x/bsp_hu/MYD-LD25X-Uboot-L2022.10-V1.0.0/GEN_FIP/myir-st-optee/ldelf/ta_elf.c:420
    1b24:	f9402c16 	ldr	x22, [x0, #88]
/media/home/beste/01_Pro/ld25x/bsp_hu/MYD-LD25X-Uboot-L2022.10-V1.0.0/GEN_FIP/myir-st-optee/ldelf/ta_elf.c:419
    1b28:	39400400 	ldrb	w0, [x0, #1]
    1b2c:	35000320 	cbnz	w0, 1b90 <save_symtab+0x84>
    1b30:	aa1603f5 	mov	x21, x22
/media/home/beste/01_Pro/ld25x/bsp_hu/MYD-LD25X-Uboot-L2022.10-V1.0.0/GEN_FIP/myir-st-optee/ldelf/ta_elf.c:431
    1b34:	d2800000 	mov	x0, #0x0                   	// #0
/media/home/beste/01_Pro/ld25x/bsp_hu/MYD-LD25X-Uboot-L2022.10-V1.0.0/GEN_FIP/myir-st-optee/ldelf/ta_elf.c:431 (discriminator 1)
    1b38:	eb01001f 	cmp	x0, x1
    1b3c:	54000322 	b.cs	1ba0 <save_symtab+0x94>  // b.hs, b.nlast
/media/home/beste/01_Pro/ld25x/bsp_hu/MYD-LD25X-Uboot-L2022.10-V1.0.0/GEN_FIP/myir-st-optee/ldelf/ta_elf.c:432
    1b40:	b94006a3 	ldr	w3, [x21, #4]
    1b44:	910102a2 	add	x2, x21, #0x40
    1b48:	71002c7f 	cmp	w3, #0xb
    1b4c:	540012a1 	b.ne	1da0 <save_symtab+0x294>  // b.any
e64_save_symtab():
/media/home/beste/01_Pro/ld25x/bsp_hu/MYD-LD25X-Uboot-L2022.10-V1.0.0/GEN_FIP/myir-st-optee/ldelf/ta_elf.c:392
    1b50:	f9400660 	ldr	x0, [x19, #8]
    1b54:	f9400aa2 	ldr	x2, [x21, #16]
/media/home/beste/01_Pro/ld25x/bsp_hu/MYD-LD25X-Uboot-L2022.10-V1.0.0/GEN_FIP/myir-st-optee/ldelf/ta_elf.c:390
    1b58:	b9402ab4 	ldr	w20, [x21, #40]
/media/home/beste/01_Pro/ld25x/bsp_hu/MYD-LD25X-Uboot-L2022.10-V1.0.0/GEN_FIP/myir-st-optee/ldelf/ta_elf.c:392
    1b5c:	8b000042 	add	x2, x2, x0
    1b60:	f9003262 	str	x2, [x19, #96]
/media/home/beste/01_Pro/ld25x/bsp_hu/MYD-LD25X-Uboot-L2022.10-V1.0.0/GEN_FIP/myir-st-optee/ldelf/ta_elf.c:395
    1b64:	f240085f 	tst	x2, #0x7
    1b68:	54000ca0 	b.eq	1cfc <save_symtab+0x1f0>  // b.none
/media/home/beste/01_Pro/ld25x/bsp_hu/MYD-LD25X-Uboot-L2022.10-V1.0.0/GEN_FIP/myir-st-optee/ldelf/ta_elf.c:396
    1b6c:	aa0203e5 	mov	x5, x2
    1b70:	b0000024 	adrp	x4, 6000 <kprintf.constprop.0+0x68c>
    1b74:	d0000020 	adrp	x0, 7000 <trace_ext_prefix+0x6bc>
    1b78:	9138a084 	add	x4, x4, #0xe28
    1b7c:	91076000 	add	x0, x0, #0x1d8
    1b80:	52800023 	mov	w3, #0x1                   	// #1
    1b84:	52800022 	mov	w2, #0x1                   	// #1
    1b88:	52803181 	mov	w1, #0x18c                 	// #396
    1b8c:	1400002c 	b	1c3c <save_symtab+0x130>
    1b90:	aa1603f4 	mov	x20, x22
save_symtab():
/media/home/beste/01_Pro/ld25x/bsp_hu/MYD-LD25X-Uboot-L2022.10-V1.0.0/GEN_FIP/myir-st-optee/ldelf/ta_elf.c:422
    1b94:	d2800000 	mov	x0, #0x0                   	// #0
/media/home/beste/01_Pro/ld25x/bsp_hu/MYD-LD25X-Uboot-L2022.10-V1.0.0/GEN_FIP/myir-st-optee/ldelf/ta_elf.c:422 (discriminator 1)
    1b98:	eb01001f 	cmp	x0, x1
    1b9c:	540002a3 	b.cc	1bf0 <save_symtab+0xe4>  // b.lo, b.ul, b.last
save_hashtab():
/media/home/beste/01_Pro/ld25x/bsp_hu/MYD-LD25X-Uboot-L2022.10-V1.0.0/GEN_FIP/myir-st-optee/ldelf/ta_elf.c:266
    1ba0:	39400661 	ldrb	w1, [x19, #1]
/media/home/beste/01_Pro/ld25x/bsp_hu/MYD-LD25X-Uboot-L2022.10-V1.0.0/GEN_FIP/myir-st-optee/ldelf/ta_elf.c:275
    1ba4:	529ffec5 	mov	w5, #0xfff6                	// #65526
/media/home/beste/01_Pro/ld25x/bsp_hu/MYD-LD25X-Uboot-L2022.10-V1.0.0/GEN_FIP/myir-st-optee/ldelf/ta_elf.c:267
    1ba8:	f9402e60 	ldr	x0, [x19, #88]
/media/home/beste/01_Pro/ld25x/bsp_hu/MYD-LD25X-Uboot-L2022.10-V1.0.0/GEN_FIP/myir-st-optee/ldelf/ta_elf.c:269
    1bac:	d2800002 	mov	x2, #0x0                   	// #0
    1bb0:	b9404663 	ldr	w3, [x19, #68]
/media/home/beste/01_Pro/ld25x/bsp_hu/MYD-LD25X-Uboot-L2022.10-V1.0.0/GEN_FIP/myir-st-optee/ldelf/ta_elf.c:275
    1bb4:	72adffe5 	movk	w5, #0x6fff, lsl #16
    1bb8:	91001000 	add	x0, x0, #0x4
/media/home/beste/01_Pro/ld25x/bsp_hu/MYD-LD25X-Uboot-L2022.10-V1.0.0/GEN_FIP/myir-st-optee/ldelf/ta_elf.c:266
    1bbc:	350010a1 	cbnz	w1, 1dd0 <save_symtab+0x2c4>
/media/home/beste/01_Pro/ld25x/bsp_hu/MYD-LD25X-Uboot-L2022.10-V1.0.0/GEN_FIP/myir-st-optee/ldelf/ta_elf.c:283
    1bc0:	eb03005f 	cmp	x2, x3
    1bc4:	540010a2 	b.cs	1dd8 <save_symtab+0x2cc>  // b.hs, b.nlast
/media/home/beste/01_Pro/ld25x/bsp_hu/MYD-LD25X-Uboot-L2022.10-V1.0.0/GEN_FIP/myir-st-optee/ldelf/ta_elf.c:284
    1bc8:	f9400664 	ldr	x4, [x19, #8]
    1bcc:	f840c001 	ldur	x1, [x0, #12]
    1bd0:	8b040021 	add	x1, x1, x4
/media/home/beste/01_Pro/ld25x/bsp_hu/MYD-LD25X-Uboot-L2022.10-V1.0.0/GEN_FIP/myir-st-optee/ldelf/ta_elf.c:287
    1bd4:	b9400004 	ldr	w4, [x0]
    1bd8:	7100149f 	cmp	w4, #0x5
    1bdc:	54001261 	b.ne	1e28 <save_symtab+0x31c>  // b.any
/media/home/beste/01_Pro/ld25x/bsp_hu/MYD-LD25X-Uboot-L2022.10-V1.0.0/GEN_FIP/myir-st-optee/ldelf/ta_elf.c:288
    1be0:	f9004261 	str	x1, [x19, #128]
/media/home/beste/01_Pro/ld25x/bsp_hu/MYD-LD25X-Uboot-L2022.10-V1.0.0/GEN_FIP/myir-st-optee/ldelf/ta_elf.c:283
    1be4:	91000442 	add	x2, x2, #0x1
    1be8:	91010000 	add	x0, x0, #0x40
    1bec:	17fffff5 	b	1bc0 <save_symtab+0xb4>
save_symtab():
/media/home/beste/01_Pro/ld25x/bsp_hu/MYD-LD25X-Uboot-L2022.10-V1.0.0/GEN_FIP/myir-st-optee/ldelf/ta_elf.c:423
    1bf0:	b9400683 	ldr	w3, [x20, #4]
    1bf4:	9100a282 	add	x2, x20, #0x28
    1bf8:	71002c7f 	cmp	w3, #0xb
    1bfc:	540007a1 	b.ne	1cf0 <save_symtab+0x1e4>  // b.any
e32_save_symtab():
/media/home/beste/01_Pro/ld25x/bsp_hu/MYD-LD25X-Uboot-L2022.10-V1.0.0/GEN_FIP/myir-st-optee/ldelf/ta_elf.c:368
    1c00:	f9400660 	ldr	x0, [x19, #8]
    1c04:	b9400e82 	ldr	w2, [x20, #12]
/media/home/beste/01_Pro/ld25x/bsp_hu/MYD-LD25X-Uboot-L2022.10-V1.0.0/GEN_FIP/myir-st-optee/ldelf/ta_elf.c:366
    1c08:	b9401a95 	ldr	w21, [x20, #24]
/media/home/beste/01_Pro/ld25x/bsp_hu/MYD-LD25X-Uboot-L2022.10-V1.0.0/GEN_FIP/myir-st-optee/ldelf/ta_elf.c:368
    1c0c:	8b000042 	add	x2, x2, x0
    1c10:	f9003262 	str	x2, [x19, #96]
/media/home/beste/01_Pro/ld25x/bsp_hu/MYD-LD25X-Uboot-L2022.10-V1.0.0/GEN_FIP/myir-st-optee/ldelf/ta_elf.c:369
    1c14:	f240045f 	tst	x2, #0x3
    1c18:	54000160 	b.eq	1c44 <save_symtab+0x138>  // b.none
/media/home/beste/01_Pro/ld25x/bsp_hu/MYD-LD25X-Uboot-L2022.10-V1.0.0/GEN_FIP/myir-st-optee/ldelf/ta_elf.c:370
    1c1c:	b0000024 	adrp	x4, 6000 <kprintf.constprop.0+0x68c>
    1c20:	d0000020 	adrp	x0, 7000 <trace_ext_prefix+0x6bc>
    1c24:	91368c84 	add	x4, x4, #0xda3
    1c28:	9107a000 	add	x0, x0, #0x1e8
    1c2c:	aa0203e5 	mov	x5, x2
    1c30:	52800023 	mov	w3, #0x1                   	// #1
    1c34:	52800022 	mov	w2, #0x1                   	// #1
    1c38:	52802e41 	mov	w1, #0x172                 	// #370
check_gnu_hashtab():
/media/home/beste/01_Pro/ld25x/bsp_hu/MYD-LD25X-Uboot-L2022.10-V1.0.0/GEN_FIP/myir-st-optee/ldelf/ta_elf.c:242
    1c3c:	940012c2 	bl	6744 <trace_printf>
    1c40:	14000011 	b	1c84 <save_symtab+0x178>
e32_save_symtab():
/media/home/beste/01_Pro/ld25x/bsp_hu/MYD-LD25X-Uboot-L2022.10-V1.0.0/GEN_FIP/myir-st-optee/ldelf/ta_elf.c:372
    1c44:	b9401683 	ldr	w3, [x20, #20]
    1c48:	aa1303e0 	mov	x0, x19
    1c4c:	b0000021 	adrp	x1, 6000 <kprintf.constprop.0+0x68c>
    1c50:	91370421 	add	x1, x1, #0xdc1
    1c54:	97fffa87 	bl	670 <check_range>
/media/home/beste/01_Pro/ld25x/bsp_hu/MYD-LD25X-Uboot-L2022.10-V1.0.0/GEN_FIP/myir-st-optee/ldelf/ta_elf.c:374
    1c58:	b9401680 	ldr	w0, [x20, #20]
    1c5c:	f2400c1f 	tst	x0, #0xf
    1c60:	54000160 	b.eq	1c8c <save_symtab+0x180>  // b.none
/media/home/beste/01_Pro/ld25x/bsp_hu/MYD-LD25X-Uboot-L2022.10-V1.0.0/GEN_FIP/myir-st-optee/ldelf/ta_elf.c:375
    1c64:	b0000024 	adrp	x4, 6000 <kprintf.constprop.0+0x68c>
    1c68:	91372c84 	add	x4, x4, #0xdcb
    1c6c:	52800023 	mov	w3, #0x1                   	// #1
    1c70:	52800022 	mov	w2, #0x1                   	// #1
    1c74:	52802ee1 	mov	w1, #0x177                 	// #375
    1c78:	d0000020 	adrp	x0, 7000 <trace_ext_prefix+0x6bc>
    1c7c:	9107a000 	add	x0, x0, #0x1e8
    1c80:	940012b1 	bl	6744 <trace_printf>
    1c84:	129fff40 	mov	w0, #0xffff0005            	// #-65531
    1c88:	97fff933 	bl	154 <_ldelf_return>
/media/home/beste/01_Pro/ld25x/bsp_hu/MYD-LD25X-Uboot-L2022.10-V1.0.0/GEN_FIP/myir-st-optee/ldelf/ta_elf.c:377
    1c8c:	53047c00 	lsr	w0, w0, #4
    1c90:	f9003660 	str	x0, [x19, #104]
/media/home/beste/01_Pro/ld25x/bsp_hu/MYD-LD25X-Uboot-L2022.10-V1.0.0/GEN_FIP/myir-st-optee/ldelf/ta_elf.c:379
    1c94:	b9404660 	ldr	w0, [x19, #68]
    1c98:	6b0002bf 	cmp	w21, w0
    1c9c:	540000e3 	b.cc	1cb8 <save_symtab+0x1ac>  // b.lo, b.ul, b.last
/media/home/beste/01_Pro/ld25x/bsp_hu/MYD-LD25X-Uboot-L2022.10-V1.0.0/GEN_FIP/myir-st-optee/ldelf/ta_elf.c:380
    1ca0:	b0000024 	adrp	x4, 6000 <kprintf.constprop.0+0x68c>
    1ca4:	52800023 	mov	w3, #0x1                   	// #1
    1ca8:	9137fc84 	add	x4, x4, #0xdff
    1cac:	52800022 	mov	w2, #0x1                   	// #1
    1cb0:	52802f81 	mov	w1, #0x17c                 	// #380
    1cb4:	17fffff1 	b	1c78 <save_symtab+0x16c>
/media/home/beste/01_Pro/ld25x/bsp_hu/MYD-LD25X-Uboot-L2022.10-V1.0.0/GEN_FIP/myir-st-optee/ldelf/ta_elf.c:381
    1cb8:	52800500 	mov	w0, #0x28                  	// #40
/media/home/beste/01_Pro/ld25x/bsp_hu/MYD-LD25X-Uboot-L2022.10-V1.0.0/GEN_FIP/myir-st-optee/ldelf/ta_elf.c:382
    1cbc:	b0000021 	adrp	x1, 6000 <kprintf.constprop.0+0x68c>
    1cc0:	91388421 	add	x1, x1, #0xe21
/media/home/beste/01_Pro/ld25x/bsp_hu/MYD-LD25X-Uboot-L2022.10-V1.0.0/GEN_FIP/myir-st-optee/ldelf/ta_elf.c:381
    1cc4:	9ba05ab5 	umaddl	x21, w21, w0, x22
    1cc8:	f9400660 	ldr	x0, [x19, #8]
    1ccc:	b9400ea2 	ldr	w2, [x21, #12]
/media/home/beste/01_Pro/ld25x/bsp_hu/MYD-LD25X-Uboot-L2022.10-V1.0.0/GEN_FIP/myir-st-optee/ldelf/ta_elf.c:382
    1cd0:	b94016a3 	ldr	w3, [x21, #20]
/media/home/beste/01_Pro/ld25x/bsp_hu/MYD-LD25X-Uboot-L2022.10-V1.0.0/GEN_FIP/myir-st-optee/ldelf/ta_elf.c:381
    1cd4:	8b000042 	add	x2, x2, x0
    1cd8:	f9003a62 	str	x2, [x19, #112]
/media/home/beste/01_Pro/ld25x/bsp_hu/MYD-LD25X-Uboot-L2022.10-V1.0.0/GEN_FIP/myir-st-optee/ldelf/ta_elf.c:382
    1cdc:	aa1303e0 	mov	x0, x19
    1ce0:	97fffa64 	bl	670 <check_range>
/media/home/beste/01_Pro/ld25x/bsp_hu/MYD-LD25X-Uboot-L2022.10-V1.0.0/GEN_FIP/myir-st-optee/ldelf/ta_elf.c:384
    1ce4:	b94016a0 	ldr	w0, [x21, #20]
e64_save_symtab():
/media/home/beste/01_Pro/ld25x/bsp_hu/MYD-LD25X-Uboot-L2022.10-V1.0.0/GEN_FIP/myir-st-optee/ldelf/ta_elf.c:412
    1ce8:	f9003e60 	str	x0, [x19, #120]
/media/home/beste/01_Pro/ld25x/bsp_hu/MYD-LD25X-Uboot-L2022.10-V1.0.0/GEN_FIP/myir-st-optee/ldelf/ta_elf.c:413
    1cec:	17ffffad 	b	1ba0 <save_symtab+0x94>
save_symtab():
/media/home/beste/01_Pro/ld25x/bsp_hu/MYD-LD25X-Uboot-L2022.10-V1.0.0/GEN_FIP/myir-st-optee/ldelf/ta_elf.c:422 (discriminator 2)
    1cf0:	91000400 	add	x0, x0, #0x1
    1cf4:	aa0203f4 	mov	x20, x2
    1cf8:	17ffffa8 	b	1b98 <save_symtab+0x8c>
e64_save_symtab():
/media/home/beste/01_Pro/ld25x/bsp_hu/MYD-LD25X-Uboot-L2022.10-V1.0.0/GEN_FIP/myir-st-optee/ldelf/ta_elf.c:398
    1cfc:	f94012a3 	ldr	x3, [x21, #32]
    1d00:	aa1303e0 	mov	x0, x19
    1d04:	b0000021 	adrp	x1, 6000 <kprintf.constprop.0+0x68c>
    1d08:	91392c21 	add	x1, x1, #0xe4b
    1d0c:	97fffa59 	bl	670 <check_range>
/media/home/beste/01_Pro/ld25x/bsp_hu/MYD-LD25X-Uboot-L2022.10-V1.0.0/GEN_FIP/myir-st-optee/ldelf/ta_elf.c:401
    1d10:	f94012a2 	ldr	x2, [x21, #32]
    1d14:	d2800300 	mov	x0, #0x18                  	// #24
    1d18:	9ac00841 	udiv	x1, x2, x0
    1d1c:	9b008820 	msub	x0, x1, x0, x2
    1d20:	b4000120 	cbz	x0, 1d44 <save_symtab+0x238>
/media/home/beste/01_Pro/ld25x/bsp_hu/MYD-LD25X-Uboot-L2022.10-V1.0.0/GEN_FIP/myir-st-optee/ldelf/ta_elf.c:402
    1d24:	b0000024 	adrp	x4, 6000 <kprintf.constprop.0+0x68c>
    1d28:	91396884 	add	x4, x4, #0xe5a
    1d2c:	52800023 	mov	w3, #0x1                   	// #1
    1d30:	52800022 	mov	w2, #0x1                   	// #1
    1d34:	52803241 	mov	w1, #0x192                 	// #402
/media/home/beste/01_Pro/ld25x/bsp_hu/MYD-LD25X-Uboot-L2022.10-V1.0.0/GEN_FIP/myir-st-optee/ldelf/ta_elf.c:407
    1d38:	d0000020 	adrp	x0, 7000 <trace_ext_prefix+0x6bc>
    1d3c:	91076000 	add	x0, x0, #0x1d8
    1d40:	17ffffd0 	b	1c80 <save_symtab+0x174>
/media/home/beste/01_Pro/ld25x/bsp_hu/MYD-LD25X-Uboot-L2022.10-V1.0.0/GEN_FIP/myir-st-optee/ldelf/ta_elf.c:406
    1d44:	b9404660 	ldr	w0, [x19, #68]
/media/home/beste/01_Pro/ld25x/bsp_hu/MYD-LD25X-Uboot-L2022.10-V1.0.0/GEN_FIP/myir-st-optee/ldelf/ta_elf.c:404
    1d48:	f9003661 	str	x1, [x19, #104]
/media/home/beste/01_Pro/ld25x/bsp_hu/MYD-LD25X-Uboot-L2022.10-V1.0.0/GEN_FIP/myir-st-optee/ldelf/ta_elf.c:406
    1d4c:	6b00029f 	cmp	w20, w0
    1d50:	540000e3 	b.cc	1d6c <save_symtab+0x260>  // b.lo, b.ul, b.last
/media/home/beste/01_Pro/ld25x/bsp_hu/MYD-LD25X-Uboot-L2022.10-V1.0.0/GEN_FIP/myir-st-optee/ldelf/ta_elf.c:407
    1d54:	b0000024 	adrp	x4, 6000 <kprintf.constprop.0+0x68c>
    1d58:	52800023 	mov	w3, #0x1                   	// #1
    1d5c:	913a4c84 	add	x4, x4, #0xe93
    1d60:	52800022 	mov	w2, #0x1                   	// #1
    1d64:	528032e1 	mov	w1, #0x197                 	// #407
    1d68:	17fffff4 	b	1d38 <save_symtab+0x22c>
/media/home/beste/01_Pro/ld25x/bsp_hu/MYD-LD25X-Uboot-L2022.10-V1.0.0/GEN_FIP/myir-st-optee/ldelf/ta_elf.c:409
    1d6c:	d37a7e94 	ubfiz	x20, x20, #6, #32
/media/home/beste/01_Pro/ld25x/bsp_hu/MYD-LD25X-Uboot-L2022.10-V1.0.0/GEN_FIP/myir-st-optee/ldelf/ta_elf.c:410
    1d70:	b0000021 	adrp	x1, 6000 <kprintf.constprop.0+0x68c>
/media/home/beste/01_Pro/ld25x/bsp_hu/MYD-LD25X-Uboot-L2022.10-V1.0.0/GEN_FIP/myir-st-optee/ldelf/ta_elf.c:409
    1d74:	8b1402d4 	add	x20, x22, x20
/media/home/beste/01_Pro/ld25x/bsp_hu/MYD-LD25X-Uboot-L2022.10-V1.0.0/GEN_FIP/myir-st-optee/ldelf/ta_elf.c:410
    1d78:	913af421 	add	x1, x1, #0xebd
/media/home/beste/01_Pro/ld25x/bsp_hu/MYD-LD25X-Uboot-L2022.10-V1.0.0/GEN_FIP/myir-st-optee/ldelf/ta_elf.c:409
    1d7c:	f9400660 	ldr	x0, [x19, #8]
    1d80:	f9400a82 	ldr	x2, [x20, #16]
/media/home/beste/01_Pro/ld25x/bsp_hu/MYD-LD25X-Uboot-L2022.10-V1.0.0/GEN_FIP/myir-st-optee/ldelf/ta_elf.c:410
    1d84:	f9401283 	ldr	x3, [x20, #32]
/media/home/beste/01_Pro/ld25x/bsp_hu/MYD-LD25X-Uboot-L2022.10-V1.0.0/GEN_FIP/myir-st-optee/ldelf/ta_elf.c:409
    1d88:	8b000042 	add	x2, x2, x0
    1d8c:	f9003a62 	str	x2, [x19, #112]
/media/home/beste/01_Pro/ld25x/bsp_hu/MYD-LD25X-Uboot-L2022.10-V1.0.0/GEN_FIP/myir-st-optee/ldelf/ta_elf.c:410
    1d90:	aa1303e0 	mov	x0, x19
    1d94:	97fffa37 	bl	670 <check_range>
/media/home/beste/01_Pro/ld25x/bsp_hu/MYD-LD25X-Uboot-L2022.10-V1.0.0/GEN_FIP/myir-st-optee/ldelf/ta_elf.c:412
    1d98:	f9401280 	ldr	x0, [x20, #32]
    1d9c:	17ffffd3 	b	1ce8 <save_symtab+0x1dc>
save_symtab():
/media/home/beste/01_Pro/ld25x/bsp_hu/MYD-LD25X-Uboot-L2022.10-V1.0.0/GEN_FIP/myir-st-optee/ldelf/ta_elf.c:431 (discriminator 2)
    1da0:	91000400 	add	x0, x0, #0x1
    1da4:	aa0203f5 	mov	x21, x2
    1da8:	17ffff64 	b	1b38 <save_symtab+0x2c>
save_hashtab():
/media/home/beste/01_Pro/ld25x/bsp_hu/MYD-LD25X-Uboot-L2022.10-V1.0.0/GEN_FIP/myir-st-optee/ldelf/ta_elf.c:270
    1dac:	f9400664 	ldr	x4, [x19, #8]
    1db0:	b9400801 	ldr	w1, [x0, #8]
    1db4:	8b040021 	add	x1, x1, x4
/media/home/beste/01_Pro/ld25x/bsp_hu/MYD-LD25X-Uboot-L2022.10-V1.0.0/GEN_FIP/myir-st-optee/ldelf/ta_elf.c:273
    1db8:	b9400004 	ldr	w4, [x0]
    1dbc:	7100149f 	cmp	w4, #0x5
    1dc0:	54000281 	b.ne	1e10 <save_symtab+0x304>  // b.any
/media/home/beste/01_Pro/ld25x/bsp_hu/MYD-LD25X-Uboot-L2022.10-V1.0.0/GEN_FIP/myir-st-optee/ldelf/ta_elf.c:274
    1dc4:	f9004261 	str	x1, [x19, #128]
/media/home/beste/01_Pro/ld25x/bsp_hu/MYD-LD25X-Uboot-L2022.10-V1.0.0/GEN_FIP/myir-st-optee/ldelf/ta_elf.c:269
    1dc8:	91000442 	add	x2, x2, #0x1
    1dcc:	9100a000 	add	x0, x0, #0x28
    1dd0:	eb03005f 	cmp	x2, x3
    1dd4:	54fffec3 	b.cc	1dac <save_symtab+0x2a0>  // b.lo, b.ul, b.last
/media/home/beste/01_Pro/ld25x/bsp_hu/MYD-LD25X-Uboot-L2022.10-V1.0.0/GEN_FIP/myir-st-optee/ldelf/ta_elf.c:296
    1dd8:	f9404261 	ldr	x1, [x19, #128]
    1ddc:	b5000321 	cbnz	x1, 1e40 <save_symtab+0x334>
/media/home/beste/01_Pro/ld25x/bsp_hu/MYD-LD25X-Uboot-L2022.10-V1.0.0/GEN_FIP/myir-st-optee/ldelf/ta_elf.c:301
    1de0:	f9404665 	ldr	x5, [x19, #136]
    1de4:	b4000785 	cbz	x5, 1ed4 <save_symtab+0x3c8>
check_gnu_hashtab():
/media/home/beste/01_Pro/ld25x/bsp_hu/MYD-LD25X-Uboot-L2022.10-V1.0.0/GEN_FIP/myir-st-optee/ldelf/ta_elf.c:241
    1de8:	f24004bf 	tst	x5, #0x3
    1dec:	540003c0 	b.eq	1e64 <save_symtab+0x358>  // b.none
/media/home/beste/01_Pro/ld25x/bsp_hu/MYD-LD25X-Uboot-L2022.10-V1.0.0/GEN_FIP/myir-st-optee/ldelf/ta_elf.c:242
    1df0:	b0000024 	adrp	x4, 6000 <kprintf.constprop.0+0x68c>
    1df4:	d0000020 	adrp	x0, 7000 <trace_ext_prefix+0x6bc>
    1df8:	913b3084 	add	x4, x4, #0xecc
    1dfc:	9106e000 	add	x0, x0, #0x1b8
    1e00:	52800023 	mov	w3, #0x1                   	// #1
    1e04:	52800022 	mov	w2, #0x1                   	// #1
    1e08:	52801e41 	mov	w1, #0xf2                  	// #242
    1e0c:	17ffff8c 	b	1c3c <save_symtab+0x130>
save_hashtab():
/media/home/beste/01_Pro/ld25x/bsp_hu/MYD-LD25X-Uboot-L2022.10-V1.0.0/GEN_FIP/myir-st-optee/ldelf/ta_elf.c:275
    1e10:	6b05009f 	cmp	w4, w5
    1e14:	54fffda1 	b.ne	1dc8 <save_symtab+0x2bc>  // b.any
/media/home/beste/01_Pro/ld25x/bsp_hu/MYD-LD25X-Uboot-L2022.10-V1.0.0/GEN_FIP/myir-st-optee/ldelf/ta_elf.c:276
    1e18:	f9004661 	str	x1, [x19, #136]
/media/home/beste/01_Pro/ld25x/bsp_hu/MYD-LD25X-Uboot-L2022.10-V1.0.0/GEN_FIP/myir-st-optee/ldelf/ta_elf.c:277
    1e1c:	b9401001 	ldr	w1, [x0, #16]
    1e20:	f9004a61 	str	x1, [x19, #144]
    1e24:	17ffffe9 	b	1dc8 <save_symtab+0x2bc>
/media/home/beste/01_Pro/ld25x/bsp_hu/MYD-LD25X-Uboot-L2022.10-V1.0.0/GEN_FIP/myir-st-optee/ldelf/ta_elf.c:289
    1e28:	6b05009f 	cmp	w4, w5
    1e2c:	54ffedc1 	b.ne	1be4 <save_symtab+0xd8>  // b.any
/media/home/beste/01_Pro/ld25x/bsp_hu/MYD-LD25X-Uboot-L2022.10-V1.0.0/GEN_FIP/myir-st-optee/ldelf/ta_elf.c:290
    1e30:	f9004661 	str	x1, [x19, #136]
/media/home/beste/01_Pro/ld25x/bsp_hu/MYD-LD25X-Uboot-L2022.10-V1.0.0/GEN_FIP/myir-st-optee/ldelf/ta_elf.c:291
    1e34:	f841c001 	ldur	x1, [x0, #28]
    1e38:	f9004a61 	str	x1, [x19, #144]
    1e3c:	17ffff6a 	b	1be4 <save_symtab+0xd8>
/media/home/beste/01_Pro/ld25x/bsp_hu/MYD-LD25X-Uboot-L2022.10-V1.0.0/GEN_FIP/myir-st-optee/ldelf/ta_elf.c:297
    1e40:	aa1303e0 	mov	x0, x19
    1e44:	d2800003 	mov	x3, #0x0                   	// #0
    1e48:	d2800002 	mov	x2, #0x0                   	// #0
    1e4c:	97fffa33 	bl	718 <check_hashtab>
/media/home/beste/01_Pro/ld25x/bsp_hu/MYD-LD25X-Uboot-L2022.10-V1.0.0/GEN_FIP/myir-st-optee/ldelf/ta_elf.c:298
    1e50:	f9404261 	ldr	x1, [x19, #128]
/media/home/beste/01_Pro/ld25x/bsp_hu/MYD-LD25X-Uboot-L2022.10-V1.0.0/GEN_FIP/myir-st-optee/ldelf/ta_elf.c:299
    1e54:	aa1303e0 	mov	x0, x19
    1e58:	29400c22 	ldp	w2, w3, [x1]
    1e5c:	97fffa2f 	bl	718 <check_hashtab>
    1e60:	17ffffe0 	b	1de0 <save_symtab+0x2d4>
check_gnu_hashtab():
/media/home/beste/01_Pro/ld25x/bsp_hu/MYD-LD25X-Uboot-L2022.10-V1.0.0/GEN_FIP/myir-st-optee/ldelf/ta_elf.c:245
    1e64:	f9404a62 	ldr	x2, [x19, #144]
    1e68:	f1003c5f 	cmp	x2, #0xf
    1e6c:	54000128 	b.hi	1e90 <save_symtab+0x384>  // b.pmore
/media/home/beste/01_Pro/ld25x/bsp_hu/MYD-LD25X-Uboot-L2022.10-V1.0.0/GEN_FIP/myir-st-optee/ldelf/ta_elf.c:246
    1e70:	b0000024 	adrp	x4, 6000 <kprintf.constprop.0+0x68c>
    1e74:	913bb084 	add	x4, x4, #0xeec
    1e78:	52800023 	mov	w3, #0x1                   	// #1
    1e7c:	52800022 	mov	w2, #0x1                   	// #1
    1e80:	52801ec1 	mov	w1, #0xf6                  	// #246
/media/home/beste/01_Pro/ld25x/bsp_hu/MYD-LD25X-Uboot-L2022.10-V1.0.0/GEN_FIP/myir-st-optee/ldelf/ta_elf.c:258
    1e84:	d0000020 	adrp	x0, 7000 <trace_ext_prefix+0x6bc>
    1e88:	9106e000 	add	x0, x0, #0x1b8
    1e8c:	17ffff7d 	b	1c80 <save_symtab+0x174>
/media/home/beste/01_Pro/ld25x/bsp_hu/MYD-LD25X-Uboot-L2022.10-V1.0.0/GEN_FIP/myir-st-optee/ldelf/ta_elf.c:251
    1e90:	b94008a0 	ldr	w0, [x5, #8]
/media/home/beste/01_Pro/ld25x/bsp_hu/MYD-LD25X-Uboot-L2022.10-V1.0.0/GEN_FIP/myir-st-optee/ldelf/ta_elf.c:250
    1e94:	39400663 	ldrb	w3, [x19, #1]
/media/home/beste/01_Pro/ld25x/bsp_hu/MYD-LD25X-Uboot-L2022.10-V1.0.0/GEN_FIP/myir-st-optee/ldelf/ta_elf.c:251
    1e98:	2a0003e1 	mov	w1, w0
    1e9c:	7100007f 	cmp	w3, #0x0
    1ea0:	531f7800 	lsl	w0, w0, #1
    1ea4:	9a810000 	csel	x0, x0, x1, eq	// eq = none
/media/home/beste/01_Pro/ld25x/bsp_hu/MYD-LD25X-Uboot-L2022.10-V1.0.0/GEN_FIP/myir-st-optee/ldelf/ta_elf.c:254
    1ea8:	b94000a1 	ldr	w1, [x5]
    1eac:	91001021 	add	x1, x1, #0x4
/media/home/beste/01_Pro/ld25x/bsp_hu/MYD-LD25X-Uboot-L2022.10-V1.0.0/GEN_FIP/myir-st-optee/ldelf/ta_elf.c:255
    1eb0:	8b000020 	add	x0, x1, x0
/media/home/beste/01_Pro/ld25x/bsp_hu/MYD-LD25X-Uboot-L2022.10-V1.0.0/GEN_FIP/myir-st-optee/ldelf/ta_elf.c:256
    1eb4:	eb00085f 	cmp	x2, x0, lsl #2
    1eb8:	540000e2 	b.cs	1ed4 <save_symtab+0x3c8>  // b.hs, b.nlast
/media/home/beste/01_Pro/ld25x/bsp_hu/MYD-LD25X-Uboot-L2022.10-V1.0.0/GEN_FIP/myir-st-optee/ldelf/ta_elf.c:258
    1ebc:	b0000024 	adrp	x4, 6000 <kprintf.constprop.0+0x68c>
    1ec0:	52800023 	mov	w3, #0x1                   	// #1
    1ec4:	913c0884 	add	x4, x4, #0xf02
    1ec8:	52800022 	mov	w2, #0x1                   	// #1
    1ecc:	52802041 	mov	w1, #0x102                 	// #258
    1ed0:	17ffffed 	b	1e84 <save_symtab+0x378>
save_soname():
/media/home/beste/01_Pro/ld25x/bsp_hu/MYD-LD25X-Uboot-L2022.10-V1.0.0/GEN_FIP/myir-st-optee/ldelf/ta_elf.c:346
    1ed4:	39400660 	ldrb	w0, [x19, #1]
/media/home/beste/01_Pro/ld25x/bsp_hu/MYD-LD25X-Uboot-L2022.10-V1.0.0/GEN_FIP/myir-st-optee/ldelf/ta_elf.c:349
    1ed8:	d2800015 	mov	x21, #0x0                   	// #0
/media/home/beste/01_Pro/ld25x/bsp_hu/MYD-LD25X-Uboot-L2022.10-V1.0.0/GEN_FIP/myir-st-optee/ldelf/ta_elf.c:347
    1edc:	f9402a74 	ldr	x20, [x19, #80]
/media/home/beste/01_Pro/ld25x/bsp_hu/MYD-LD25X-Uboot-L2022.10-V1.0.0/GEN_FIP/myir-st-optee/ldelf/ta_elf.c:346
    1ee0:	35000220 	cbnz	w0, 1f24 <save_symtab+0x418>
/media/home/beste/01_Pro/ld25x/bsp_hu/MYD-LD25X-Uboot-L2022.10-V1.0.0/GEN_FIP/myir-st-optee/ldelf/ta_elf.c:356
    1ee4:	b9404260 	ldr	w0, [x19, #64]
    1ee8:	eb0002bf 	cmp	x21, x0
    1eec:	54000222 	b.cs	1f30 <save_symtab+0x424>  // b.hs, b.nlast
/media/home/beste/01_Pro/ld25x/bsp_hu/MYD-LD25X-Uboot-L2022.10-V1.0.0/GEN_FIP/myir-st-optee/ldelf/ta_elf.c:357
    1ef0:	f9400a82 	ldr	x2, [x20, #16]
    1ef4:	aa1303e0 	mov	x0, x19
    1ef8:	f9401683 	ldr	x3, [x20, #40]
/media/home/beste/01_Pro/ld25x/bsp_hu/MYD-LD25X-Uboot-L2022.10-V1.0.0/GEN_FIP/myir-st-optee/ldelf/ta_elf.c:356
    1efc:	910006b5 	add	x21, x21, #0x1
/media/home/beste/01_Pro/ld25x/bsp_hu/MYD-LD25X-Uboot-L2022.10-V1.0.0/GEN_FIP/myir-st-optee/ldelf/ta_elf.c:357
    1f00:	b8438681 	ldr	w1, [x20], #56
    1f04:	97fffec7 	bl	1a20 <save_soname_from_segment>
/media/home/beste/01_Pro/ld25x/bsp_hu/MYD-LD25X-Uboot-L2022.10-V1.0.0/GEN_FIP/myir-st-optee/ldelf/ta_elf.c:356
    1f08:	17fffff7 	b	1ee4 <save_symtab+0x3d8>
/media/home/beste/01_Pro/ld25x/bsp_hu/MYD-LD25X-Uboot-L2022.10-V1.0.0/GEN_FIP/myir-st-optee/ldelf/ta_elf.c:350
    1f0c:	b9400a82 	ldr	w2, [x20, #8]
    1f10:	aa1303e0 	mov	x0, x19
    1f14:	b9401683 	ldr	w3, [x20, #20]
/media/home/beste/01_Pro/ld25x/bsp_hu/MYD-LD25X-Uboot-L2022.10-V1.0.0/GEN_FIP/myir-st-optee/ldelf/ta_elf.c:349
    1f18:	910006b5 	add	x21, x21, #0x1
/media/home/beste/01_Pro/ld25x/bsp_hu/MYD-LD25X-Uboot-L2022.10-V1.0.0/GEN_FIP/myir-st-optee/ldelf/ta_elf.c:350
    1f1c:	b8420681 	ldr	w1, [x20], #32
    1f20:	97fffec0 	bl	1a20 <save_soname_from_segment>
/media/home/beste/01_Pro/ld25x/bsp_hu/MYD-LD25X-Uboot-L2022.10-V1.0.0/GEN_FIP/myir-st-optee/ldelf/ta_elf.c:349
    1f24:	b9404260 	ldr	w0, [x19, #64]
    1f28:	eb0002bf 	cmp	x21, x0
    1f2c:	54ffff03 	b.cc	1f0c <save_symtab+0x400>  // b.lo, b.ul, b.last
save_symtab():
/media/home/beste/01_Pro/ld25x/bsp_hu/MYD-LD25X-Uboot-L2022.10-V1.0.0/GEN_FIP/myir-st-optee/ldelf/ta_elf.c:442
    1f30:	a94153f3 	ldp	x19, x20, [sp, #16]
    1f34:	a9425bf5 	ldp	x21, x22, [sp, #32]
    1f38:	a8c37bfd 	ldp	x29, x30, [sp], #48
    1f3c:	d65f03c0 	ret

0000000000001f40 <get_init_fini_array.constprop.0>:
get_init_fini_array():
/media/home/beste/01_Pro/ld25x/bsp_hu/MYD-LD25X-Uboot-L2022.10-V1.0.0/GEN_FIP/myir-st-optee/ldelf/ta_elf.c:1582
    1f40:	a9ba7bfd 	stp	x29, x30, [sp, #-96]!
    1f44:	910003fd 	mov	x29, sp
    1f48:	a90153f3 	stp	x19, x20, [sp, #16]
    1f4c:	aa0003f3 	mov	x19, x0
    1f50:	aa0103f4 	mov	x20, x1
    1f54:	a9025bf5 	stp	x21, x22, [sp, #32]
    1f58:	aa0303f5 	mov	x21, x3
    1f5c:	aa0403f6 	mov	x22, x4
    1f60:	a90363f7 	stp	x23, x24, [sp, #48]
    1f64:	aa0603f8 	mov	x24, x6
    1f68:	aa0503f7 	mov	x23, x5
    1f6c:	f90023f9 	str	x25, [sp, #64]
    1f70:	aa0203f9 	mov	x25, x2
/media/home/beste/01_Pro/ld25x/bsp_hu/MYD-LD25X-Uboot-L2022.10-V1.0.0/GEN_FIP/myir-st-optee/ldelf/ta_elf.c:1591
    1f74:	b90057ff 	str	wzr, [sp, #84]
/media/home/beste/01_Pro/ld25x/bsp_hu/MYD-LD25X-Uboot-L2022.10-V1.0.0/GEN_FIP/myir-st-optee/ldelf/ta_elf.c:1592
    1f78:	f9002fff 	str	xzr, [sp, #88]
/media/home/beste/01_Pro/ld25x/bsp_hu/MYD-LD25X-Uboot-L2022.10-V1.0.0/GEN_FIP/myir-st-optee/ldelf/ta_elf.c:1596
    1f7c:	97fffb51 	bl	cc0 <check_phdr_in_range.constprop.0>
/media/home/beste/01_Pro/ld25x/bsp_hu/MYD-LD25X-Uboot-L2022.10-V1.0.0/GEN_FIP/myir-st-optee/ldelf/ta_elf.c:1598
    1f80:	39400660 	ldrb	w0, [x19, #1]
/media/home/beste/01_Pro/ld25x/bsp_hu/MYD-LD25X-Uboot-L2022.10-V1.0.0/GEN_FIP/myir-st-optee/ldelf/ta_elf.c:1599
    1f84:	d2800108 	mov	x8, #0x8                   	// #8
    1f88:	d2800207 	mov	x7, #0x10                  	// #16
    1f8c:	7100001f 	cmp	w0, #0x0
    1f90:	d2800080 	mov	x0, #0x4                   	// #4
    1f94:	9a8800e7 	csel	x7, x7, x8, eq	// eq = none
    1f98:	9a800108 	csel	x8, x8, x0, eq	// eq = none
/media/home/beste/01_Pro/ld25x/bsp_hu/MYD-LD25X-Uboot-L2022.10-V1.0.0/GEN_FIP/myir-st-optee/ldelf/ta_elf.c:1606
    1f9c:	9ac70b26 	udiv	x6, x25, x7
    1fa0:	9b07e4c7 	msub	x7, x6, x7, x25
    1fa4:	b5000167 	cbnz	x7, 1fd0 <get_init_fini_array.constprop.0+0x90>
/media/home/beste/01_Pro/ld25x/bsp_hu/MYD-LD25X-Uboot-L2022.10-V1.0.0/GEN_FIP/myir-st-optee/ldelf/ta_elf.c:1610
    1fa8:	910163e4 	add	x4, sp, #0x58
    1fac:	910153e3 	add	x3, sp, #0x54
/media/home/beste/01_Pro/ld25x/bsp_hu/MYD-LD25X-Uboot-L2022.10-V1.0.0/GEN_FIP/myir-st-optee/ldelf/ta_elf.c:1609
    1fb0:	eb0700df 	cmp	x6, x7
    1fb4:	540001a1 	b.ne	1fe8 <get_init_fini_array.constprop.0+0xa8>  // b.any
/media/home/beste/01_Pro/ld25x/bsp_hu/MYD-LD25X-Uboot-L2022.10-V1.0.0/GEN_FIP/myir-st-optee/ldelf/ta_elf.c:1620
    1fb8:	a94153f3 	ldp	x19, x20, [sp, #16]
    1fbc:	a9425bf5 	ldp	x21, x22, [sp, #32]
    1fc0:	a94363f7 	ldp	x23, x24, [sp, #48]
    1fc4:	f94023f9 	ldr	x25, [sp, #64]
    1fc8:	a8c67bfd 	ldp	x29, x30, [sp], #96
    1fcc:	d65f03c0 	ret
/media/home/beste/01_Pro/ld25x/bsp_hu/MYD-LD25X-Uboot-L2022.10-V1.0.0/GEN_FIP/myir-st-optee/ldelf/ta_elf.c:1606
    1fd0:	d0000022 	adrp	x2, 7000 <trace_ext_prefix+0x6bc>
    1fd4:	b0000020 	adrp	x0, 6000 <kprintf.constprop.0+0x68c>
    1fd8:	91038842 	add	x2, x2, #0xe2
    1fdc:	91363000 	add	x0, x0, #0xd8c
    1fe0:	5280c8c1 	mov	w1, #0x646                 	// #1606
    1fe4:	97fffb53 	bl	d30 <_assert_trap.constprop.0>
/media/home/beste/01_Pro/ld25x/bsp_hu/MYD-LD25X-Uboot-L2022.10-V1.0.0/GEN_FIP/myir-st-optee/ldelf/ta_elf.c:1610
    1fe8:	aa1303e0 	mov	x0, x19
    1fec:	aa0703e2 	mov	x2, x7
    1ff0:	aa1403e1 	mov	x1, x20
    1ff4:	97fffe7a 	bl	19dc <read_dyn>
/media/home/beste/01_Pro/ld25x/bsp_hu/MYD-LD25X-Uboot-L2022.10-V1.0.0/GEN_FIP/myir-st-optee/ldelf/ta_elf.c:1611
    1ff8:	b94057e0 	ldr	w0, [sp, #84]
    1ffc:	7100641f 	cmp	w0, #0x19
    2000:	540000e1 	b.ne	201c <get_init_fini_array.constprop.0+0xdc>  // b.any
/media/home/beste/01_Pro/ld25x/bsp_hu/MYD-LD25X-Uboot-L2022.10-V1.0.0/GEN_FIP/myir-st-optee/ldelf/ta_elf.c:1612
    2004:	f9400660 	ldr	x0, [x19, #8]
    2008:	f9402fe1 	ldr	x1, [sp, #88]
    200c:	8b010000 	add	x0, x0, x1
    2010:	f90002a0 	str	x0, [x21]
/media/home/beste/01_Pro/ld25x/bsp_hu/MYD-LD25X-Uboot-L2022.10-V1.0.0/GEN_FIP/myir-st-optee/ldelf/ta_elf.c:1609
    2014:	910004e7 	add	x7, x7, #0x1
    2018:	17ffffe6 	b	1fb0 <get_init_fini_array.constprop.0+0x70>
/media/home/beste/01_Pro/ld25x/bsp_hu/MYD-LD25X-Uboot-L2022.10-V1.0.0/GEN_FIP/myir-st-optee/ldelf/ta_elf.c:1613
    201c:	7100681f 	cmp	w0, #0x1a
    2020:	540000c1 	b.ne	2038 <get_init_fini_array.constprop.0+0xf8>  // b.any
/media/home/beste/01_Pro/ld25x/bsp_hu/MYD-LD25X-Uboot-L2022.10-V1.0.0/GEN_FIP/myir-st-optee/ldelf/ta_elf.c:1614
    2024:	f9400660 	ldr	x0, [x19, #8]
    2028:	f9402fe1 	ldr	x1, [sp, #88]
    202c:	8b010000 	add	x0, x0, x1
    2030:	f90002e0 	str	x0, [x23]
    2034:	17fffff8 	b	2014 <get_init_fini_array.constprop.0+0xd4>
/media/home/beste/01_Pro/ld25x/bsp_hu/MYD-LD25X-Uboot-L2022.10-V1.0.0/GEN_FIP/myir-st-optee/ldelf/ta_elf.c:1615
    2038:	71006c1f 	cmp	w0, #0x1b
    203c:	540000a1 	b.ne	2050 <get_init_fini_array.constprop.0+0x110>  // b.any
/media/home/beste/01_Pro/ld25x/bsp_hu/MYD-LD25X-Uboot-L2022.10-V1.0.0/GEN_FIP/myir-st-optee/ldelf/ta_elf.c:1616
    2040:	f9402fe0 	ldr	x0, [sp, #88]
    2044:	9ac80800 	udiv	x0, x0, x8
    2048:	f90002c0 	str	x0, [x22]
    204c:	17fffff2 	b	2014 <get_init_fini_array.constprop.0+0xd4>
/media/home/beste/01_Pro/ld25x/bsp_hu/MYD-LD25X-Uboot-L2022.10-V1.0.0/GEN_FIP/myir-st-optee/ldelf/ta_elf.c:1617
    2050:	7100701f 	cmp	w0, #0x1c
    2054:	54fffe01 	b.ne	2014 <get_init_fini_array.constprop.0+0xd4>  // b.any
/media/home/beste/01_Pro/ld25x/bsp_hu/MYD-LD25X-Uboot-L2022.10-V1.0.0/GEN_FIP/myir-st-optee/ldelf/ta_elf.c:1618
    2058:	f9402fe0 	ldr	x0, [sp, #88]
    205c:	9ac80800 	udiv	x0, x0, x8
    2060:	f9000300 	str	x0, [x24]
    2064:	17ffffec 	b	2014 <get_init_fini_array.constprop.0+0xd4>

0000000000002068 <elf_get_init_fini_array.constprop.0>:
elf_get_init_fini_array():
/media/home/beste/01_Pro/ld25x/bsp_hu/MYD-LD25X-Uboot-L2022.10-V1.0.0/GEN_FIP/myir-st-optee/ldelf/ta_elf.c:1623
    2068:	aa0303e5 	mov	x5, x3
/media/home/beste/01_Pro/ld25x/bsp_hu/MYD-LD25X-Uboot-L2022.10-V1.0.0/GEN_FIP/myir-st-optee/ldelf/ta_elf.c:1629
    206c:	39400403 	ldrb	w3, [x0, #1]
/media/home/beste/01_Pro/ld25x/bsp_hu/MYD-LD25X-Uboot-L2022.10-V1.0.0/GEN_FIP/myir-st-optee/ldelf/ta_elf.c:1630
    2070:	f9402807 	ldr	x7, [x0, #80]
/media/home/beste/01_Pro/ld25x/bsp_hu/MYD-LD25X-Uboot-L2022.10-V1.0.0/GEN_FIP/myir-st-optee/ldelf/ta_elf.c:1623
    2074:	aa0403e6 	mov	x6, x4
/media/home/beste/01_Pro/ld25x/bsp_hu/MYD-LD25X-Uboot-L2022.10-V1.0.0/GEN_FIP/myir-st-optee/ldelf/ta_elf.c:1632
    2078:	b9404008 	ldr	w8, [x0, #64]
/media/home/beste/01_Pro/ld25x/bsp_hu/MYD-LD25X-Uboot-L2022.10-V1.0.0/GEN_FIP/myir-st-optee/ldelf/ta_elf.c:1629
    207c:	350001a3 	cbnz	w3, 20b0 <elf_get_init_fini_array.constprop.0+0x48>
/media/home/beste/01_Pro/ld25x/bsp_hu/MYD-LD25X-Uboot-L2022.10-V1.0.0/GEN_FIP/myir-st-optee/ldelf/ta_elf.c:1645
    2080:	d2800003 	mov	x3, #0x0                   	// #0
    2084:	eb08007f 	cmp	x3, x8
    2088:	540001a2 	b.cs	20bc <elf_get_init_fini_array.constprop.0+0x54>  // b.hs, b.nlast
/media/home/beste/01_Pro/ld25x/bsp_hu/MYD-LD25X-Uboot-L2022.10-V1.0.0/GEN_FIP/myir-st-optee/ldelf/ta_elf.c:1646
    208c:	aa0703e4 	mov	x4, x7
    2090:	b8438489 	ldr	w9, [x4], #56
    2094:	7100093f 	cmp	w9, #0x2
    2098:	540002c1 	b.ne	20f0 <elf_get_init_fini_array.constprop.0+0x88>  // b.any
/media/home/beste/01_Pro/ld25x/bsp_hu/MYD-LD25X-Uboot-L2022.10-V1.0.0/GEN_FIP/myir-st-optee/ldelf/ta_elf.c:1647
    209c:	aa0203e4 	mov	x4, x2
    20a0:	aa0103e3 	mov	x3, x1
    20a4:	f94008e1 	ldr	x1, [x7, #16]
    20a8:	f94014e2 	ldr	x2, [x7, #40]
    20ac:	1400000d 	b	20e0 <elf_get_init_fini_array.constprop.0+0x78>
/media/home/beste/01_Pro/ld25x/bsp_hu/MYD-LD25X-Uboot-L2022.10-V1.0.0/GEN_FIP/myir-st-optee/ldelf/ta_elf.c:1632
    20b0:	d2800003 	mov	x3, #0x0                   	// #0
    20b4:	eb08007f 	cmp	x3, x8
    20b8:	54000043 	b.cc	20c0 <elf_get_init_fini_array.constprop.0+0x58>  // b.lo, b.ul, b.last
/media/home/beste/01_Pro/ld25x/bsp_hu/MYD-LD25X-Uboot-L2022.10-V1.0.0/GEN_FIP/myir-st-optee/ldelf/ta_elf.c:1656
    20bc:	d65f03c0 	ret
/media/home/beste/01_Pro/ld25x/bsp_hu/MYD-LD25X-Uboot-L2022.10-V1.0.0/GEN_FIP/myir-st-optee/ldelf/ta_elf.c:1633
    20c0:	aa0703e4 	mov	x4, x7
    20c4:	b8420489 	ldr	w9, [x4], #32
    20c8:	7100093f 	cmp	w9, #0x2
    20cc:	540000c1 	b.ne	20e4 <elf_get_init_fini_array.constprop.0+0x7c>  // b.any
/media/home/beste/01_Pro/ld25x/bsp_hu/MYD-LD25X-Uboot-L2022.10-V1.0.0/GEN_FIP/myir-st-optee/ldelf/ta_elf.c:1634
    20d0:	aa0203e4 	mov	x4, x2
    20d4:	aa0103e3 	mov	x3, x1
    20d8:	b94014e2 	ldr	w2, [x7, #20]
    20dc:	b94008e1 	ldr	w1, [x7, #8]
/media/home/beste/01_Pro/ld25x/bsp_hu/MYD-LD25X-Uboot-L2022.10-V1.0.0/GEN_FIP/myir-st-optee/ldelf/ta_elf.c:1647
    20e0:	17ffff98 	b	1f40 <get_init_fini_array.constprop.0>
/media/home/beste/01_Pro/ld25x/bsp_hu/MYD-LD25X-Uboot-L2022.10-V1.0.0/GEN_FIP/myir-st-optee/ldelf/ta_elf.c:1632
    20e4:	91000463 	add	x3, x3, #0x1
    20e8:	aa0403e7 	mov	x7, x4
    20ec:	17fffff2 	b	20b4 <elf_get_init_fini_array.constprop.0+0x4c>
/media/home/beste/01_Pro/ld25x/bsp_hu/MYD-LD25X-Uboot-L2022.10-V1.0.0/GEN_FIP/myir-st-optee/ldelf/ta_elf.c:1645
    20f0:	91000463 	add	x3, x3, #0x1
    20f4:	aa0403e7 	mov	x7, x4
    20f8:	17ffffe3 	b	2084 <elf_get_init_fini_array.constprop.0+0x1c>

00000000000020fc <ta_elf_find_elf>:
ta_elf_find_elf():
/media/home/beste/01_Pro/ld25x/bsp_hu/MYD-LD25X-Uboot-L2022.10-V1.0.0/GEN_FIP/myir-st-optee/ldelf/ta_elf.c:91
    20fc:	a9be7bfd 	stp	x29, x30, [sp, #-32]!
    2100:	910003fd 	mov	x29, sp
    2104:	a90153f3 	stp	x19, x20, [sp, #16]
    2108:	aa0003f4 	mov	x20, x0
/media/home/beste/01_Pro/ld25x/bsp_hu/MYD-LD25X-Uboot-L2022.10-V1.0.0/GEN_FIP/myir-st-optee/ldelf/ta_elf.c:94
    210c:	d0000020 	adrp	x0, 8000 <_DYNAMIC>
    2110:	f940b013 	ldr	x19, [x0, #352]
/media/home/beste/01_Pro/ld25x/bsp_hu/MYD-LD25X-Uboot-L2022.10-V1.0.0/GEN_FIP/myir-st-optee/ldelf/ta_elf.c:94 (discriminator 1)
    2114:	b50000b3 	cbnz	x19, 2128 <ta_elf_find_elf+0x2c>
/media/home/beste/01_Pro/ld25x/bsp_hu/MYD-LD25X-Uboot-L2022.10-V1.0.0/GEN_FIP/myir-st-optee/ldelf/ta_elf.c:99
    2118:	aa1303e0 	mov	x0, x19
    211c:	a94153f3 	ldp	x19, x20, [sp, #16]
    2120:	a8c27bfd 	ldp	x29, x30, [sp], #32
    2124:	d65f03c0 	ret
/media/home/beste/01_Pro/ld25x/bsp_hu/MYD-LD25X-Uboot-L2022.10-V1.0.0/GEN_FIP/myir-st-optee/ldelf/ta_elf.c:95
    2128:	91044261 	add	x1, x19, #0x110
    212c:	aa1403e0 	mov	x0, x20
    2130:	d2800202 	mov	x2, #0x10                  	// #16
    2134:	94000d95 	bl	5788 <memcmp>
    2138:	34ffff00 	cbz	w0, 2118 <ta_elf_find_elf+0x1c>
/media/home/beste/01_Pro/ld25x/bsp_hu/MYD-LD25X-Uboot-L2022.10-V1.0.0/GEN_FIP/myir-st-optee/ldelf/ta_elf.c:94 (discriminator 2)
    213c:	f9409273 	ldr	x19, [x19, #288]
    2140:	17fffff5 	b	2114 <ta_elf_find_elf+0x18>

0000000000002144 <queue_elf>:
queue_elf():
/media/home/beste/01_Pro/ld25x/bsp_hu/MYD-LD25X-Uboot-L2022.10-V1.0.0/GEN_FIP/myir-st-optee/ldelf/ta_elf.c:77
    2144:	a9be7bfd 	stp	x29, x30, [sp, #-32]!
    2148:	910003fd 	mov	x29, sp
    214c:	f9000bf3 	str	x19, [sp, #16]
    2150:	aa0003f3 	mov	x19, x0
/media/home/beste/01_Pro/ld25x/bsp_hu/MYD-LD25X-Uboot-L2022.10-V1.0.0/GEN_FIP/myir-st-optee/ldelf/ta_elf.c:78
    2154:	97ffffea 	bl	20fc <ta_elf_find_elf>
/media/home/beste/01_Pro/ld25x/bsp_hu/MYD-LD25X-Uboot-L2022.10-V1.0.0/GEN_FIP/myir-st-optee/ldelf/ta_elf.c:80
    2158:	b50001c0 	cbnz	x0, 2190 <queue_elf+0x4c>
/media/home/beste/01_Pro/ld25x/bsp_hu/MYD-LD25X-Uboot-L2022.10-V1.0.0/GEN_FIP/myir-st-optee/ldelf/ta_elf.c:83
    215c:	aa1303e0 	mov	x0, x19
    2160:	97fff984 	bl	770 <queue_elf_helper>
/media/home/beste/01_Pro/ld25x/bsp_hu/MYD-LD25X-Uboot-L2022.10-V1.0.0/GEN_FIP/myir-st-optee/ldelf/ta_elf.c:84
    2164:	b5000180 	cbnz	x0, 2194 <queue_elf+0x50>
/media/home/beste/01_Pro/ld25x/bsp_hu/MYD-LD25X-Uboot-L2022.10-V1.0.0/GEN_FIP/myir-st-optee/ldelf/ta_elf.c:85
    2168:	90000024 	adrp	x4, 6000 <kprintf.constprop.0+0x68c>
    216c:	913c5c84 	add	x4, x4, #0xf17
    2170:	52800023 	mov	w3, #0x1                   	// #1
    2174:	52800022 	mov	w2, #0x1                   	// #1
    2178:	52800aa1 	mov	w1, #0x55                  	// #85
    217c:	b0000020 	adrp	x0, 7000 <trace_ext_prefix+0x6bc>
    2180:	910bc000 	add	x0, x0, #0x2f0
    2184:	94001170 	bl	6744 <trace_printf>
    2188:	129ffe60 	mov	w0, #0xffff000c            	// #-65524
    218c:	97fff7f2 	bl	154 <_ldelf_return>
/media/home/beste/01_Pro/ld25x/bsp_hu/MYD-LD25X-Uboot-L2022.10-V1.0.0/GEN_FIP/myir-st-optee/ldelf/ta_elf.c:81
    2190:	d2800000 	mov	x0, #0x0                   	// #0
/media/home/beste/01_Pro/ld25x/bsp_hu/MYD-LD25X-Uboot-L2022.10-V1.0.0/GEN_FIP/myir-st-optee/ldelf/ta_elf.c:88
    2194:	f9400bf3 	ldr	x19, [sp, #16]
    2198:	a8c27bfd 	ldp	x29, x30, [sp], #32
    219c:	d65f03c0 	ret

00000000000021a0 <add_deps_from_segment>:
add_deps_from_segment():
/media/home/beste/01_Pro/ld25x/bsp_hu/MYD-LD25X-Uboot-L2022.10-V1.0.0/GEN_FIP/myir-st-optee/ldelf/ta_elf.c:998
    21a0:	a9b87bfd 	stp	x29, x30, [sp, #-128]!
    21a4:	910003fd 	mov	x29, sp
    21a8:	a90153f3 	stp	x19, x20, [sp, #16]
    21ac:	a9025bf5 	stp	x21, x22, [sp, #32]
    21b0:	a90363f7 	stp	x23, x24, [sp, #48]
    21b4:	a9046bf9 	stp	x25, x26, [sp, #64]
    21b8:	f9002bfb 	str	x27, [sp, #80]
/media/home/beste/01_Pro/ld25x/bsp_hu/MYD-LD25X-Uboot-L2022.10-V1.0.0/GEN_FIP/myir-st-optee/ldelf/ta_elf.c:1002
    21bc:	b90067ff 	str	wzr, [sp, #100]
/media/home/beste/01_Pro/ld25x/bsp_hu/MYD-LD25X-Uboot-L2022.10-V1.0.0/GEN_FIP/myir-st-optee/ldelf/ta_elf.c:1003
    21c0:	f90037ff 	str	xzr, [sp, #104]
/media/home/beste/01_Pro/ld25x/bsp_hu/MYD-LD25X-Uboot-L2022.10-V1.0.0/GEN_FIP/myir-st-optee/ldelf/ta_elf.c:1004
    21c4:	a9077fff 	stp	xzr, xzr, [sp, #112]
/media/home/beste/01_Pro/ld25x/bsp_hu/MYD-LD25X-Uboot-L2022.10-V1.0.0/GEN_FIP/myir-st-optee/ldelf/ta_elf.c:1008
    21c8:	7100083f 	cmp	w1, #0x2
    21cc:	54000541 	b.ne	2274 <add_deps_from_segment+0xd4>  // b.any
    21d0:	aa0003f6 	mov	x22, x0
    21d4:	aa0203f7 	mov	x23, x2
    21d8:	aa0303f4 	mov	x20, x3
/media/home/beste/01_Pro/ld25x/bsp_hu/MYD-LD25X-Uboot-L2022.10-V1.0.0/GEN_FIP/myir-st-optee/ldelf/ta_elf.c:1011
    21dc:	aa0303e2 	mov	x2, x3
    21e0:	aa1703e1 	mov	x1, x23
    21e4:	97fffab7 	bl	cc0 <check_phdr_in_range.constprop.0>
/media/home/beste/01_Pro/ld25x/bsp_hu/MYD-LD25X-Uboot-L2022.10-V1.0.0/GEN_FIP/myir-st-optee/ldelf/ta_elf.c:1013
    21e8:	394006c0 	ldrb	w0, [x22, #1]
/media/home/beste/01_Pro/ld25x/bsp_hu/MYD-LD25X-Uboot-L2022.10-V1.0.0/GEN_FIP/myir-st-optee/ldelf/ta_elf.c:1014
    21ec:	d2800213 	mov	x19, #0x10                  	// #16
    21f0:	7100001f 	cmp	w0, #0x0
    21f4:	d2800100 	mov	x0, #0x8                   	// #8
    21f8:	9a800273 	csel	x19, x19, x0, eq	// eq = none
/media/home/beste/01_Pro/ld25x/bsp_hu/MYD-LD25X-Uboot-L2022.10-V1.0.0/GEN_FIP/myir-st-optee/ldelf/ta_elf.c:1018
    21fc:	9ad30a98 	udiv	x24, x20, x19
    2200:	9b13d313 	msub	x19, x24, x19, x20
    2204:	b40000f3 	cbz	x19, 2220 <add_deps_from_segment+0x80>
/media/home/beste/01_Pro/ld25x/bsp_hu/MYD-LD25X-Uboot-L2022.10-V1.0.0/GEN_FIP/myir-st-optee/ldelf/ta_elf.c:1018 (discriminator 1)
    2208:	b0000022 	adrp	x2, 7000 <trace_ext_prefix+0x6bc>
    220c:	90000020 	adrp	x0, 6000 <kprintf.constprop.0+0x68c>
    2210:	9108b442 	add	x2, x2, #0x22d
    2214:	91363000 	add	x0, x0, #0xd8c
    2218:	52807f41 	mov	w1, #0x3fa                 	// #1018
    221c:	97fffac5 	bl	d30 <_assert_trap.constprop.0>
/media/home/beste/01_Pro/ld25x/bsp_hu/MYD-LD25X-Uboot-L2022.10-V1.0.0/GEN_FIP/myir-st-optee/ldelf/ta_elf.c:1022
    2220:	9101a3e4 	add	x4, sp, #0x68
    2224:	910193e3 	add	x3, sp, #0x64
/media/home/beste/01_Pro/ld25x/bsp_hu/MYD-LD25X-Uboot-L2022.10-V1.0.0/GEN_FIP/myir-st-optee/ldelf/ta_elf.c:1006
    2228:	d2800015 	mov	x21, #0x0                   	// #0
/media/home/beste/01_Pro/ld25x/bsp_hu/MYD-LD25X-Uboot-L2022.10-V1.0.0/GEN_FIP/myir-st-optee/ldelf/ta_elf.c:1021
    222c:	d2800006 	mov	x6, #0x0                   	// #0
/media/home/beste/01_Pro/ld25x/bsp_hu/MYD-LD25X-Uboot-L2022.10-V1.0.0/GEN_FIP/myir-st-optee/ldelf/ta_elf.c:1005
    2230:	d2800014 	mov	x20, #0x0                   	// #0
/media/home/beste/01_Pro/ld25x/bsp_hu/MYD-LD25X-Uboot-L2022.10-V1.0.0/GEN_FIP/myir-st-optee/ldelf/ta_elf.c:1021 (discriminator 1)
    2234:	eb1800df 	cmp	x6, x24
    2238:	54000080 	b.eq	2248 <add_deps_from_segment+0xa8>  // b.none
/media/home/beste/01_Pro/ld25x/bsp_hu/MYD-LD25X-Uboot-L2022.10-V1.0.0/GEN_FIP/myir-st-optee/ldelf/ta_elf.c:1021 (discriminator 3)
    223c:	f100029f 	cmp	x20, #0x0
    2240:	fa401aa4 	ccmp	x21, #0x0, #0x4, ne	// ne = any
    2244:	54000260 	b.eq	2290 <add_deps_from_segment+0xf0>  // b.none
/media/home/beste/01_Pro/ld25x/bsp_hu/MYD-LD25X-Uboot-L2022.10-V1.0.0/GEN_FIP/myir-st-optee/ldelf/ta_elf.c:1031
    2248:	9101a3fa 	add	x26, sp, #0x68
    224c:	910193fb 	add	x27, sp, #0x64
/media/home/beste/01_Pro/ld25x/bsp_hu/MYD-LD25X-Uboot-L2022.10-V1.0.0/GEN_FIP/myir-st-optee/ldelf/ta_elf.c:1037
    2250:	9101c3f9 	add	x25, sp, #0x70
/media/home/beste/01_Pro/ld25x/bsp_hu/MYD-LD25X-Uboot-L2022.10-V1.0.0/GEN_FIP/myir-st-optee/ldelf/ta_elf.c:1028
    2254:	aa1503e3 	mov	x3, x21
    2258:	aa1403e2 	mov	x2, x20
    225c:	aa1603e0 	mov	x0, x22
    2260:	90000021 	adrp	x1, 6000 <kprintf.constprop.0+0x68c>
    2264:	913af421 	add	x1, x1, #0xebd
    2268:	97fff902 	bl	670 <check_range>
/media/home/beste/01_Pro/ld25x/bsp_hu/MYD-LD25X-Uboot-L2022.10-V1.0.0/GEN_FIP/myir-st-optee/ldelf/ta_elf.c:1030 (discriminator 1)
    226c:	eb18027f 	cmp	x19, x24
    2270:	54000301 	b.ne	22d0 <add_deps_from_segment+0x130>  // b.any
/media/home/beste/01_Pro/ld25x/bsp_hu/MYD-LD25X-Uboot-L2022.10-V1.0.0/GEN_FIP/myir-st-optee/ldelf/ta_elf.c:1040
    2274:	a94153f3 	ldp	x19, x20, [sp, #16]
    2278:	a9425bf5 	ldp	x21, x22, [sp, #32]
    227c:	a94363f7 	ldp	x23, x24, [sp, #48]
    2280:	a9446bf9 	ldp	x25, x26, [sp, #64]
    2284:	f9402bfb 	ldr	x27, [sp, #80]
    2288:	a8c87bfd 	ldp	x29, x30, [sp], #128
    228c:	d65f03c0 	ret
/media/home/beste/01_Pro/ld25x/bsp_hu/MYD-LD25X-Uboot-L2022.10-V1.0.0/GEN_FIP/myir-st-optee/ldelf/ta_elf.c:1022
    2290:	aa1603e0 	mov	x0, x22
    2294:	aa0603e2 	mov	x2, x6
    2298:	aa1703e1 	mov	x1, x23
    229c:	97fffdd0 	bl	19dc <read_dyn>
/media/home/beste/01_Pro/ld25x/bsp_hu/MYD-LD25X-Uboot-L2022.10-V1.0.0/GEN_FIP/myir-st-optee/ldelf/ta_elf.c:1023
    22a0:	b94067e0 	ldr	w0, [sp, #100]
    22a4:	7100141f 	cmp	w0, #0x5
    22a8:	540000c1 	b.ne	22c0 <add_deps_from_segment+0x120>  // b.any
/media/home/beste/01_Pro/ld25x/bsp_hu/MYD-LD25X-Uboot-L2022.10-V1.0.0/GEN_FIP/myir-st-optee/ldelf/ta_elf.c:1024
    22ac:	f94006d4 	ldr	x20, [x22, #8]
    22b0:	f94037e0 	ldr	x0, [sp, #104]
    22b4:	8b000294 	add	x20, x20, x0
/media/home/beste/01_Pro/ld25x/bsp_hu/MYD-LD25X-Uboot-L2022.10-V1.0.0/GEN_FIP/myir-st-optee/ldelf/ta_elf.c:1021 (discriminator 2)
    22b8:	910004c6 	add	x6, x6, #0x1
    22bc:	17ffffde 	b	2234 <add_deps_from_segment+0x94>
/media/home/beste/01_Pro/ld25x/bsp_hu/MYD-LD25X-Uboot-L2022.10-V1.0.0/GEN_FIP/myir-st-optee/ldelf/ta_elf.c:1025
    22c0:	7100281f 	cmp	w0, #0xa
    22c4:	54ffffa1 	b.ne	22b8 <add_deps_from_segment+0x118>  // b.any
/media/home/beste/01_Pro/ld25x/bsp_hu/MYD-LD25X-Uboot-L2022.10-V1.0.0/GEN_FIP/myir-st-optee/ldelf/ta_elf.c:1026
    22c8:	f94037f5 	ldr	x21, [sp, #104]
    22cc:	17fffffb 	b	22b8 <add_deps_from_segment+0x118>
/media/home/beste/01_Pro/ld25x/bsp_hu/MYD-LD25X-Uboot-L2022.10-V1.0.0/GEN_FIP/myir-st-optee/ldelf/ta_elf.c:1031
    22d0:	aa1303e2 	mov	x2, x19
    22d4:	aa1a03e4 	mov	x4, x26
    22d8:	aa1b03e3 	mov	x3, x27
    22dc:	aa1703e1 	mov	x1, x23
    22e0:	aa1603e0 	mov	x0, x22
    22e4:	97fffdbe 	bl	19dc <read_dyn>
/media/home/beste/01_Pro/ld25x/bsp_hu/MYD-LD25X-Uboot-L2022.10-V1.0.0/GEN_FIP/myir-st-optee/ldelf/ta_elf.c:1032
    22e8:	b94067e2 	ldr	w2, [sp, #100]
    22ec:	7100045f 	cmp	w2, #0x1
    22f0:	54000241 	b.ne	2338 <add_deps_from_segment+0x198>  // b.any
/media/home/beste/01_Pro/ld25x/bsp_hu/MYD-LD25X-Uboot-L2022.10-V1.0.0/GEN_FIP/myir-st-optee/ldelf/ta_elf.c:1034
    22f4:	f94037e1 	ldr	x1, [sp, #104]
    22f8:	eb15003f 	cmp	x1, x21
    22fc:	54000143 	b.cc	2324 <add_deps_from_segment+0x184>  // b.lo, b.ul, b.last
/media/home/beste/01_Pro/ld25x/bsp_hu/MYD-LD25X-Uboot-L2022.10-V1.0.0/GEN_FIP/myir-st-optee/ldelf/ta_elf.c:1035
    2300:	2a0203e3 	mov	w3, w2
    2304:	90000024 	adrp	x4, 6000 <kprintf.constprop.0+0x68c>
    2308:	913ca084 	add	x4, x4, #0xf28
    230c:	52808161 	mov	w1, #0x40b                 	// #1035
    2310:	b0000020 	adrp	x0, 7000 <trace_ext_prefix+0x6bc>
    2314:	9108b400 	add	x0, x0, #0x22d
    2318:	9400110b 	bl	6744 <trace_printf>
    231c:	129fff40 	mov	w0, #0xffff0005            	// #-65531
    2320:	97fff78d 	bl	154 <_ldelf_return>
/media/home/beste/01_Pro/ld25x/bsp_hu/MYD-LD25X-Uboot-L2022.10-V1.0.0/GEN_FIP/myir-st-optee/ldelf/ta_elf.c:1037
    2324:	8b010281 	add	x1, x20, x1
    2328:	aa1903e0 	mov	x0, x25
    232c:	94000a0e 	bl	4b64 <tee_uuid_from_str>
/media/home/beste/01_Pro/ld25x/bsp_hu/MYD-LD25X-Uboot-L2022.10-V1.0.0/GEN_FIP/myir-st-optee/ldelf/ta_elf.c:1038
    2330:	aa1903e0 	mov	x0, x25
    2334:	97ffff84 	bl	2144 <queue_elf>
/media/home/beste/01_Pro/ld25x/bsp_hu/MYD-LD25X-Uboot-L2022.10-V1.0.0/GEN_FIP/myir-st-optee/ldelf/ta_elf.c:1030 (discriminator 2)
    2338:	91000673 	add	x19, x19, #0x1
    233c:	17ffffcc 	b	226c <add_deps_from_segment+0xcc>

0000000000002340 <add_dependencies>:
add_dependencies():
/media/home/beste/01_Pro/ld25x/bsp_hu/MYD-LD25X-Uboot-L2022.10-V1.0.0/GEN_FIP/myir-st-optee/ldelf/ta_elf.c:1043
    2340:	a9bd7bfd 	stp	x29, x30, [sp, #-48]!
    2344:	910003fd 	mov	x29, sp
    2348:	a90153f3 	stp	x19, x20, [sp, #16]
    234c:	aa0003f4 	mov	x20, x0
/media/home/beste/01_Pro/ld25x/bsp_hu/MYD-LD25X-Uboot-L2022.10-V1.0.0/GEN_FIP/myir-st-optee/ldelf/ta_elf.c:1047
    2350:	f9402813 	ldr	x19, [x0, #80]
/media/home/beste/01_Pro/ld25x/bsp_hu/MYD-LD25X-Uboot-L2022.10-V1.0.0/GEN_FIP/myir-st-optee/ldelf/ta_elf.c:1046
    2354:	39400400 	ldrb	w0, [x0, #1]
/media/home/beste/01_Pro/ld25x/bsp_hu/MYD-LD25X-Uboot-L2022.10-V1.0.0/GEN_FIP/myir-st-optee/ldelf/ta_elf.c:1043
    2358:	f90013f5 	str	x21, [sp, #32]
/media/home/beste/01_Pro/ld25x/bsp_hu/MYD-LD25X-Uboot-L2022.10-V1.0.0/GEN_FIP/myir-st-optee/ldelf/ta_elf.c:1049
    235c:	d2800015 	mov	x21, #0x0                   	// #0
/media/home/beste/01_Pro/ld25x/bsp_hu/MYD-LD25X-Uboot-L2022.10-V1.0.0/GEN_FIP/myir-st-optee/ldelf/ta_elf.c:1046
    2360:	35000220 	cbnz	w0, 23a4 <add_dependencies+0x64>
/media/home/beste/01_Pro/ld25x/bsp_hu/MYD-LD25X-Uboot-L2022.10-V1.0.0/GEN_FIP/myir-st-optee/ldelf/ta_elf.c:1055 (discriminator 1)
    2364:	b9404280 	ldr	w0, [x20, #64]
    2368:	eb15001f 	cmp	x0, x21
    236c:	54000229 	b.ls	23b0 <add_dependencies+0x70>  // b.plast
/media/home/beste/01_Pro/ld25x/bsp_hu/MYD-LD25X-Uboot-L2022.10-V1.0.0/GEN_FIP/myir-st-optee/ldelf/ta_elf.c:1056 (discriminator 3)
    2370:	f9400a62 	ldr	x2, [x19, #16]
    2374:	aa1403e0 	mov	x0, x20
    2378:	f9401663 	ldr	x3, [x19, #40]
/media/home/beste/01_Pro/ld25x/bsp_hu/MYD-LD25X-Uboot-L2022.10-V1.0.0/GEN_FIP/myir-st-optee/ldelf/ta_elf.c:1055 (discriminator 3)
    237c:	910006b5 	add	x21, x21, #0x1
/media/home/beste/01_Pro/ld25x/bsp_hu/MYD-LD25X-Uboot-L2022.10-V1.0.0/GEN_FIP/myir-st-optee/ldelf/ta_elf.c:1056 (discriminator 3)
    2380:	b8438661 	ldr	w1, [x19], #56
    2384:	97ffff87 	bl	21a0 <add_deps_from_segment>
/media/home/beste/01_Pro/ld25x/bsp_hu/MYD-LD25X-Uboot-L2022.10-V1.0.0/GEN_FIP/myir-st-optee/ldelf/ta_elf.c:1055 (discriminator 3)
    2388:	17fffff7 	b	2364 <add_dependencies+0x24>
/media/home/beste/01_Pro/ld25x/bsp_hu/MYD-LD25X-Uboot-L2022.10-V1.0.0/GEN_FIP/myir-st-optee/ldelf/ta_elf.c:1050
    238c:	b9400a62 	ldr	w2, [x19, #8]
    2390:	aa1403e0 	mov	x0, x20
    2394:	b9401663 	ldr	w3, [x19, #20]
/media/home/beste/01_Pro/ld25x/bsp_hu/MYD-LD25X-Uboot-L2022.10-V1.0.0/GEN_FIP/myir-st-optee/ldelf/ta_elf.c:1049
    2398:	910006b5 	add	x21, x21, #0x1
/media/home/beste/01_Pro/ld25x/bsp_hu/MYD-LD25X-Uboot-L2022.10-V1.0.0/GEN_FIP/myir-st-optee/ldelf/ta_elf.c:1050
    239c:	b8420661 	ldr	w1, [x19], #32
    23a0:	97ffff80 	bl	21a0 <add_deps_from_segment>
/media/home/beste/01_Pro/ld25x/bsp_hu/MYD-LD25X-Uboot-L2022.10-V1.0.0/GEN_FIP/myir-st-optee/ldelf/ta_elf.c:1049
    23a4:	b9404280 	ldr	w0, [x20, #64]
    23a8:	eb0002bf 	cmp	x21, x0
    23ac:	54ffff03 	b.cc	238c <add_dependencies+0x4c>  // b.lo, b.ul, b.last
/media/home/beste/01_Pro/ld25x/bsp_hu/MYD-LD25X-Uboot-L2022.10-V1.0.0/GEN_FIP/myir-st-optee/ldelf/ta_elf.c:1059
    23b0:	a94153f3 	ldp	x19, x20, [sp, #16]
    23b4:	f94013f5 	ldr	x21, [sp, #32]
    23b8:	a8c37bfd 	ldp	x29, x30, [sp], #48
    23bc:	d65f03c0 	ret

00000000000023c0 <ta_elf_load_main>:
ta_elf_load_main():
/media/home/beste/01_Pro/ld25x/bsp_hu/MYD-LD25X-Uboot-L2022.10-V1.0.0/GEN_FIP/myir-st-optee/ldelf/ta_elf.c:1219
    23c0:	a9ba7bfd 	stp	x29, x30, [sp, #-96]!
    23c4:	910003fd 	mov	x29, sp
    23c8:	a90153f3 	stp	x19, x20, [sp, #16]
    23cc:	a9025bf5 	stp	x21, x22, [sp, #32]
    23d0:	aa0203f6 	mov	x22, x2
    23d4:	a90363f7 	stp	x23, x24, [sp, #48]
    23d8:	aa0103f8 	mov	x24, x1
    23dc:	aa0303f7 	mov	x23, x3
    23e0:	a9046bf9 	stp	x25, x26, [sp, #64]
/media/home/beste/01_Pro/ld25x/bsp_hu/MYD-LD25X-Uboot-L2022.10-V1.0.0/GEN_FIP/myir-st-optee/ldelf/ta_elf.c:1220
    23e4:	97ffff58 	bl	2144 <queue_elf>
/media/home/beste/01_Pro/ld25x/bsp_hu/MYD-LD25X-Uboot-L2022.10-V1.0.0/GEN_FIP/myir-st-optee/ldelf/ta_elf.c:1221
    23e8:	f9002bff 	str	xzr, [sp, #80]
/media/home/beste/01_Pro/ld25x/bsp_hu/MYD-LD25X-Uboot-L2022.10-V1.0.0/GEN_FIP/myir-st-optee/ldelf/ta_elf.c:1224
    23ec:	b50000e0 	cbnz	x0, 2408 <ta_elf_load_main+0x48>
/media/home/beste/01_Pro/ld25x/bsp_hu/MYD-LD25X-Uboot-L2022.10-V1.0.0/GEN_FIP/myir-st-optee/ldelf/ta_elf.c:1224 (discriminator 1)
    23f0:	b0000022 	adrp	x2, 7000 <trace_ext_prefix+0x6bc>
    23f4:	90000020 	adrp	x0, 6000 <kprintf.constprop.0+0x68c>
    23f8:	910be842 	add	x2, x2, #0x2fa
    23fc:	913d4000 	add	x0, x0, #0xf50
    2400:	52809901 	mov	w1, #0x4c8                 	// #1224
populate_segments_legacy():
/media/home/beste/01_Pro/ld25x/bsp_hu/MYD-LD25X-Uboot-L2022.10-V1.0.0/GEN_FIP/myir-st-optee/ldelf/ta_elf.c:689
    2404:	97fffa4b 	bl	d30 <_assert_trap.constprop.0>
ta_elf_load_main():
/media/home/beste/01_Pro/ld25x/bsp_hu/MYD-LD25X-Uboot-L2022.10-V1.0.0/GEN_FIP/myir-st-optee/ldelf/ta_elf.c:1225
    2408:	52800021 	mov	w1, #0x1                   	// #1
    240c:	39000001 	strb	w1, [x0]
    2410:	aa0003f3 	mov	x19, x0
load_main():
/media/home/beste/01_Pro/ld25x/bsp_hu/MYD-LD25X-Uboot-L2022.10-V1.0.0/GEN_FIP/myir-st-optee/ldelf/ta_elf.c:1165
    2414:	97fff954 	bl	964 <init_elf>
/media/home/beste/01_Pro/ld25x/bsp_hu/MYD-LD25X-Uboot-L2022.10-V1.0.0/GEN_FIP/myir-st-optee/ldelf/ta_elf.c:1166
    2418:	aa1303e0 	mov	x0, x19
    241c:	97fffc09 	bl	1440 <map_segments>
/media/home/beste/01_Pro/ld25x/bsp_hu/MYD-LD25X-Uboot-L2022.10-V1.0.0/GEN_FIP/myir-st-optee/ldelf/ta_elf.c:1167
    2420:	aa1303e0 	mov	x0, x19
    2424:	97fffadf 	bl	fa0 <populate_segments>
/media/home/beste/01_Pro/ld25x/bsp_hu/MYD-LD25X-Uboot-L2022.10-V1.0.0/GEN_FIP/myir-st-optee/ldelf/ta_elf.c:1168
    2428:	aa1303e0 	mov	x0, x19
    242c:	97ffffc5 	bl	2340 <add_dependencies>
/media/home/beste/01_Pro/ld25x/bsp_hu/MYD-LD25X-Uboot-L2022.10-V1.0.0/GEN_FIP/myir-st-optee/ldelf/ta_elf.c:1169
    2430:	aa1303e0 	mov	x0, x19
    2434:	97fffa96 	bl	e8c <copy_section_headers>
/media/home/beste/01_Pro/ld25x/bsp_hu/MYD-LD25X-Uboot-L2022.10-V1.0.0/GEN_FIP/myir-st-optee/ldelf/ta_elf.c:1170
    2438:	aa1303e0 	mov	x0, x19
    243c:	97fffdb4 	bl	1b0c <save_symtab>
/media/home/beste/01_Pro/ld25x/bsp_hu/MYD-LD25X-Uboot-L2022.10-V1.0.0/GEN_FIP/myir-st-optee/ldelf/ta_elf.c:1171
    2440:	aa1303e0 	mov	x0, x19
    2444:	97fff9f2 	bl	c0c <close_handle>
set_tls_offset():
/media/home/beste/01_Pro/ld25x/bsp_hu/MYD-LD25X-Uboot-L2022.10-V1.0.0/GEN_FIP/myir-st-optee/ldelf/ta_elf.c:1152
    2448:	f9406660 	ldr	x0, [x19, #200]
    244c:	b40000e0 	cbz	x0, 2468 <ta_elf_load_main+0xa8>
/media/home/beste/01_Pro/ld25x/bsp_hu/MYD-LD25X-Uboot-L2022.10-V1.0.0/GEN_FIP/myir-st-optee/ldelf/ta_elf.c:1156
    2450:	d0000021 	adrp	x1, 8000 <_DYNAMIC>
/media/home/beste/01_Pro/ld25x/bsp_hu/MYD-LD25X-Uboot-L2022.10-V1.0.0/GEN_FIP/myir-st-optee/ldelf/ta_elf.c:1157
    2454:	f9406e60 	ldr	x0, [x19, #216]
/media/home/beste/01_Pro/ld25x/bsp_hu/MYD-LD25X-Uboot-L2022.10-V1.0.0/GEN_FIP/myir-st-optee/ldelf/ta_elf.c:1156
    2458:	f940ac22 	ldr	x2, [x1, #344]
    245c:	f9007262 	str	x2, [x19, #224]
/media/home/beste/01_Pro/ld25x/bsp_hu/MYD-LD25X-Uboot-L2022.10-V1.0.0/GEN_FIP/myir-st-optee/ldelf/ta_elf.c:1157
    2460:	8b020000 	add	x0, x0, x2
    2464:	f900ac20 	str	x0, [x1, #344]
load_main():
/media/home/beste/01_Pro/ld25x/bsp_hu/MYD-LD25X-Uboot-L2022.10-V1.0.0/GEN_FIP/myir-st-optee/ldelf/ta_elf.c:1174
    2468:	39400e60 	ldrb	w0, [x19, #3]
    246c:	34000060 	cbz	w0, 2478 <ta_elf_load_main+0xb8>
/media/home/beste/01_Pro/ld25x/bsp_hu/MYD-LD25X-Uboot-L2022.10-V1.0.0/GEN_FIP/myir-st-optee/ldelf/ta_elf.c:1175
    2470:	aa1303e0 	mov	x0, x19
    2474:	97fff91b 	bl	8e0 <ta_elf_add_bti>
/media/home/beste/01_Pro/ld25x/bsp_hu/MYD-LD25X-Uboot-L2022.10-V1.0.0/GEN_FIP/myir-st-optee/ldelf/ta_elf.c:1177
    2478:	f9400660 	ldr	x0, [x19, #8]
    247c:	f9008660 	str	x0, [x19, #264]
/media/home/beste/01_Pro/ld25x/bsp_hu/MYD-LD25X-Uboot-L2022.10-V1.0.0/GEN_FIP/myir-st-optee/ldelf/ta_elf.c:1178
    2480:	f9400c00 	ldr	x0, [x0, #24]
    2484:	b100041f 	cmn	x0, #0x1
    2488:	540015a0 	b.eq	273c <ta_elf_load_main+0x37c>  // b.none
clean_elf_load_main():
/media/home/beste/01_Pro/ld25x/bsp_hu/MYD-LD25X-Uboot-L2022.10-V1.0.0/GEN_FIP/myir-st-optee/ldelf/ta_elf.c:1111
    248c:	f9401260 	ldr	x0, [x19, #32]
    2490:	d2820001 	mov	x1, #0x1000                	// #4096
    2494:	97fff861 	bl	618 <sys_unmap>
    2498:	2a0003f4 	mov	w20, w0
/media/home/beste/01_Pro/ld25x/bsp_hu/MYD-LD25X-Uboot-L2022.10-V1.0.0/GEN_FIP/myir-st-optee/ldelf/ta_elf.c:1112
    249c:	34000560 	cbz	w0, 2548 <ta_elf_load_main+0x188>
/media/home/beste/01_Pro/ld25x/bsp_hu/MYD-LD25X-Uboot-L2022.10-V1.0.0/GEN_FIP/myir-st-optee/ldelf/ta_elf.c:1113
    24a0:	90000024 	adrp	x4, 6000 <kprintf.constprop.0+0x68c>
    24a4:	b0000020 	adrp	x0, 7000 <trace_ext_prefix+0x6bc>
    24a8:	913d5084 	add	x4, x4, #0xf54
    24ac:	910a8000 	add	x0, x0, #0x2a0
    24b0:	52800023 	mov	w3, #0x1                   	// #1
    24b4:	52800022 	mov	w2, #0x1                   	// #1
    24b8:	52808b21 	mov	w1, #0x459                 	// #1113
ta_elf_load_main():
/media/home/beste/01_Pro/ld25x/bsp_hu/MYD-LD25X-Uboot-L2022.10-V1.0.0/GEN_FIP/myir-st-optee/ldelf/ta_elf.c:1232
    24bc:	940010a2 	bl	6744 <trace_printf>
    24c0:	2a1403e0 	mov	w0, w20
    24c4:	14000019 	b	2528 <ta_elf_load_main+0x168>
clean_elf_load_main():
/media/home/beste/01_Pro/ld25x/bsp_hu/MYD-LD25X-Uboot-L2022.10-V1.0.0/GEN_FIP/myir-st-optee/ldelf/ta_elf.c:1120
    24c8:	f9400660 	ldr	x0, [x19, #8]
    24cc:	f9400682 	ldr	x2, [x20, #8]
/media/home/beste/01_Pro/ld25x/bsp_hu/MYD-LD25X-Uboot-L2022.10-V1.0.0/GEN_FIP/myir-st-optee/ldelf/ta_elf.c:1121
    24d0:	3940c283 	ldrb	w3, [x20, #48]
/media/home/beste/01_Pro/ld25x/bsp_hu/MYD-LD25X-Uboot-L2022.10-V1.0.0/GEN_FIP/myir-st-optee/ldelf/ta_elf.c:1120
    24d4:	8b000040 	add	x0, x2, x0
/media/home/beste/01_Pro/ld25x/bsp_hu/MYD-LD25X-Uboot-L2022.10-V1.0.0/GEN_FIP/myir-st-optee/ldelf/ta_elf.c:1122
    24d8:	f9400e81 	ldr	x1, [x20, #24]
rounddown():
/media/home/beste/01_Pro/ld25x/bsp_hu/MYD-LD25X-Uboot-L2022.10-V1.0.0/GEN_FIP/myir-st-optee/ldelf/ta_elf.c:497
    24dc:	9274cc00 	and	x0, x0, #0xfffffffffffff000
clean_elf_load_main():
/media/home/beste/01_Pro/ld25x/bsp_hu/MYD-LD25X-Uboot-L2022.10-V1.0.0/GEN_FIP/myir-st-optee/ldelf/ta_elf.c:1121
    24e0:	340000c3 	cbz	w3, 24f8 <ta_elf_load_main+0x138>
/media/home/beste/01_Pro/ld25x/bsp_hu/MYD-LD25X-Uboot-L2022.10-V1.0.0/GEN_FIP/myir-st-optee/ldelf/ta_elf.c:1122
    24e4:	8b010041 	add	x1, x2, x1
rounddown():
/media/home/beste/01_Pro/ld25x/bsp_hu/MYD-LD25X-Uboot-L2022.10-V1.0.0/GEN_FIP/myir-st-optee/ldelf/ta_elf.c:497
    24e8:	9274cc42 	and	x2, x2, #0xfffffffffffff000
roundup():
/media/home/beste/01_Pro/ld25x/bsp_hu/MYD-LD25X-Uboot-L2022.10-V1.0.0/GEN_FIP/myir-st-optee/ldelf/ta_elf.c:492
    24ec:	913ffc21 	add	x1, x1, #0xfff
    24f0:	9274cc21 	and	x1, x1, #0xfffffffffffff000
clean_elf_load_main():
/media/home/beste/01_Pro/ld25x/bsp_hu/MYD-LD25X-Uboot-L2022.10-V1.0.0/GEN_FIP/myir-st-optee/ldelf/ta_elf.c:1122
    24f4:	cb020021 	sub	x1, x1, x2
/media/home/beste/01_Pro/ld25x/bsp_hu/MYD-LD25X-Uboot-L2022.10-V1.0.0/GEN_FIP/myir-st-optee/ldelf/ta_elf.c:1127
    24f8:	97fff848 	bl	618 <sys_unmap>
    24fc:	2a0003f5 	mov	w21, w0
/media/home/beste/01_Pro/ld25x/bsp_hu/MYD-LD25X-Uboot-L2022.10-V1.0.0/GEN_FIP/myir-st-optee/ldelf/ta_elf.c:1128
    2500:	34000160 	cbz	w0, 252c <ta_elf_load_main+0x16c>
/media/home/beste/01_Pro/ld25x/bsp_hu/MYD-LD25X-Uboot-L2022.10-V1.0.0/GEN_FIP/myir-st-optee/ldelf/ta_elf.c:1129
    2504:	90000024 	adrp	x4, 6000 <kprintf.constprop.0+0x68c>
    2508:	52800023 	mov	w3, #0x1                   	// #1
    250c:	913d5084 	add	x4, x4, #0xf54
    2510:	52800022 	mov	w2, #0x1                   	// #1
    2514:	52808d21 	mov	w1, #0x469                 	// #1129
    2518:	b0000020 	adrp	x0, 7000 <trace_ext_prefix+0x6bc>
    251c:	910a8000 	add	x0, x0, #0x2a0
    2520:	94001089 	bl	6744 <trace_printf>
    2524:	2a1503e0 	mov	w0, w21
ta_elf_load_main():
/media/home/beste/01_Pro/ld25x/bsp_hu/MYD-LD25X-Uboot-L2022.10-V1.0.0/GEN_FIP/myir-st-optee/ldelf/ta_elf.c:1235
    2528:	97fff70b 	bl	154 <_ldelf_return>
clean_elf_load_main():
/media/home/beste/01_Pro/ld25x/bsp_hu/MYD-LD25X-Uboot-L2022.10-V1.0.0/GEN_FIP/myir-st-optee/ldelf/ta_elf.c:1131
    252c:	a9438680 	ldp	x0, x1, [x20, #56]
    2530:	b40003e0 	cbz	x0, 25ac <ta_elf_load_main+0x1ec>
    2534:	f9002001 	str	x1, [x0, #64]
    2538:	f9402281 	ldr	x1, [x20, #64]
    253c:	f9000020 	str	x0, [x1]
/media/home/beste/01_Pro/ld25x/bsp_hu/MYD-LD25X-Uboot-L2022.10-V1.0.0/GEN_FIP/myir-st-optee/ldelf/ta_elf.c:1132
    2540:	aa1403e0 	mov	x0, x20
    2544:	94000c64 	bl	56d4 <free>
/media/home/beste/01_Pro/ld25x/bsp_hu/MYD-LD25X-Uboot-L2022.10-V1.0.0/GEN_FIP/myir-st-optee/ldelf/ta_elf.c:1115
    2548:	f9405274 	ldr	x20, [x19, #160]
    254c:	b5fffbf4 	cbnz	x20, 24c8 <ta_elf_load_main+0x108>
/media/home/beste/01_Pro/ld25x/bsp_hu/MYD-LD25X-Uboot-L2022.10-V1.0.0/GEN_FIP/myir-st-optee/ldelf/ta_elf.c:1135
    2550:	f9402e60 	ldr	x0, [x19, #88]
    2554:	94000c60 	bl	56d4 <free>
/media/home/beste/01_Pro/ld25x/bsp_hu/MYD-LD25X-Uboot-L2022.10-V1.0.0/GEN_FIP/myir-st-optee/ldelf/ta_elf.c:1136
    2558:	d28021e2 	mov	x2, #0x10f                 	// #271
    255c:	52800001 	mov	w1, #0x0                   	// #0
    2560:	91000660 	add	x0, x19, #0x1
    2564:	94000c96 	bl	57bc <memset>
/media/home/beste/01_Pro/ld25x/bsp_hu/MYD-LD25X-Uboot-L2022.10-V1.0.0/GEN_FIP/myir-st-optee/ldelf/ta_elf.c:1139
    2568:	91028260 	add	x0, x19, #0xa0
    256c:	f9005660 	str	x0, [x19, #168]
load_main():
/media/home/beste/01_Pro/ld25x/bsp_hu/MYD-LD25X-Uboot-L2022.10-V1.0.0/GEN_FIP/myir-st-optee/ldelf/ta_elf.c:1196
    2570:	52800020 	mov	w0, #0x1                   	// #1
    2574:	39000a60 	strb	w0, [x19, #2]
/media/home/beste/01_Pro/ld25x/bsp_hu/MYD-LD25X-Uboot-L2022.10-V1.0.0/GEN_FIP/myir-st-optee/ldelf/ta_elf.c:1197
    2578:	aa1303e0 	mov	x0, x19
    257c:	97fff8fa 	bl	964 <init_elf>
/media/home/beste/01_Pro/ld25x/bsp_hu/MYD-LD25X-Uboot-L2022.10-V1.0.0/GEN_FIP/myir-st-optee/ldelf/ta_elf.c:1198
    2580:	aa1303e0 	mov	x0, x19
    2584:	97fffbaf 	bl	1440 <map_segments>
populate_segments_legacy():
/media/home/beste/01_Pro/ld25x/bsp_hu/MYD-LD25X-Uboot-L2022.10-V1.0.0/GEN_FIP/myir-st-optee/ldelf/ta_elf.c:689
    2588:	39400a60 	ldrb	w0, [x19, #2]
/media/home/beste/01_Pro/ld25x/bsp_hu/MYD-LD25X-Uboot-L2022.10-V1.0.0/GEN_FIP/myir-st-optee/ldelf/ta_elf.c:687
    258c:	f9002fff 	str	xzr, [sp, #88]
/media/home/beste/01_Pro/ld25x/bsp_hu/MYD-LD25X-Uboot-L2022.10-V1.0.0/GEN_FIP/myir-st-optee/ldelf/ta_elf.c:689
    2590:	35000120 	cbnz	w0, 25b4 <ta_elf_load_main+0x1f4>
    2594:	b0000022 	adrp	x2, 7000 <trace_ext_prefix+0x6bc>
    2598:	90000020 	adrp	x0, 6000 <kprintf.constprop.0+0x68c>
    259c:	91090c42 	add	x2, x2, #0x243
    25a0:	912cf400 	add	x0, x0, #0xb3d
    25a4:	52805621 	mov	w1, #0x2b1                 	// #689
    25a8:	17ffff97 	b	2404 <ta_elf_load_main+0x44>
clean_elf_load_main():
/media/home/beste/01_Pro/ld25x/bsp_hu/MYD-LD25X-Uboot-L2022.10-V1.0.0/GEN_FIP/myir-st-optee/ldelf/ta_elf.c:1131
    25ac:	f9005661 	str	x1, [x19, #168]
    25b0:	17ffffe2 	b	2538 <ta_elf_load_main+0x178>
populate_segments_legacy():
/media/home/beste/01_Pro/ld25x/bsp_hu/MYD-LD25X-Uboot-L2022.10-V1.0.0/GEN_FIP/myir-st-optee/ldelf/ta_elf.c:690
    25b4:	f9405274 	ldr	x20, [x19, #160]
/media/home/beste/01_Pro/ld25x/bsp_hu/MYD-LD25X-Uboot-L2022.10-V1.0.0/GEN_FIP/myir-st-optee/ldelf/ta_elf.c:706
    25b8:	910163f9 	add	x25, sp, #0x58
/media/home/beste/01_Pro/ld25x/bsp_hu/MYD-LD25X-Uboot-L2022.10-V1.0.0/GEN_FIP/myir-st-optee/ldelf/ta_elf.c:690
    25bc:	b5000334 	cbnz	x20, 2620 <ta_elf_load_main+0x260>
load_main():
/media/home/beste/01_Pro/ld25x/bsp_hu/MYD-LD25X-Uboot-L2022.10-V1.0.0/GEN_FIP/myir-st-optee/ldelf/ta_elf.c:1200
    25c0:	aa1303e0 	mov	x0, x19
    25c4:	97ffff5f 	bl	2340 <add_dependencies>
/media/home/beste/01_Pro/ld25x/bsp_hu/MYD-LD25X-Uboot-L2022.10-V1.0.0/GEN_FIP/myir-st-optee/ldelf/ta_elf.c:1201
    25c8:	aa1303e0 	mov	x0, x19
    25cc:	97fffa30 	bl	e8c <copy_section_headers>
/media/home/beste/01_Pro/ld25x/bsp_hu/MYD-LD25X-Uboot-L2022.10-V1.0.0/GEN_FIP/myir-st-optee/ldelf/ta_elf.c:1202
    25d0:	aa1303e0 	mov	x0, x19
    25d4:	97fffd4e 	bl	1b0c <save_symtab>
/media/home/beste/01_Pro/ld25x/bsp_hu/MYD-LD25X-Uboot-L2022.10-V1.0.0/GEN_FIP/myir-st-optee/ldelf/ta_elf.c:1203
    25d8:	aa1303e0 	mov	x0, x19
    25dc:	97fff98c 	bl	c0c <close_handle>
/media/home/beste/01_Pro/ld25x/bsp_hu/MYD-LD25X-Uboot-L2022.10-V1.0.0/GEN_FIP/myir-st-optee/ldelf/ta_elf.c:1204
    25e0:	f9400660 	ldr	x0, [x19, #8]
    25e4:	f9008660 	str	x0, [x19, #264]
/media/home/beste/01_Pro/ld25x/bsp_hu/MYD-LD25X-Uboot-L2022.10-V1.0.0/GEN_FIP/myir-st-optee/ldelf/ta_elf.c:1209
    25e8:	f9400c00 	ldr	x0, [x0, #24]
    25ec:	b100041f 	cmn	x0, #0x1
    25f0:	54000a61 	b.ne	273c <ta_elf_load_main+0x37c>  // b.any
/media/home/beste/01_Pro/ld25x/bsp_hu/MYD-LD25X-Uboot-L2022.10-V1.0.0/GEN_FIP/myir-st-optee/ldelf/ta_elf.c:1210
    25f4:	91044265 	add	x5, x19, #0x110
    25f8:	90000024 	adrp	x4, 6000 <kprintf.constprop.0+0x68c>
    25fc:	52800023 	mov	w3, #0x1                   	// #1
    2600:	913d7884 	add	x4, x4, #0xf5e
    2604:	52800022 	mov	w2, #0x1                   	// #1
    2608:	52809741 	mov	w1, #0x4ba                 	// #1210
    260c:	b0000020 	adrp	x0, 7000 <trace_ext_prefix+0x6bc>
    2610:	910b9800 	add	x0, x0, #0x2e6
    2614:	9400104c 	bl	6744 <trace_printf>
    2618:	d2bfffe0 	mov	x0, #0xffff0000            	// #4294901760
    261c:	17ffffc3 	b	2528 <ta_elf_load_main+0x168>
populate_segments_legacy():
/media/home/beste/01_Pro/ld25x/bsp_hu/MYD-LD25X-Uboot-L2022.10-V1.0.0/GEN_FIP/myir-st-optee/ldelf/ta_elf.c:691
    2620:	f9405660 	ldr	x0, [x19, #168]
/media/home/beste/01_Pro/ld25x/bsp_hu/MYD-LD25X-Uboot-L2022.10-V1.0.0/GEN_FIP/myir-st-optee/ldelf/ta_elf.c:693
    2624:	f9400681 	ldr	x1, [x20, #8]
/media/home/beste/01_Pro/ld25x/bsp_hu/MYD-LD25X-Uboot-L2022.10-V1.0.0/GEN_FIP/myir-st-optee/ldelf/ta_elf.c:691
    2628:	f9400400 	ldr	x0, [x0, #8]
/media/home/beste/01_Pro/ld25x/bsp_hu/MYD-LD25X-Uboot-L2022.10-V1.0.0/GEN_FIP/myir-st-optee/ldelf/ta_elf.c:693
    262c:	f9400e95 	ldr	x21, [x20, #24]
/media/home/beste/01_Pro/ld25x/bsp_hu/MYD-LD25X-Uboot-L2022.10-V1.0.0/GEN_FIP/myir-st-optee/ldelf/ta_elf.c:691
    2630:	f9400000 	ldr	x0, [x0]
roundup():
/media/home/beste/01_Pro/ld25x/bsp_hu/MYD-LD25X-Uboot-L2022.10-V1.0.0/GEN_FIP/myir-st-optee/ldelf/ta_elf.c:492
    2634:	f9400404 	ldr	x4, [x0, #8]
    2638:	f9400c00 	ldr	x0, [x0, #24]
    263c:	8b000084 	add	x4, x4, x0
    2640:	8b150020 	add	x0, x1, x21
    2644:	cb000084 	sub	x4, x4, x0
    2648:	913ffeb5 	add	x21, x21, #0xfff
populate_segments_legacy():
/media/home/beste/01_Pro/ld25x/bsp_hu/MYD-LD25X-Uboot-L2022.10-V1.0.0/GEN_FIP/myir-st-optee/ldelf/ta_elf.c:696
    264c:	f9400660 	ldr	x0, [x19, #8]
roundup():
/media/home/beste/01_Pro/ld25x/bsp_hu/MYD-LD25X-Uboot-L2022.10-V1.0.0/GEN_FIP/myir-st-optee/ldelf/ta_elf.c:492
    2650:	913ffc84 	add	x4, x4, #0xfff
    2654:	9274cc84 	and	x4, x4, #0xfffffffffffff000
    2658:	9274ceb5 	and	x21, x21, #0xfffffffffffff000
populate_segments_legacy():
/media/home/beste/01_Pro/ld25x/bsp_hu/MYD-LD25X-Uboot-L2022.10-V1.0.0/GEN_FIP/myir-st-optee/ldelf/ta_elf.c:696
    265c:	b4000040 	cbz	x0, 2664 <ta_elf_load_main+0x2a4>
/media/home/beste/01_Pro/ld25x/bsp_hu/MYD-LD25X-Uboot-L2022.10-V1.0.0/GEN_FIP/myir-st-optee/ldelf/ta_elf.c:699
    2660:	8b010000 	add	x0, x0, x1
    2664:	f9002fe0 	str	x0, [sp, #88]
/media/home/beste/01_Pro/ld25x/bsp_hu/MYD-LD25X-Uboot-L2022.10-V1.0.0/GEN_FIP/myir-st-optee/ldelf/ta_elf.c:702
    2668:	f9401280 	ldr	x0, [x20, #32]
    266c:	37100160 	tbnz	w0, #2, 2698 <ta_elf_load_main+0x2d8>
/media/home/beste/01_Pro/ld25x/bsp_hu/MYD-LD25X-Uboot-L2022.10-V1.0.0/GEN_FIP/myir-st-optee/ldelf/ta_elf.c:703
    2670:	90000024 	adrp	x4, 6000 <kprintf.constprop.0+0x68c>
    2674:	52800023 	mov	w3, #0x1                   	// #1
    2678:	912e1084 	add	x4, x4, #0xb84
    267c:	52800022 	mov	w2, #0x1                   	// #1
    2680:	528057e1 	mov	w1, #0x2bf                 	// #703
    2684:	b0000020 	adrp	x0, 7000 <trace_ext_prefix+0x6bc>
    2688:	91090c00 	add	x0, x0, #0x243
    268c:	9400102e 	bl	6744 <trace_printf>
    2690:	129ffea0 	mov	w0, #0xffff000a            	// #-65526
    2694:	17ffffa5 	b	2528 <ta_elf_load_main+0x168>
/media/home/beste/01_Pro/ld25x/bsp_hu/MYD-LD25X-Uboot-L2022.10-V1.0.0/GEN_FIP/myir-st-optee/ldelf/ta_elf.c:706
    2698:	aa1903e2 	mov	x2, x25
    269c:	aa1503e0 	mov	x0, x21
    26a0:	d2800003 	mov	x3, #0x0                   	// #0
    26a4:	52800001 	mov	w1, #0x0                   	// #0
    26a8:	97fff7d5 	bl	5fc <sys_map_zi>
    26ac:	2a0003fa 	mov	w26, w0
/media/home/beste/01_Pro/ld25x/bsp_hu/MYD-LD25X-Uboot-L2022.10-V1.0.0/GEN_FIP/myir-st-optee/ldelf/ta_elf.c:707
    26b0:	34000160 	cbz	w0, 26dc <ta_elf_load_main+0x31c>
/media/home/beste/01_Pro/ld25x/bsp_hu/MYD-LD25X-Uboot-L2022.10-V1.0.0/GEN_FIP/myir-st-optee/ldelf/ta_elf.c:708
    26b4:	90000024 	adrp	x4, 6000 <kprintf.constprop.0+0x68c>
    26b8:	912dbc84 	add	x4, x4, #0xb6f
    26bc:	52800023 	mov	w3, #0x1                   	// #1
    26c0:	52800022 	mov	w2, #0x1                   	// #1
    26c4:	52805881 	mov	w1, #0x2c4                 	// #708
/media/home/beste/01_Pro/ld25x/bsp_hu/MYD-LD25X-Uboot-L2022.10-V1.0.0/GEN_FIP/myir-st-optee/ldelf/ta_elf.c:712
    26c8:	b0000020 	adrp	x0, 7000 <trace_ext_prefix+0x6bc>
    26cc:	91090c00 	add	x0, x0, #0x243
    26d0:	9400101d 	bl	6744 <trace_printf>
    26d4:	2a1a03e0 	mov	w0, w26
    26d8:	17ffff94 	b	2528 <ta_elf_load_main+0x168>
/media/home/beste/01_Pro/ld25x/bsp_hu/MYD-LD25X-Uboot-L2022.10-V1.0.0/GEN_FIP/myir-st-optee/ldelf/ta_elf.c:709
    26dc:	f9400283 	ldr	x3, [x20]
    26e0:	f9400a81 	ldr	x1, [x20, #16]
    26e4:	f9402fe0 	ldr	x0, [sp, #88]
    26e8:	b9410262 	ldr	w2, [x19, #256]
    26ec:	97fff7d8 	bl	64c <sys_copy_from_ta_bin>
    26f0:	2a0003fa 	mov	w26, w0
/media/home/beste/01_Pro/ld25x/bsp_hu/MYD-LD25X-Uboot-L2022.10-V1.0.0/GEN_FIP/myir-st-optee/ldelf/ta_elf.c:711
    26f4:	340000e0 	cbz	w0, 2710 <ta_elf_load_main+0x350>
/media/home/beste/01_Pro/ld25x/bsp_hu/MYD-LD25X-Uboot-L2022.10-V1.0.0/GEN_FIP/myir-st-optee/ldelf/ta_elf.c:712
    26f8:	90000024 	adrp	x4, 6000 <kprintf.constprop.0+0x68c>
    26fc:	52800023 	mov	w3, #0x1                   	// #1
    2700:	912c9c84 	add	x4, x4, #0xb27
    2704:	52800022 	mov	w2, #0x1                   	// #1
    2708:	52805901 	mov	w1, #0x2c8                 	// #712
    270c:	17ffffef 	b	26c8 <ta_elf_load_main+0x308>
/media/home/beste/01_Pro/ld25x/bsp_hu/MYD-LD25X-Uboot-L2022.10-V1.0.0/GEN_FIP/myir-st-optee/ldelf/ta_elf.c:714
    2710:	f9400661 	ldr	x1, [x19, #8]
/media/home/beste/01_Pro/ld25x/bsp_hu/MYD-LD25X-Uboot-L2022.10-V1.0.0/GEN_FIP/myir-st-optee/ldelf/ta_elf.c:715
    2714:	f9402fe0 	ldr	x0, [sp, #88]
/media/home/beste/01_Pro/ld25x/bsp_hu/MYD-LD25X-Uboot-L2022.10-V1.0.0/GEN_FIP/myir-st-optee/ldelf/ta_elf.c:714
    2718:	b5000041 	cbnz	x1, 2720 <ta_elf_load_main+0x360>
/media/home/beste/01_Pro/ld25x/bsp_hu/MYD-LD25X-Uboot-L2022.10-V1.0.0/GEN_FIP/myir-st-optee/ldelf/ta_elf.c:715
    271c:	f9000660 	str	x0, [x19, #8]
/media/home/beste/01_Pro/ld25x/bsp_hu/MYD-LD25X-Uboot-L2022.10-V1.0.0/GEN_FIP/myir-st-optee/ldelf/ta_elf.c:717
    2720:	f9400a81 	ldr	x1, [x20, #16]
/media/home/beste/01_Pro/ld25x/bsp_hu/MYD-LD25X-Uboot-L2022.10-V1.0.0/GEN_FIP/myir-st-optee/ldelf/ta_elf.c:716
    2724:	8b0002b5 	add	x21, x21, x0
/media/home/beste/01_Pro/ld25x/bsp_hu/MYD-LD25X-Uboot-L2022.10-V1.0.0/GEN_FIP/myir-st-optee/ldelf/ta_elf.c:717
    2728:	f9400280 	ldr	x0, [x20]
/media/home/beste/01_Pro/ld25x/bsp_hu/MYD-LD25X-Uboot-L2022.10-V1.0.0/GEN_FIP/myir-st-optee/ldelf/ta_elf.c:690
    272c:	f9401e94 	ldr	x20, [x20, #56]
/media/home/beste/01_Pro/ld25x/bsp_hu/MYD-LD25X-Uboot-L2022.10-V1.0.0/GEN_FIP/myir-st-optee/ldelf/ta_elf.c:717
    2730:	8b010000 	add	x0, x0, x1
    2734:	a9010275 	stp	x21, x0, [x19, #16]
/media/home/beste/01_Pro/ld25x/bsp_hu/MYD-LD25X-Uboot-L2022.10-V1.0.0/GEN_FIP/myir-st-optee/ldelf/ta_elf.c:690
    2738:	17ffffa1 	b	25bc <ta_elf_load_main+0x1fc>
ta_elf_load_main():
/media/home/beste/01_Pro/ld25x/bsp_hu/MYD-LD25X-Uboot-L2022.10-V1.0.0/GEN_FIP/myir-st-optee/ldelf/ta_elf.c:1229
    273c:	39400660 	ldrb	w0, [x19, #1]
/media/home/beste/01_Pro/ld25x/bsp_hu/MYD-LD25X-Uboot-L2022.10-V1.0.0/GEN_FIP/myir-st-optee/ldelf/ta_elf.c:1230
    2740:	910143e2 	add	x2, sp, #0x50
/media/home/beste/01_Pro/ld25x/bsp_hu/MYD-LD25X-Uboot-L2022.10-V1.0.0/GEN_FIP/myir-st-optee/ldelf/ta_elf.c:1229
    2744:	b9000300 	str	w0, [x24]
/media/home/beste/01_Pro/ld25x/bsp_hu/MYD-LD25X-Uboot-L2022.10-V1.0.0/GEN_FIP/myir-st-optee/ldelf/ta_elf.c:1230
    2748:	d2800004 	mov	x4, #0x0                   	// #0
    274c:	f9408660 	ldr	x0, [x19, #264]
    2750:	d2800003 	mov	x3, #0x0                   	// #0
    2754:	52800001 	mov	w1, #0x0                   	// #0
    2758:	b9401000 	ldr	w0, [x0, #16]
    275c:	97fff7a8 	bl	5fc <sys_map_zi>
    2760:	2a0003f4 	mov	w20, w0
/media/home/beste/01_Pro/ld25x/bsp_hu/MYD-LD25X-Uboot-L2022.10-V1.0.0/GEN_FIP/myir-st-optee/ldelf/ta_elf.c:1231
    2764:	34000120 	cbz	w0, 2788 <ta_elf_load_main+0x3c8>
/media/home/beste/01_Pro/ld25x/bsp_hu/MYD-LD25X-Uboot-L2022.10-V1.0.0/GEN_FIP/myir-st-optee/ldelf/ta_elf.c:1232
    2768:	90000024 	adrp	x4, 6000 <kprintf.constprop.0+0x68c>
    276c:	b0000020 	adrp	x0, 7000 <trace_ext_prefix+0x6bc>
    2770:	913e2084 	add	x4, x4, #0xf88
    2774:	910be800 	add	x0, x0, #0x2fa
    2778:	52800023 	mov	w3, #0x1                   	// #1
    277c:	52800022 	mov	w2, #0x1                   	// #1
    2780:	52809a01 	mov	w1, #0x4d0                 	// #1232
    2784:	17ffff4e 	b	24bc <ta_elf_load_main+0xfc>
/media/home/beste/01_Pro/ld25x/bsp_hu/MYD-LD25X-Uboot-L2022.10-V1.0.0/GEN_FIP/myir-st-optee/ldelf/ta_elf.c:1234
    2788:	f9408660 	ldr	x0, [x19, #264]
    278c:	b9401405 	ldr	w5, [x0, #20]
    2790:	711ffcbf 	cmp	w5, #0x7ff
    2794:	54000189 	b.ls	27c4 <ta_elf_load_main+0x404>  // b.plast
/media/home/beste/01_Pro/ld25x/bsp_hu/MYD-LD25X-Uboot-L2022.10-V1.0.0/GEN_FIP/myir-st-optee/ldelf/ta_elf.c:1235
    2798:	121550a5 	and	w5, w5, #0xfffff800
    279c:	90000024 	adrp	x4, 6000 <kprintf.constprop.0+0x68c>
    27a0:	52800023 	mov	w3, #0x1                   	// #1
    27a4:	913e6484 	add	x4, x4, #0xf99
    27a8:	52800022 	mov	w2, #0x1                   	// #1
    27ac:	52809a61 	mov	w1, #0x4d3                 	// #1235
    27b0:	b0000020 	adrp	x0, 7000 <trace_ext_prefix+0x6bc>
    27b4:	910be800 	add	x0, x0, #0x2fa
    27b8:	94000fe3 	bl	6744 <trace_printf>
    27bc:	129fff40 	mov	w0, #0xffff0005            	// #-65531
    27c0:	17ffff5a 	b	2528 <ta_elf_load_main+0x168>
/media/home/beste/01_Pro/ld25x/bsp_hu/MYD-LD25X-Uboot-L2022.10-V1.0.0/GEN_FIP/myir-st-optee/ldelf/ta_elf.c:1242
    27c4:	a94153f3 	ldp	x19, x20, [sp, #16]
    27c8:	a9446bf9 	ldp	x25, x26, [sp, #64]
/media/home/beste/01_Pro/ld25x/bsp_hu/MYD-LD25X-Uboot-L2022.10-V1.0.0/GEN_FIP/myir-st-optee/ldelf/ta_elf.c:1238
    27cc:	b90002e5 	str	w5, [x23]
/media/home/beste/01_Pro/ld25x/bsp_hu/MYD-LD25X-Uboot-L2022.10-V1.0.0/GEN_FIP/myir-st-optee/ldelf/ta_elf.c:1239
    27d0:	f9402be1 	ldr	x1, [sp, #80]
    27d4:	b9401000 	ldr	w0, [x0, #16]
