
/media/home/beste/01_Pro/ld25x/bsp_hu/MYD-LD25X-Uboot-L2022.10-V1.0.0/GEN_FIP/myir-st-optee/../build/myb-stm32mp257x-2GB/ta/pkcs11/fd02c9da-306c-48c7-a49c-bbd827ae86ee.elf:     file format elf64-littleaarch64
/media/home/beste/01_Pro/ld25x/bsp_hu/MYD-LD25X-Uboot-L2022.10-V1.0.0/GEN_FIP/myir-st-optee/../build/myb-stm32mp257x-2GB/ta/pkcs11/fd02c9da-306c-48c7-a49c-bbd827ae86ee.elf
architecture: aarch64, flags 0x00000150:
HAS_SYMS, DYNAMIC, D_PAGED
start address 0x000000000000f0fc

Program Header:
    LOAD off    0x0000000000001000 vaddr 0x0000000000000000 paddr 0x0000000000000000 align 2**12
         filesz 0x000000000002b310 memsz 0x000000000002b310 flags r-x
    LOAD off    0x000000000002d000 vaddr 0x000000000002c000 paddr 0x000000000002c000 align 2**12
         filesz 0x0000000000002104 memsz 0x000000000000d220 flags rw-
 DYNAMIC off    0x000000000002d000 vaddr 0x000000000002c000 paddr 0x000000000002c000 align 2**3
         filesz 0x0000000000000110 memsz 0x0000000000000110 flags rw-
   STACK off    0x0000000000000000 vaddr 0x0000000000000000 paddr 0x0000000000000000 align 2**4
         filesz 0x0000000000000000 memsz 0x0000000000000000 flags rw-

Dynamic Section:
  HASH                 0x0000000000028d00
  GNU_HASH             0x0000000000028c10
  STRTAB               0x0000000000028cd0
  SYMTAB               0x0000000000028c40
  STRSZ                0x000000000000002e
  SYMENT               0x0000000000000018
  DEBUG                0x0000000000000000
  RELA                 0x0000000000028d30
  RELASZ               0x00000000000027f0
  RELAENT              0x0000000000000018
  FLAGS_1              0x0000000008000000
  RELACOUNT            0x0000000000000194
private flags = 0x0:

Sections:
Idx Name          Size      VMA               LMA               File off  Algn
  0 .ta_head      00000020  0000000000000000  0000000000000000  00001000  2**3
                  CONTENTS, ALLOC, LOAD, READONLY, DATA
  1 .text         0001dbc8  0000000000000020  0000000000000020  00001020  2**4
                  CONTENTS, ALLOC, LOAD, READONLY, CODE
  2 .eh_frame     000053f0  000000000001dbe8  000000000001dbe8  0001ebe8  2**3
                  CONTENTS, ALLOC, LOAD, READONLY, DATA
  3 .rodata       00005c32  0000000000022fd8  0000000000022fd8  00023fd8  2**3
                  CONTENTS, ALLOC, LOAD, READONLY, DATA
  4 .gnu.hash     00000030  0000000000028c10  0000000000028c10  00029c10  2**3
                  CONTENTS, ALLOC, LOAD, READONLY, DATA
  5 .dynsym       00000090  0000000000028c40  0000000000028c40  00029c40  2**3
                  CONTENTS, ALLOC, LOAD, READONLY, DATA
  6 .dynstr       0000002e  0000000000028cd0  0000000000028cd0  00029cd0  2**0
                  CONTENTS, ALLOC, LOAD, READONLY, DATA
  7 .hash         0000002c  0000000000028d00  0000000000028d00  00029d00  2**3
                  CONTENTS, ALLOC, LOAD, READONLY, DATA
  8 .rela.dyn     000025e0  0000000000028d30  0000000000028d30  00029d30  2**3
                  CONTENTS, ALLOC, LOAD, READONLY, DATA
  9 .dynamic      00000110  000000000002c000  000000000002c000  0002d000  2**3
                  CONTENTS, ALLOC, LOAD, DATA
 10 .got          000000d0  000000000002c110  000000000002c110  0002d110  2**3
                  CONTENTS, ALLOC, LOAD, DATA
 11 .rela.got     00000210  000000000002c1e0  000000000002c1e0  0002d1e0  2**3
                  CONTENTS, ALLOC, LOAD, READONLY, DATA
 12 .data         00001d14  000000000002c3f0  000000000002c3f0  0002d3f0  2**3
                  CONTENTS, ALLOC, LOAD, DATA
 13 .bss          0000b118  000000000002e108  000000000002e108  0002f104  2**3
                  ALLOC
 14 .debug_info   00045682  0000000000000000  0000000000000000  0002f104  2**0
                  CONTENTS, READONLY, DEBUGGING, OCTETS
 15 .debug_abbrev 000092d7  0000000000000000  0000000000000000  00074786  2**0
                  CONTENTS, READONLY, DEBUGGING, OCTETS
 16 .debug_loclists 00021cb3  0000000000000000  0000000000000000  0007da5d  2**0
                  CONTENTS, READONLY, DEBUGGING, OCTETS
 17 .debug_aranges 00000e00  0000000000000000  0000000000000000  0009f710  2**4
                  CONTENTS, READONLY, DEBUGGING, OCTETS
 18 .debug_rnglists 00001206  0000000000000000  0000000000000000  000a0510  2**0
                  CONTENTS, READONLY, DEBUGGING, OCTETS
 19 .debug_macro  00029eef  0000000000000000  0000000000000000  000a1716  2**0
                  CONTENTS, READONLY, DEBUGGING, OCTETS
 20 .debug_line   00019ff1  0000000000000000  0000000000000000  000cb605  2**0
                  CONTENTS, READONLY, DEBUGGING, OCTETS
 21 .debug_str    00021d3c  0000000000000000  0000000000000000  000e55f6  2**0
                  CONTENTS, READONLY, DEBUGGING, OCTETS
 22 .debug_line_str 00000fb3  0000000000000000  0000000000000000  00107332  2**0
                  CONTENTS, READONLY, DEBUGGING, OCTETS
 23 .comment      00000012  0000000000000000  0000000000000000  001082e5  2**0
                  CONTENTS, READONLY
SYMBOL TABLE:
0000000000000000 l    d  .ta_head	0000000000000000 .ta_head
0000000000000020 l    d  .text	0000000000000000 .text
000000000001dbe8 l    d  .eh_frame	0000000000000000 .eh_frame
0000000000022fd8 l    d  .rodata	0000000000000000 .rodata
0000000000028c10 l    d  .gnu.hash	0000000000000000 .gnu.hash
0000000000028c40 l    d  .dynsym	0000000000000000 .dynsym
0000000000028cd0 l    d  .dynstr	0000000000000000 .dynstr
0000000000028d00 l    d  .hash	0000000000000000 .hash
0000000000028d30 l    d  .rela.dyn	0000000000000000 .rela.dyn
000000000002c000 l    d  .dynamic	0000000000000000 .dynamic
000000000002c110 l    d  .got	0000000000000000 .got
000000000002c1e0 l    d  .rela.got	0000000000000000 .rela.got
000000000002c3f0 l    d  .data	0000000000000000 .data
000000000002e108 l    d  .bss	0000000000000000 .bss
0000000000000000 l    d  .debug_info	0000000000000000 .debug_info
0000000000000000 l    d  .debug_abbrev	0000000000000000 .debug_abbrev
0000000000000000 l    d  .debug_loclists	0000000000000000 .debug_loclists
0000000000000000 l    d  .debug_aranges	0000000000000000 .debug_aranges
0000000000000000 l    d  .debug_rnglists	0000000000000000 .debug_rnglists
0000000000000000 l    d  .debug_macro	0000000000000000 .debug_macro
0000000000000000 l    d  .debug_line	0000000000000000 .debug_line
0000000000000000 l    d  .debug_str	0000000000000000 .debug_str
0000000000000000 l    d  .debug_line_str	0000000000000000 .debug_line_str
0000000000000000 l    d  .comment	0000000000000000 .comment
0000000000000000 l    df *ABS*	0000000000000000 user_ta_header.c
0000000000022fe0 l     O .rodata	0000000000000004 __compound_literal.4
0000000000022fe4 l     O .rodata	0000000000000004 __compound_literal.3
0000000000022fe8 l     O .rodata	0000000000000001 __compound_literal.2
0000000000022fe9 l     O .rodata	0000000000000001 __compound_literal.1
0000000000022fea l     O .rodata	0000000000000001 __compound_literal.0
0000000000000000 l    df *ABS*	0000000000000000 memcpy.c
0000000000000000 l    df *ABS*	0000000000000000 attributes.c
00000000000000f8 l     F .text	00000000000000d0 _remove_attribute.isra.0
0000000000023dfc l     O .rodata	0000000000000009 __func__.2
0000000000023e05 l     O .rodata	0000000000000011 __func__.1
0000000000023e16 l     O .rodata	0000000000000013 __func__.0
0000000000000000 l    df *ABS*	0000000000000000 entry.c
0000000000023066 l     O .rodata	000000000000001b __func__.0
0000000000000000 l    df *ABS*	0000000000000000 handle.c
0000000000000000 l    df *ABS*	0000000000000000 object.c
0000000000000f7c l     F .text	0000000000000068 cleanup_volatile_obj_ref
0000000000000fe4 l     F .text	0000000000000034 get_class
0000000000001018 l     F .text	0000000000000054 find_ctx_add
0000000000023eb4 l     O .rodata	000000000000000f __func__.1
0000000000023ec3 l     O .rodata	0000000000000018 __func__.0
0000000000000000 l    df *ABS*	0000000000000000 persistent_token.c
00000000000023d0 l     F .text	00000000000000cc do_hash
000000000000249c l     F .text	0000000000000074 get_persistent_obj_idx
0000000000002510 l     F .text	000000000000005c open_db_file
0000000000024134 l     O .rodata	0000000000000015 __func__.8
0000000000024149 l     O .rodata	0000000000000023 __func__.7
000000000002416c l     O .rodata	000000000000001d __func__.6
0000000000024189 l     O .rodata	0000000000000015 __func__.5
000000000002419e l     O .rodata	0000000000000013 __func__.4
00000000000241b1 l     O .rodata	0000000000000014 __func__.3
00000000000241c5 l     O .rodata	0000000000000022 __func__.2
00000000000241e7 l     O .rodata	0000000000000024 __func__.1
000000000002420b l     O .rodata	0000000000000013 __func__.0
0000000000000000 l    df *ABS*	0000000000000000 pkcs11_attributes.c
000000000000345c l     F .text	0000000000000090 set_mandatory_attributes
00000000000034ec l     F .text	0000000000000034 get_key_type
0000000000003520 l     F .text	0000000000000138 set_mandatory_boolprops
0000000000003658 l     F .text	0000000000000034 get_u32_attribute
000000000000368c l     F .text	000000000000002c get_certificate_type
00000000000036b8 l     F .text	0000000000000034 get_class
00000000000036ec l     F .text	0000000000000080 check_attr_bval.constprop.0
000000000000376c l     F .text	0000000000000020 _assert_trap.constprop.0
000000000000378c l     F .text	00000000000000dc set_optional_attributes_with_def
0000000000003868 l     F .text	00000000000000c8 create_storage_attributes
0000000000003930 l     F .text	00000000000000e4 create_genkey_attributes
0000000000023084 l     O .rodata	0000000000000001 bool_false.12
0000000000023085 l     O .rodata	0000000000000001 bool_true.13
0000000000023086 l     O .rodata	0000000000000012 __func__.11
0000000000023098 l     O .rodata	000000000000001a __func__.14
00000000000230b4 l     O .rodata	0000000000000014 any_object_boolprops
00000000000230c8 l     O .rodata	0000000000000004 any_object_opt_or_null
00000000000230cc l     O .rodata	0000000000000019 __func__.7
00000000000230e8 l     O .rodata	0000000000000004 any_key_boolprops
00000000000230ec l     O .rodata	000000000000000c any_key_opt_or_null
00000000000230f8 l     O .rodata	0000000000000004 any_key_optional
00000000000230fc l     O .rodata	0000000000000030 CSWTCH.86
000000000002312c l     O .rodata	0000000000000023 __func__.17
0000000000023150 l     O .rodata	0000000000000004 ec_public_key_opt_or_null
0000000000023154 l     O .rodata	0000000000000004 ec_public_key_mandated
0000000000023158 l     O .rodata	0000000000000004 rsa_pub_key_gen_opt_or_null
000000000002315c l     O .rodata	0000000000000004 rsa_pub_key_gen_mand
0000000000023160 l     O .rodata	0000000000000008 rsa_pub_key_create_mand
0000000000023168 l     O .rodata	0000000000000020 rsa_priv_key_opt_or_null
0000000000023188 l     O .rodata	0000000000000008 ec_private_key_opt_or_null
0000000000023190 l     O .rodata	0000000000000000 ec_private_key_mandated
0000000000023190 l     O .rodata	000000000000000c eddsa_private_key_opt_or_null
000000000002319c l     O .rodata	0000000000000020 __func__.16
00000000000231bc l     O .rodata	0000000000000017 __func__.15
00000000000231d3 l     O .rodata	000000000000001e __func__.10
00000000000231f4 l     O .rodata	0000000000000004 pkcs11_certificate_boolprops
00000000000231f8 l     O .rodata	0000000000000004 pkcs11_certificate_mandated
00000000000231fc l     O .rodata	0000000000000014 pkcs11_certificate_optional
0000000000023210 l     O .rodata	0000000000000004 pkcs11_x509_certificate_mandated
0000000000023214 l     O .rodata	0000000000000024 pkcs11_x509_certificate_optional
0000000000023238 l     O .rodata	000000000000001d __func__.9
0000000000023255 l     O .rodata	000000000000001b __func__.8
0000000000023270 l     O .rodata	0000000000000028 symm_key_boolprops
0000000000023298 l     O .rodata	0000000000000010 symm_key_opt_or_null
00000000000232a8 l     O .rodata	0000000000000004 symm_key_optional
00000000000232ac l     O .rodata	000000000000001a __func__.6
00000000000232c8 l     O .rodata	0000000000000014 public_key_boolprops
00000000000232dc l     O .rodata	0000000000000000 public_key_mandated
00000000000232dc l     O .rodata	000000000000000c public_key_opt_or_null
00000000000232e8 l     O .rodata	000000000000001b __func__.5
0000000000023304 l     O .rodata	0000000000000020 private_key_boolprops
0000000000023324 l     O .rodata	0000000000000000 private_key_mandated
0000000000023324 l     O .rodata	000000000000000c private_key_opt_or_null
0000000000023330 l     O .rodata	0000000000000027 __func__.4
0000000000023357 l     O .rodata	0000000000000014 __func__.3
000000000002336c l     O .rodata	000000000000000e CSWTCH.89
000000000002337a l     O .rodata	0000000000000026 __func__.2
00000000000233a0 l     O .rodata	0000000000000028 __func__.1
00000000000233c8 l     O .rodata	0000000000000019 __func__.0
0000000000000000 l    df *ABS*	0000000000000000 pkcs11_helpers.c
0000000000005be0 l     F .text	0000000000000084 id2str
00000000000233f0 l     O .rodata	0000000000000015 unknown
0000000000023408 l     O .rodata	0000000000000058 bpa.5
0000000000023460 l     O .rodata	0000000000000013 __func__.4
0000000000023473 l     O .rodata	000000000000001a __func__.3
000000000002348d l     O .rodata	0000000000000006 str_false.1
0000000000023493 l     O .rodata	0000000000000002 str_unknown.0
0000000000023495 l     O .rodata	0000000000000005 str_true.2
000000000002c3f0 l     O .data	00000000000003f0 attr_ids
000000000002c7e0 l     O .data	0000000000000420 string_rc
000000000002cc00 l     O .data	0000000000000350 string_ta_cmd
000000000002cf50 l     O .data	0000000000000030 string_slot_flags
000000000002cf80 l     O .data	0000000000000120 string_token_flags
000000000002d0a0 l     O .data	0000000000000020 string_session_flags
000000000002d0c0 l     O .data	0000000000000050 string_session_state
000000000002d110 l     O .data	00000000000000a0 string_class
000000000002d1b0 l     O .data	00000000000000d0 string_key_type
000000000002d280 l     O .data	0000000000000040 string_certificate_type
000000000002d2c0 l     O .data	0000000000000010 string_internal_processing
000000000002d2d0 l     O .data	0000000000000090 string_functions
0000000000000000 l    df *ABS*	0000000000000000 pkcs11_token.c
000000000000648c l     F .text	000000000000009c close_ck_session
0000000000006528 l     F .text	0000000000000030 pad_str
0000000000006558 l     F .text	00000000000000f8 set_pin
0000000000006650 l     F .text	000000000000011c check_user_pin.isra.0
000000000000676c l     F .text	0000000000000134 check_so_pin.isra.0
000000000002349c l     O .rodata	000000000000000d __func__.2
00000000000234a9 l     O .rodata	000000000000000d __func__.7
00000000000234b6 l     O .rodata	0000000000000012 __func__.6
0000000000023560 l     O .rodata	0000000000000019 __func__.5
0000000000023579 l     O .rodata	0000000000000012 __func__.4
000000000002358b l     O .rodata	0000000000000012 __func__.3
00000000000235a0 l     O .rodata	0000000000000010 system_uuid.1
00000000000235b0 l     O .rodata	000000000000000e __func__.0
000000000002d360 l     O .data	0000000000000010 pkcs11_client_list
0000000000000000 l    df *ABS*	0000000000000000 processing.c
00000000000081b8 l     F .text	00000000000000c0 get_active_session.isra.0
0000000000026279 l     O .rodata	0000000000000017 __func__.2
0000000000026290 l     O .rodata	0000000000000016 __func__.1
00000000000262a6 l     O .rodata	0000000000000015 __func__.0
00000000000262bb l     O .rodata	000000000000001f CSWTCH.188
0000000000000000 l    df *ABS*	0000000000000000 processing_aes.c
0000000000000000 l    df *ABS*	0000000000000000 processing_asymm.c
00000000000098c8 l     F .text	0000000000000034 get_class
00000000000098fc l     F .text	0000000000000034 get_key_type
0000000000009930 l     F .text	0000000000000020 _assert_trap.constprop.0
00000000000235c0 l     O .rodata	0000000000000015 __func__.4
00000000000235d5 l     O .rodata	0000000000000017 __func__.3
00000000000235ec l     O .rodata	0000000000000108 pkcs2tee_algo.2
00000000000236f4 l     O .rodata	000000000000000d __func__.1
0000000000023701 l     O .rodata	0000000000000015 __func__.0
0000000000000000 l    df *ABS*	0000000000000000 processing_digest.c
0000000000023718 l     O .rodata	0000000000000016 __func__.3
000000000002372e l     O .rodata	0000000000000017 __func__.2
0000000000023748 l     O .rodata	0000000000000030 pkcs2tee_algo.1
0000000000023778 l     O .rodata	0000000000000016 __func__.0
0000000000000000 l    df *ABS*	0000000000000000 processing_ec.c
000000000000ae34 l     F .text	000000000000009c get_curve
000000000000aed0 l     F .text	0000000000000034 get_key_type
000000000000af04 l     F .text	0000000000000034 get_class
0000000000026774 l     O .rodata	0000000000000014 __func__.6
0000000000026788 l     O .rodata	0000000000000016 __func__.5
000000000002679e l     O .rodata	0000000000000011 __func__.4
00000000000267af l     O .rodata	0000000000000017 __func__.3
00000000000267c6 l     O .rodata	0000000000000019 __func__.2
00000000000267df l     O .rodata	0000000000000014 __func__.1
00000000000267f3 l     O .rodata	0000000000000014 __func__.0
0000000000026807 l     O .rodata	000000000000000b ed25519_oid_der
0000000000026812 l     O .rodata	000000000000000e ed25519_name_der
0000000000026820 l     O .rodata	00000000000001c7 secp521r1_oid_der
00000000000269e7 l     O .rodata	000000000000015b secp384r1_oid_der
0000000000026b42 l     O .rodata	00000000000000fa prime256v1_oid_der
0000000000026c3c l     O .rodata	00000000000000e2 secp224r1_oid_der
0000000000026d1e l     O .rodata	00000000000000ca prime192v1_oid_der
0000000000026de8 l     O .rodata	0000000000000007 secp521r1_name_der
0000000000026def l     O .rodata	0000000000000007 secp384r1_name_der
0000000000026df6 l     O .rodata	000000000000000a prime256v1_name_der
0000000000026e00 l     O .rodata	0000000000000007 secp224r1_name_der
0000000000026e07 l     O .rodata	000000000000000a prime192v1_name_der
000000000002d370 l     O .data	0000000000000180 ec_curve_param
0000000000000000 l    df *ABS*	0000000000000000 processing_rsa.c
000000000000bd68 l     F .text	0000000000000008 serialargs_get_u32
0000000000026e9a l     O .rodata	000000000000001a __func__.3
0000000000026eb4 l     O .rodata	0000000000000017 __func__.2
0000000000026ecb l     O .rodata	0000000000000017 __func__.1
0000000000026ee2 l     O .rodata	0000000000000012 __func__.0
0000000000000000 l    df *ABS*	0000000000000000 processing_symm.c
000000000000cb00 l     F .text	0000000000000034 get_key_type
000000000000cb34 l     F .text	0000000000000088 input_data_size_is_valid.isra.0
000000000000cbbc l     F .text	00000000000000bc pkcs2tee_key_type.constprop.0
0000000000023790 l     O .rodata	0000000000000012 __func__.3
00000000000237a4 l     O .rodata	0000000000000040 pkcs2tee_key_type.2
00000000000237e4 l     O .rodata	0000000000000014 __func__.10
00000000000237f8 l     O .rodata	0000000000000017 __func__.9
0000000000023810 l     O .rodata	00000000000000a0 pkcs2tee_algo.8
00000000000238b0 l     O .rodata	0000000000000060 pkcs2tee_key_type.6
0000000000023910 l     O .rodata	0000000000000060 hmac_hash.4
0000000000023970 l     O .rodata	0000000000000013 __func__.5
0000000000023983 l     O .rodata	000000000000000d __func__.7
0000000000023990 l     O .rodata	0000000000000014 __func__.1
00000000000239a4 l     O .rodata	0000000000000016 __func__.0
0000000000000000 l    df *ABS*	0000000000000000 sanitize_object.c
000000000000dfb8 l     F .text	0000000000000034 get_key_type
000000000000dfec l     F .text	000000000000008c read_attr_advance
00000000000270f9 l     O .rodata	000000000000001f __func__.1
0000000000027118 l     O .rodata	0000000000000013 __func__.0
000000000002712b l     O .rodata	0000000000000018 __func__.3
0000000000027143 l     O .rodata	0000000000000017 __func__.2
000000000002715a l     O .rodata	0000000000000017 __func__.4
0000000000000000 l    df *ABS*	0000000000000000 serializer.c
000000000000e914 l     F .text	00000000000000bc alloc_and_get
00000000000271a1 l     O .rodata	0000000000000013 __func__.0
0000000000000000 l    df *ABS*	0000000000000000 token_capabilities.c
0000000000027d16 l     O .rodata	0000000000000020 __func__.2
0000000000027d36 l     O .rodata	000000000000001a __func__.1
0000000000027d50 l     O .rodata	000000000000001a __func__.0
000000000002d4f0 l     O .data	0000000000000510 pkcs11_modes
0000000000000000 l    df *ABS*	0000000000000000 snprintf.c
0000000000000000 l    df *ABS*	0000000000000000 memset.c
0000000000000000 l    df *ABS*	0000000000000000 strchr.c
0000000000000000 l    df *ABS*	0000000000000000 strcmp.c
0000000000000000 l    df *ABS*	0000000000000000 strcpy.c
0000000000000000 l    df *ABS*	0000000000000000 strlen.c
0000000000000000 l    df *ABS*	0000000000000000 strnlen.c
0000000000000000 l    df *ABS*	0000000000000000 strstr.c
0000000000000000 l    df *ABS*	0000000000000000 snprintk.c
000000000000f458 l     F .text	0000000000000be4 kprintf.constprop.0
0000000000023a5e l     O .rodata	0000000000000011 hexdigits
0000000000023a6f l     O .rodata	0000000000000011 HEXDIGITS
0000000000000000 l    df *ABS*	0000000000000000 trace.c
0000000000027e64 l     O .rodata	0000000000000005 lvl_strs.0
0000000000000000 l    df *ABS*	0000000000000000 consttime_memcmp.c
0000000000000000 l    df *ABS*	0000000000000000 memchr.c
0000000000000000 l    df *ABS*	0000000000000000 assert.c
0000000000000000 l    df *ABS*	0000000000000000 tee_uuid_from_str.c
000000000001040c l     F .text	0000000000000084 parse_hex
0000000000000000 l    df *ABS*	0000000000000000 trace_ext.c
0000000000000000 l    df *ABS*	0000000000000000 tee_api.c
000000000001075c l     F .text	00000000000000a8 update_out_param
00000000000108c4 l     F .text	00000000000001c0 copy_param
0000000000027ea1 l     O .rodata	000000000000000b __func__.0
000000000002e188 l     O .bss	0000000000000008 tee_api_instance_data
0000000000000000 l    df *ABS*	0000000000000000 tee_api_objects.c
0000000000000000 l    df *ABS*	0000000000000000 tee_api_operations.c
0000000000011cc4 l     F .text	0000000000000068 __tee_alg_get_main_alg
0000000000011d2c l     F .text	000000000000021c tee_buffer_update
0000000000000000 l    df *ABS*	0000000000000000 tee_api_panic.c
0000000000014ab4 l     F .text	000000000000001c check_access
0000000000014ad8 l     F .text	0000000000000008 check_res.part.0
0000000000014ae0 l     F .text	000000000000005c __utee_check_outbuf_annotation.localalias
0000000000000000 l    df *ABS*	0000000000000000 tee_api_property.c
0000000000014c08 l     F .text	000000000000006c propset_get
0000000000014c74 l     F .text	000000000000002c is_propset_pseudo_handle
0000000000014ca0 l     F .text	0000000000000114 propget_get_ext_prop
0000000000014db4 l     F .text	0000000000000194 propget_get_property
0000000000023a80 l     O .rodata	0000000000000004 __compound_literal.3
0000000000023a84 l     O .rodata	0000000000000004 __compound_literal.2
0000000000023a88 l     O .rodata	0000000000000004 __compound_literal.1
0000000000023a8c l     O .rodata	0000000000000004 __compound_literal.0
0000000000000000 l    df *ABS*	0000000000000000 tee_system_pta.c
0000000000015708 l     F .text	0000000000000084 invoke_system_pta
0000000000023a90 l     O .rodata	0000000000000010 uuid.2
0000000000023aa0 l     O .rodata	000000000000000a __func__.1
0000000000023aaa l     O .rodata	0000000000000017 __func__.0
000000000002e190 l     O .bss	0000000000000008 sess.3
0000000000000000 l    df *ABS*	0000000000000000 utee_syscalls_a64.o
0000000000000000 l    df *ABS*	0000000000000000 user_ta_entry.c
0000000000015bf4 l     F .text	00000000000000b0 _get_fn_array
0000000000015ca4 l     F .text	000000000000005c _fini_iterate_phdr_cb
0000000000015d00 l     F .text	0000000000000028 ta_header_get_session
0000000000015d28 l     F .text	0000000000000070 to_utee_params
0000000000015d98 l     F .text	0000000000000060 from_utee_params
0000000000015df8 l     F .text	0000000000000094 _init_iterate_phdr_cb
0000000000015fbc l     F .text	0000000000000094 ta_header_remove_session
0000000000027fe4 l     O .rodata	0000000000000016 __func__.0
000000000002e198 l     O .bss	0000000000000008 _num_mod_init
000000000002e1a0 l     O .bss	0000000000000001 init_done
000000000002e018 l     O .data	0000000000000010 ta_sessions
000000000002e028 l     O .data	0000000000000010 __phdr_info_head
0000000000000000 l    df *ABS*	0000000000000000 abort.c
0000000000000000 l    df *ABS*	0000000000000000 base64.c
0000000000028001 l     O .rodata	0000000000000041 base64_table
0000000000000000 l    df *ABS*	0000000000000000 tee_api_arith_mpi.c
0000000000016500 l     F .text	0000000000000030 api_panic
0000000000016530 l     F .text	0000000000000030 mpi_panic
0000000000016560 l     F .text	0000000000000098 get_mpi
00000000000165f8 l     F .text	0000000000000068 copy_mpi_to_bigint
0000000000016660 l     F .text	0000000000000120 bigint_binary
0000000000016780 l     F .text	0000000000000020 mpi_is_odd
00000000000167a0 l     F .text	0000000000000028 rng_read
00000000000167c8 l     F .text	0000000000000540 mpi_egcd
000000000002e200 l     O .bss	0000000000003000 data.17
00000000000170a0 l     F .text	00000000000001a4 bigint_binary_mod
00000000000280f9 l     O .rodata	0000000000000008 __func__.14
0000000000028101 l     O .rodata	000000000000000e __func__.10
000000000002810f l     O .rodata	0000000000000009 __func__.2
0000000000028118 l     O .rodata	0000000000000012 __func__.16
000000000002812a l     O .rodata	000000000000000f __func__.15
0000000000028139 l     O .rodata	000000000000001f __func__.13
0000000000028158 l     O .rodata	0000000000000019 __func__.12
0000000000028171 l     O .rodata	0000000000000012 __func__.6
0000000000028183 l     O .rodata	0000000000000015 __func__.11
0000000000028198 l     O .rodata	000000000000000e __func__.9
00000000000281a6 l     O .rodata	000000000000000e __func__.8
00000000000281b4 l     O .rodata	000000000000000e __func__.7
00000000000281c2 l     O .rodata	0000000000000011 __func__.5
00000000000281d3 l     O .rodata	0000000000000018 __func__.4
00000000000281eb l     O .rodata	000000000000001d __func__.3
0000000000028208 l     O .rodata	0000000000000019 __func__.1
0000000000028221 l     O .rodata	0000000000000015 __func__.0
0000000000000000 l    df *ABS*	0000000000000000 tcb.c
00000000000282cc l     O .rodata	0000000000000010 __func__.1
00000000000282dc l     O .rodata	0000000000000010 __func__.0
0000000000031200 l     O .bss	0000000000000008 _tls_size
0000000000031208 l     O .bss	0000000000000008 _tcb
0000000000000000 l    df *ABS*	0000000000000000 bignum.c
00000000000181b0 l     F .text	0000000000000058 mpi_get_digit
0000000000018208 l     F .text	000000000000040c mpi_mul_hlp
0000000000018614 l     F .text	0000000000000148 mpi_montmul
000000000001875c l     F .text	0000000000000040 mpi_montred
000000000001879c l     F .text	0000000000000038 mpi_montg_init.isra.0
00000000000187d4 l     F .text	0000000000000074 mpi_bigendian_to_host.part.0
0000000000018848 l     F .text	00000000000000c0 mpi_fill_random_internal
0000000000018a98 l     F .text	000000000000006c mbedtls_mpi_resize_clear
000000000001a5d8 l     F .text	0000000000000094 mpi_check_small_factors
000000000001aee4 l     F .text	0000000000000270 mpi_miller_rabin
0000000000023ac4 l     O .rodata	00000000000002a0 small_prime
0000000000023d64 l     O .rodata	0000000000000024 gcd_pairs
0000000000000000 l    df *ABS*	0000000000000000 constant_time.c
000000000001bedc l     F .text	0000000000000020 mbedtls_ct_uchar_mask_of_range
0000000000000000 l    df *ABS*	0000000000000000 platform_util.c
000000000002e038 l     O .data	0000000000000008 memset_func
0000000000000000 l    df *ABS*	0000000000000000 bget_malloc.c
000000000001c6b4 l     F .text	0000000000000024 myrand
000000000001c6d8 l     F .text	0000000000000010 _assert_trap
000000000001c6e8 l     F .text	0000000000000028 bget_buf_size.part.0
000000000001cf88 l     F .text	0000000000000058 stats.constprop.0
000000000001d5e0 l     F .text	00000000000000d4 gen_malloc_add_pool
0000000000028aeb l     O .rodata	000000000000000e __func__.2
0000000000028af9 l     O .rodata	0000000000000005 __func__.9
0000000000028afe l     O .rodata	0000000000000006 __func__.8
0000000000028b04 l     O .rodata	0000000000000005 __func__.6
0000000000028b09 l     O .rodata	0000000000000006 __func__.7
0000000000028b0f l     O .rodata	0000000000000006 __func__.5
0000000000028b15 l     O .rodata	0000000000000007 __func__.4
0000000000028b1c l     O .rodata	000000000000000f __func__.3
0000000000028b2b l     O .rodata	0000000000000003 CSWTCH.112
0000000000028b2e l     O .rodata	0000000000000014 __func__.1
0000000000028b42 l     O .rodata	0000000000000013 __func__.0
000000000002e040 l     O .data	0000000000000008 next
0000000000031218 l     O .bss	0000000000000008 bchain
000000000002e048 l     O .data	0000000000000038 mypoolset
000000000002e080 l     O .data	0000000000000080 malloc_ctx
0000000000000000 l    df *ABS*	0000000000000000 isxdigit.c
0000000000000000 l    df *ABS*	0000000000000000 tolower.c
0000000000000000 l    df *ABS*	0000000000000000 memmove.c
0000000000000000 l    df *ABS*	0000000000000000 strlcpy.c
0000000000000000 l    df *ABS*	0000000000000000 mempool.c
0000000000028bde l     O .rodata	0000000000000013 __func__.2
0000000000028bf1 l     O .rodata	000000000000000b __func__.1
0000000000028bfc l     O .rodata	000000000000000e __func__.0
0000000000000000 l    df *ABS*	0000000000000000 
000000000002c000 l     O *ABS*	0000000000000000 _DYNAMIC
000000000002c128 l     O *ABS*	0000000000000000 _GLOBAL_OFFSET_TABLE_
00000000000001c8 g     F .text	0000000000000038 init_attributes_head
0000000000010720 g     F .text	000000000000003c putchar
0000000000011360 g     F .text	00000000000000d0 TEE_PopulateTransientObject
0000000000006078 g     F .text	0000000000000124 pkcs2tee_load_hashed_attr
000000000000f254 g     F .text	0000000000000018 strcpy
0000000000002b54 g     F .text	000000000000005c destroy_object_uuid
0000000000017cb0 g     F .text	0000000000000004 TEE_BigIntConvertToFMM
0000000000017810 g     F .text	000000000000000c TEE_BigIntSquareMod
0000000000017244 g     F .text	000000000000016c TEE_BigIntShiftRight
000000000001d7a0 g     F .text	0000000000000004 raw_malloc_add_pool
0000000000015890 g     F .text	00000000000000b8 tee_invoke_supp_plugin
000000000000ed64 g     F .text	00000000000000cc tee_malloc_mechanism_list
0000000000003074 g     F .text	00000000000000e4 update_persistent_object_attributes
000000000000e150 g     F .text	0000000000000230 trace_attributes_from_api_head
00000000000189ac g     F .text	00000000000000ec mbedtls_mpi_grow
000000000000268c g     F .text	0000000000000058 verify_pin
0000000000013170 g     F .text	0000000000000070 TEE_DigestUpdate
00000000000074ac g     F .text	0000000000000084 entry_ck_close_session
0000000000010e74 g     F .text	0000000000000030 TEE_Realloc
0000000000012e74 g     F .text	00000000000001bc TEE_SetOperationKey2
0000000000014bdc g     F .text	000000000000002c __utee_check_inout_annotation
000000000001d3cc g     F .text	0000000000000010 raw_free
0000000000010618 g     F .text	00000000000000c8 printf
0000000000005a74 g     F .text	0000000000000060 get_key_data_to_wrap
000000000000278c g     F .text	0000000000000240 setup_identity_auth_from_pin
000000000000ab98 g     F .text	000000000000029c step_digest_operation
00000000000062f4 g     F .text	000000000000001c id2str_class
0000000000005d94 g     F .text	0000000000000010 pkcs11_attr_class_is_key
0000000000011430 g     F .text	0000000000000050 TEE_InitRefAttribute
0000000000015960 g     F .text	000000000000000c _utee_log
000000000000b194 g     F .text	00000000000000a8 pkcs2tee_algo_ecdsa
0000000000010b78 g     F .text	0000000000000124 TEE_InvokeTACommand
0000000000014ae0 g     F .text	000000000000005c __utee_check_outbuf_annotation
0000000000018918 g     F .text	0000000000000028 mbedtls_mpi_init_mempool
00000000000007b8 g     F .text	00000000000001f8 trace_attributes
0000000000015ae0 g     F .text	000000000000000c _utee_cryp_random_number_generate
00000000000190fc g     F .text	00000000000000c4 mbedtls_mpi_write_binary
0000000000010490 g     F .text	0000000000000158 tee_uuid_from_str
00000000000049ec g     F .text	0000000000000008 object_is_modifiable
0000000000013cd0 g     F .text	00000000000001bc TEE_AEEncryptFinal
0000000000005d5c g     F .text	0000000000000018 pkcs11_attr_has_indirect_attributes
00000000000015d0 g     F .text	000000000000012c entry_destroy_object
000000000000128c g     F .text	00000000000001e0 create_object
0000000000002bb0 g     F .text	0000000000000058 get_persistent_objects_list
000000000000f38c g     F .text	0000000000000058 vsnprintk
0000000000019924 g     F .text	0000000000000044 mbedtls_mpi_sub_int
000000000000aa38 g     F .text	0000000000000160 init_digest_operation
00000000000002b8 g     F .text	000000000000000c remove_empty_attribute
000000000001d9cc g     F .text	0000000000000058 memmove
000000000000f118 g     F .text	0000000000000078 snprintf
0000000000006ad8 g     F .text	0000000000000034 pkcs11_deinit
0000000000017058 g     F .text	0000000000000048 TEE_BigIntCmpS32
0000000000006278 g     F .text	000000000000001c id2str_session_flag
000000000001c428 g     F .text	000000000000026c mbedtls_ct_rsaes_pkcs1_v15_unpadding
0000000000002c08 g     F .text	0000000000000124 unregister_persistent_object
0000000000011480 g     F .text	000000000000004c TEE_InitValueAttribute
0000000000018b04 g     F .text	0000000000000118 mbedtls_mpi_shrink
0000000000001148 g     F .text	00000000000000fc destroy_object
000000000000e078 g     F .text	00000000000000d8 sanitize_consistent_class_and_type
000000000001743c g     F .text	000000000000000c TEE_BigIntAdd
0000000000006310 g     F .text	000000000000001c id2str_key_type
000000000000693c g     F .text	000000000000000c get_session_list
0000000000015a80 g     F .text	000000000000000c _utee_cryp_obj_restrict_usage
00000000000002c4 g     F .text	00000000000000f4 get_attribute_ptrs
0000000000022ff0 g     O .rodata	0000000000000008 ta_heap_size
000000000001130c g     F .text	0000000000000054 TEE_ResetTransientObject
000000000000eb38 g     F .text	0000000000000088 serialize
0000000000015b28 g     F .text	000000000000000c _utee_asymm_operate
000000000001629c g     F .text	0000000000000018 _base64_enc_len
000000000000bc84 g     F .text	00000000000000e4 pkcs2tee_algo_ecdh
0000000000019b84 g     F .text	00000000000001d8 mbedtls_mpi_read_string
00000000000132c4 g     F .text	00000000000000e0 TEE_CipherInit
0000000000002d2c g     F .text	0000000000000100 register_persistent_object
0000000000002ac0 g     F .text	0000000000000004 close_persistent_db
00000000000050b8 g     F .text	000000000000048c check_parent_attrs_against_processing
0000000000008ffc g     F .text	0000000000000410 entry_processing_key
0000000000017454 g     F .text	00000000000000b0 TEE_BigIntNeg
0000000000015b7c g     F .text	000000000000000c _utee_storage_free_enum
0000000000000020 g       .text	0000000000000000 __text_start
00000000000094e0 g     F .text	0000000000000338 entry_wrap_key
000000000001565c g     F .text	00000000000000ac TEE_GetNextProperty
0000000000011974 g     F .text	0000000000000050 TEE_StartPersistentObjectEnumerator
00000000000192d0 g     F .text	00000000000000c0 mbedtls_mpi_shift_r
000000000000c780 g     F .text	0000000000000358 generate_rsa_keys
000000000001d92c g     F .text	0000000000000064 malloc_buffer_overlaps_heap
0000000000015a2c g     F .text	000000000000000c _utee_hash_init
0000000000001244 g     F .text	0000000000000048 create_token_object
00000000000177f8 g     F .text	000000000000000c TEE_BigIntSubMod
000000000001b7b0 g     F .text	0000000000000310 mbedtls_mpi_gen_prime
00000000000152dc g     F .text	00000000000000b4 TEE_GetPropertyAsBinaryBlock
0000000000018db4 g     F .text	000000000000002c mbedtls_mpi_get_bit
0000000000018fc0 g     F .text	0000000000000084 mbedtls_mpi_read_binary
0000000000013a08 g     F .text	00000000000000d0 TEE_AEInit
00000000000102a4 g     F .text	0000000000000070 trace_printf
000000000001a674 g     F .text	0000000000000004 mbedtls_mpi_montmul
0000000000015be8 g     F .text	000000000000000c _utee_cache_operation
0000000000000020 g     F .text	00000000000000d8 memcpy
000000000000e834 g     F .text	000000000000000c serialargs_init
000000000000cc78 g     F .text	000000000000008c processing_is_tee_symm
0000000000001f7c g     F .text	00000000000001bc entry_set_attribute_value
000000000000ba90 g     F .text	000000000000008c ecdsa_get_input_max_byte_size
0000000000000edc g     F .text	0000000000000034 handle_put
0000000000017cb4 g     F .text	000000000000009c TEE_BigIntConvertFromFMM
0000000000014ad0 g     F .text	0000000000000008 TEE_Panic
00000000000049e4 g     F .text	0000000000000008 object_is_token
0000000000013030 g     F .text	0000000000000140 TEE_CopyOperation
00000000000106e0 g     F .text	0000000000000040 puts
0000000000017d50 g     F .text	0000000000000114 TEE_BigIntComputeFMM
000000000001d2cc g     F .text	000000000000003c malloc_get_stats
0000000000005c64 g     F .text	0000000000000084 tee2pkcs_error
0000000000010dd4 g     F .text	0000000000000028 TEE_GetREETime
000000000001d7a4 g     F .text	000000000000003c raw_malloc_get_stats
00000000000118c8 g     F .text	000000000000005c TEE_AllocatePersistentObjectEnumerator
000000000001d9b8 g     F .text	0000000000000014 tolower
000000000000e8c4 g     F .text	0000000000000050 serialargs_get
000000000002def8 g     O .data	00000000000000a8 ta_props
0000000000014024 g     F .text	0000000000000140 TEE_AsymmetricEncrypt
0000000000014b3c g     F .text	0000000000000040 __utee_check_instring_annotation
000000000001d6b4 g     F .text	000000000000001c malloc
000000000000e380 g     F .text	00000000000004b4 sanitize_client_object
000000000001554c g     F .text	0000000000000004 TEE_FreePropertyEnumerator
00000000000006c0 g     F .text	00000000000000f8 attributes_match_add_reference
000000000000632c g     F .text	000000000000001c id2str_type
000000000001bf54 g     F .text	0000000000000010 mbedtls_ct_mpi_uint_mask
0000000000001b68 g     F .text	0000000000000040 release_session_find_obj_context
000000000000f190 g     F .text	0000000000000058 vsnprintf
00000000000115cc g     F .text	00000000000000a0 TEE_GenerateKey
000000000002e100 g     O .data	0000000000000004 trace_level
00000000000068d8 g     F .text	0000000000000058 get_token_id
0000000000016ff0 g     F .text	0000000000000068 TEE_BigIntCmp
00000000000026e4 g     F .text	00000000000000a8 setup_so_identity_auth_from_client
0000000000005d74 g     F .text	0000000000000020 pkcs11_class_has_type
0000000000022fd8 g     O .rodata	0000000000000008 ta_num_props
000000000000dd34 g     F .text	000000000000019c wrap_data_by_symm_enc
000000000000af5c g     F .text	0000000000000040 ec_params2tee_curve
0000000000006948 g     F .text	0000000000000024 tee_session2client
000000000001cd48 g     F .text	00000000000000dc bgetr
0000000000015b40 g     F .text	000000000000000c _utee_storage_obj_open
000000000000e840 g     F .text	0000000000000084 serialargs_get_ptr
000000000000e9d0 g     F .text	0000000000000018 serialargs_alloc_and_get
0000000000001ba8 g     F .text	0000000000000094 entry_find_objects_final
000000000001dbd4 g     F .text	0000000000000014 mempool_free
00000000000133a4 g     F .text	0000000000000168 TEE_CipherUpdate
0000000000015a38 g     F .text	000000000000000c _utee_hash_update
0000000000016e50 g     F .text	0000000000000094 TEE_BigIntConvertToOctetString
00000000000004f4 g     F .text	0000000000000088 modify_attributes_list
0000000000012b74 g     F .text	0000000000000180 TEE_GetOperationInfoMultiple
0000000000007dec g     F .text	0000000000000168 entry_ck_logout
0000000000018ecc g     F .text	0000000000000060 mbedtls_mpi_bitlen
00000000000173b0 g     F .text	000000000000004c TEE_BigIntGetBit
0000000000022ff8 g     O .rodata	0000000000000003 trace_ext_prefix
0000000000015ba0 g     F .text	000000000000000c _utee_storage_next_enum
0000000000006470 g     F .text	000000000000001c id2str_function
000000000001d3bc g     F .text	0000000000000010 raw_malloc
0000000000005ddc g     F .text	0000000000000038 pkcs11_attr2boolprop_shift
000000000001ca08 g     F .text	0000000000000088 bgetz
00000000000069f4 g     F .text	0000000000000090 unregister_client
000000000001bf64 g     F .text	0000000000000018 mbedtls_ct_size_bool_eq
0000000000010ca8 g     F .text	000000000000000c TEE_GetInstanceData
0000000000010cf4 g     F .text	000000000000003c TEE_Wait
00000000000080b0 g     F .text	0000000000000108 entry_ck_generate_random
0000000000019968 g     F .text	0000000000000174 mbedtls_mpi_mul_mpi
000000000000260c g     F .text	0000000000000080 hash_pin
0000000000010eac g     F .text	0000000000000008 TEE_CacheFlush
00000000000100b4 g     F .text	00000000000001f0 trace_vprintf
00000000000009b4 g     F .text	0000000000000004 TA_DestroyEntryPoint
000000000000ea54 g     F .text	000000000000006c serialargs_alloc_get_attributes
00000000000029cc g     F .text	00000000000000f4 verify_identity_auth
0000000000018908 g     F .text	0000000000000010 mbedtls_mpi_init
0000000000015b58 g     F .text	000000000000000c _utee_storage_obj_del
0000000000018e6c g     F .text	0000000000000060 mbedtls_mpi_lsb
00000000000103b4 g     F .text	0000000000000044 _assert_log
00000000000087fc g     F .text	0000000000000360 entry_generate_key_pair
0000000000015a14 g     F .text	000000000000000c _utee_cryp_state_copy
0000000000017ca8 g     F .text	0000000000000008 TEE_BigIntFMMContextSizeInU32
0000000000003c00 g     F .text	0000000000000ddc create_attributes_from_template
0000000000015804 g     F .text	000000000000008c tee_unmap
0000000000013934 g     F .text	00000000000000d4 TEE_MACCompareFinal
000000000001bf98 g     F .text	0000000000000030 mbedtls_ct_uint_if
0000000000011868 g     F .text	0000000000000060 TEE_RenamePersistentObject
000000000000ec44 g     F .text	00000000000000cc mechanism_flags_complies_pkcs11
00000000000131e0 g     F .text	00000000000000e4 TEE_DigestDoFinal
000000000000696c g     F .text	0000000000000010 pkcs11_handle2session
0000000000016d08 g     F .text	0000000000000050 _TEE_MathAPI_Init
0000000000000200 g     F .text	00000000000000b8 add_attribute
0000000000017e64 g     F .text	0000000000000240 __utee_tcb_init
00000000000197bc g     F .text	0000000000000090 mbedtls_mpi_add_mpi
000000000001627c g     F .text	0000000000000020 abort
00000000000003b8 g     F .text	000000000000003c get_attribute_ptr
000000000001b154 g     F .text	000000000000017c mbedtls_mpi_random
000000000000cad8 g     F .text	0000000000000028 rsa_get_input_max_byte_size
0000000000002e2c g     F .text	0000000000000220 load_persistent_object_attributes
0000000000006228 g     F .text	0000000000000018 id2str_ta_cmd
000000000002e108 g     O .bss	0000000000000008 temporary_object_list
0000000000014b80 g     F .text	000000000000002c __utee_check_out_annotation
0000000000031220 g     O .bss	0000000000008000 ta_heap
000000000001781c g     F .text	000000000000011c TEE_BigIntInvMod
000000000000ed10 g     F .text	0000000000000054 mechanism_is_one_shot_only
000000000001d990 g     F .text	0000000000000028 isxdigit
0000000000015e8c g     F .text	0000000000000120 __utee_call_elf_init_fn
000000000000c274 g     F .text	0000000000000224 pkcs2tee_algo_rsa_oaep
00000000000009ec g     F .text	0000000000000014 TA_CloseSessionEntryPoint
000000000000f06c g     F .text	0000000000000090 mechanism_supported_key_sizes_bytes
000000000001599c g     F .text	000000000000000c _utee_close_ta_session
0000000000009950 g     F .text	0000000000000064 processing_is_tee_asymm
000000000000dc78 g     F .text	00000000000000bc derive_key_by_symm_enc
0000000000014164 g     F .text	0000000000000144 TEE_AsymmetricDecrypt
000000000001166c g     F .text	00000000000000b0 TEE_OpenPersistentObject
000000000001984c g     F .text	0000000000000094 mbedtls_mpi_sub_mpi
0000000000015954 g     F .text	000000000000000c _utee_return
0000000000010318 g     F .text	0000000000000070 consttime_memcmp
000000000001596c g     F .text	000000000000000c __utee_panic
000000000001befc g     F .text	0000000000000048 mbedtls_ct_memcmp
00000000000180a4 g     F .text	000000000000001c __tls_get_addr
000000000000f288 g     F .text	0000000000000028 strnlen
0000000000000a00 g     F .text	00000000000003e0 TA_InvokeCommandEntryPoint
000000000002e110 g     O .bss	0000000000000078 ck_token
0000000000015fac g     F .text	0000000000000010 __utee_call_elf_fini_fn
000000000001d758 g     F .text	0000000000000014 free_wipe
000000000001db24 g     F .text	0000000000000064 mempool_alloc
0000000000015948 g     F .text	000000000000000c _utee_panic
000000000001d774 g     F .text	000000000000002c raw_malloc_init_ctx
000000000001db88 g     F .text	000000000000004c mempool_calloc
0000000000015bdc g     F .text	000000000000000c _utee_cryp_obj_generate_key
0000000000015bc4 g     F .text	000000000000000c _utee_storage_obj_trunc
0000000000011578 g     F .text	0000000000000054 TEE_CopyObjectAttributes
000000000002dfa0 g     O .data	0000000000000078 tee_props
00000000000159cc g     F .text	000000000000000c _utee_unmask_cancellation
0000000000006418 g     F .text	0000000000000058 id2str_proc
000000000002da00 g     O .data	00000000000004f8 token_mechanism
00000000000154f8 g     F .text	000000000000000c TEE_ResetPropertyEnumerator
000000000001d6d0 g     F .text	0000000000000020 calloc
000000000000625c g     F .text	000000000000001c id2str_token_flag
0000000000010dfc g     F .text	0000000000000068 TEE_Malloc
00000000000108b0 g     F .text	0000000000000014 TEE_CheckMemoryAccessRights
0000000000015390 g     F .text	00000000000000b4 TEE_GetPropertyAsUUID
0000000000015978 g     F .text	000000000000000c _utee_get_property
0000000000018d48 g     F .text	000000000000006c mbedtls_mpi_lset
000000000000b61c g     F .text	0000000000000160 load_tee_eddsa_key_attrs
0000000000011a88 g     F .text	0000000000000094 TEE_ReadObjectData
0000000000011028 g     F .text	00000000000000d0 TEE_GetObjectBufferAttribute
00000000000009b8 g     F .text	0000000000000034 TA_OpenSessionEntryPoint
0000000000004da4 g     F .text	0000000000000314 check_created_attrs
0000000000011f48 g     F .text	0000000000000044 TEE_FreeOperation
00000000000180c0 g     F .text	00000000000000f0 dl_iterate_phdr
000000000000b77c g     F .text	0000000000000238 generate_eddsa_keys
0000000000005ad4 g     F .text	000000000000010c add_missing_attribute_id
0000000000039220 g       .bss	0000000000000000 __ftrace_buf_end
000000000002e1f8 g     O .bss	0000000000000004 ta_param_types
000000000000cd04 g     F .text	0000000000000984 init_symm_operation
000000000001a20c g     F .text	0000000000000044 mbedtls_mpi_div_int
0000000000010ebc g     F .text	0000000000000050 __utee_from_attr
00000000000049fc g     F .text	0000000000000070 check_access_attrs_against_token
0000000000002ac4 g     F .text	0000000000000090 create_object_uuid
0000000000005610 g     F .text	000000000000038c check_attrs_against_modification
000000000000599c g     F .text	00000000000000d8 set_key_data
000000000001b6f4 g     F .text	00000000000000ac mbedtls_mpi_is_prime_ext
000000000000796c g     F .text	0000000000000104 entry_ck_init_pin
0000000000017c40 g     F .text	0000000000000050 TEE_BigIntIsProbablePrime
0000000000019adc g     F .text	00000000000000a8 mbedtls_mpi_mul_int
00000000000117f4 g     F .text	0000000000000048 TEE_CloseAndDeletePersistentObject1
000000000001a67c g     F .text	000000000000065c mbedtls_mpi_exp_mod
000000000001c174 g     F .text	00000000000000bc mbedtls_mpi_safe_cond_assign
0000000000005dc0 g     F .text	000000000000001c key_type_is_asymm_key
0000000000014f48 g     F .text	0000000000000234 TEE_GetPropertyAsString
0000000000008d6c g     F .text	0000000000000290 entry_processing_step
000000000001c32c g     F .text	00000000000000fc mbedtls_mpi_lt_mpi_ct
0000000000013e8c g     F .text	0000000000000198 TEE_AEDecryptFinal
0000000000016d58 g     F .text	0000000000000064 TEE_BigIntInit
0000000000014b7c g     F .text	0000000000000004 __utee_check_outstring_annotation
0000000000010cb4 g     F .text	0000000000000008 TEE_MemMove
000000000001c694 g     F .text	0000000000000020 mbedtls_platform_zeroize
0000000000016dbc g     F .text	0000000000000094 TEE_BigIntConvertFromOctetString
0000000000015b1c g     F .text	000000000000000c _utee_authenc_dec_final
0000000000019390 g     F .text	000000000000009c mbedtls_mpi_cmp_abs
0000000000015bac g     F .text	000000000000000c _utee_storage_obj_read
0000000000013714 g     F .text	00000000000000a4 TEE_MACInit
000000000000057c g     F .text	0000000000000070 get_bool
00000000000142a8 g     F .text	0000000000000138 TEE_AsymmetricSignDigest
0000000000010388 g     F .text	000000000000002c memchr
0000000000010858 g     F .text	000000000000002c TEE_UnmaskCancellation
0000000000010f0c g     F .text	0000000000000048 TEE_GetObjectInfo
000000000001bac0 g     F .text	000000000000041c mbedtls_mpi_self_test
00000000000049dc g     F .text	0000000000000008 object_is_private
0000000000015bd0 g     F .text	000000000000000c _utee_storage_obj_seek
0000000000013b6c g     F .text	0000000000000164 TEE_AEUpdate
00000000000112b8 g     F .text	0000000000000054 TEE_FreeTransientObject
00000000000159c0 g     F .text	000000000000000c _utee_check_access_rights
0000000000006b0c g     F .text	0000000000000128 set_processing_state
00000000000194fc g     F .text	0000000000000044 mbedtls_mpi_cmp_int
000000000000f2b0 g     F .text	000000000000004c strstr
00000000000163c8 g     F .text	0000000000000138 _base64_dec
0000000000015b88 g     F .text	000000000000000c _utee_storage_reset_enum
000000000001c0b8 g     F .text	00000000000000bc mbedtls_ct_base64_dec_value
000000000001cfe0 g     F .text	00000000000002d4 bget_main_test
00000000000146a0 g     F .text	0000000000000024 rand
00000000000062b0 g     F .text	0000000000000044 id2str_attr
0000000000014bac g     F .text	0000000000000030 __utee_check_attr_in_annotation
0000000000015b04 g     F .text	000000000000000c _utee_authenc_update_payload
0000000000005ce8 g     F .text	0000000000000050 valid_pkcs11_attribute_id
000000000000bf2c g     F .text	0000000000000230 pkcs2tee_algo_rsa_pss
0000000000008b5c g     F .text	0000000000000210 entry_processing_init
0000000000012b20 g     F .text	0000000000000054 TEE_GetOperationInfo
0000000000017780 g     F .text	000000000000006c TEE_BigIntMod
000000000001a304 g     F .text	0000000000000098 mbedtls_mpi_mod_int
0000000000018f48 g     F .text	0000000000000078 mbedtls_mpi_read_binary_le
00000000000175f4 g     F .text	000000000000018c TEE_BigIntDiv
0000000000015a98 g     F .text	000000000000000c _utee_cryp_obj_alloc
0000000000039220 g       .bss	0000000000000000 __ftrace_buf_start
000000000001da24 g     F .text	0000000000000038 strlcpy
000000000000ded0 g     F .text	00000000000000e8 unwrap_key_by_symm
000000000001c004 g     F .text	00000000000000b4 mbedtls_ct_base64_enc_char
0000000000018c1c g     F .text	00000000000000cc mbedtls_mpi_copy
000000000000697c g     F .text	0000000000000078 register_client
00000000000146c4 g     F .text	00000000000003f0 TEE_IsAlgorithmSupported
000000000001d2b4 g     F .text	0000000000000018 malloc_reset_stats
0000000000015444 g     F .text	00000000000000b4 TEE_GetPropertyAsIdentity
000000000001003c g     F .text	000000000000004c __vsprintf
0000000000006ce0 g     F .text	0000000000000188 entry_ck_slot_info
0000000000001c3c g     F .text	0000000000000248 entry_get_attribute_value
00000000000159fc g     F .text	000000000000000c _utee_set_ta_time
00000000000159a8 g     F .text	000000000000000c _utee_invoke_ta_command
000000000000af38 g     F .text	0000000000000024 ec_params2tee_keysize
0000000000010f94 g     F .text	0000000000000044 TEE_RestrictObjectUsage1
000000000000ec08 g     F .text	000000000000003c mechanism_is_valid
000000000001d6f0 g     F .text	000000000000001c realloc
0000000000018ce8 g     F .text	0000000000000060 mbedtls_mpi_swap
000000000001da5c g     F .text	00000000000000c8 mempool_alloc_pool
000000000000b9b4 g     F .text	00000000000000dc pkcs2tee_proc_params_eddsa
0000000000017504 g     F .text	00000000000000e8 TEE_BigIntMul
0000000000003a14 g     F .text	00000000000001ec check_mechanism_against_processing
0000000000012cf4 g     F .text	0000000000000078 TEE_ResetOperation
000000000000bb1c g     F .text	0000000000000168 pkcs2tee_param_ecdh
000000000001d76c g     F .text	0000000000000008 raw_malloc_get_ctx_size
00000000000191c0 g     F .text	0000000000000110 mbedtls_mpi_shift_l
0000000000005d38 g     F .text	0000000000000024 pkcs11_attr_is_type
0000000000007a70 g     F .text	0000000000000148 entry_ck_set_pin
000000000001942c g     F .text	00000000000000d0 mbedtls_mpi_cmp_mpi
0000000000010cc4 g     F .text	0000000000000008 TEE_MemFill
00000000000016fc g     F .text	0000000000000370 entry_find_objects_init
000000000001d7e0 g     F .text	0000000000000018 malloc_add_pool
00000000000137b8 g     F .text	00000000000000a0 TEE_MACUpdate
00000000000100a4 g     F .text	0000000000000010 trace_get_level
0000000000019540 g     F .text	0000000000000120 mbedtls_mpi_add_abs
0000000000010fd8 g     F .text	0000000000000050 TEE_RestrictObjectUsage
000000000000b23c g     F .text	00000000000003e0 generate_ec_keys
0000000000017c98 g     F .text	0000000000000010 TEE_BigIntFMMSizeInU32
000000000001517c g     F .text	00000000000000ac TEE_GetPropertyAsBool
000000000001d490 g     F .text	0000000000000150 raw_realloc
0000000000017c90 g     F .text	0000000000000004 TEE_BigIntInitFMM
0000000000011210 g     F .text	0000000000000028 TEE_CloseObject
0000000000002138 g     F .text	0000000000000298 entry_copy_object
0000000000015a50 g     F .text	000000000000000c _utee_cipher_init
0000000000006294 g     F .text	000000000000001c id2str_session_state
0000000000016050 g     F .text	000000000000022c __utee_entry
0000000000015228 g     F .text	00000000000000b4 TEE_GetPropertyAsU32
000000000000af9c g     F .text	00000000000001f8 load_tee_ec_key_attrs
000000000001dbe8 g       .text	0000000000000000 __text_end
0000000000017938 g     F .text	00000000000000d4 TEE_BigIntRelativePrime
000000000001a250 g     F .text	00000000000000b4 mbedtls_mpi_mod_mpi
0000000000015a74 g     F .text	000000000000000c _utee_cryp_obj_get_info
0000000000006364 g     F .text	00000000000000b4 id2str_attr_value
0000000000005544 g     F .text	00000000000000cc attribute_is_exportable
000000000001ce24 g     F .text	00000000000000d0 bpool
0000000000015504 g     F .text	0000000000000048 TEE_AllocatePropertyEnumerator
0000000000015a08 g     F .text	000000000000000c _utee_cryp_state_alloc
000000000001082c g     F .text	000000000000002c TEE_GetCancellationFlag
000000000001acd8 g     F .text	00000000000001a4 mbedtls_mpi_gcd
0000000000006e68 g     F .text	00000000000001bc entry_ck_token_info
0000000000010d90 g     F .text	0000000000000044 TEE_SetTAPersistentTime
000000000000eac0 g     F .text	0000000000000018 serialargs_remaining_bytes
00000000000010b4 g     F .text	0000000000000028 pkcs11_object2handle
0000000000019044 g     F .text	00000000000000b8 mbedtls_mpi_write_binary_le
000000000000f1e8 g     F .text	000000000000001c memset
00000000000083e0 g     F .text	00000000000002bc entry_generate_secret
000000000001d308 g     F .text	00000000000000b4 raw_memalign
0000000000010d30 g     F .text	0000000000000060 TEE_GetTAPersistentTime
0000000000010314 g     F .text	0000000000000004 dhex_dump
000000000001171c g     F .text	00000000000000d8 TEE_CreatePersistentObject
0000000000010884 g     F .text	000000000000002c TEE_MaskCancellation
0000000000013ad8 g     F .text	0000000000000094 TEE_AEUpdateAAD
00000000000076d4 g     F .text	0000000000000298 entry_ck_token_initialize
0000000000011b8c g     F .text	0000000000000060 TEE_TruncateObjectData
0000000000015a8c g     F .text	000000000000000c _utee_cryp_obj_get_attr
000000000000256c g     F .text	00000000000000a0 update_persistent_db
0000000000004b3c g     F .text	0000000000000268 check_created_attrs_against_processing
0000000000010f54 g     F .text	0000000000000040 TEE_GetObjectInfo1
0000000000015a68 g     F .text	000000000000000c _utee_cipher_final
0000000000010088 g     F .text	000000000000001c trace_set_level
00000000000110f8 g     F .text	0000000000000118 TEE_GetObjectValueAttribute
0000000000012d6c g     F .text	0000000000000108 TEE_SetOperationKey
000000000001bf7c g     F .text	000000000000001c mbedtls_ct_mpi_uint_lt
0000000000006c34 g     F .text	00000000000000ac entry_ck_slot_list
00000000000068a0 g     F .text	0000000000000038 get_token
0000000000015a20 g     F .text	000000000000000c _utee_cryp_state_free
000000000000f230 g     F .text	0000000000000024 strcmp
0000000000015990 g     F .text	000000000000000c _utee_open_ta_session
0000000000016f68 g     F .text	0000000000000088 TEE_BigIntConvertToS32
0000000000017448 g     F .text	000000000000000c TEE_BigIntSub
000000000000619c g     F .text	0000000000000070 pkcs2tee_mode
0000000000005da4 g     F .text	000000000000001c key_type_is_symm_key
000000000000f110 g     F .text	0000000000000008 tahead_get_trace_level
0000000000015b94 g     F .text	000000000000000c _utee_storage_start_enum
0000000000011bec g     F .text	00000000000000d8 TEE_SeekObjectData
000000000001578c g     F .text	0000000000000078 tee_map_zi
000000000001a678 g     F .text	0000000000000004 mbedtls_mpi_montred
000000000000869c g     F .text	00000000000000b8 alloc_get_tee_attribute_data
00000000000005ec g     F .text	00000000000000d4 attributes_match_reference
000000000001d70c g     F .text	0000000000000020 memalign
000000000001bf44 g     F .text	0000000000000010 mbedtls_ct_uint_mask
000000000001350c g     F .text	0000000000000208 TEE_CipherDoFinal
0000000000009818 g     F .text	00000000000000b0 tee_init_ctr_operation
0000000000016ee4 g     F .text	0000000000000084 TEE_BigIntConvertFromS32
00000000000198e0 g     F .text	0000000000000044 mbedtls_mpi_add_int
0000000000000f10 g     F .text	000000000000002c handle_lookup
0000000000015b10 g     F .text	000000000000000c _utee_authenc_enc_final
00000000000003f4 g     F .text	000000000000009c get_attribute
000000000001d7f8 g     F .text	0000000000000134 malloc_buffer_is_within_alloced
0000000000007bb8 g     F .text	0000000000000234 entry_ck_login
0000000000007024 g     F .text	0000000000000130 entry_ck_token_mecha_ids
0000000000015aa4 g     F .text	000000000000000c _utee_cryp_obj_close
0000000000017c94 g     F .text	0000000000000004 TEE_BigIntInitFMMContext
000000000000a828 g     F .text	00000000000001c0 do_asymm_derivation
00000000000159d8 g     F .text	000000000000000c _utee_mask_cancellation
0000000000015b64 g     F .text	000000000000000c _utee_storage_obj_rename
000000000001194c g     F .text	0000000000000028 TEE_ResetPersistentObjectEnumerator
0000000000011b1c g     F .text	0000000000000070 TEE_WriteObjectData
00000000000175ec g     F .text	0000000000000008 TEE_BigIntSquare
0000000000015bb8 g     F .text	000000000000000c _utee_storage_obj_write
00000000000009b0 g     F .text	0000000000000004 TA_CreateEntryPoint
000000000000eebc g     F .text	00000000000001b0 pkcs11_mechanism_supported_key_sizes
000000000000f0fc g     F .text	0000000000000014 __ta_entry
0000000000015af8 g     F .text	000000000000000c _utee_authenc_update_aad
000000000001a66c g     F .text	0000000000000008 mbedtls_mpi_montg_init
000000000000f3e4 g     F .text	0000000000000074 snprintk
00000000000173fc g     F .text	0000000000000040 TEE_BigIntGetBitCount
0000000000015ac8 g     F .text	000000000000000c _utee_cryp_obj_copy
000000000000304c g     F .text	0000000000000028 release_persistent_object_attributes
0000000000017804 g     F .text	000000000000000c TEE_BigIntMulMod
000000000001b2d0 g     F .text	0000000000000424 mbedtls_mpi_inv_mod
0000000000014504 g     F .text	0000000000000178 TEE_DeriveKey
00000000000075f0 g     F .text	00000000000000e4 entry_ck_session_info
000000000002e1b8 g     O .bss	0000000000000040 ta_params
00000000000010dc g     F .text	000000000000006c cleanup_persistent_object
0000000000019d5c g     F .text	00000000000004b0 mbedtls_mpi_div_mpi
0000000000018f2c g     F .text	000000000000001c mbedtls_mpi_size
000000000001c710 g     F .text	00000000000002f8 bget
0000000000000f3c g     F .text	0000000000000040 handle_lookup_handle
0000000000011238 g     F .text	0000000000000080 TEE_AllocateTransientObject
0000000000001e84 g     F .text	00000000000000f8 entry_get_object_size
0000000000015550 g     F .text	0000000000000010 TEE_StartPropertyEnumerator
00000000000159e4 g     F .text	000000000000000c _utee_wait
0000000000018de0 g     F .text	000000000000008c mbedtls_mpi_set_bit
00000000000233e4 g     O .rodata	000000000000000c raw_data_opt_or_null
00000000000099b4 g     F .text	00000000000006a8 init_asymm_operation
0000000000010e64 g     F .text	0000000000000010 TEE_Free
000000000000146c g     F .text	0000000000000164 entry_create_object
0000000000003158 g     F .text	0000000000000304 init_persistent_db
000000000001b7a0 g     F .text	0000000000000010 mbedtls_mpi_is_prime
0000000000010eb4 g     F .text	0000000000000008 TEE_CacheInvalidate
00000000000049f4 g     F .text	0000000000000008 object_is_copyable
00000000000103f8 g     F .text	0000000000000014 _assert_break
00000000000177ec g     F .text	000000000000000c TEE_BigIntAddMod
000000000001bfc8 g     F .text	000000000000003c mbedtls_ct_mpi_uint_cond_assign
00000000000159f0 g     F .text	000000000000000c _utee_get_time
0000000000000e20 g     F .text	00000000000000bc handle_get
0000000000015560 g     F .text	00000000000000fc TEE_GetPropertyName
0000000000011f8c g     F .text	0000000000000b94 TEE_AllocateOperation
0000000000015abc g     F .text	000000000000000c _utee_cryp_obj_populate
000000000000e9e8 g     F .text	000000000000006c serialargs_alloc_get_one_attribute
000000000001467c g     F .text	0000000000000024 TEE_GenerateRandom
0000000000010cbc g     F .text	0000000000000008 TEE_MemCompare
0000000000008754 g     F .text	00000000000000a8 tee2pkcs_add_attribute
0000000000015a5c g     F .text	000000000000000c _utee_cipher_update
000000000000f2fc g     F .text	0000000000000090 __vsnprintf
0000000000007530 g     F .text	00000000000000c0 entry_ck_close_all_sessions
000000000002e1a8 g     O .bss	0000000000000010 __elf_phdr_info
000000000000c498 g     F .text	00000000000002e8 load_tee_rsa_key_attrs
000000000000106c g     F .text	0000000000000048 pkcs11_handle2object
0000000000011924 g     F .text	0000000000000028 TEE_FreePersistentObjectEnumerator
0000000000010a84 g     F .text	00000000000000f4 TEE_OpenTASession
0000000000007f54 g     F .text	000000000000015c entry_ck_seed_random
0000000000007154 g     F .text	0000000000000108 entry_ck_token_mecha_info
0000000000000dec g     F .text	0000000000000034 handle_db_destroy
000000000000a9e8 g     F .text	0000000000000050 processing_is_tee_digest
00000000000105e8 g     F .text	0000000000000028 trace_ext_puts
0000000000001a6c g     F .text	00000000000000fc entry_find_objects
0000000000010610 g     F .text	0000000000000008 trace_ext_get_thread_id
000000000001183c g     F .text	000000000000002c TEE_CloseAndDeletePersistentObject
0000000000015ad4 g     F .text	000000000000000c _utee_cryp_derive_key
0000000000018940 g     F .text	000000000000006c mbedtls_mpi_free
0000000000005e14 g     F .text	0000000000000264 pkcs2tee_load_attr
0000000000015ab0 g     F .text	000000000000000c _utee_cryp_obj_reset
000000000000c15c g     F .text	0000000000000118 pkcs2tee_proc_params_rsa_oaep
000000000000940c g     F .text	00000000000000d4 entry_release_active_processing
0000000000010ea4 g     F .text	0000000000000008 TEE_CacheClean
0000000000015984 g     F .text	000000000000000c _utee_get_property_name_to_index
000000000001d3dc g     F .text	00000000000000b4 raw_calloc
00000000000162b4 g     F .text	0000000000000114 _base64_enc
0000000000000de0 g     F .text	000000000000000c handle_db_init
000000000001c230 g     F .text	00000000000000fc mbedtls_mpi_safe_cond_swap
000000000000620c g     F .text	000000000000001c id2str_rc
0000000000015aec g     F .text	000000000000000c _utee_authenc_init
00000000000114cc g     F .text	00000000000000ac TEE_CopyObjectAttributes1
000000000000f26c g     F .text	000000000000001c strlen
0000000000017a0c g     F .text	0000000000000234 TEE_BigIntComputeExtendedGcd
000000000000d688 g     F .text	00000000000005f0 step_symm_operation
0000000000015b70 g     F .text	000000000000000c _utee_storage_alloc_enum
00000000000082e4 g     F .text	00000000000000fc get_object_key_bit_size
000000000000f204 g     F .text	000000000000002c strchr
0000000000010ccc g     F .text	0000000000000028 TEE_GetSystemTime
0000000000015b34 g     F .text	000000000000000c _utee_asymm_verify
0000000000000000 g     O .ta_head	0000000000000020 ta_head
0000000000000490 g     F .text	0000000000000064 set_attribute
000000000001ca90 g     F .text	00000000000002b8 brel
0000000000006a84 g     F .text	0000000000000054 pkcs11_init
0000000000019660 g     F .text	000000000000015c mbedtls_mpi_sub_abs
000000000001ae7c g     F .text	0000000000000068 mbedtls_mpi_fill_random
0000000000006240 g     F .text	000000000000001c id2str_slot_flag
0000000000010c9c g     F .text	000000000000000c TEE_SetInstanceData
00000000000159b4 g     F .text	000000000000000c _utee_get_cancellation_flag
000000000000725c g     F .text	0000000000000250 entry_ck_open_session
000000000000be44 g     F .text	00000000000000e8 pkcs2tee_validate_rsa_pss
000000000001a39c g     F .text	000000000000023c mbedtls_mpi_write_string
000000000001d72c g     F .text	0000000000000018 aligned_alloc
000000000000bd70 g     F .text	00000000000000d4 pkcs2tee_proc_params_rsa_pss
0000000000004a6c g     F .text	00000000000000d0 check_created_attrs_against_token
00000000000119c4 g     F .text	00000000000000c4 TEE_GetNextPersistentObject
000000000000ee30 g     F .text	000000000000008c mechanism_supported_flags
0000000000010804 g     F .text	0000000000000028 TEE_CloseTASession
00000000000143e0 g     F .text	0000000000000124 TEE_AsymmetricVerifyDigest
0000000000015b4c g     F .text	000000000000000c _utee_storage_obj_create
000000000000ead8 g     F .text	0000000000000060 serialargs_get_session_from_handle
0000000000008278 g     F .text	000000000000006c release_active_processing
000000000001d744 g     F .text	0000000000000014 free
0000000000006348 g     F .text	000000000000001c id2str_certificate_type
000000000000ebc0 g     F .text	0000000000000048 mechanism_string_id
000000000000a05c g     F .text	00000000000007cc step_asymm_operation
0000000000006930 g     F .text	000000000000000c get_object_handle_db
000000000001cef4 g     F .text	0000000000000094 bstats
0000000000013858 g     F .text	00000000000000dc TEE_MACComputeFinal
0000000000031210 g     O .bss	0000000000000008 mbedtls_mpi_mempool
0000000000015a44 g     F .text	000000000000000c _utee_hash_final



Disassembly of section .text:

0000000000000020 <memcpy>:
memcpy():
/media/home/beste/01_Pro/ld25x/bsp_hu/MYD-LD25X-Uboot-L2022.10-V1.0.0/GEN_FIP/myir-st-optee/lib/libutils/isoc/newlib/memcpy.c:99
      20:	aa0003e5 	mov	x5, x0
/media/home/beste/01_Pro/ld25x/bsp_hu/MYD-LD25X-Uboot-L2022.10-V1.0.0/GEN_FIP/myir-st-optee/lib/libutils/isoc/newlib/memcpy.c:106
      24:	f1007c5f 	cmp	x2, #0x1f
      28:	540004c9 	b.ls	c0 <memcpy+0xa0>  // b.plast
      2c:	aa010006 	orr	x6, x0, x1
      30:	f24008c6 	ands	x6, x6, #0x7
      34:	540005a1 	b.ne	e8 <memcpy+0xc8>  // b.any
      38:	d1008048 	sub	x8, x2, #0x20
/media/home/beste/01_Pro/ld25x/bsp_hu/MYD-LD25X-Uboot-L2022.10-V1.0.0/GEN_FIP/myir-st-optee/lib/libutils/isoc/newlib/memcpy.c:108
      3c:	aa0103e4 	mov	x4, x1
      40:	927be908 	and	x8, x8, #0xffffffffffffffe0
/media/home/beste/01_Pro/ld25x/bsp_hu/MYD-LD25X-Uboot-L2022.10-V1.0.0/GEN_FIP/myir-st-optee/lib/libutils/isoc/newlib/memcpy.c:107
      44:	aa0003e3 	mov	x3, x0
      48:	91008108 	add	x8, x8, #0x20
      4c:	8b080005 	add	x5, x0, x8
/media/home/beste/01_Pro/ld25x/bsp_hu/MYD-LD25X-Uboot-L2022.10-V1.0.0/GEN_FIP/myir-st-optee/lib/libutils/isoc/newlib/memcpy.c:112
      50:	f9400087 	ldr	x7, [x4]
      54:	f9000067 	str	x7, [x3]
/media/home/beste/01_Pro/ld25x/bsp_hu/MYD-LD25X-Uboot-L2022.10-V1.0.0/GEN_FIP/myir-st-optee/lib/libutils/isoc/newlib/memcpy.c:115
      58:	91008084 	add	x4, x4, #0x20
      5c:	91008063 	add	x3, x3, #0x20
/media/home/beste/01_Pro/ld25x/bsp_hu/MYD-LD25X-Uboot-L2022.10-V1.0.0/GEN_FIP/myir-st-optee/lib/libutils/isoc/newlib/memcpy.c:113
      60:	f85e8087 	ldur	x7, [x4, #-24]
      64:	f81e8067 	stur	x7, [x3, #-24]
/media/home/beste/01_Pro/ld25x/bsp_hu/MYD-LD25X-Uboot-L2022.10-V1.0.0/GEN_FIP/myir-st-optee/lib/libutils/isoc/newlib/memcpy.c:114
      68:	f85f0087 	ldur	x7, [x4, #-16]
      6c:	f81f0067 	stur	x7, [x3, #-16]
/media/home/beste/01_Pro/ld25x/bsp_hu/MYD-LD25X-Uboot-L2022.10-V1.0.0/GEN_FIP/myir-st-optee/lib/libutils/isoc/newlib/memcpy.c:115
      70:	f85f8087 	ldur	x7, [x4, #-8]
      74:	f81f8067 	stur	x7, [x3, #-8]
/media/home/beste/01_Pro/ld25x/bsp_hu/MYD-LD25X-Uboot-L2022.10-V1.0.0/GEN_FIP/myir-st-optee/lib/libutils/isoc/newlib/memcpy.c:111
      78:	eb05007f 	cmp	x3, x5
      7c:	54fffea1 	b.ne	50 <memcpy+0x30>  // b.any
/media/home/beste/01_Pro/ld25x/bsp_hu/MYD-LD25X-Uboot-L2022.10-V1.0.0/GEN_FIP/myir-st-optee/lib/libutils/isoc/newlib/memcpy.c:115
      80:	8b080021 	add	x1, x1, x8
/media/home/beste/01_Pro/ld25x/bsp_hu/MYD-LD25X-Uboot-L2022.10-V1.0.0/GEN_FIP/myir-st-optee/lib/libutils/isoc/newlib/memcpy.c:116
      84:	92401043 	and	x3, x2, #0x1f
/media/home/beste/01_Pro/ld25x/bsp_hu/MYD-LD25X-Uboot-L2022.10-V1.0.0/GEN_FIP/myir-st-optee/lib/libutils/isoc/newlib/memcpy.c:120
      88:	f27d045f 	tst	x2, #0x18
      8c:	54000320 	b.eq	f0 <memcpy+0xd0>  // b.none
/media/home/beste/01_Pro/ld25x/bsp_hu/MYD-LD25X-Uboot-L2022.10-V1.0.0/GEN_FIP/myir-st-optee/lib/libutils/isoc/newlib/memcpy.c:121
      90:	f8666824 	ldr	x4, [x1, x6]
      94:	f82668a4 	str	x4, [x5, x6]
/media/home/beste/01_Pro/ld25x/bsp_hu/MYD-LD25X-Uboot-L2022.10-V1.0.0/GEN_FIP/myir-st-optee/lib/libutils/isoc/newlib/memcpy.c:120
      98:	910020c6 	add	x6, x6, #0x8
      9c:	cb060064 	sub	x4, x3, x6
      a0:	f1001c9f 	cmp	x4, #0x7
      a4:	54ffff68 	b.hi	90 <memcpy+0x70>  // b.pmore
      a8:	d1002063 	sub	x3, x3, #0x8
/media/home/beste/01_Pro/ld25x/bsp_hu/MYD-LD25X-Uboot-L2022.10-V1.0.0/GEN_FIP/myir-st-optee/lib/libutils/isoc/newlib/memcpy.c:122
      ac:	92400842 	and	x2, x2, #0x7
      b0:	927df063 	and	x3, x3, #0xfffffffffffffff8
      b4:	91002063 	add	x3, x3, #0x8
/media/home/beste/01_Pro/ld25x/bsp_hu/MYD-LD25X-Uboot-L2022.10-V1.0.0/GEN_FIP/myir-st-optee/lib/libutils/isoc/newlib/memcpy.c:121
      b8:	8b0300a5 	add	x5, x5, x3
      bc:	8b030021 	add	x1, x1, x3
/media/home/beste/01_Pro/ld25x/bsp_hu/MYD-LD25X-Uboot-L2022.10-V1.0.0/GEN_FIP/myir-st-optee/lib/libutils/isoc/newlib/memcpy.c:130
      c0:	d1000446 	sub	x6, x2, #0x1
      c4:	b4000102 	cbz	x2, e4 <memcpy+0xc4>
/media/home/beste/01_Pro/ld25x/bsp_hu/MYD-LD25X-Uboot-L2022.10-V1.0.0/GEN_FIP/myir-st-optee/lib/libutils/isoc/newlib/memcpy.c:99
      c8:	d2800002 	mov	x2, #0x0                   	// #0
      cc:	d503201f 	nop
/media/home/beste/01_Pro/ld25x/bsp_hu/MYD-LD25X-Uboot-L2022.10-V1.0.0/GEN_FIP/myir-st-optee/lib/libutils/isoc/newlib/memcpy.c:131
      d0:	38626824 	ldrb	w4, [x1, x2]
/media/home/beste/01_Pro/ld25x/bsp_hu/MYD-LD25X-Uboot-L2022.10-V1.0.0/GEN_FIP/myir-st-optee/lib/libutils/isoc/newlib/memcpy.c:130
      d4:	eb0200df 	cmp	x6, x2
/media/home/beste/01_Pro/ld25x/bsp_hu/MYD-LD25X-Uboot-L2022.10-V1.0.0/GEN_FIP/myir-st-optee/lib/libutils/isoc/newlib/memcpy.c:131
      d8:	382268a4 	strb	w4, [x5, x2]
/media/home/beste/01_Pro/ld25x/bsp_hu/MYD-LD25X-Uboot-L2022.10-V1.0.0/GEN_FIP/myir-st-optee/lib/libutils/isoc/newlib/memcpy.c:130
      dc:	91000442 	add	x2, x2, #0x1
      e0:	54ffff81 	b.ne	d0 <memcpy+0xb0>  // b.any
/media/home/beste/01_Pro/ld25x/bsp_hu/MYD-LD25X-Uboot-L2022.10-V1.0.0/GEN_FIP/myir-st-optee/lib/libutils/isoc/newlib/memcpy.c:135
      e4:	d65f03c0 	ret
/media/home/beste/01_Pro/ld25x/bsp_hu/MYD-LD25X-Uboot-L2022.10-V1.0.0/GEN_FIP/myir-st-optee/lib/libutils/isoc/newlib/memcpy.c:130
      e8:	d1000446 	sub	x6, x2, #0x1
      ec:	17fffff7 	b	c8 <memcpy+0xa8>
/media/home/beste/01_Pro/ld25x/bsp_hu/MYD-LD25X-Uboot-L2022.10-V1.0.0/GEN_FIP/myir-st-optee/lib/libutils/isoc/newlib/memcpy.c:116
      f0:	aa0303e2 	mov	x2, x3
      f4:	17fffff3 	b	c0 <memcpy+0xa0>

00000000000000f8 <_remove_attribute.isra.0>:
_remove_attribute():
/media/home/beste/01_Pro/ld25x/bsp_hu/MYD-LD25X-Uboot-L2022.10-V1.0.0/GEN_FIP/myir-st-optee/ta/pkcs11/src/attributes.c:61
      f8:	a9ba7bfd 	stp	x29, x30, [sp, #-96]!
      fc:	910003fd 	mov	x29, sp
     100:	a90153f3 	stp	x19, x20, [sp, #16]
/media/home/beste/01_Pro/ld25x/bsp_hu/MYD-LD25X-Uboot-L2022.10-V1.0.0/GEN_FIP/myir-st-optee/ta/pkcs11/src/attributes.c:70
     104:	aa0003f3 	mov	x19, x0
/media/home/beste/01_Pro/ld25x/bsp_hu/MYD-LD25X-Uboot-L2022.10-V1.0.0/GEN_FIP/myir-st-optee/ta/pkcs11/src/attributes.c:61
     108:	aa0003f4 	mov	x20, x0
     10c:	a9025bf5 	stp	x21, x22, [sp, #32]
     110:	2a0103f6 	mov	w22, w1
/media/home/beste/01_Pro/ld25x/bsp_hu/MYD-LD25X-Uboot-L2022.10-V1.0.0/GEN_FIP/myir-st-optee/ta/pkcs11/src/attributes.c:71
     114:	b8408675 	ldr	w21, [x19], #8
/media/home/beste/01_Pro/ld25x/bsp_hu/MYD-LD25X-Uboot-L2022.10-V1.0.0/GEN_FIP/myir-st-optee/ta/pkcs11/src/attributes.c:61
     118:	a90363f7 	stp	x23, x24, [sp, #48]
     11c:	12001c58 	and	w24, w2, #0xff
/media/home/beste/01_Pro/ld25x/bsp_hu/MYD-LD25X-Uboot-L2022.10-V1.0.0/GEN_FIP/myir-st-optee/ta/pkcs11/src/attributes.c:71
     120:	8b150275 	add	x21, x19, x21
/media/home/beste/01_Pro/ld25x/bsp_hu/MYD-LD25X-Uboot-L2022.10-V1.0.0/GEN_FIP/myir-st-optee/ta/pkcs11/src/attributes.c:61
     124:	f90023f9 	str	x25, [sp, #64]
/media/home/beste/01_Pro/ld25x/bsp_hu/MYD-LD25X-Uboot-L2022.10-V1.0.0/GEN_FIP/myir-st-optee/ta/pkcs11/src/attributes.c:75
     128:	910163f9 	add	x25, sp, #0x58
/media/home/beste/01_Pro/ld25x/bsp_hu/MYD-LD25X-Uboot-L2022.10-V1.0.0/GEN_FIP/myir-st-optee/ta/pkcs11/src/attributes.c:72
     12c:	eb1302bf 	cmp	x21, x19
     130:	54000068 	b.hi	13c <_remove_attribute.isra.0+0x44>  // b.pmore
/media/home/beste/01_Pro/ld25x/bsp_hu/MYD-LD25X-Uboot-L2022.10-V1.0.0/GEN_FIP/myir-st-optee/ta/pkcs11/src/attributes.c:95
     134:	52b00000 	mov	w0, #0x80000000            	// #-2147483648
     138:	1400001c 	b	1a8 <_remove_attribute.isra.0+0xb0>
/media/home/beste/01_Pro/ld25x/bsp_hu/MYD-LD25X-Uboot-L2022.10-V1.0.0/GEN_FIP/myir-st-optee/ta/pkcs11/src/attributes.c:75
     13c:	aa1303e1 	mov	x1, x19
     140:	aa1903e0 	mov	x0, x25
     144:	52800102 	mov	w2, #0x8                   	// #8
/media/home/beste/01_Pro/ld25x/bsp_hu/MYD-LD25X-Uboot-L2022.10-V1.0.0/GEN_FIP/myir-st-optee/ta/pkcs11/src/attributes.c:73
     148:	f9002fff 	str	xzr, [sp, #88]
/media/home/beste/01_Pro/ld25x/bsp_hu/MYD-LD25X-Uboot-L2022.10-V1.0.0/GEN_FIP/myir-st-optee/ta/pkcs11/src/attributes.c:75
     14c:	940042da 	bl	10cb4 <TEE_MemMove>
/media/home/beste/01_Pro/ld25x/bsp_hu/MYD-LD25X-Uboot-L2022.10-V1.0.0/GEN_FIP/myir-st-optee/ta/pkcs11/src/attributes.c:76
     150:	294b5fe1 	ldp	w1, w23, [sp, #88]
     154:	2a1703e0 	mov	w0, w23
     158:	91002000 	add	x0, x0, #0x8
/media/home/beste/01_Pro/ld25x/bsp_hu/MYD-LD25X-Uboot-L2022.10-V1.0.0/GEN_FIP/myir-st-optee/ta/pkcs11/src/attributes.c:78
     15c:	6b16003f 	cmp	w1, w22
     160:	54000060 	b.eq	16c <_remove_attribute.isra.0+0x74>  // b.none
/media/home/beste/01_Pro/ld25x/bsp_hu/MYD-LD25X-Uboot-L2022.10-V1.0.0/GEN_FIP/myir-st-optee/ta/pkcs11/src/attributes.c:72
     164:	8b000273 	add	x19, x19, x0
     168:	17fffff1 	b	12c <_remove_attribute.isra.0+0x34>
/media/home/beste/01_Pro/ld25x/bsp_hu/MYD-LD25X-Uboot-L2022.10-V1.0.0/GEN_FIP/myir-st-optee/ta/pkcs11/src/attributes.c:81
     16c:	34000058 	cbz	w24, 174 <_remove_attribute.isra.0+0x7c>
     170:	35000297 	cbnz	w23, 1c0 <_remove_attribute.isra.0+0xc8>
/media/home/beste/01_Pro/ld25x/bsp_hu/MYD-LD25X-Uboot-L2022.10-V1.0.0/GEN_FIP/myir-st-optee/ta/pkcs11/src/attributes.c:84
     174:	8b000261 	add	x1, x19, x0
     178:	aa1303e0 	mov	x0, x19
     17c:	4b0102a2 	sub	w2, w21, w1
     180:	940042cd 	bl	10cb4 <TEE_MemMove>
/media/home/beste/01_Pro/ld25x/bsp_hu/MYD-LD25X-Uboot-L2022.10-V1.0.0/GEN_FIP/myir-st-optee/ta/pkcs11/src/attributes.c:86
     184:	b9400680 	ldr	w0, [x20, #4]
/media/home/beste/01_Pro/ld25x/bsp_hu/MYD-LD25X-Uboot-L2022.10-V1.0.0/GEN_FIP/myir-st-optee/ta/pkcs11/src/attributes.c:87
     188:	128000e1 	mov	w1, #0xfffffff8            	// #-8
     18c:	4b170021 	sub	w1, w1, w23
/media/home/beste/01_Pro/ld25x/bsp_hu/MYD-LD25X-Uboot-L2022.10-V1.0.0/GEN_FIP/myir-st-optee/ta/pkcs11/src/attributes.c:86
     190:	51000400 	sub	w0, w0, #0x1
     194:	b9000680 	str	w0, [x20, #4]
/media/home/beste/01_Pro/ld25x/bsp_hu/MYD-LD25X-Uboot-L2022.10-V1.0.0/GEN_FIP/myir-st-optee/ta/pkcs11/src/attributes.c:87
     198:	b9400280 	ldr	w0, [x20]
     19c:	0b010000 	add	w0, w0, w1
     1a0:	b9000280 	str	w0, [x20]
/media/home/beste/01_Pro/ld25x/bsp_hu/MYD-LD25X-Uboot-L2022.10-V1.0.0/GEN_FIP/myir-st-optee/ta/pkcs11/src/attributes.c:91
     1a4:	52800000 	mov	w0, #0x0                   	// #0
/media/home/beste/01_Pro/ld25x/bsp_hu/MYD-LD25X-Uboot-L2022.10-V1.0.0/GEN_FIP/myir-st-optee/ta/pkcs11/src/attributes.c:96
     1a8:	a94153f3 	ldp	x19, x20, [sp, #16]
     1ac:	a9425bf5 	ldp	x21, x22, [sp, #32]
     1b0:	a94363f7 	ldp	x23, x24, [sp, #48]
     1b4:	f94023f9 	ldr	x25, [sp, #64]
     1b8:	a8c67bfd 	ldp	x29, x30, [sp], #96
     1bc:	d65f03c0 	ret
/media/home/beste/01_Pro/ld25x/bsp_hu/MYD-LD25X-Uboot-L2022.10-V1.0.0/GEN_FIP/myir-st-optee/ta/pkcs11/src/attributes.c:82
     1c0:	528000c0 	mov	w0, #0x6                   	// #6
     1c4:	17fffff9 	b	1a8 <_remove_attribute.isra.0+0xb0>

00000000000001c8 <init_attributes_head>:
init_attributes_head():
/media/home/beste/01_Pro/ld25x/bsp_hu/MYD-LD25X-Uboot-L2022.10-V1.0.0/GEN_FIP/myir-st-optee/ta/pkcs11/src/attributes.c:23
     1c8:	a9be7bfd 	stp	x29, x30, [sp, #-32]!
/media/home/beste/01_Pro/ld25x/bsp_hu/MYD-LD25X-Uboot-L2022.10-V1.0.0/GEN_FIP/myir-st-optee/ta/pkcs11/src/attributes.c:24
     1cc:	52800001 	mov	w1, #0x0                   	// #0
/media/home/beste/01_Pro/ld25x/bsp_hu/MYD-LD25X-Uboot-L2022.10-V1.0.0/GEN_FIP/myir-st-optee/ta/pkcs11/src/attributes.c:23
     1d0:	910003fd 	mov	x29, sp
     1d4:	f9000bf3 	str	x19, [sp, #16]
     1d8:	aa0003f3 	mov	x19, x0
/media/home/beste/01_Pro/ld25x/bsp_hu/MYD-LD25X-Uboot-L2022.10-V1.0.0/GEN_FIP/myir-st-optee/ta/pkcs11/src/attributes.c:24
     1dc:	52800100 	mov	w0, #0x8                   	// #8
     1e0:	94004307 	bl	10dfc <TEE_Malloc>
/media/home/beste/01_Pro/ld25x/bsp_hu/MYD-LD25X-Uboot-L2022.10-V1.0.0/GEN_FIP/myir-st-optee/ta/pkcs11/src/attributes.c:28
     1e4:	f100001f 	cmp	x0, #0x0
/media/home/beste/01_Pro/ld25x/bsp_hu/MYD-LD25X-Uboot-L2022.10-V1.0.0/GEN_FIP/myir-st-optee/ta/pkcs11/src/attributes.c:24
     1e8:	f9000260 	str	x0, [x19]
/media/home/beste/01_Pro/ld25x/bsp_hu/MYD-LD25X-Uboot-L2022.10-V1.0.0/GEN_FIP/myir-st-optee/ta/pkcs11/src/attributes.c:29
     1ec:	52800620 	mov	w0, #0x31                  	// #49
     1f0:	f9400bf3 	ldr	x19, [sp, #16]
     1f4:	1a9f0000 	csel	w0, w0, wzr, eq	// eq = none
     1f8:	a8c27bfd 	ldp	x29, x30, [sp], #32
     1fc:	d65f03c0 	ret

0000000000000200 <add_attribute>:
add_attribute():
/media/home/beste/01_Pro/ld25x/bsp_hu/MYD-LD25X-Uboot-L2022.10-V1.0.0/GEN_FIP/myir-st-optee/ta/pkcs11/src/attributes.c:33
     200:	a9bb7bfd 	stp	x29, x30, [sp, #-80]!
     204:	910003fd 	mov	x29, sp
     208:	a9025bf5 	stp	x21, x22, [sp, #32]
     20c:	aa0203f6 	mov	x22, x2
/media/home/beste/01_Pro/ld25x/bsp_hu/MYD-LD25X-Uboot-L2022.10-V1.0.0/GEN_FIP/myir-st-optee/ta/pkcs11/src/attributes.c:40
     210:	910123f5 	add	x21, sp, #0x48
/media/home/beste/01_Pro/ld25x/bsp_hu/MYD-LD25X-Uboot-L2022.10-V1.0.0/GEN_FIP/myir-st-optee/ta/pkcs11/src/attributes.c:34
     214:	f9400002 	ldr	x2, [x0]
/media/home/beste/01_Pro/ld25x/bsp_hu/MYD-LD25X-Uboot-L2022.10-V1.0.0/GEN_FIP/myir-st-optee/ta/pkcs11/src/attributes.c:33
     218:	a90153f3 	stp	x19, x20, [sp, #16]
     21c:	aa0303f3 	mov	x19, x3
     220:	aa0003f4 	mov	x20, x0
/media/home/beste/01_Pro/ld25x/bsp_hu/MYD-LD25X-Uboot-L2022.10-V1.0.0/GEN_FIP/myir-st-optee/ta/pkcs11/src/attributes.c:40
     224:	d2800083 	mov	x3, #0x4                   	// #4
/media/home/beste/01_Pro/ld25x/bsp_hu/MYD-LD25X-Uboot-L2022.10-V1.0.0/GEN_FIP/myir-st-optee/ta/pkcs11/src/attributes.c:34
     228:	b9400042 	ldr	w2, [x2]
/media/home/beste/01_Pro/ld25x/bsp_hu/MYD-LD25X-Uboot-L2022.10-V1.0.0/GEN_FIP/myir-st-optee/ta/pkcs11/src/attributes.c:33
     22c:	f9001bf7 	str	x23, [sp, #48]
/media/home/beste/01_Pro/ld25x/bsp_hu/MYD-LD25X-Uboot-L2022.10-V1.0.0/GEN_FIP/myir-st-optee/ta/pkcs11/src/attributes.c:40
     230:	910113f7 	add	x23, sp, #0x44
/media/home/beste/01_Pro/ld25x/bsp_hu/MYD-LD25X-Uboot-L2022.10-V1.0.0/GEN_FIP/myir-st-optee/ta/pkcs11/src/attributes.c:34
     234:	91002042 	add	x2, x2, #0x8
/media/home/beste/01_Pro/ld25x/bsp_hu/MYD-LD25X-Uboot-L2022.10-V1.0.0/GEN_FIP/myir-st-optee/ta/pkcs11/src/attributes.c:39
     238:	b90047e1 	str	w1, [sp, #68]
/media/home/beste/01_Pro/ld25x/bsp_hu/MYD-LD25X-Uboot-L2022.10-V1.0.0/GEN_FIP/myir-st-optee/ta/pkcs11/src/attributes.c:40
     23c:	aa1503e1 	mov	x1, x21
/media/home/beste/01_Pro/ld25x/bsp_hu/MYD-LD25X-Uboot-L2022.10-V1.0.0/GEN_FIP/myir-st-optee/ta/pkcs11/src/attributes.c:34
     240:	f90027e2 	str	x2, [sp, #72]
/media/home/beste/01_Pro/ld25x/bsp_hu/MYD-LD25X-Uboot-L2022.10-V1.0.0/GEN_FIP/myir-st-optee/ta/pkcs11/src/attributes.c:40
     244:	aa1703e2 	mov	x2, x23
     248:	94003a3c 	bl	eb38 <serialize>
/media/home/beste/01_Pro/ld25x/bsp_hu/MYD-LD25X-Uboot-L2022.10-V1.0.0/GEN_FIP/myir-st-optee/ta/pkcs11/src/attributes.c:41
     24c:	350002c0 	cbnz	w0, 2a4 <add_attribute+0xa4>
/media/home/beste/01_Pro/ld25x/bsp_hu/MYD-LD25X-Uboot-L2022.10-V1.0.0/GEN_FIP/myir-st-optee/ta/pkcs11/src/attributes.c:45
     250:	aa1703e2 	mov	x2, x23
     254:	aa1503e1 	mov	x1, x21
     258:	aa1403e0 	mov	x0, x20
     25c:	d2800083 	mov	x3, #0x4                   	// #4
/media/home/beste/01_Pro/ld25x/bsp_hu/MYD-LD25X-Uboot-L2022.10-V1.0.0/GEN_FIP/myir-st-optee/ta/pkcs11/src/attributes.c:44
     260:	b90047f3 	str	w19, [sp, #68]
/media/home/beste/01_Pro/ld25x/bsp_hu/MYD-LD25X-Uboot-L2022.10-V1.0.0/GEN_FIP/myir-st-optee/ta/pkcs11/src/attributes.c:45
     264:	94003a35 	bl	eb38 <serialize>
/media/home/beste/01_Pro/ld25x/bsp_hu/MYD-LD25X-Uboot-L2022.10-V1.0.0/GEN_FIP/myir-st-optee/ta/pkcs11/src/attributes.c:46
     268:	350001e0 	cbnz	w0, 2a4 <add_attribute+0xa4>
/media/home/beste/01_Pro/ld25x/bsp_hu/MYD-LD25X-Uboot-L2022.10-V1.0.0/GEN_FIP/myir-st-optee/ta/pkcs11/src/attributes.c:49
     26c:	aa1303e3 	mov	x3, x19
     270:	aa1603e2 	mov	x2, x22
     274:	aa1503e1 	mov	x1, x21
     278:	aa1403e0 	mov	x0, x20
     27c:	94003a2f 	bl	eb38 <serialize>
/media/home/beste/01_Pro/ld25x/bsp_hu/MYD-LD25X-Uboot-L2022.10-V1.0.0/GEN_FIP/myir-st-optee/ta/pkcs11/src/attributes.c:50
     280:	35000120 	cbnz	w0, 2a4 <add_attribute+0xa4>
/media/home/beste/01_Pro/ld25x/bsp_hu/MYD-LD25X-Uboot-L2022.10-V1.0.0/GEN_FIP/myir-st-optee/ta/pkcs11/src/attributes.c:55
     284:	f9400281 	ldr	x1, [x20]
     288:	11002273 	add	w19, w19, #0x8
     28c:	b9400022 	ldr	w2, [x1]
     290:	0b130042 	add	w2, w2, w19
     294:	b9000022 	str	w2, [x1]
/media/home/beste/01_Pro/ld25x/bsp_hu/MYD-LD25X-Uboot-L2022.10-V1.0.0/GEN_FIP/myir-st-optee/ta/pkcs11/src/attributes.c:56
     298:	b9400422 	ldr	w2, [x1, #4]
     29c:	11000442 	add	w2, w2, #0x1
     2a0:	b9000422 	str	w2, [x1, #4]
/media/home/beste/01_Pro/ld25x/bsp_hu/MYD-LD25X-Uboot-L2022.10-V1.0.0/GEN_FIP/myir-st-optee/ta/pkcs11/src/attributes.c:59
     2a4:	a94153f3 	ldp	x19, x20, [sp, #16]
     2a8:	a9425bf5 	ldp	x21, x22, [sp, #32]
     2ac:	f9401bf7 	ldr	x23, [sp, #48]
     2b0:	a8c57bfd 	ldp	x29, x30, [sp], #80
     2b4:	d65f03c0 	ret

00000000000002b8 <remove_empty_attribute>:
remove_empty_attribute():
/media/home/beste/01_Pro/ld25x/bsp_hu/MYD-LD25X-Uboot-L2022.10-V1.0.0/GEN_FIP/myir-st-optee/ta/pkcs11/src/attributes.c:101
     2b8:	f9400000 	ldr	x0, [x0]
     2bc:	52800022 	mov	w2, #0x1                   	// #1
     2c0:	17ffff8e 	b	f8 <_remove_attribute.isra.0>

00000000000002c4 <get_attribute_ptrs>:
get_attribute_ptrs():
/media/home/beste/01_Pro/ld25x/bsp_hu/MYD-LD25X-Uboot-L2022.10-V1.0.0/GEN_FIP/myir-st-optee/ta/pkcs11/src/attributes.c:106
     2c4:	a9b87bfd 	stp	x29, x30, [sp, #-128]!
     2c8:	910003fd 	mov	x29, sp
     2cc:	a90153f3 	stp	x19, x20, [sp, #16]
/media/home/beste/01_Pro/ld25x/bsp_hu/MYD-LD25X-Uboot-L2022.10-V1.0.0/GEN_FIP/myir-st-optee/ta/pkcs11/src/attributes.c:107
     2d0:	aa0003f3 	mov	x19, x0
/media/home/beste/01_Pro/ld25x/bsp_hu/MYD-LD25X-Uboot-L2022.10-V1.0.0/GEN_FIP/myir-st-optee/ta/pkcs11/src/attributes.c:112
     2d4:	aa0203f4 	mov	x20, x2
/media/home/beste/01_Pro/ld25x/bsp_hu/MYD-LD25X-Uboot-L2022.10-V1.0.0/GEN_FIP/myir-st-optee/ta/pkcs11/src/attributes.c:106
     2d8:	a9046bf9 	stp	x25, x26, [sp, #64]
     2dc:	aa0203fa 	mov	x26, x2
/media/home/beste/01_Pro/ld25x/bsp_hu/MYD-LD25X-Uboot-L2022.10-V1.0.0/GEN_FIP/myir-st-optee/ta/pkcs11/src/attributes.c:108
     2e0:	b8408679 	ldr	w25, [x19], #8
/media/home/beste/01_Pro/ld25x/bsp_hu/MYD-LD25X-Uboot-L2022.10-V1.0.0/GEN_FIP/myir-st-optee/ta/pkcs11/src/attributes.c:106
     2e4:	a90363f7 	stp	x23, x24, [sp, #48]
/media/home/beste/01_Pro/ld25x/bsp_hu/MYD-LD25X-Uboot-L2022.10-V1.0.0/GEN_FIP/myir-st-optee/ta/pkcs11/src/attributes.c:119
     2e8:	9101e3e0 	add	x0, sp, #0x78
/media/home/beste/01_Pro/ld25x/bsp_hu/MYD-LD25X-Uboot-L2022.10-V1.0.0/GEN_FIP/myir-st-optee/ta/pkcs11/src/attributes.c:108
     2ec:	8b190279 	add	x25, x19, x25
/media/home/beste/01_Pro/ld25x/bsp_hu/MYD-LD25X-Uboot-L2022.10-V1.0.0/GEN_FIP/myir-st-optee/ta/pkcs11/src/attributes.c:110
     2f0:	f9400097 	ldr	x23, [x4]
/media/home/beste/01_Pro/ld25x/bsp_hu/MYD-LD25X-Uboot-L2022.10-V1.0.0/GEN_FIP/myir-st-optee/ta/pkcs11/src/attributes.c:106
     2f4:	a9025bf5 	stp	x21, x22, [sp, #32]
     2f8:	aa0403f6 	mov	x22, x4
/media/home/beste/01_Pro/ld25x/bsp_hu/MYD-LD25X-Uboot-L2022.10-V1.0.0/GEN_FIP/myir-st-optee/ta/pkcs11/src/attributes.c:113
     2fc:	aa0303f5 	mov	x21, x3
/media/home/beste/01_Pro/ld25x/bsp_hu/MYD-LD25X-Uboot-L2022.10-V1.0.0/GEN_FIP/myir-st-optee/ta/pkcs11/src/attributes.c:106
     300:	a90573fb 	stp	x27, x28, [sp, #80]
     304:	2a0103fc 	mov	w28, w1
     308:	aa0303fb 	mov	x27, x3
/media/home/beste/01_Pro/ld25x/bsp_hu/MYD-LD25X-Uboot-L2022.10-V1.0.0/GEN_FIP/myir-st-optee/ta/pkcs11/src/attributes.c:111
     30c:	d2800018 	mov	x24, #0x0                   	// #0
/media/home/beste/01_Pro/ld25x/bsp_hu/MYD-LD25X-Uboot-L2022.10-V1.0.0/GEN_FIP/myir-st-optee/ta/pkcs11/src/attributes.c:119
     310:	f90037e0 	str	x0, [sp, #104]
/media/home/beste/01_Pro/ld25x/bsp_hu/MYD-LD25X-Uboot-L2022.10-V1.0.0/GEN_FIP/myir-st-optee/ta/pkcs11/src/attributes.c:115 (discriminator 1)
     314:	eb19027f 	cmp	x19, x25
     318:	540001a3 	b.cc	34c <get_attribute_ptrs+0x88>  // b.lo, b.ul, b.last
/media/home/beste/01_Pro/ld25x/bsp_hu/MYD-LD25X-Uboot-L2022.10-V1.0.0/GEN_FIP/myir-st-optee/ta/pkcs11/src/attributes.c:145
     31c:	eb19027f 	cmp	x19, x25
     320:	54000069 	b.ls	32c <get_attribute_ptrs+0x68>  // b.plast
/media/home/beste/01_Pro/ld25x/bsp_hu/MYD-LD25X-Uboot-L2022.10-V1.0.0/GEN_FIP/myir-st-optee/ta/pkcs11/src/attributes.c:147
     324:	52800000 	mov	w0, #0x0                   	// #0
     328:	940051ea 	bl	14ad0 <TEE_Panic>
/media/home/beste/01_Pro/ld25x/bsp_hu/MYD-LD25X-Uboot-L2022.10-V1.0.0/GEN_FIP/myir-st-optee/ta/pkcs11/src/attributes.c:151
     32c:	a94153f3 	ldp	x19, x20, [sp, #16]
     330:	a9446bf9 	ldp	x25, x26, [sp, #64]
     334:	a94573fb 	ldp	x27, x28, [sp, #80]
/media/home/beste/01_Pro/ld25x/bsp_hu/MYD-LD25X-Uboot-L2022.10-V1.0.0/GEN_FIP/myir-st-optee/ta/pkcs11/src/attributes.c:150
     338:	f90002d8 	str	x24, [x22]
/media/home/beste/01_Pro/ld25x/bsp_hu/MYD-LD25X-Uboot-L2022.10-V1.0.0/GEN_FIP/myir-st-optee/ta/pkcs11/src/attributes.c:151
     33c:	a9425bf5 	ldp	x21, x22, [sp, #32]
     340:	a94363f7 	ldp	x23, x24, [sp, #48]
     344:	a8c87bfd 	ldp	x29, x30, [sp], #128
     348:	d65f03c0 	ret
/media/home/beste/01_Pro/ld25x/bsp_hu/MYD-LD25X-Uboot-L2022.10-V1.0.0/GEN_FIP/myir-st-optee/ta/pkcs11/src/attributes.c:119
     34c:	f94037e0 	ldr	x0, [sp, #104]
     350:	aa1303e1 	mov	x1, x19
     354:	52800102 	mov	w2, #0x8                   	// #8
/media/home/beste/01_Pro/ld25x/bsp_hu/MYD-LD25X-Uboot-L2022.10-V1.0.0/GEN_FIP/myir-st-optee/ta/pkcs11/src/attributes.c:117
     358:	f9003fff 	str	xzr, [sp, #120]
/media/home/beste/01_Pro/ld25x/bsp_hu/MYD-LD25X-Uboot-L2022.10-V1.0.0/GEN_FIP/myir-st-optee/ta/pkcs11/src/attributes.c:119
     35c:	94004256 	bl	10cb4 <TEE_MemMove>
/media/home/beste/01_Pro/ld25x/bsp_hu/MYD-LD25X-Uboot-L2022.10-V1.0.0/GEN_FIP/myir-st-optee/ta/pkcs11/src/attributes.c:120
     360:	294f0be0 	ldp	w0, w2, [sp, #120]
     364:	2a0203e1 	mov	w1, w2
     368:	91002021 	add	x1, x1, #0x8
/media/home/beste/01_Pro/ld25x/bsp_hu/MYD-LD25X-Uboot-L2022.10-V1.0.0/GEN_FIP/myir-st-optee/ta/pkcs11/src/attributes.c:122
     36c:	6b1c001f 	cmp	w0, w28
     370:	54000201 	b.ne	3b0 <get_attribute_ptrs+0xec>  // b.any
/media/home/beste/01_Pro/ld25x/bsp_hu/MYD-LD25X-Uboot-L2022.10-V1.0.0/GEN_FIP/myir-st-optee/ta/pkcs11/src/attributes.c:125
     374:	91000718 	add	x24, x24, #0x1
/media/home/beste/01_Pro/ld25x/bsp_hu/MYD-LD25X-Uboot-L2022.10-V1.0.0/GEN_FIP/myir-st-optee/ta/pkcs11/src/attributes.c:127
     378:	b40001d7 	cbz	x23, 3b0 <get_attribute_ptrs+0xec>
/media/home/beste/01_Pro/ld25x/bsp_hu/MYD-LD25X-Uboot-L2022.10-V1.0.0/GEN_FIP/myir-st-optee/ta/pkcs11/src/attributes.c:130
     37c:	b40000fa 	cbz	x26, 398 <get_attribute_ptrs+0xd4>
/media/home/beste/01_Pro/ld25x/bsp_hu/MYD-LD25X-Uboot-L2022.10-V1.0.0/GEN_FIP/myir-st-optee/ta/pkcs11/src/attributes.c:132
     380:	aa1403e0 	mov	x0, x20
     384:	91002265 	add	x5, x19, #0x8
     388:	7100005f 	cmp	w2, #0x0
     38c:	9a9f10a5 	csel	x5, x5, xzr, ne	// ne = any
     390:	f8008405 	str	x5, [x0], #8
     394:	aa0003f4 	mov	x20, x0
/media/home/beste/01_Pro/ld25x/bsp_hu/MYD-LD25X-Uboot-L2022.10-V1.0.0/GEN_FIP/myir-st-optee/ta/pkcs11/src/attributes.c:137
     398:	b400009b 	cbz	x27, 3a8 <get_attribute_ptrs+0xe4>
/media/home/beste/01_Pro/ld25x/bsp_hu/MYD-LD25X-Uboot-L2022.10-V1.0.0/GEN_FIP/myir-st-optee/ta/pkcs11/src/attributes.c:138
     39c:	aa1503e0 	mov	x0, x21
     3a0:	b8004402 	str	w2, [x0], #4
     3a4:	aa0003f5 	mov	x21, x0
/media/home/beste/01_Pro/ld25x/bsp_hu/MYD-LD25X-Uboot-L2022.10-V1.0.0/GEN_FIP/myir-st-optee/ta/pkcs11/src/attributes.c:140
     3a8:	eb1802ff 	cmp	x23, x24
     3ac:	54fffb80 	b.eq	31c <get_attribute_ptrs+0x58>  // b.none
/media/home/beste/01_Pro/ld25x/bsp_hu/MYD-LD25X-Uboot-L2022.10-V1.0.0/GEN_FIP/myir-st-optee/ta/pkcs11/src/attributes.c:115
     3b0:	8b010273 	add	x19, x19, x1
     3b4:	17ffffd8 	b	314 <get_attribute_ptrs+0x50>

00000000000003b8 <get_attribute_ptr>:
get_attribute_ptr():
/media/home/beste/01_Pro/ld25x/bsp_hu/MYD-LD25X-Uboot-L2022.10-V1.0.0/GEN_FIP/myir-st-optee/ta/pkcs11/src/attributes.c:155
     3b8:	a9be7bfd 	stp	x29, x30, [sp, #-32]!
/media/home/beste/01_Pro/ld25x/bsp_hu/MYD-LD25X-Uboot-L2022.10-V1.0.0/GEN_FIP/myir-st-optee/ta/pkcs11/src/attributes.c:156
     3bc:	d2800024 	mov	x4, #0x1                   	// #1
/media/home/beste/01_Pro/ld25x/bsp_hu/MYD-LD25X-Uboot-L2022.10-V1.0.0/GEN_FIP/myir-st-optee/ta/pkcs11/src/attributes.c:155
     3c0:	910003fd 	mov	x29, sp
/media/home/beste/01_Pro/ld25x/bsp_hu/MYD-LD25X-Uboot-L2022.10-V1.0.0/GEN_FIP/myir-st-optee/ta/pkcs11/src/attributes.c:156
     3c4:	f9000fe4 	str	x4, [sp, #24]
/media/home/beste/01_Pro/ld25x/bsp_hu/MYD-LD25X-Uboot-L2022.10-V1.0.0/GEN_FIP/myir-st-optee/ta/pkcs11/src/attributes.c:158
     3c8:	910063e4 	add	x4, sp, #0x18
     3cc:	97ffffbe 	bl	2c4 <get_attribute_ptrs>
/media/home/beste/01_Pro/ld25x/bsp_hu/MYD-LD25X-Uboot-L2022.10-V1.0.0/GEN_FIP/myir-st-optee/ta/pkcs11/src/attributes.c:160
     3d0:	f9400fe0 	ldr	x0, [sp, #24]
     3d4:	b40000c0 	cbz	x0, 3ec <get_attribute_ptr+0x34>
/media/home/beste/01_Pro/ld25x/bsp_hu/MYD-LD25X-Uboot-L2022.10-V1.0.0/GEN_FIP/myir-st-optee/ta/pkcs11/src/attributes.c:166
     3d8:	f100041f 	cmp	x0, #0x1
     3dc:	528000a0 	mov	w0, #0x5                   	// #5
     3e0:	1a9f1000 	csel	w0, w0, wzr, ne	// ne = any
/media/home/beste/01_Pro/ld25x/bsp_hu/MYD-LD25X-Uboot-L2022.10-V1.0.0/GEN_FIP/myir-st-optee/ta/pkcs11/src/attributes.c:167
     3e4:	a8c27bfd 	ldp	x29, x30, [sp], #32
     3e8:	d65f03c0 	ret
/media/home/beste/01_Pro/ld25x/bsp_hu/MYD-LD25X-Uboot-L2022.10-V1.0.0/GEN_FIP/myir-st-optee/ta/pkcs11/src/attributes.c:161
     3ec:	52b00000 	mov	w0, #0x80000000            	// #-2147483648
     3f0:	17fffffd 	b	3e4 <get_attribute_ptr+0x2c>

00000000000003f4 <get_attribute>:
get_attribute():
/media/home/beste/01_Pro/ld25x/bsp_hu/MYD-LD25X-Uboot-L2022.10-V1.0.0/GEN_FIP/myir-st-optee/ta/pkcs11/src/attributes.c:171
     3f4:	a9bc7bfd 	stp	x29, x30, [sp, #-64]!
     3f8:	910003fd 	mov	x29, sp
     3fc:	a90153f3 	stp	x19, x20, [sp, #16]
     400:	aa0203f3 	mov	x19, x2
     404:	aa0303f4 	mov	x20, x3
/media/home/beste/01_Pro/ld25x/bsp_hu/MYD-LD25X-Uboot-L2022.10-V1.0.0/GEN_FIP/myir-st-optee/ta/pkcs11/src/attributes.c:176
     408:	9100e3e2 	add	x2, sp, #0x38
     40c:	9100d3e3 	add	x3, sp, #0x34
/media/home/beste/01_Pro/ld25x/bsp_hu/MYD-LD25X-Uboot-L2022.10-V1.0.0/GEN_FIP/myir-st-optee/ta/pkcs11/src/attributes.c:171
     410:	f90013f5 	str	x21, [sp, #32]
/media/home/beste/01_Pro/ld25x/bsp_hu/MYD-LD25X-Uboot-L2022.10-V1.0.0/GEN_FIP/myir-st-optee/ta/pkcs11/src/attributes.c:174
     414:	b90037ff 	str	wzr, [sp, #52]
/media/home/beste/01_Pro/ld25x/bsp_hu/MYD-LD25X-Uboot-L2022.10-V1.0.0/GEN_FIP/myir-st-optee/ta/pkcs11/src/attributes.c:173
     418:	f9001fff 	str	xzr, [sp, #56]
/media/home/beste/01_Pro/ld25x/bsp_hu/MYD-LD25X-Uboot-L2022.10-V1.0.0/GEN_FIP/myir-st-optee/ta/pkcs11/src/attributes.c:176
     41c:	97ffffe7 	bl	3b8 <get_attribute_ptr>
     420:	2a0003f5 	mov	w21, w0
/media/home/beste/01_Pro/ld25x/bsp_hu/MYD-LD25X-Uboot-L2022.10-V1.0.0/GEN_FIP/myir-st-optee/ta/pkcs11/src/attributes.c:177
     424:	35000100 	cbnz	w0, 444 <get_attribute+0x50>
/media/home/beste/01_Pro/ld25x/bsp_hu/MYD-LD25X-Uboot-L2022.10-V1.0.0/GEN_FIP/myir-st-optee/ta/pkcs11/src/attributes.c:180
     428:	b4000194 	cbz	x20, 458 <get_attribute+0x64>
/media/home/beste/01_Pro/ld25x/bsp_hu/MYD-LD25X-Uboot-L2022.10-V1.0.0/GEN_FIP/myir-st-optee/ta/pkcs11/src/attributes.c:180 (discriminator 1)
     42c:	b9400280 	ldr	w0, [x20]
     430:	b94037e2 	ldr	w2, [sp, #52]
     434:	6b02001f 	cmp	w0, w2
     438:	540001c2 	b.cs	470 <get_attribute+0x7c>  // b.hs, b.nlast
/media/home/beste/01_Pro/ld25x/bsp_hu/MYD-LD25X-Uboot-L2022.10-V1.0.0/GEN_FIP/myir-st-optee/ta/pkcs11/src/attributes.c:183
     43c:	52802a15 	mov	w21, #0x150                 	// #336
/media/home/beste/01_Pro/ld25x/bsp_hu/MYD-LD25X-Uboot-L2022.10-V1.0.0/GEN_FIP/myir-st-optee/ta/pkcs11/src/attributes.c:181
     440:	b9000282 	str	w2, [x20]
/media/home/beste/01_Pro/ld25x/bsp_hu/MYD-LD25X-Uboot-L2022.10-V1.0.0/GEN_FIP/myir-st-optee/ta/pkcs11/src/attributes.c:193
     444:	a94153f3 	ldp	x19, x20, [sp, #16]
     448:	2a1503e0 	mov	w0, w21
     44c:	f94013f5 	ldr	x21, [sp, #32]
     450:	a8c47bfd 	ldp	x29, x30, [sp], #64
     454:	d65f03c0 	ret
/media/home/beste/01_Pro/ld25x/bsp_hu/MYD-LD25X-Uboot-L2022.10-V1.0.0/GEN_FIP/myir-st-optee/ta/pkcs11/src/attributes.c:186
     458:	b4ffff73 	cbz	x19, 444 <get_attribute+0x50>
/media/home/beste/01_Pro/ld25x/bsp_hu/MYD-LD25X-Uboot-L2022.10-V1.0.0/GEN_FIP/myir-st-optee/ta/pkcs11/src/attributes.c:187
     45c:	f9401fe1 	ldr	x1, [sp, #56]
     460:	aa1303e0 	mov	x0, x19
     464:	b94037e2 	ldr	w2, [sp, #52]
     468:	94004213 	bl	10cb4 <TEE_MemMove>
/media/home/beste/01_Pro/ld25x/bsp_hu/MYD-LD25X-Uboot-L2022.10-V1.0.0/GEN_FIP/myir-st-optee/ta/pkcs11/src/attributes.c:189
     46c:	17fffff6 	b	444 <get_attribute+0x50>
/media/home/beste/01_Pro/ld25x/bsp_hu/MYD-LD25X-Uboot-L2022.10-V1.0.0/GEN_FIP/myir-st-optee/ta/pkcs11/src/attributes.c:186
     470:	b5000093 	cbnz	x19, 480 <get_attribute+0x8c>
/media/home/beste/01_Pro/ld25x/bsp_hu/MYD-LD25X-Uboot-L2022.10-V1.0.0/GEN_FIP/myir-st-optee/ta/pkcs11/src/attributes.c:190
     474:	b94037e0 	ldr	w0, [sp, #52]
     478:	b9000280 	str	w0, [x20]
     47c:	17fffff2 	b	444 <get_attribute+0x50>
/media/home/beste/01_Pro/ld25x/bsp_hu/MYD-LD25X-Uboot-L2022.10-V1.0.0/GEN_FIP/myir-st-optee/ta/pkcs11/src/attributes.c:187
     480:	f9401fe1 	ldr	x1, [sp, #56]
     484:	aa1303e0 	mov	x0, x19
     488:	9400420b 	bl	10cb4 <TEE_MemMove>
/media/home/beste/01_Pro/ld25x/bsp_hu/MYD-LD25X-Uboot-L2022.10-V1.0.0/GEN_FIP/myir-st-optee/ta/pkcs11/src/attributes.c:189
     48c:	17fffffa 	b	474 <get_attribute+0x80>

0000000000000490 <set_attribute>:
set_attribute():
/media/home/beste/01_Pro/ld25x/bsp_hu/MYD-LD25X-Uboot-L2022.10-V1.0.0/GEN_FIP/myir-st-optee/ta/pkcs11/src/attributes.c:197
     490:	a9bd7bfd 	stp	x29, x30, [sp, #-48]!
     494:	910003fd 	mov	x29, sp
     498:	a90153f3 	stp	x19, x20, [sp, #16]
     49c:	aa0003f3 	mov	x19, x0
     4a0:	2a0103f4 	mov	w20, w1
/media/home/beste/01_Pro/ld25x/bsp_hu/MYD-LD25X-Uboot-L2022.10-V1.0.0/GEN_FIP/myir-st-optee/ta/pkcs11/src/attributes.c:200
     4a4:	f9400000 	ldr	x0, [x0]
/media/home/beste/01_Pro/ld25x/bsp_hu/MYD-LD25X-Uboot-L2022.10-V1.0.0/GEN_FIP/myir-st-optee/ta/pkcs11/src/attributes.c:197
     4a8:	a9025bf5 	stp	x21, x22, [sp, #32]
     4ac:	aa0203f5 	mov	x21, x2
     4b0:	aa0303f6 	mov	x22, x3
/media/home/beste/01_Pro/ld25x/bsp_hu/MYD-LD25X-Uboot-L2022.10-V1.0.0/GEN_FIP/myir-st-optee/ta/pkcs11/src/attributes.c:200
     4b4:	52800002 	mov	w2, #0x0                   	// #0
     4b8:	97ffff10 	bl	f8 <_remove_attribute.isra.0>
/media/home/beste/01_Pro/ld25x/bsp_hu/MYD-LD25X-Uboot-L2022.10-V1.0.0/GEN_FIP/myir-st-optee/ta/pkcs11/src/attributes.c:201
     4bc:	f240781f 	tst	x0, #0x7fffffff
     4c0:	54000121 	b.ne	4e4 <set_attribute+0x54>  // b.any
/media/home/beste/01_Pro/ld25x/bsp_hu/MYD-LD25X-Uboot-L2022.10-V1.0.0/GEN_FIP/myir-st-optee/ta/pkcs11/src/attributes.c:204
     4c4:	aa1603e3 	mov	x3, x22
     4c8:	aa1503e2 	mov	x2, x21
/media/home/beste/01_Pro/ld25x/bsp_hu/MYD-LD25X-Uboot-L2022.10-V1.0.0/GEN_FIP/myir-st-optee/ta/pkcs11/src/attributes.c:205
     4cc:	a9425bf5 	ldp	x21, x22, [sp, #32]
/media/home/beste/01_Pro/ld25x/bsp_hu/MYD-LD25X-Uboot-L2022.10-V1.0.0/GEN_FIP/myir-st-optee/ta/pkcs11/src/attributes.c:204
     4d0:	2a1403e1 	mov	w1, w20
     4d4:	aa1303e0 	mov	x0, x19
/media/home/beste/01_Pro/ld25x/bsp_hu/MYD-LD25X-Uboot-L2022.10-V1.0.0/GEN_FIP/myir-st-optee/ta/pkcs11/src/attributes.c:205
     4d8:	a94153f3 	ldp	x19, x20, [sp, #16]
     4dc:	a8c37bfd 	ldp	x29, x30, [sp], #48
/media/home/beste/01_Pro/ld25x/bsp_hu/MYD-LD25X-Uboot-L2022.10-V1.0.0/GEN_FIP/myir-st-optee/ta/pkcs11/src/attributes.c:204
     4e0:	17ffff48 	b	200 <add_attribute>
/media/home/beste/01_Pro/ld25x/bsp_hu/MYD-LD25X-Uboot-L2022.10-V1.0.0/GEN_FIP/myir-st-optee/ta/pkcs11/src/attributes.c:205
     4e4:	a94153f3 	ldp	x19, x20, [sp, #16]
     4e8:	a9425bf5 	ldp	x21, x22, [sp, #32]
     4ec:	a8c37bfd 	ldp	x29, x30, [sp], #48
     4f0:	d65f03c0 	ret

00000000000004f4 <modify_attributes_list>:
modify_attributes_list():
/media/home/beste/01_Pro/ld25x/bsp_hu/MYD-LD25X-Uboot-L2022.10-V1.0.0/GEN_FIP/myir-st-optee/ta/pkcs11/src/attributes.c:209
     4f4:	a9bb7bfd 	stp	x29, x30, [sp, #-80]!
     4f8:	910003fd 	mov	x29, sp
     4fc:	a90153f3 	stp	x19, x20, [sp, #16]
/media/home/beste/01_Pro/ld25x/bsp_hu/MYD-LD25X-Uboot-L2022.10-V1.0.0/GEN_FIP/myir-st-optee/ta/pkcs11/src/attributes.c:210
     500:	aa0103f3 	mov	x19, x1
/media/home/beste/01_Pro/ld25x/bsp_hu/MYD-LD25X-Uboot-L2022.10-V1.0.0/GEN_FIP/myir-st-optee/ta/pkcs11/src/attributes.c:209
     504:	a9025bf5 	stp	x21, x22, [sp, #32]
     508:	aa0003f5 	mov	x21, x0
/media/home/beste/01_Pro/ld25x/bsp_hu/MYD-LD25X-Uboot-L2022.10-V1.0.0/GEN_FIP/myir-st-optee/ta/pkcs11/src/attributes.c:211
     50c:	b8408674 	ldr	w20, [x19], #8
/media/home/beste/01_Pro/ld25x/bsp_hu/MYD-LD25X-Uboot-L2022.10-V1.0.0/GEN_FIP/myir-st-optee/ta/pkcs11/src/attributes.c:220
     510:	910123f6 	add	x22, sp, #0x48
/media/home/beste/01_Pro/ld25x/bsp_hu/MYD-LD25X-Uboot-L2022.10-V1.0.0/GEN_FIP/myir-st-optee/ta/pkcs11/src/attributes.c:209
     514:	f9001bf7 	str	x23, [sp, #48]
/media/home/beste/01_Pro/ld25x/bsp_hu/MYD-LD25X-Uboot-L2022.10-V1.0.0/GEN_FIP/myir-st-optee/ta/pkcs11/src/attributes.c:211
     518:	8b140274 	add	x20, x19, x20
/media/home/beste/01_Pro/ld25x/bsp_hu/MYD-LD25X-Uboot-L2022.10-V1.0.0/GEN_FIP/myir-st-optee/ta/pkcs11/src/attributes.c:215 (discriminator 1)
     51c:	eb14027f 	cmp	x19, x20
     520:	540000e3 	b.cc	53c <modify_attributes_list+0x48>  // b.lo, b.ul, b.last
/media/home/beste/01_Pro/ld25x/bsp_hu/MYD-LD25X-Uboot-L2022.10-V1.0.0/GEN_FIP/myir-st-optee/ta/pkcs11/src/attributes.c:230
     524:	52800000 	mov	w0, #0x0                   	// #0
/media/home/beste/01_Pro/ld25x/bsp_hu/MYD-LD25X-Uboot-L2022.10-V1.0.0/GEN_FIP/myir-st-optee/ta/pkcs11/src/attributes.c:231
     528:	a94153f3 	ldp	x19, x20, [sp, #16]
     52c:	a9425bf5 	ldp	x21, x22, [sp, #32]
     530:	f9401bf7 	ldr	x23, [sp, #48]
     534:	a8c57bfd 	ldp	x29, x30, [sp], #80
     538:	d65f03c0 	ret
/media/home/beste/01_Pro/ld25x/bsp_hu/MYD-LD25X-Uboot-L2022.10-V1.0.0/GEN_FIP/myir-st-optee/ta/pkcs11/src/attributes.c:220
     53c:	aa1303e1 	mov	x1, x19
     540:	52800102 	mov	w2, #0x8                   	// #8
     544:	aa1603e0 	mov	x0, x22
/media/home/beste/01_Pro/ld25x/bsp_hu/MYD-LD25X-Uboot-L2022.10-V1.0.0/GEN_FIP/myir-st-optee/ta/pkcs11/src/attributes.c:218
     548:	f90027ff 	str	xzr, [sp, #72]
/media/home/beste/01_Pro/ld25x/bsp_hu/MYD-LD25X-Uboot-L2022.10-V1.0.0/GEN_FIP/myir-st-optee/ta/pkcs11/src/attributes.c:220
     54c:	940041da 	bl	10cb4 <TEE_MemMove>
/media/home/beste/01_Pro/ld25x/bsp_hu/MYD-LD25X-Uboot-L2022.10-V1.0.0/GEN_FIP/myir-st-optee/ta/pkcs11/src/attributes.c:221
     550:	294903e1 	ldp	w1, w0, [sp, #72]
/media/home/beste/01_Pro/ld25x/bsp_hu/MYD-LD25X-Uboot-L2022.10-V1.0.0/GEN_FIP/myir-st-optee/ta/pkcs11/src/attributes.c:223
     554:	91002262 	add	x2, x19, #0x8
     558:	7100001f 	cmp	w0, #0x0
/media/home/beste/01_Pro/ld25x/bsp_hu/MYD-LD25X-Uboot-L2022.10-V1.0.0/GEN_FIP/myir-st-optee/ta/pkcs11/src/attributes.c:221
     55c:	2a0003e3 	mov	w3, w0
     560:	91002077 	add	x23, x3, #0x8
/media/home/beste/01_Pro/ld25x/bsp_hu/MYD-LD25X-Uboot-L2022.10-V1.0.0/GEN_FIP/myir-st-optee/ta/pkcs11/src/attributes.c:223
     564:	9a9f1042 	csel	x2, x2, xzr, ne	// ne = any
     568:	aa1503e0 	mov	x0, x21
     56c:	97ffffc9 	bl	490 <set_attribute>
/media/home/beste/01_Pro/ld25x/bsp_hu/MYD-LD25X-Uboot-L2022.10-V1.0.0/GEN_FIP/myir-st-optee/ta/pkcs11/src/attributes.c:226
     570:	35fffdc0 	cbnz	w0, 528 <modify_attributes_list+0x34>
/media/home/beste/01_Pro/ld25x/bsp_hu/MYD-LD25X-Uboot-L2022.10-V1.0.0/GEN_FIP/myir-st-optee/ta/pkcs11/src/attributes.c:215
     574:	8b170273 	add	x19, x19, x23
     578:	17ffffe9 	b	51c <modify_attributes_list+0x28>

000000000000057c <get_bool>:
get_bool():
/media/home/beste/01_Pro/ld25x/bsp_hu/MYD-LD25X-Uboot-L2022.10-V1.0.0/GEN_FIP/myir-st-optee/ta/pkcs11/src/attributes.c:234
     57c:	a9be7bfd 	stp	x29, x30, [sp, #-32]!
/media/home/beste/01_Pro/ld25x/bsp_hu/MYD-LD25X-Uboot-L2022.10-V1.0.0/GEN_FIP/myir-st-optee/ta/pkcs11/src/attributes.c:237
     580:	52800022 	mov	w2, #0x1                   	// #1
/media/home/beste/01_Pro/ld25x/bsp_hu/MYD-LD25X-Uboot-L2022.10-V1.0.0/GEN_FIP/myir-st-optee/ta/pkcs11/src/attributes.c:234
     584:	910003fd 	mov	x29, sp
/media/home/beste/01_Pro/ld25x/bsp_hu/MYD-LD25X-Uboot-L2022.10-V1.0.0/GEN_FIP/myir-st-optee/ta/pkcs11/src/attributes.c:239
     588:	910073e3 	add	x3, sp, #0x1c
/media/home/beste/01_Pro/ld25x/bsp_hu/MYD-LD25X-Uboot-L2022.10-V1.0.0/GEN_FIP/myir-st-optee/ta/pkcs11/src/attributes.c:236
     58c:	39006fff 	strb	wzr, [sp, #27]
/media/home/beste/01_Pro/ld25x/bsp_hu/MYD-LD25X-Uboot-L2022.10-V1.0.0/GEN_FIP/myir-st-optee/ta/pkcs11/src/attributes.c:237
     590:	b9001fe2 	str	w2, [sp, #28]
/media/home/beste/01_Pro/ld25x/bsp_hu/MYD-LD25X-Uboot-L2022.10-V1.0.0/GEN_FIP/myir-st-optee/ta/pkcs11/src/attributes.c:239
     594:	91006fe2 	add	x2, sp, #0x1b
     598:	97ffff97 	bl	3f4 <get_attribute>
/media/home/beste/01_Pro/ld25x/bsp_hu/MYD-LD25X-Uboot-L2022.10-V1.0.0/GEN_FIP/myir-st-optee/ta/pkcs11/src/attributes.c:241
     59c:	52b00001 	mov	w1, #0x80000000            	// #-2147483648
     5a0:	6b01001f 	cmp	w0, w1
     5a4:	54000200 	b.eq	5e4 <get_bool+0x68>  // b.none
/media/home/beste/01_Pro/ld25x/bsp_hu/MYD-LD25X-Uboot-L2022.10-V1.0.0/GEN_FIP/myir-st-optee/ta/pkcs11/src/attributes.c:244
     5a8:	34000140 	cbz	w0, 5d0 <get_bool+0x54>
_assert_trap():
/media/home/beste/01_Pro/ld25x/bsp_hu/MYD-LD25X-Uboot-L2022.10-V1.0.0/GEN_FIP/myir-st-optee/../build/myb-stm32mp257x-2GB/export-ta_arm64/include/assert.h:19
     5ac:	f0000103 	adrp	x3, 23000 <trace_ext_prefix+0x8>
     5b0:	f0000101 	adrp	x1, 23000 <trace_ext_prefix+0x8>
     5b4:	9137f063 	add	x3, x3, #0xdfc
     5b8:	91362021 	add	x1, x1, #0xd88
     5bc:	f0000100 	adrp	x0, 23000 <trace_ext_prefix+0x8>
     5c0:	91368c00 	add	x0, x0, #0xda3
     5c4:	52801e82 	mov	w2, #0xf4                  	// #244
     5c8:	94003f7b 	bl	103b4 <_assert_log>
/media/home/beste/01_Pro/ld25x/bsp_hu/MYD-LD25X-Uboot-L2022.10-V1.0.0/GEN_FIP/myir-st-optee/../build/myb-stm32mp257x-2GB/export-ta_arm64/include/assert.h:20
     5cc:	94003f8b 	bl	103f8 <_assert_break>
get_bool():
/media/home/beste/01_Pro/ld25x/bsp_hu/MYD-LD25X-Uboot-L2022.10-V1.0.0/GEN_FIP/myir-st-optee/ta/pkcs11/src/attributes.c:245
     5d0:	39406fe0 	ldrb	w0, [sp, #27]
     5d4:	7100001f 	cmp	w0, #0x0
     5d8:	1a9f07e0 	cset	w0, ne	// ne = any
/media/home/beste/01_Pro/ld25x/bsp_hu/MYD-LD25X-Uboot-L2022.10-V1.0.0/GEN_FIP/myir-st-optee/ta/pkcs11/src/attributes.c:246
     5dc:	a8c27bfd 	ldp	x29, x30, [sp], #32
     5e0:	d65f03c0 	ret
/media/home/beste/01_Pro/ld25x/bsp_hu/MYD-LD25X-Uboot-L2022.10-V1.0.0/GEN_FIP/myir-st-optee/ta/pkcs11/src/attributes.c:242
     5e4:	52800000 	mov	w0, #0x0                   	// #0
     5e8:	17fffffd 	b	5dc <get_bool+0x60>

00000000000005ec <attributes_match_reference>:
attributes_match_reference():
/media/home/beste/01_Pro/ld25x/bsp_hu/MYD-LD25X-Uboot-L2022.10-V1.0.0/GEN_FIP/myir-st-optee/ta/pkcs11/src/attributes.c:250
     5ec:	a9b97bfd 	stp	x29, x30, [sp, #-112]!
     5f0:	910003fd 	mov	x29, sp
     5f4:	a9025bf5 	stp	x21, x22, [sp, #32]
     5f8:	aa0003f6 	mov	x22, x0
/media/home/beste/01_Pro/ld25x/bsp_hu/MYD-LD25X-Uboot-L2022.10-V1.0.0/GEN_FIP/myir-st-optee/ta/pkcs11/src/attributes.c:255
     5fc:	b9400420 	ldr	w0, [x1, #4]
/media/home/beste/01_Pro/ld25x/bsp_hu/MYD-LD25X-Uboot-L2022.10-V1.0.0/GEN_FIP/myir-st-optee/ta/pkcs11/src/attributes.c:250
     600:	a90153f3 	stp	x19, x20, [sp, #16]
     604:	a90363f7 	stp	x23, x24, [sp, #48]
     608:	f90023f9 	str	x25, [sp, #64]
/media/home/beste/01_Pro/ld25x/bsp_hu/MYD-LD25X-Uboot-L2022.10-V1.0.0/GEN_FIP/myir-st-optee/ta/pkcs11/src/attributes.c:255
     60c:	35000100 	cbnz	w0, 62c <attributes_match_reference+0x40>
/media/home/beste/01_Pro/ld25x/bsp_hu/MYD-LD25X-Uboot-L2022.10-V1.0.0/GEN_FIP/myir-st-optee/ta/pkcs11/src/attributes.c:257
     610:	52800020 	mov	w0, #0x1                   	// #1
/media/home/beste/01_Pro/ld25x/bsp_hu/MYD-LD25X-Uboot-L2022.10-V1.0.0/GEN_FIP/myir-st-optee/ta/pkcs11/src/attributes.c:277
     614:	a94153f3 	ldp	x19, x20, [sp, #16]
     618:	a9425bf5 	ldp	x21, x22, [sp, #32]
     61c:	a94363f7 	ldp	x23, x24, [sp, #48]
     620:	f94023f9 	ldr	x25, [sp, #64]
     624:	a8c77bfd 	ldp	x29, x30, [sp], #112
     628:	d65f03c0 	ret
     62c:	aa0103f3 	mov	x19, x1
/media/home/beste/01_Pro/ld25x/bsp_hu/MYD-LD25X-Uboot-L2022.10-V1.0.0/GEN_FIP/myir-st-optee/ta/pkcs11/src/attributes.c:252
     630:	91002034 	add	x20, x1, #0x8
/media/home/beste/01_Pro/ld25x/bsp_hu/MYD-LD25X-Uboot-L2022.10-V1.0.0/GEN_FIP/myir-st-optee/ta/pkcs11/src/attributes.c:265
     634:	910183f7 	add	x23, sp, #0x60
/media/home/beste/01_Pro/ld25x/bsp_hu/MYD-LD25X-Uboot-L2022.10-V1.0.0/GEN_FIP/myir-st-optee/ta/pkcs11/src/attributes.c:267
     638:	910173f8 	add	x24, sp, #0x5c
     63c:	9101a3f9 	add	x25, sp, #0x68
/media/home/beste/01_Pro/ld25x/bsp_hu/MYD-LD25X-Uboot-L2022.10-V1.0.0/GEN_FIP/myir-st-optee/ta/pkcs11/src/attributes.c:260
     640:	d2800015 	mov	x21, #0x0                   	// #0
/media/home/beste/01_Pro/ld25x/bsp_hu/MYD-LD25X-Uboot-L2022.10-V1.0.0/GEN_FIP/myir-st-optee/ta/pkcs11/src/attributes.c:260 (discriminator 1)
     644:	b9400660 	ldr	w0, [x19, #4]
     648:	eb15001f 	cmp	x0, x21
     64c:	54fffe29 	b.ls	610 <attributes_match_reference+0x24>  // b.plast
/media/home/beste/01_Pro/ld25x/bsp_hu/MYD-LD25X-Uboot-L2022.10-V1.0.0/GEN_FIP/myir-st-optee/ta/pkcs11/src/attributes.c:265
     650:	aa1403e1 	mov	x1, x20
     654:	52800102 	mov	w2, #0x8                   	// #8
     658:	aa1703e0 	mov	x0, x23
/media/home/beste/01_Pro/ld25x/bsp_hu/MYD-LD25X-Uboot-L2022.10-V1.0.0/GEN_FIP/myir-st-optee/ta/pkcs11/src/attributes.c:263
     65c:	b9005fff 	str	wzr, [sp, #92]
/media/home/beste/01_Pro/ld25x/bsp_hu/MYD-LD25X-Uboot-L2022.10-V1.0.0/GEN_FIP/myir-st-optee/ta/pkcs11/src/attributes.c:262
     660:	a9067fff 	stp	xzr, xzr, [sp, #96]
/media/home/beste/01_Pro/ld25x/bsp_hu/MYD-LD25X-Uboot-L2022.10-V1.0.0/GEN_FIP/myir-st-optee/ta/pkcs11/src/attributes.c:265
     664:	94004194 	bl	10cb4 <TEE_MemMove>
/media/home/beste/01_Pro/ld25x/bsp_hu/MYD-LD25X-Uboot-L2022.10-V1.0.0/GEN_FIP/myir-st-optee/ta/pkcs11/src/attributes.c:267
     668:	b94063e1 	ldr	w1, [sp, #96]
     66c:	aa1803e3 	mov	x3, x24
     670:	aa1903e2 	mov	x2, x25
     674:	aa1603e0 	mov	x0, x22
     678:	97ffff50 	bl	3b8 <get_attribute_ptr>
/media/home/beste/01_Pro/ld25x/bsp_hu/MYD-LD25X-Uboot-L2022.10-V1.0.0/GEN_FIP/myir-st-optee/ta/pkcs11/src/attributes.c:269
     67c:	34000060 	cbz	w0, 688 <attributes_match_reference+0x9c>
/media/home/beste/01_Pro/ld25x/bsp_hu/MYD-LD25X-Uboot-L2022.10-V1.0.0/GEN_FIP/myir-st-optee/ta/pkcs11/src/attributes.c:271
     680:	52800000 	mov	w0, #0x0                   	// #0
     684:	17ffffe4 	b	614 <attributes_match_reference+0x28>
/media/home/beste/01_Pro/ld25x/bsp_hu/MYD-LD25X-Uboot-L2022.10-V1.0.0/GEN_FIP/myir-st-optee/ta/pkcs11/src/attributes.c:269 (discriminator 1)
     688:	f94037e1 	ldr	x1, [sp, #104]
     68c:	b4ffffa1 	cbz	x1, 680 <attributes_match_reference+0x94>
/media/home/beste/01_Pro/ld25x/bsp_hu/MYD-LD25X-Uboot-L2022.10-V1.0.0/GEN_FIP/myir-st-optee/ta/pkcs11/src/attributes.c:269 (discriminator 2)
     690:	b9405fe0 	ldr	w0, [sp, #92]
     694:	b94067e2 	ldr	w2, [sp, #100]
     698:	6b00005f 	cmp	w2, w0
     69c:	54ffff21 	b.ne	680 <attributes_match_reference+0x94>  // b.any
/media/home/beste/01_Pro/ld25x/bsp_hu/MYD-LD25X-Uboot-L2022.10-V1.0.0/GEN_FIP/myir-st-optee/ta/pkcs11/src/attributes.c:270 (discriminator 3)
     6a0:	91002280 	add	x0, x20, #0x8
     6a4:	94004186 	bl	10cbc <TEE_MemCompare>
/media/home/beste/01_Pro/ld25x/bsp_hu/MYD-LD25X-Uboot-L2022.10-V1.0.0/GEN_FIP/myir-st-optee/ta/pkcs11/src/attributes.c:269 (discriminator 3)
     6a8:	35fffec0 	cbnz	w0, 680 <attributes_match_reference+0x94>
/media/home/beste/01_Pro/ld25x/bsp_hu/MYD-LD25X-Uboot-L2022.10-V1.0.0/GEN_FIP/myir-st-optee/ta/pkcs11/src/attributes.c:273
     6ac:	b94067e0 	ldr	w0, [sp, #100]
/media/home/beste/01_Pro/ld25x/bsp_hu/MYD-LD25X-Uboot-L2022.10-V1.0.0/GEN_FIP/myir-st-optee/ta/pkcs11/src/attributes.c:260
     6b0:	910006b5 	add	x21, x21, #0x1
/media/home/beste/01_Pro/ld25x/bsp_hu/MYD-LD25X-Uboot-L2022.10-V1.0.0/GEN_FIP/myir-st-optee/ta/pkcs11/src/attributes.c:273
     6b4:	91002000 	add	x0, x0, #0x8
     6b8:	8b000294 	add	x20, x20, x0
/media/home/beste/01_Pro/ld25x/bsp_hu/MYD-LD25X-Uboot-L2022.10-V1.0.0/GEN_FIP/myir-st-optee/ta/pkcs11/src/attributes.c:260
     6bc:	17ffffe2 	b	644 <attributes_match_reference+0x58>

00000000000006c0 <attributes_match_add_reference>:
attributes_match_add_reference():
/media/home/beste/01_Pro/ld25x/bsp_hu/MYD-LD25X-Uboot-L2022.10-V1.0.0/GEN_FIP/myir-st-optee/ta/pkcs11/src/attributes.c:281
     6c0:	a9b97bfd 	stp	x29, x30, [sp, #-112]!
     6c4:	910003fd 	mov	x29, sp
     6c8:	a9025bf5 	stp	x21, x22, [sp, #32]
     6cc:	aa0003f5 	mov	x21, x0
/media/home/beste/01_Pro/ld25x/bsp_hu/MYD-LD25X-Uboot-L2022.10-V1.0.0/GEN_FIP/myir-st-optee/ta/pkcs11/src/attributes.c:286
     6d0:	b9400420 	ldr	w0, [x1, #4]
/media/home/beste/01_Pro/ld25x/bsp_hu/MYD-LD25X-Uboot-L2022.10-V1.0.0/GEN_FIP/myir-st-optee/ta/pkcs11/src/attributes.c:281
     6d4:	a90153f3 	stp	x19, x20, [sp, #16]
     6d8:	a90363f7 	stp	x23, x24, [sp, #48]
     6dc:	a9046bf9 	stp	x25, x26, [sp, #64]
/media/home/beste/01_Pro/ld25x/bsp_hu/MYD-LD25X-Uboot-L2022.10-V1.0.0/GEN_FIP/myir-st-optee/ta/pkcs11/src/attributes.c:286
     6e0:	35000100 	cbnz	w0, 700 <attributes_match_add_reference+0x40>
/media/home/beste/01_Pro/ld25x/bsp_hu/MYD-LD25X-Uboot-L2022.10-V1.0.0/GEN_FIP/myir-st-optee/ta/pkcs11/src/attributes.c:287
     6e4:	52800000 	mov	w0, #0x0                   	// #0
/media/home/beste/01_Pro/ld25x/bsp_hu/MYD-LD25X-Uboot-L2022.10-V1.0.0/GEN_FIP/myir-st-optee/ta/pkcs11/src/attributes.c:314
     6e8:	a94153f3 	ldp	x19, x20, [sp, #16]
     6ec:	a9425bf5 	ldp	x21, x22, [sp, #32]
     6f0:	a94363f7 	ldp	x23, x24, [sp, #48]
     6f4:	a9446bf9 	ldp	x25, x26, [sp, #64]
     6f8:	a8c77bfd 	ldp	x29, x30, [sp], #112
     6fc:	d65f03c0 	ret
     700:	aa0103f3 	mov	x19, x1
/media/home/beste/01_Pro/ld25x/bsp_hu/MYD-LD25X-Uboot-L2022.10-V1.0.0/GEN_FIP/myir-st-optee/ta/pkcs11/src/attributes.c:283
     704:	91002034 	add	x20, x1, #0x8
/media/home/beste/01_Pro/ld25x/bsp_hu/MYD-LD25X-Uboot-L2022.10-V1.0.0/GEN_FIP/myir-st-optee/ta/pkcs11/src/attributes.c:294
     708:	910183f7 	add	x23, sp, #0x60
/media/home/beste/01_Pro/ld25x/bsp_hu/MYD-LD25X-Uboot-L2022.10-V1.0.0/GEN_FIP/myir-st-optee/ta/pkcs11/src/attributes.c:296
     70c:	910173f8 	add	x24, sp, #0x5c
     710:	9101a3f9 	add	x25, sp, #0x68
/media/home/beste/01_Pro/ld25x/bsp_hu/MYD-LD25X-Uboot-L2022.10-V1.0.0/GEN_FIP/myir-st-optee/ta/pkcs11/src/attributes.c:289
     714:	d2800016 	mov	x22, #0x0                   	// #0
/media/home/beste/01_Pro/ld25x/bsp_hu/MYD-LD25X-Uboot-L2022.10-V1.0.0/GEN_FIP/myir-st-optee/ta/pkcs11/src/attributes.c:297
     718:	52b0001a 	mov	w26, #0x80000000            	// #-2147483648
/media/home/beste/01_Pro/ld25x/bsp_hu/MYD-LD25X-Uboot-L2022.10-V1.0.0/GEN_FIP/myir-st-optee/ta/pkcs11/src/attributes.c:289 (discriminator 1)
     71c:	b9400660 	ldr	w0, [x19, #4]
     720:	eb16001f 	cmp	x0, x22
     724:	54fffe09 	b.ls	6e4 <attributes_match_add_reference+0x24>  // b.plast
/media/home/beste/01_Pro/ld25x/bsp_hu/MYD-LD25X-Uboot-L2022.10-V1.0.0/GEN_FIP/myir-st-optee/ta/pkcs11/src/attributes.c:294
     728:	aa1403e1 	mov	x1, x20
     72c:	52800102 	mov	w2, #0x8                   	// #8
     730:	aa1703e0 	mov	x0, x23
/media/home/beste/01_Pro/ld25x/bsp_hu/MYD-LD25X-Uboot-L2022.10-V1.0.0/GEN_FIP/myir-st-optee/ta/pkcs11/src/attributes.c:292
     734:	b9005fff 	str	wzr, [sp, #92]
/media/home/beste/01_Pro/ld25x/bsp_hu/MYD-LD25X-Uboot-L2022.10-V1.0.0/GEN_FIP/myir-st-optee/ta/pkcs11/src/attributes.c:291
     738:	a9067fff 	stp	xzr, xzr, [sp, #96]
/media/home/beste/01_Pro/ld25x/bsp_hu/MYD-LD25X-Uboot-L2022.10-V1.0.0/GEN_FIP/myir-st-optee/ta/pkcs11/src/attributes.c:294
     73c:	9400415e 	bl	10cb4 <TEE_MemMove>
/media/home/beste/01_Pro/ld25x/bsp_hu/MYD-LD25X-Uboot-L2022.10-V1.0.0/GEN_FIP/myir-st-optee/ta/pkcs11/src/attributes.c:296
     740:	b94063e1 	ldr	w1, [sp, #96]
     744:	f94002a0 	ldr	x0, [x21]
     748:	aa1803e3 	mov	x3, x24
     74c:	aa1903e2 	mov	x2, x25
     750:	97ffff1a 	bl	3b8 <get_attribute_ptr>
/media/home/beste/01_Pro/ld25x/bsp_hu/MYD-LD25X-Uboot-L2022.10-V1.0.0/GEN_FIP/myir-st-optee/ta/pkcs11/src/attributes.c:297
     754:	6b1a001f 	cmp	w0, w26
     758:	54000161 	b.ne	784 <attributes_match_add_reference+0xc4>  // b.any
/media/home/beste/01_Pro/ld25x/bsp_hu/MYD-LD25X-Uboot-L2022.10-V1.0.0/GEN_FIP/myir-st-optee/ta/pkcs11/src/attributes.c:298
     75c:	294c0fe1 	ldp	w1, w3, [sp, #96]
     760:	91002282 	add	x2, x20, #0x8
     764:	aa1503e0 	mov	x0, x21
     768:	97fffea6 	bl	200 <add_attribute>
/media/home/beste/01_Pro/ld25x/bsp_hu/MYD-LD25X-Uboot-L2022.10-V1.0.0/GEN_FIP/myir-st-optee/ta/pkcs11/src/attributes.c:301
     76c:	35fffbe0 	cbnz	w0, 6e8 <attributes_match_add_reference+0x28>
/media/home/beste/01_Pro/ld25x/bsp_hu/MYD-LD25X-Uboot-L2022.10-V1.0.0/GEN_FIP/myir-st-optee/ta/pkcs11/src/attributes.c:310
     770:	b94067e0 	ldr	w0, [sp, #100]
/media/home/beste/01_Pro/ld25x/bsp_hu/MYD-LD25X-Uboot-L2022.10-V1.0.0/GEN_FIP/myir-st-optee/ta/pkcs11/src/attributes.c:289
     774:	910006d6 	add	x22, x22, #0x1
/media/home/beste/01_Pro/ld25x/bsp_hu/MYD-LD25X-Uboot-L2022.10-V1.0.0/GEN_FIP/myir-st-optee/ta/pkcs11/src/attributes.c:310
     778:	91002000 	add	x0, x0, #0x8
     77c:	8b000294 	add	x20, x20, x0
/media/home/beste/01_Pro/ld25x/bsp_hu/MYD-LD25X-Uboot-L2022.10-V1.0.0/GEN_FIP/myir-st-optee/ta/pkcs11/src/attributes.c:289
     780:	17ffffe7 	b	71c <attributes_match_add_reference+0x5c>
/media/home/beste/01_Pro/ld25x/bsp_hu/MYD-LD25X-Uboot-L2022.10-V1.0.0/GEN_FIP/myir-st-optee/ta/pkcs11/src/attributes.c:304
     784:	34000060 	cbz	w0, 790 <attributes_match_add_reference+0xd0>
/media/home/beste/01_Pro/ld25x/bsp_hu/MYD-LD25X-Uboot-L2022.10-V1.0.0/GEN_FIP/myir-st-optee/ta/pkcs11/src/attributes.c:307
     788:	52801a20 	mov	w0, #0xd1                  	// #209
     78c:	17ffffd7 	b	6e8 <attributes_match_add_reference+0x28>
/media/home/beste/01_Pro/ld25x/bsp_hu/MYD-LD25X-Uboot-L2022.10-V1.0.0/GEN_FIP/myir-st-optee/ta/pkcs11/src/attributes.c:304 (discriminator 1)
     790:	f94037e1 	ldr	x1, [sp, #104]
     794:	b4ffffa1 	cbz	x1, 788 <attributes_match_add_reference+0xc8>
/media/home/beste/01_Pro/ld25x/bsp_hu/MYD-LD25X-Uboot-L2022.10-V1.0.0/GEN_FIP/myir-st-optee/ta/pkcs11/src/attributes.c:304 (discriminator 2)
     798:	b9405fe0 	ldr	w0, [sp, #92]
     79c:	b94067e2 	ldr	w2, [sp, #100]
     7a0:	6b00005f 	cmp	w2, w0
     7a4:	54ffff21 	b.ne	788 <attributes_match_add_reference+0xc8>  // b.any
/media/home/beste/01_Pro/ld25x/bsp_hu/MYD-LD25X-Uboot-L2022.10-V1.0.0/GEN_FIP/myir-st-optee/ta/pkcs11/src/attributes.c:305 (discriminator 3)
     7a8:	91002280 	add	x0, x20, #0x8
     7ac:	94004144 	bl	10cbc <TEE_MemCompare>
/media/home/beste/01_Pro/ld25x/bsp_hu/MYD-LD25X-Uboot-L2022.10-V1.0.0/GEN_FIP/myir-st-optee/ta/pkcs11/src/attributes.c:304 (discriminator 3)
     7b0:	34fffe00 	cbz	w0, 770 <attributes_match_add_reference+0xb0>
     7b4:	17fffff5 	b	788 <attributes_match_add_reference+0xc8>

00000000000007b8 <trace_attributes>:
trace_attributes():
/media/home/beste/01_Pro/ld25x/bsp_hu/MYD-LD25X-Uboot-L2022.10-V1.0.0/GEN_FIP/myir-st-optee/ta/pkcs11/src/attributes.c:427
     7b8:	a9b87bfd 	stp	x29, x30, [sp, #-128]!
/media/home/beste/01_Pro/ld25x/bsp_hu/MYD-LD25X-Uboot-L2022.10-V1.0.0/GEN_FIP/myir-st-optee/ta/pkcs11/src/attributes.c:431
     7bc:	52800102 	mov	w2, #0x8                   	// #8
/media/home/beste/01_Pro/ld25x/bsp_hu/MYD-LD25X-Uboot-L2022.10-V1.0.0/GEN_FIP/myir-st-optee/ta/pkcs11/src/attributes.c:427
     7c0:	910003fd 	mov	x29, sp
     7c4:	a90153f3 	stp	x19, x20, [sp, #16]
     7c8:	aa0003f4 	mov	x20, x0
/media/home/beste/01_Pro/ld25x/bsp_hu/MYD-LD25X-Uboot-L2022.10-V1.0.0/GEN_FIP/myir-st-optee/ta/pkcs11/src/attributes.c:431
     7cc:	9101c3e0 	add	x0, sp, #0x70
/media/home/beste/01_Pro/ld25x/bsp_hu/MYD-LD25X-Uboot-L2022.10-V1.0.0/GEN_FIP/myir-st-optee/ta/pkcs11/src/attributes.c:427
     7d0:	a9025bf5 	stp	x21, x22, [sp, #32]
     7d4:	a90363f7 	stp	x23, x24, [sp, #48]
     7d8:	aa0103f8 	mov	x24, x1
     7dc:	a9046bf9 	stp	x25, x26, [sp, #64]
     7e0:	a90573fb 	stp	x27, x28, [sp, #80]
/media/home/beste/01_Pro/ld25x/bsp_hu/MYD-LD25X-Uboot-L2022.10-V1.0.0/GEN_FIP/myir-st-optee/ta/pkcs11/src/attributes.c:428
     7e4:	f9003bff 	str	xzr, [sp, #112]
/media/home/beste/01_Pro/ld25x/bsp_hu/MYD-LD25X-Uboot-L2022.10-V1.0.0/GEN_FIP/myir-st-optee/ta/pkcs11/src/attributes.c:431
     7e8:	94004133 	bl	10cb4 <TEE_MemMove>
/media/home/beste/01_Pro/ld25x/bsp_hu/MYD-LD25X-Uboot-L2022.10-V1.0.0/GEN_FIP/myir-st-optee/ta/pkcs11/src/attributes.c:433
     7ec:	b94077e0 	ldr	w0, [sp, #116]
     7f0:	34000260 	cbz	w0, 83c <trace_attributes+0x84>
/media/home/beste/01_Pro/ld25x/bsp_hu/MYD-LD25X-Uboot-L2022.10-V1.0.0/GEN_FIP/myir-st-optee/ta/pkcs11/src/attributes.c:436
     7f4:	b4000334 	cbz	x20, 858 <trace_attributes+0xa0>
/media/home/beste/01_Pro/ld25x/bsp_hu/MYD-LD25X-Uboot-L2022.10-V1.0.0/GEN_FIP/myir-st-optee/ta/pkcs11/src/attributes.c:436 (discriminator 1)
     7f8:	aa1403e0 	mov	x0, x20
     7fc:	94003a9c 	bl	f26c <strlen>
     800:	52800001 	mov	w1, #0x0                   	// #0
     804:	11000800 	add	w0, w0, #0x2
     808:	9400417d 	bl	10dfc <TEE_Malloc>
     80c:	aa0003f3 	mov	x19, x0
/media/home/beste/01_Pro/ld25x/bsp_hu/MYD-LD25X-Uboot-L2022.10-V1.0.0/GEN_FIP/myir-st-optee/ta/pkcs11/src/attributes.c:437 (discriminator 1)
     810:	b50008c0 	cbnz	x0, 928 <trace_attributes+0x170>
/media/home/beste/01_Pro/ld25x/bsp_hu/MYD-LD25X-Uboot-L2022.10-V1.0.0/GEN_FIP/myir-st-optee/ta/pkcs11/src/attributes.c:438
     814:	f0000100 	adrp	x0, 23000 <trace_ext_prefix+0x8>
     818:	9137f000 	add	x0, x0, #0xdfc
     81c:	f0000104 	adrp	x4, 23000 <trace_ext_prefix+0x8>
     820:	aa1403e5 	mov	x5, x20
     824:	9136dc84 	add	x4, x4, #0xdb7
     828:	91002400 	add	x0, x0, #0x9
     82c:	52800023 	mov	w3, #0x1                   	// #1
     830:	52800022 	mov	w2, #0x1                   	// #1
     834:	528036c1 	mov	w1, #0x1b6                 	// #438
     838:	94003e9b 	bl	102a4 <trace_printf>
/media/home/beste/01_Pro/ld25x/bsp_hu/MYD-LD25X-Uboot-L2022.10-V1.0.0/GEN_FIP/myir-st-optee/ta/pkcs11/src/attributes.c:456
     83c:	a94153f3 	ldp	x19, x20, [sp, #16]
     840:	a9425bf5 	ldp	x21, x22, [sp, #32]
     844:	a94363f7 	ldp	x23, x24, [sp, #48]
     848:	a9446bf9 	ldp	x25, x26, [sp, #64]
     84c:	a94573fb 	ldp	x27, x28, [sp, #80]
     850:	a8c87bfd 	ldp	x29, x30, [sp], #128
     854:	d65f03c0 	ret
/media/home/beste/01_Pro/ld25x/bsp_hu/MYD-LD25X-Uboot-L2022.10-V1.0.0/GEN_FIP/myir-st-optee/ta/pkcs11/src/attributes.c:436
     858:	52800001 	mov	w1, #0x0                   	// #0
     85c:	52800040 	mov	w0, #0x2                   	// #2
     860:	94004167 	bl	10dfc <TEE_Malloc>
     864:	aa0003f3 	mov	x19, x0
/media/home/beste/01_Pro/ld25x/bsp_hu/MYD-LD25X-Uboot-L2022.10-V1.0.0/GEN_FIP/myir-st-optee/ta/pkcs11/src/attributes.c:437
     868:	b4fffd60 	cbz	x0, 814 <trace_attributes+0x5c>
/media/home/beste/01_Pro/ld25x/bsp_hu/MYD-LD25X-Uboot-L2022.10-V1.0.0/GEN_FIP/myir-st-optee/ta/pkcs11/src/attributes.c:449
     86c:	d2800000 	mov	x0, #0x0                   	// #0
/media/home/beste/01_Pro/ld25x/bsp_hu/MYD-LD25X-Uboot-L2022.10-V1.0.0/GEN_FIP/myir-st-optee/ta/pkcs11/src/attributes.c:449 (discriminator 4)
     870:	52800f81 	mov	w1, #0x7c                  	// #124
     874:	38206a61 	strb	w1, [x19, x0]
__trace_attributes():
/media/home/beste/01_Pro/ld25x/bsp_hu/MYD-LD25X-Uboot-L2022.10-V1.0.0/GEN_FIP/myir-st-optee/ta/pkcs11/src/attributes.c:332 (discriminator 4)
     878:	aa1303e0 	mov	x0, x19
     87c:	94003a7c 	bl	f26c <strlen>
trace_attributes():
/media/home/beste/01_Pro/ld25x/bsp_hu/MYD-LD25X-Uboot-L2022.10-V1.0.0/GEN_FIP/myir-st-optee/ta/pkcs11/src/attributes.c:451 (discriminator 4)
     880:	b94073f5 	ldr	w21, [sp, #112]
__trace_attributes():
/media/home/beste/01_Pro/ld25x/bsp_hu/MYD-LD25X-Uboot-L2022.10-V1.0.0/GEN_FIP/myir-st-optee/ta/pkcs11/src/attributes.c:332 (discriminator 4)
     884:	aa0003f4 	mov	x20, x0
/media/home/beste/01_Pro/ld25x/bsp_hu/MYD-LD25X-Uboot-L2022.10-V1.0.0/GEN_FIP/myir-st-optee/ta/pkcs11/src/attributes.c:336 (discriminator 4)
     888:	52800001 	mov	w1, #0x0                   	// #0
     88c:	11001400 	add	w0, w0, #0x5
     890:	9400415b 	bl	10dfc <TEE_Malloc>
     894:	aa0003f6 	mov	x22, x0
/media/home/beste/01_Pro/ld25x/bsp_hu/MYD-LD25X-Uboot-L2022.10-V1.0.0/GEN_FIP/myir-st-optee/ta/pkcs11/src/attributes.c:337 (discriminator 4)
     898:	b4000420 	cbz	x0, 91c <trace_attributes+0x164>
/media/home/beste/01_Pro/ld25x/bsp_hu/MYD-LD25X-Uboot-L2022.10-V1.0.0/GEN_FIP/myir-st-optee/ta/pkcs11/src/attributes.c:340
     89c:	11000682 	add	w2, w20, #0x1
trace_attributes():
/media/home/beste/01_Pro/ld25x/bsp_hu/MYD-LD25X-Uboot-L2022.10-V1.0.0/GEN_FIP/myir-st-optee/ta/pkcs11/src/attributes.c:451
     8a0:	2a1503f5 	mov	w21, w21
__trace_attributes():
/media/home/beste/01_Pro/ld25x/bsp_hu/MYD-LD25X-Uboot-L2022.10-V1.0.0/GEN_FIP/myir-st-optee/ta/pkcs11/src/attributes.c:341
     8a4:	8b1402d4 	add	x20, x22, x20
trace_attributes():
/media/home/beste/01_Pro/ld25x/bsp_hu/MYD-LD25X-Uboot-L2022.10-V1.0.0/GEN_FIP/myir-st-optee/ta/pkcs11/src/attributes.c:451
     8a8:	910022b5 	add	x21, x21, #0x8
__trace_attributes():
/media/home/beste/01_Pro/ld25x/bsp_hu/MYD-LD25X-Uboot-L2022.10-V1.0.0/GEN_FIP/myir-st-optee/ta/pkcs11/src/attributes.c:340
     8ac:	aa1303e1 	mov	x1, x19
trace_attributes():
/media/home/beste/01_Pro/ld25x/bsp_hu/MYD-LD25X-Uboot-L2022.10-V1.0.0/GEN_FIP/myir-st-optee/ta/pkcs11/src/attributes.c:450
     8b0:	91002317 	add	x23, x24, #0x8
__trace_attributes():
/media/home/beste/01_Pro/ld25x/bsp_hu/MYD-LD25X-Uboot-L2022.10-V1.0.0/GEN_FIP/myir-st-optee/ta/pkcs11/src/attributes.c:340
     8b4:	94004100 	bl	10cb4 <TEE_MemMove>
trace_attributes():
/media/home/beste/01_Pro/ld25x/bsp_hu/MYD-LD25X-Uboot-L2022.10-V1.0.0/GEN_FIP/myir-st-optee/ta/pkcs11/src/attributes.c:450
     8b8:	8b150315 	add	x21, x24, x21
__trace_attributes():
/media/home/beste/01_Pro/ld25x/bsp_hu/MYD-LD25X-Uboot-L2022.10-V1.0.0/GEN_FIP/myir-st-optee/ta/pkcs11/src/attributes.c:406
     8bc:	529fbdfb 	mov	w27, #0xfdef                	// #65007
/media/home/beste/01_Pro/ld25x/bsp_hu/MYD-LD25X-Uboot-L2022.10-V1.0.0/GEN_FIP/myir-st-optee/ta/pkcs11/src/attributes.c:348
     8c0:	9101e3f8 	add	x24, sp, #0x78
/media/home/beste/01_Pro/ld25x/bsp_hu/MYD-LD25X-Uboot-L2022.10-V1.0.0/GEN_FIP/myir-st-optee/ta/pkcs11/src/attributes.c:349
     8c4:	9101a3fa 	add	x26, sp, #0x68
/media/home/beste/01_Pro/ld25x/bsp_hu/MYD-LD25X-Uboot-L2022.10-V1.0.0/GEN_FIP/myir-st-optee/ta/pkcs11/src/attributes.c:341
     8c8:	aa1403e0 	mov	x0, x20
     8cc:	52800082 	mov	w2, #0x4                   	// #4
     8d0:	52800401 	mov	w1, #0x20                  	// #32
/media/home/beste/01_Pro/ld25x/bsp_hu/MYD-LD25X-Uboot-L2022.10-V1.0.0/GEN_FIP/myir-st-optee/ta/pkcs11/src/attributes.c:349
     8d4:	52800099 	mov	w25, #0x4                   	// #4
/media/home/beste/01_Pro/ld25x/bsp_hu/MYD-LD25X-Uboot-L2022.10-V1.0.0/GEN_FIP/myir-st-optee/ta/pkcs11/src/attributes.c:341
     8d8:	940040fb 	bl	10cc4 <TEE_MemFill>
/media/home/beste/01_Pro/ld25x/bsp_hu/MYD-LD25X-Uboot-L2022.10-V1.0.0/GEN_FIP/myir-st-optee/ta/pkcs11/src/attributes.c:406
     8dc:	72b7fffb 	movk	w27, #0xbfff, lsl #16
/media/home/beste/01_Pro/ld25x/bsp_hu/MYD-LD25X-Uboot-L2022.10-V1.0.0/GEN_FIP/myir-st-optee/ta/pkcs11/src/attributes.c:342
     8e0:	3900129f 	strb	wzr, [x20, #4]
/media/home/beste/01_Pro/ld25x/bsp_hu/MYD-LD25X-Uboot-L2022.10-V1.0.0/GEN_FIP/myir-st-optee/ta/pkcs11/src/attributes.c:344
     8e4:	eb1702bf 	cmp	x21, x23
     8e8:	54000328 	b.hi	94c <trace_attributes+0x194>  // b.pmore
/media/home/beste/01_Pro/ld25x/bsp_hu/MYD-LD25X-Uboot-L2022.10-V1.0.0/GEN_FIP/myir-st-optee/ta/pkcs11/src/attributes.c:420
     8ec:	54000140 	b.eq	914 <trace_attributes+0x15c>  // b.none
/media/home/beste/01_Pro/ld25x/bsp_hu/MYD-LD25X-Uboot-L2022.10-V1.0.0/GEN_FIP/myir-st-optee/ta/pkcs11/src/attributes.c:421
     8f0:	f0000100 	adrp	x0, 23000 <trace_ext_prefix+0x8>
     8f4:	9137f000 	add	x0, x0, #0xdfc
     8f8:	f0000104 	adrp	x4, 23000 <trace_ext_prefix+0x8>
     8fc:	91006800 	add	x0, x0, #0x1a
     900:	91372484 	add	x4, x4, #0xdc9
     904:	52800023 	mov	w3, #0x1                   	// #1
     908:	52800022 	mov	w2, #0x1                   	// #1
     90c:	528034a1 	mov	w1, #0x1a5                 	// #421
     910:	94003e65 	bl	102a4 <trace_printf>
/media/home/beste/01_Pro/ld25x/bsp_hu/MYD-LD25X-Uboot-L2022.10-V1.0.0/GEN_FIP/myir-st-optee/ta/pkcs11/src/attributes.c:423
     914:	aa1603e0 	mov	x0, x22
     918:	94004153 	bl	10e64 <TEE_Free>
trace_attributes():
/media/home/beste/01_Pro/ld25x/bsp_hu/MYD-LD25X-Uboot-L2022.10-V1.0.0/GEN_FIP/myir-st-optee/ta/pkcs11/src/attributes.c:455
     91c:	aa1303e0 	mov	x0, x19
     920:	94004151 	bl	10e64 <TEE_Free>
     924:	17ffffc6 	b	83c <trace_attributes+0x84>
/media/home/beste/01_Pro/ld25x/bsp_hu/MYD-LD25X-Uboot-L2022.10-V1.0.0/GEN_FIP/myir-st-optee/ta/pkcs11/src/attributes.c:443
     928:	aa1403e0 	mov	x0, x20
     92c:	94003a50 	bl	f26c <strlen>
     930:	aa1403e1 	mov	x1, x20
     934:	2a0003e2 	mov	w2, w0
     938:	aa1303e0 	mov	x0, x19
     93c:	940040de 	bl	10cb4 <TEE_MemMove>
/media/home/beste/01_Pro/ld25x/bsp_hu/MYD-LD25X-Uboot-L2022.10-V1.0.0/GEN_FIP/myir-st-optee/ta/pkcs11/src/attributes.c:449
     940:	aa1403e0 	mov	x0, x20
     944:	94003a4a 	bl	f26c <strlen>
     948:	17ffffca 	b	870 <trace_attributes+0xb8>
__trace_attributes():
/media/home/beste/01_Pro/ld25x/bsp_hu/MYD-LD25X-Uboot-L2022.10-V1.0.0/GEN_FIP/myir-st-optee/ta/pkcs11/src/attributes.c:348
     94c:	aa1703e1 	mov	x1, x23
     950:	52800102 	mov	w2, #0x8                   	// #8
     954:	aa1803e0 	mov	x0, x24
/media/home/beste/01_Pro/ld25x/bsp_hu/MYD-LD25X-Uboot-L2022.10-V1.0.0/GEN_FIP/myir-st-optee/ta/pkcs11/src/attributes.c:346
     958:	b9006bff 	str	wzr, [sp, #104]
/media/home/beste/01_Pro/ld25x/bsp_hu/MYD-LD25X-Uboot-L2022.10-V1.0.0/GEN_FIP/myir-st-optee/ta/pkcs11/src/attributes.c:345
     95c:	f9003fff 	str	xzr, [sp, #120]
/media/home/beste/01_Pro/ld25x/bsp_hu/MYD-LD25X-Uboot-L2022.10-V1.0.0/GEN_FIP/myir-st-optee/ta/pkcs11/src/attributes.c:348
     960:	940040d5 	bl	10cb4 <TEE_MemMove>
/media/home/beste/01_Pro/ld25x/bsp_hu/MYD-LD25X-Uboot-L2022.10-V1.0.0/GEN_FIP/myir-st-optee/ta/pkcs11/src/attributes.c:349
     964:	b9407fe2 	ldr	w2, [sp, #124]
     968:	910022fc 	add	x28, x23, #0x8
     96c:	aa1c03e1 	mov	x1, x28
     970:	aa1a03e0 	mov	x0, x26
     974:	7100105f 	cmp	w2, #0x4
     978:	1a999042 	csel	w2, w2, w25, ls	// ls = plast
     97c:	940040ce 	bl	10cb4 <TEE_MemMove>
/media/home/beste/01_Pro/ld25x/bsp_hu/MYD-LD25X-Uboot-L2022.10-V1.0.0/GEN_FIP/myir-st-optee/ta/pkcs11/src/attributes.c:352
     980:	294f07e0 	ldp	w0, w1, [sp, #120]
     984:	2a0103f4 	mov	w20, w1
/media/home/beste/01_Pro/ld25x/bsp_hu/MYD-LD25X-Uboot-L2022.10-V1.0.0/GEN_FIP/myir-st-optee/ta/pkcs11/src/attributes.c:406
     988:	0b1b0000 	add	w0, w0, w27
/media/home/beste/01_Pro/ld25x/bsp_hu/MYD-LD25X-Uboot-L2022.10-V1.0.0/GEN_FIP/myir-st-optee/ta/pkcs11/src/attributes.c:352
     98c:	91002294 	add	x20, x20, #0x8
/media/home/beste/01_Pro/ld25x/bsp_hu/MYD-LD25X-Uboot-L2022.10-V1.0.0/GEN_FIP/myir-st-optee/ta/pkcs11/src/attributes.c:406
     990:	7100081f 	cmp	w0, #0x2
     994:	540000a8 	b.hi	9a8 <trace_attributes+0x1f0>  // b.pmore
/media/home/beste/01_Pro/ld25x/bsp_hu/MYD-LD25X-Uboot-L2022.10-V1.0.0/GEN_FIP/myir-st-optee/ta/pkcs11/src/attributes.c:410
     998:	34000081 	cbz	w1, 9a8 <trace_attributes+0x1f0>
/media/home/beste/01_Pro/ld25x/bsp_hu/MYD-LD25X-Uboot-L2022.10-V1.0.0/GEN_FIP/myir-st-optee/ta/pkcs11/src/attributes.c:411
     99c:	aa1c03e1 	mov	x1, x28
     9a0:	aa1603e0 	mov	x0, x22
     9a4:	97ffff85 	bl	7b8 <trace_attributes>
/media/home/beste/01_Pro/ld25x/bsp_hu/MYD-LD25X-Uboot-L2022.10-V1.0.0/GEN_FIP/myir-st-optee/ta/pkcs11/src/attributes.c:344
     9a8:	8b1402f7 	add	x23, x23, x20
     9ac:	17ffffce 	b	8e4 <trace_attributes+0x12c>

00000000000009b0 <TA_CreateEntryPoint>:
TA_CreateEntryPoint():
/media/home/beste/01_Pro/ld25x/bsp_hu/MYD-LD25X-Uboot-L2022.10-V1.0.0/GEN_FIP/myir-st-optee/ta/pkcs11/src/entry.c:20
     9b0:	14001835 	b	6a84 <pkcs11_init>

00000000000009b4 <TA_DestroyEntryPoint>:
TA_DestroyEntryPoint():
/media/home/beste/01_Pro/ld25x/bsp_hu/MYD-LD25X-Uboot-L2022.10-V1.0.0/GEN_FIP/myir-st-optee/ta/pkcs11/src/entry.c:25
     9b4:	14001849 	b	6ad8 <pkcs11_deinit>

00000000000009b8 <TA_OpenSessionEntryPoint>:
TA_OpenSessionEntryPoint():
/media/home/beste/01_Pro/ld25x/bsp_hu/MYD-LD25X-Uboot-L2022.10-V1.0.0/GEN_FIP/myir-st-optee/ta/pkcs11/src/entry.c:31
     9b8:	a9be7bfd 	stp	x29, x30, [sp, #-32]!
     9bc:	910003fd 	mov	x29, sp
     9c0:	f9000bf3 	str	x19, [sp, #16]
     9c4:	aa0203f3 	mov	x19, x2
/media/home/beste/01_Pro/ld25x/bsp_hu/MYD-LD25X-Uboot-L2022.10-V1.0.0/GEN_FIP/myir-st-optee/ta/pkcs11/src/entry.c:32
     9c8:	940017ed 	bl	697c <register_client>
/media/home/beste/01_Pro/ld25x/bsp_hu/MYD-LD25X-Uboot-L2022.10-V1.0.0/GEN_FIP/myir-st-optee/ta/pkcs11/src/entry.c:34
     9cc:	b40000c0 	cbz	x0, 9e4 <TA_OpenSessionEntryPoint+0x2c>
/media/home/beste/01_Pro/ld25x/bsp_hu/MYD-LD25X-Uboot-L2022.10-V1.0.0/GEN_FIP/myir-st-optee/ta/pkcs11/src/entry.c:37
     9d0:	f9000260 	str	x0, [x19]
/media/home/beste/01_Pro/ld25x/bsp_hu/MYD-LD25X-Uboot-L2022.10-V1.0.0/GEN_FIP/myir-st-optee/ta/pkcs11/src/entry.c:39
     9d4:	52800000 	mov	w0, #0x0                   	// #0
/media/home/beste/01_Pro/ld25x/bsp_hu/MYD-LD25X-Uboot-L2022.10-V1.0.0/GEN_FIP/myir-st-optee/ta/pkcs11/src/entry.c:40
     9d8:	f9400bf3 	ldr	x19, [sp, #16]
     9dc:	a8c27bfd 	ldp	x29, x30, [sp], #32
     9e0:	d65f03c0 	ret
/media/home/beste/01_Pro/ld25x/bsp_hu/MYD-LD25X-Uboot-L2022.10-V1.0.0/GEN_FIP/myir-st-optee/ta/pkcs11/src/entry.c:35
     9e4:	129ffe60 	mov	w0, #0xffff000c            	// #-65524
     9e8:	17fffffc 	b	9d8 <TA_OpenSessionEntryPoint+0x20>

00000000000009ec <TA_CloseSessionEntryPoint>:
TA_CloseSessionEntryPoint():
/media/home/beste/01_Pro/ld25x/bsp_hu/MYD-LD25X-Uboot-L2022.10-V1.0.0/GEN_FIP/myir-st-optee/ta/pkcs11/src/entry.c:43
     9ec:	a9bf7bfd 	stp	x29, x30, [sp, #-16]!
     9f0:	910003fd 	mov	x29, sp
/media/home/beste/01_Pro/ld25x/bsp_hu/MYD-LD25X-Uboot-L2022.10-V1.0.0/GEN_FIP/myir-st-optee/ta/pkcs11/src/entry.c:44
     9f4:	940017d5 	bl	6948 <tee_session2client>
/media/home/beste/01_Pro/ld25x/bsp_hu/MYD-LD25X-Uboot-L2022.10-V1.0.0/GEN_FIP/myir-st-optee/ta/pkcs11/src/entry.c:47
     9f8:	a8c17bfd 	ldp	x29, x30, [sp], #16
/media/home/beste/01_Pro/ld25x/bsp_hu/MYD-LD25X-Uboot-L2022.10-V1.0.0/GEN_FIP/myir-st-optee/ta/pkcs11/src/entry.c:46
     9fc:	140017fe 	b	69f4 <unregister_client>

0000000000000a00 <TA_InvokeCommandEntryPoint>:
TA_InvokeCommandEntryPoint():
/media/home/beste/01_Pro/ld25x/bsp_hu/MYD-LD25X-Uboot-L2022.10-V1.0.0/GEN_FIP/myir-st-optee/ta/pkcs11/src/entry.c:119
     a00:	a9bb7bfd 	stp	x29, x30, [sp, #-80]!
     a04:	910003fd 	mov	x29, sp
     a08:	a90153f3 	stp	x19, x20, [sp, #16]
     a0c:	2a0103f3 	mov	w19, w1
     a10:	aa0303f4 	mov	x20, x3
     a14:	f90013f5 	str	x21, [sp, #32]
     a18:	2a0203f5 	mov	w21, w2
/media/home/beste/01_Pro/ld25x/bsp_hu/MYD-LD25X-Uboot-L2022.10-V1.0.0/GEN_FIP/myir-st-optee/ta/pkcs11/src/entry.c:120
     a1c:	940017cb 	bl	6948 <tee_session2client>
/media/home/beste/01_Pro/ld25x/bsp_hu/MYD-LD25X-Uboot-L2022.10-V1.0.0/GEN_FIP/myir-st-optee/ta/pkcs11/src/entry.c:121
     a20:	528000a1 	mov	w1, #0x5                   	// #5
     a24:	b9003fe1 	str	w1, [sp, #60]
/media/home/beste/01_Pro/ld25x/bsp_hu/MYD-LD25X-Uboot-L2022.10-V1.0.0/GEN_FIP/myir-st-optee/ta/pkcs11/src/entry.c:123
     a28:	b4001d40 	cbz	x0, dd0 <TA_InvokeCommandEntryPoint+0x3d0>
/media/home/beste/01_Pro/ld25x/bsp_hu/MYD-LD25X-Uboot-L2022.10-V1.0.0/GEN_FIP/myir-st-optee/ta/pkcs11/src/entry.c:133 (discriminator 2)
     a2c:	12000ea1 	and	w1, w21, #0xf
     a30:	51001821 	sub	w1, w1, #0x6
     a34:	7100043f 	cmp	w1, #0x1
     a38:	54001d08 	b.hi	dd8 <TA_InvokeCommandEntryPoint+0x3d8>  // b.pmore
/media/home/beste/01_Pro/ld25x/bsp_hu/MYD-LD25X-Uboot-L2022.10-V1.0.0/GEN_FIP/myir-st-optee/ta/pkcs11/src/entry.c:136
     a3c:	b9400a82 	ldr	w2, [x20, #8]
     a40:	71000c5f 	cmp	w2, #0x3
     a44:	54001ca9 	b.ls	dd8 <TA_InvokeCommandEntryPoint+0x3d8>  // b.plast
/media/home/beste/01_Pro/ld25x/bsp_hu/MYD-LD25X-Uboot-L2022.10-V1.0.0/GEN_FIP/myir-st-optee/ta/pkcs11/src/entry.c:155
     a48:	7100d27f 	cmp	w19, #0x34
     a4c:	54001a68 	b.hi	d98 <TA_InvokeCommandEntryPoint+0x398>  // b.pmore
     a50:	d0000101 	adrp	x1, 22000 <__text_end+0x4418>
     a54:	913ff021 	add	x1, x1, #0xffc
     a58:	78735821 	ldrh	w1, [x1, w19, uxtw #1]
     a5c:	10000063 	adr	x3, a68 <TA_InvokeCommandEntryPoint+0x68>
     a60:	8b21a861 	add	x1, x3, w1, sxth #2
     a64:	d61f0020 	br	x1
entry_ping():
/media/home/beste/01_Pro/ld25x/bsp_hu/MYD-LD25X-Uboot-L2022.10-V1.0.0/GEN_FIP/myir-st-optee/ta/pkcs11/src/entry.c:61
     a68:	d2c00020 	mov	x0, #0x100000000           	// #4294967296
     a6c:	f90023e0 	str	x0, [sp, #64]
     a70:	b9004bff 	str	wzr, [sp, #72]
/media/home/beste/01_Pro/ld25x/bsp_hu/MYD-LD25X-Uboot-L2022.10-V1.0.0/GEN_FIP/myir-st-optee/ta/pkcs11/src/entry.c:67
     a74:	71181ebf 	cmp	w21, #0x607
     a78:	540002a1 	b.ne	acc <TA_InvokeCommandEntryPoint+0xcc>  // b.any
     a7c:	7100105f 	cmp	w2, #0x4
     a80:	54000261 	b.ne	acc <TA_InvokeCommandEntryPoint+0xcc>  // b.any
/media/home/beste/01_Pro/ld25x/bsp_hu/MYD-LD25X-Uboot-L2022.10-V1.0.0/GEN_FIP/myir-st-optee/ta/pkcs11/src/entry.c:68
     a84:	b9402a82 	ldr	w2, [x20, #40]
     a88:	7100305f 	cmp	w2, #0xc
     a8c:	54000201 	b.ne	acc <TA_InvokeCommandEntryPoint+0xcc>  // b.any
/media/home/beste/01_Pro/ld25x/bsp_hu/MYD-LD25X-Uboot-L2022.10-V1.0.0/GEN_FIP/myir-st-optee/ta/pkcs11/src/entry.c:72
     a90:	f9401280 	ldr	x0, [x20, #32]
     a94:	910103e1 	add	x1, sp, #0x40
     a98:	94004087 	bl	10cb4 <TEE_MemMove>
TA_InvokeCommandEntryPoint():
/media/home/beste/01_Pro/ld25x/bsp_hu/MYD-LD25X-Uboot-L2022.10-V1.0.0/GEN_FIP/myir-st-optee/ta/pkcs11/src/entry.c:366
     a9c:	f9400280 	ldr	x0, [x20]
     aa0:	9100f3e1 	add	x1, sp, #0x3c
     aa4:	52800082 	mov	w2, #0x4                   	// #4
/media/home/beste/01_Pro/ld25x/bsp_hu/MYD-LD25X-Uboot-L2022.10-V1.0.0/GEN_FIP/myir-st-optee/ta/pkcs11/src/entry.c:157
     aa8:	b9003ff3 	str	w19, [sp, #60]
/media/home/beste/01_Pro/ld25x/bsp_hu/MYD-LD25X-Uboot-L2022.10-V1.0.0/GEN_FIP/myir-st-optee/ta/pkcs11/src/entry.c:366
     aac:	94004082 	bl	10cb4 <TEE_MemMove>
/media/home/beste/01_Pro/ld25x/bsp_hu/MYD-LD25X-Uboot-L2022.10-V1.0.0/GEN_FIP/myir-st-optee/ta/pkcs11/src/entry.c:367
     ab0:	52800080 	mov	w0, #0x4                   	// #4
     ab4:	b9000a80 	str	w0, [x20, #8]
/media/home/beste/01_Pro/ld25x/bsp_hu/MYD-LD25X-Uboot-L2022.10-V1.0.0/GEN_FIP/myir-st-optee/ta/pkcs11/src/entry.c:370
     ab8:	b9403fe0 	ldr	w0, [sp, #60]
     abc:	7105401f 	cmp	w0, #0x150
     ac0:	129ffde0 	mov	w0, #0xffff0010            	// #-65520
     ac4:	1a8013e0 	csel	w0, wzr, w0, ne	// ne = any
     ac8:	140000be 	b	dc0 <TA_InvokeCommandEntryPoint+0x3c0>
entry_ping():
/media/home/beste/01_Pro/ld25x/bsp_hu/MYD-LD25X-Uboot-L2022.10-V1.0.0/GEN_FIP/myir-st-optee/ta/pkcs11/src/entry.c:70
     acc:	528000f3 	mov	w19, #0x7                   	// #7
TA_InvokeCommandEntryPoint():
/media/home/beste/01_Pro/ld25x/bsp_hu/MYD-LD25X-Uboot-L2022.10-V1.0.0/GEN_FIP/myir-st-optee/ta/pkcs11/src/entry.c:158
     ad0:	17fffff3 	b	a9c <TA_InvokeCommandEntryPoint+0x9c>
/media/home/beste/01_Pro/ld25x/bsp_hu/MYD-LD25X-Uboot-L2022.10-V1.0.0/GEN_FIP/myir-st-optee/ta/pkcs11/src/entry.c:161
     ad4:	aa1403e1 	mov	x1, x20
     ad8:	2a1503e0 	mov	w0, w21
     adc:	94001856 	bl	6c34 <entry_ck_slot_list>
/media/home/beste/01_Pro/ld25x/bsp_hu/MYD-LD25X-Uboot-L2022.10-V1.0.0/GEN_FIP/myir-st-optee/ta/pkcs11/src/entry.c:356
     ae0:	2a0003f3 	mov	w19, w0
/media/home/beste/01_Pro/ld25x/bsp_hu/MYD-LD25X-Uboot-L2022.10-V1.0.0/GEN_FIP/myir-st-optee/ta/pkcs11/src/entry.c:358
     ae4:	17ffffee 	b	a9c <TA_InvokeCommandEntryPoint+0x9c>
/media/home/beste/01_Pro/ld25x/bsp_hu/MYD-LD25X-Uboot-L2022.10-V1.0.0/GEN_FIP/myir-st-optee/ta/pkcs11/src/entry.c:164
     ae8:	aa1403e1 	mov	x1, x20
     aec:	2a1503e0 	mov	w0, w21
     af0:	9400187c 	bl	6ce0 <entry_ck_slot_info>
     af4:	17fffffb 	b	ae0 <TA_InvokeCommandEntryPoint+0xe0>
/media/home/beste/01_Pro/ld25x/bsp_hu/MYD-LD25X-Uboot-L2022.10-V1.0.0/GEN_FIP/myir-st-optee/ta/pkcs11/src/entry.c:167
     af8:	aa1403e1 	mov	x1, x20
     afc:	2a1503e0 	mov	w0, w21
     b00:	940018da 	bl	6e68 <entry_ck_token_info>
     b04:	17fffff7 	b	ae0 <TA_InvokeCommandEntryPoint+0xe0>
/media/home/beste/01_Pro/ld25x/bsp_hu/MYD-LD25X-Uboot-L2022.10-V1.0.0/GEN_FIP/myir-st-optee/ta/pkcs11/src/entry.c:170
     b08:	aa1403e1 	mov	x1, x20
     b0c:	2a1503e0 	mov	w0, w21
     b10:	94001945 	bl	7024 <entry_ck_token_mecha_ids>
     b14:	17fffff3 	b	ae0 <TA_InvokeCommandEntryPoint+0xe0>
/media/home/beste/01_Pro/ld25x/bsp_hu/MYD-LD25X-Uboot-L2022.10-V1.0.0/GEN_FIP/myir-st-optee/ta/pkcs11/src/entry.c:173
     b18:	aa1403e1 	mov	x1, x20
     b1c:	2a1503e0 	mov	w0, w21
     b20:	9400198d 	bl	7154 <entry_ck_token_mecha_info>
     b24:	17ffffef 	b	ae0 <TA_InvokeCommandEntryPoint+0xe0>
/media/home/beste/01_Pro/ld25x/bsp_hu/MYD-LD25X-Uboot-L2022.10-V1.0.0/GEN_FIP/myir-st-optee/ta/pkcs11/src/entry.c:177
     b28:	aa1403e2 	mov	x2, x20
     b2c:	2a1503e1 	mov	w1, w21
     b30:	940019cb 	bl	725c <entry_ck_open_session>
     b34:	17ffffeb 	b	ae0 <TA_InvokeCommandEntryPoint+0xe0>
/media/home/beste/01_Pro/ld25x/bsp_hu/MYD-LD25X-Uboot-L2022.10-V1.0.0/GEN_FIP/myir-st-optee/ta/pkcs11/src/entry.c:180
     b38:	aa1403e2 	mov	x2, x20
     b3c:	2a1503e1 	mov	w1, w21
     b40:	94001a5b 	bl	74ac <entry_ck_close_session>
     b44:	17ffffe7 	b	ae0 <TA_InvokeCommandEntryPoint+0xe0>
/media/home/beste/01_Pro/ld25x/bsp_hu/MYD-LD25X-Uboot-L2022.10-V1.0.0/GEN_FIP/myir-st-optee/ta/pkcs11/src/entry.c:183
     b48:	aa1403e2 	mov	x2, x20
     b4c:	2a1503e1 	mov	w1, w21
     b50:	94001a78 	bl	7530 <entry_ck_close_all_sessions>
     b54:	17ffffe3 	b	ae0 <TA_InvokeCommandEntryPoint+0xe0>
/media/home/beste/01_Pro/ld25x/bsp_hu/MYD-LD25X-Uboot-L2022.10-V1.0.0/GEN_FIP/myir-st-optee/ta/pkcs11/src/entry.c:186
     b58:	aa1403e2 	mov	x2, x20
     b5c:	2a1503e1 	mov	w1, w21
     b60:	94001aa4 	bl	75f0 <entry_ck_session_info>
     b64:	17ffffdf 	b	ae0 <TA_InvokeCommandEntryPoint+0xe0>
/media/home/beste/01_Pro/ld25x/bsp_hu/MYD-LD25X-Uboot-L2022.10-V1.0.0/GEN_FIP/myir-st-optee/ta/pkcs11/src/entry.c:190
     b68:	aa1403e1 	mov	x1, x20
     b6c:	2a1503e0 	mov	w0, w21
     b70:	94001ad9 	bl	76d4 <entry_ck_token_initialize>
     b74:	17ffffdb 	b	ae0 <TA_InvokeCommandEntryPoint+0xe0>
/media/home/beste/01_Pro/ld25x/bsp_hu/MYD-LD25X-Uboot-L2022.10-V1.0.0/GEN_FIP/myir-st-optee/ta/pkcs11/src/entry.c:193
     b78:	aa1403e2 	mov	x2, x20
     b7c:	2a1503e1 	mov	w1, w21
     b80:	94001b7b 	bl	796c <entry_ck_init_pin>
     b84:	17ffffd7 	b	ae0 <TA_InvokeCommandEntryPoint+0xe0>
/media/home/beste/01_Pro/ld25x/bsp_hu/MYD-LD25X-Uboot-L2022.10-V1.0.0/GEN_FIP/myir-st-optee/ta/pkcs11/src/entry.c:196
     b88:	aa1403e2 	mov	x2, x20
     b8c:	2a1503e1 	mov	w1, w21
     b90:	94001bb8 	bl	7a70 <entry_ck_set_pin>
     b94:	17ffffd3 	b	ae0 <TA_InvokeCommandEntryPoint+0xe0>
/media/home/beste/01_Pro/ld25x/bsp_hu/MYD-LD25X-Uboot-L2022.10-V1.0.0/GEN_FIP/myir-st-optee/ta/pkcs11/src/entry.c:199
     b98:	aa1403e2 	mov	x2, x20
     b9c:	2a1503e1 	mov	w1, w21
     ba0:	94001c06 	bl	7bb8 <entry_ck_login>
     ba4:	17ffffcf 	b	ae0 <TA_InvokeCommandEntryPoint+0xe0>
/media/home/beste/01_Pro/ld25x/bsp_hu/MYD-LD25X-Uboot-L2022.10-V1.0.0/GEN_FIP/myir-st-optee/ta/pkcs11/src/entry.c:202
     ba8:	aa1403e2 	mov	x2, x20
     bac:	2a1503e1 	mov	w1, w21
     bb0:	94001c8f 	bl	7dec <entry_ck_logout>
     bb4:	17ffffcb 	b	ae0 <TA_InvokeCommandEntryPoint+0xe0>
/media/home/beste/01_Pro/ld25x/bsp_hu/MYD-LD25X-Uboot-L2022.10-V1.0.0/GEN_FIP/myir-st-optee/ta/pkcs11/src/entry.c:206
     bb8:	aa1403e2 	mov	x2, x20
     bbc:	2a1503e1 	mov	w1, w21
     bc0:	9400022b 	bl	146c <entry_create_object>
     bc4:	17ffffc7 	b	ae0 <TA_InvokeCommandEntryPoint+0xe0>
/media/home/beste/01_Pro/ld25x/bsp_hu/MYD-LD25X-Uboot-L2022.10-V1.0.0/GEN_FIP/myir-st-optee/ta/pkcs11/src/entry.c:209
     bc8:	aa1403e2 	mov	x2, x20
     bcc:	2a1503e1 	mov	w1, w21
     bd0:	94000280 	bl	15d0 <entry_destroy_object>
     bd4:	17ffffc3 	b	ae0 <TA_InvokeCommandEntryPoint+0xe0>
/media/home/beste/01_Pro/ld25x/bsp_hu/MYD-LD25X-Uboot-L2022.10-V1.0.0/GEN_FIP/myir-st-optee/ta/pkcs11/src/entry.c:213
     bd8:	528000c3 	mov	w3, #0x6                   	// #6
/media/home/beste/01_Pro/ld25x/bsp_hu/MYD-LD25X-Uboot-L2022.10-V1.0.0/GEN_FIP/myir-st-optee/ta/pkcs11/src/entry.c:326
     bdc:	aa1403e2 	mov	x2, x20
     be0:	2a1503e1 	mov	w1, w21
     be4:	94001fde 	bl	8b5c <entry_processing_init>
     be8:	17ffffbe 	b	ae0 <TA_InvokeCommandEntryPoint+0xe0>
/media/home/beste/01_Pro/ld25x/bsp_hu/MYD-LD25X-Uboot-L2022.10-V1.0.0/GEN_FIP/myir-st-optee/ta/pkcs11/src/entry.c:217
     bec:	528000e3 	mov	w3, #0x7                   	// #7
     bf0:	17fffffb 	b	bdc <TA_InvokeCommandEntryPoint+0x1dc>
/media/home/beste/01_Pro/ld25x/bsp_hu/MYD-LD25X-Uboot-L2022.10-V1.0.0/GEN_FIP/myir-st-optee/ta/pkcs11/src/entry.c:221
     bf4:	52800044 	mov	w4, #0x2                   	// #2
/media/home/beste/01_Pro/ld25x/bsp_hu/MYD-LD25X-Uboot-L2022.10-V1.0.0/GEN_FIP/myir-st-optee/ta/pkcs11/src/entry.c:241
     bf8:	528000c3 	mov	w3, #0x6                   	// #6
/media/home/beste/01_Pro/ld25x/bsp_hu/MYD-LD25X-Uboot-L2022.10-V1.0.0/GEN_FIP/myir-st-optee/ta/pkcs11/src/entry.c:345
     bfc:	aa1403e2 	mov	x2, x20
     c00:	2a1503e1 	mov	w1, w21
     c04:	9400205a 	bl	8d6c <entry_processing_step>
     c08:	17ffffb6 	b	ae0 <TA_InvokeCommandEntryPoint+0xe0>
/media/home/beste/01_Pro/ld25x/bsp_hu/MYD-LD25X-Uboot-L2022.10-V1.0.0/GEN_FIP/myir-st-optee/ta/pkcs11/src/entry.c:226
     c0c:	52800044 	mov	w4, #0x2                   	// #2
/media/home/beste/01_Pro/ld25x/bsp_hu/MYD-LD25X-Uboot-L2022.10-V1.0.0/GEN_FIP/myir-st-optee/ta/pkcs11/src/entry.c:246
     c10:	528000e3 	mov	w3, #0x7                   	// #7
     c14:	17fffffa 	b	bfc <TA_InvokeCommandEntryPoint+0x1fc>
/media/home/beste/01_Pro/ld25x/bsp_hu/MYD-LD25X-Uboot-L2022.10-V1.0.0/GEN_FIP/myir-st-optee/ta/pkcs11/src/entry.c:231
     c18:	52800024 	mov	w4, #0x1                   	// #1
     c1c:	17fffff7 	b	bf8 <TA_InvokeCommandEntryPoint+0x1f8>
/media/home/beste/01_Pro/ld25x/bsp_hu/MYD-LD25X-Uboot-L2022.10-V1.0.0/GEN_FIP/myir-st-optee/ta/pkcs11/src/entry.c:236
     c20:	52800024 	mov	w4, #0x1                   	// #1
     c24:	17fffffb 	b	c10 <TA_InvokeCommandEntryPoint+0x210>
/media/home/beste/01_Pro/ld25x/bsp_hu/MYD-LD25X-Uboot-L2022.10-V1.0.0/GEN_FIP/myir-st-optee/ta/pkcs11/src/entry.c:241
     c28:	52800084 	mov	w4, #0x4                   	// #4
     c2c:	17fffff3 	b	bf8 <TA_InvokeCommandEntryPoint+0x1f8>
/media/home/beste/01_Pro/ld25x/bsp_hu/MYD-LD25X-Uboot-L2022.10-V1.0.0/GEN_FIP/myir-st-optee/ta/pkcs11/src/entry.c:246
     c30:	52800084 	mov	w4, #0x4                   	// #4
     c34:	17fffff7 	b	c10 <TA_InvokeCommandEntryPoint+0x210>
/media/home/beste/01_Pro/ld25x/bsp_hu/MYD-LD25X-Uboot-L2022.10-V1.0.0/GEN_FIP/myir-st-optee/ta/pkcs11/src/entry.c:251
     c38:	52800103 	mov	w3, #0x8                   	// #8
     c3c:	17ffffe8 	b	bdc <TA_InvokeCommandEntryPoint+0x1dc>
/media/home/beste/01_Pro/ld25x/bsp_hu/MYD-LD25X-Uboot-L2022.10-V1.0.0/GEN_FIP/myir-st-optee/ta/pkcs11/src/entry.c:255
     c40:	52800123 	mov	w3, #0x9                   	// #9
     c44:	17ffffe6 	b	bdc <TA_InvokeCommandEntryPoint+0x1dc>
/media/home/beste/01_Pro/ld25x/bsp_hu/MYD-LD25X-Uboot-L2022.10-V1.0.0/GEN_FIP/myir-st-optee/ta/pkcs11/src/entry.c:259
     c48:	52800024 	mov	w4, #0x1                   	// #1
/media/home/beste/01_Pro/ld25x/bsp_hu/MYD-LD25X-Uboot-L2022.10-V1.0.0/GEN_FIP/myir-st-optee/ta/pkcs11/src/entry.c:279
     c4c:	52800103 	mov	w3, #0x8                   	// #8
     c50:	17ffffeb 	b	bfc <TA_InvokeCommandEntryPoint+0x1fc>
/media/home/beste/01_Pro/ld25x/bsp_hu/MYD-LD25X-Uboot-L2022.10-V1.0.0/GEN_FIP/myir-st-optee/ta/pkcs11/src/entry.c:264
     c54:	52800024 	mov	w4, #0x1                   	// #1
/media/home/beste/01_Pro/ld25x/bsp_hu/MYD-LD25X-Uboot-L2022.10-V1.0.0/GEN_FIP/myir-st-optee/ta/pkcs11/src/entry.c:284
     c58:	52800123 	mov	w3, #0x9                   	// #9
     c5c:	17ffffe8 	b	bfc <TA_InvokeCommandEntryPoint+0x1fc>
/media/home/beste/01_Pro/ld25x/bsp_hu/MYD-LD25X-Uboot-L2022.10-V1.0.0/GEN_FIP/myir-st-optee/ta/pkcs11/src/entry.c:269
     c60:	52800044 	mov	w4, #0x2                   	// #2
     c64:	17fffffa 	b	c4c <TA_InvokeCommandEntryPoint+0x24c>
/media/home/beste/01_Pro/ld25x/bsp_hu/MYD-LD25X-Uboot-L2022.10-V1.0.0/GEN_FIP/myir-st-optee/ta/pkcs11/src/entry.c:274
     c68:	52800044 	mov	w4, #0x2                   	// #2
     c6c:	17fffffb 	b	c58 <TA_InvokeCommandEntryPoint+0x258>
/media/home/beste/01_Pro/ld25x/bsp_hu/MYD-LD25X-Uboot-L2022.10-V1.0.0/GEN_FIP/myir-st-optee/ta/pkcs11/src/entry.c:279
     c70:	52800084 	mov	w4, #0x4                   	// #4
     c74:	17fffff6 	b	c4c <TA_InvokeCommandEntryPoint+0x24c>
/media/home/beste/01_Pro/ld25x/bsp_hu/MYD-LD25X-Uboot-L2022.10-V1.0.0/GEN_FIP/myir-st-optee/ta/pkcs11/src/entry.c:284
     c78:	52800084 	mov	w4, #0x4                   	// #4
     c7c:	17fffff7 	b	c58 <TA_InvokeCommandEntryPoint+0x258>
/media/home/beste/01_Pro/ld25x/bsp_hu/MYD-LD25X-Uboot-L2022.10-V1.0.0/GEN_FIP/myir-st-optee/ta/pkcs11/src/entry.c:289
     c80:	aa1403e2 	mov	x2, x20
     c84:	2a1503e1 	mov	w1, w21
     c88:	94001dd6 	bl	83e0 <entry_generate_secret>
     c8c:	17ffff95 	b	ae0 <TA_InvokeCommandEntryPoint+0xe0>
/media/home/beste/01_Pro/ld25x/bsp_hu/MYD-LD25X-Uboot-L2022.10-V1.0.0/GEN_FIP/myir-st-optee/ta/pkcs11/src/entry.c:292
     c90:	aa1403e2 	mov	x2, x20
     c94:	2a1503e1 	mov	w1, w21
     c98:	94000299 	bl	16fc <entry_find_objects_init>
     c9c:	17ffff91 	b	ae0 <TA_InvokeCommandEntryPoint+0xe0>
/media/home/beste/01_Pro/ld25x/bsp_hu/MYD-LD25X-Uboot-L2022.10-V1.0.0/GEN_FIP/myir-st-optee/ta/pkcs11/src/entry.c:295
     ca0:	aa1403e2 	mov	x2, x20
     ca4:	2a1503e1 	mov	w1, w21
     ca8:	94000371 	bl	1a6c <entry_find_objects>
     cac:	17ffff8d 	b	ae0 <TA_InvokeCommandEntryPoint+0xe0>
/media/home/beste/01_Pro/ld25x/bsp_hu/MYD-LD25X-Uboot-L2022.10-V1.0.0/GEN_FIP/myir-st-optee/ta/pkcs11/src/entry.c:298
     cb0:	aa1403e2 	mov	x2, x20
     cb4:	2a1503e1 	mov	w1, w21
     cb8:	940003bc 	bl	1ba8 <entry_find_objects_final>
     cbc:	17ffff89 	b	ae0 <TA_InvokeCommandEntryPoint+0xe0>
/media/home/beste/01_Pro/ld25x/bsp_hu/MYD-LD25X-Uboot-L2022.10-V1.0.0/GEN_FIP/myir-st-optee/ta/pkcs11/src/entry.c:301
     cc0:	aa1403e2 	mov	x2, x20
     cc4:	2a1503e1 	mov	w1, w21
     cc8:	940003dd 	bl	1c3c <entry_get_attribute_value>
     ccc:	17ffff85 	b	ae0 <TA_InvokeCommandEntryPoint+0xe0>
/media/home/beste/01_Pro/ld25x/bsp_hu/MYD-LD25X-Uboot-L2022.10-V1.0.0/GEN_FIP/myir-st-optee/ta/pkcs11/src/entry.c:304
     cd0:	aa1403e2 	mov	x2, x20
     cd4:	2a1503e1 	mov	w1, w21
     cd8:	9400046b 	bl	1e84 <entry_get_object_size>
     cdc:	17ffff81 	b	ae0 <TA_InvokeCommandEntryPoint+0xe0>
/media/home/beste/01_Pro/ld25x/bsp_hu/MYD-LD25X-Uboot-L2022.10-V1.0.0/GEN_FIP/myir-st-optee/ta/pkcs11/src/entry.c:307
     ce0:	aa1403e2 	mov	x2, x20
     ce4:	2a1503e1 	mov	w1, w21
     ce8:	940004a5 	bl	1f7c <entry_set_attribute_value>
     cec:	17ffff7d 	b	ae0 <TA_InvokeCommandEntryPoint+0xe0>
/media/home/beste/01_Pro/ld25x/bsp_hu/MYD-LD25X-Uboot-L2022.10-V1.0.0/GEN_FIP/myir-st-optee/ta/pkcs11/src/entry.c:310
     cf0:	aa1403e2 	mov	x2, x20
     cf4:	2a1503e1 	mov	w1, w21
     cf8:	94000510 	bl	2138 <entry_copy_object>
     cfc:	17ffff79 	b	ae0 <TA_InvokeCommandEntryPoint+0xe0>
/media/home/beste/01_Pro/ld25x/bsp_hu/MYD-LD25X-Uboot-L2022.10-V1.0.0/GEN_FIP/myir-st-optee/ta/pkcs11/src/entry.c:313
     d00:	aa1403e2 	mov	x2, x20
     d04:	2a1503e1 	mov	w1, w21
     d08:	94001c93 	bl	7f54 <entry_ck_seed_random>
     d0c:	17ffff75 	b	ae0 <TA_InvokeCommandEntryPoint+0xe0>
/media/home/beste/01_Pro/ld25x/bsp_hu/MYD-LD25X-Uboot-L2022.10-V1.0.0/GEN_FIP/myir-st-optee/ta/pkcs11/src/entry.c:316
     d10:	aa1403e2 	mov	x2, x20
     d14:	2a1503e1 	mov	w1, w21
     d18:	94001ce6 	bl	80b0 <entry_ck_generate_random>
     d1c:	17ffff71 	b	ae0 <TA_InvokeCommandEntryPoint+0xe0>
/media/home/beste/01_Pro/ld25x/bsp_hu/MYD-LD25X-Uboot-L2022.10-V1.0.0/GEN_FIP/myir-st-optee/ta/pkcs11/src/entry.c:319
     d20:	52800063 	mov	w3, #0x3                   	// #3
/media/home/beste/01_Pro/ld25x/bsp_hu/MYD-LD25X-Uboot-L2022.10-V1.0.0/GEN_FIP/myir-st-optee/ta/pkcs11/src/entry.c:356
     d24:	aa1403e2 	mov	x2, x20
     d28:	2a1503e1 	mov	w1, w21
     d2c:	940020b4 	bl	8ffc <entry_processing_key>
     d30:	17ffff6c 	b	ae0 <TA_InvokeCommandEntryPoint+0xe0>
/media/home/beste/01_Pro/ld25x/bsp_hu/MYD-LD25X-Uboot-L2022.10-V1.0.0/GEN_FIP/myir-st-optee/ta/pkcs11/src/entry.c:323
     d34:	aa1403e2 	mov	x2, x20
     d38:	2a1503e1 	mov	w1, w21
     d3c:	940021b4 	bl	940c <entry_release_active_processing>
     d40:	17ffff68 	b	ae0 <TA_InvokeCommandEntryPoint+0xe0>
/media/home/beste/01_Pro/ld25x/bsp_hu/MYD-LD25X-Uboot-L2022.10-V1.0.0/GEN_FIP/myir-st-optee/ta/pkcs11/src/entry.c:326
     d44:	52800003 	mov	w3, #0x0                   	// #0
     d48:	17ffffa5 	b	bdc <TA_InvokeCommandEntryPoint+0x1dc>
/media/home/beste/01_Pro/ld25x/bsp_hu/MYD-LD25X-Uboot-L2022.10-V1.0.0/GEN_FIP/myir-st-optee/ta/pkcs11/src/entry.c:330
     d4c:	52800044 	mov	w4, #0x2                   	// #2
/media/home/beste/01_Pro/ld25x/bsp_hu/MYD-LD25X-Uboot-L2022.10-V1.0.0/GEN_FIP/myir-st-optee/ta/pkcs11/src/entry.c:345
     d50:	52800003 	mov	w3, #0x0                   	// #0
     d54:	17ffffaa 	b	bfc <TA_InvokeCommandEntryPoint+0x1fc>
/media/home/beste/01_Pro/ld25x/bsp_hu/MYD-LD25X-Uboot-L2022.10-V1.0.0/GEN_FIP/myir-st-optee/ta/pkcs11/src/entry.c:335
     d58:	52800064 	mov	w4, #0x3                   	// #3
     d5c:	17fffffd 	b	d50 <TA_InvokeCommandEntryPoint+0x350>
/media/home/beste/01_Pro/ld25x/bsp_hu/MYD-LD25X-Uboot-L2022.10-V1.0.0/GEN_FIP/myir-st-optee/ta/pkcs11/src/entry.c:340
     d60:	52800024 	mov	w4, #0x1                   	// #1
     d64:	17fffffb 	b	d50 <TA_InvokeCommandEntryPoint+0x350>
/media/home/beste/01_Pro/ld25x/bsp_hu/MYD-LD25X-Uboot-L2022.10-V1.0.0/GEN_FIP/myir-st-optee/ta/pkcs11/src/entry.c:345
     d68:	52800084 	mov	w4, #0x4                   	// #4
     d6c:	17fffff9 	b	d50 <TA_InvokeCommandEntryPoint+0x350>
/media/home/beste/01_Pro/ld25x/bsp_hu/MYD-LD25X-Uboot-L2022.10-V1.0.0/GEN_FIP/myir-st-optee/ta/pkcs11/src/entry.c:350
     d70:	aa1403e2 	mov	x2, x20
     d74:	2a1503e1 	mov	w1, w21
     d78:	94001ea1 	bl	87fc <entry_generate_key_pair>
     d7c:	17ffff59 	b	ae0 <TA_InvokeCommandEntryPoint+0xe0>
/media/home/beste/01_Pro/ld25x/bsp_hu/MYD-LD25X-Uboot-L2022.10-V1.0.0/GEN_FIP/myir-st-optee/ta/pkcs11/src/entry.c:353
     d80:	aa1403e2 	mov	x2, x20
     d84:	2a1503e1 	mov	w1, w21
     d88:	940021d6 	bl	94e0 <entry_wrap_key>
     d8c:	17ffff55 	b	ae0 <TA_InvokeCommandEntryPoint+0xe0>
/media/home/beste/01_Pro/ld25x/bsp_hu/MYD-LD25X-Uboot-L2022.10-V1.0.0/GEN_FIP/myir-st-optee/ta/pkcs11/src/entry.c:356
     d90:	528000a3 	mov	w3, #0x5                   	// #5
     d94:	17ffffe4 	b	d24 <TA_InvokeCommandEntryPoint+0x324>
/media/home/beste/01_Pro/ld25x/bsp_hu/MYD-LD25X-Uboot-L2022.10-V1.0.0/GEN_FIP/myir-st-optee/ta/pkcs11/src/entry.c:360
     d98:	2a1303e5 	mov	w5, w19
     d9c:	f0000104 	adrp	x4, 23000 <trace_ext_prefix+0x8>
     da0:	52800023 	mov	w3, #0x1                   	// #1
     da4:	9138a484 	add	x4, x4, #0xe29
     da8:	52800022 	mov	w2, #0x1                   	// #1
     dac:	52802d01 	mov	w1, #0x168                 	// #360
     db0:	f0000100 	adrp	x0, 23000 <trace_ext_prefix+0x8>
     db4:	91019800 	add	x0, x0, #0x66
     db8:	94003d3b 	bl	102a4 <trace_printf>
/media/home/beste/01_Pro/ld25x/bsp_hu/MYD-LD25X-Uboot-L2022.10-V1.0.0/GEN_FIP/myir-st-optee/ta/pkcs11/src/entry.c:361
     dbc:	129ffea0 	mov	w0, #0xffff000a            	// #-65526
/media/home/beste/01_Pro/ld25x/bsp_hu/MYD-LD25X-Uboot-L2022.10-V1.0.0/GEN_FIP/myir-st-optee/ta/pkcs11/src/entry.c:373
     dc0:	a94153f3 	ldp	x19, x20, [sp, #16]
     dc4:	f94013f5 	ldr	x21, [sp, #32]
     dc8:	a8c57bfd 	ldp	x29, x30, [sp], #80
     dcc:	d65f03c0 	ret
/media/home/beste/01_Pro/ld25x/bsp_hu/MYD-LD25X-Uboot-L2022.10-V1.0.0/GEN_FIP/myir-st-optee/ta/pkcs11/src/entry.c:124
     dd0:	129ffe00 	mov	w0, #0xffff000f            	// #-65521
     dd4:	17fffffb 	b	dc0 <TA_InvokeCommandEntryPoint+0x3c0>
/media/home/beste/01_Pro/ld25x/bsp_hu/MYD-LD25X-Uboot-L2022.10-V1.0.0/GEN_FIP/myir-st-optee/ta/pkcs11/src/entry.c:137
     dd8:	129fff20 	mov	w0, #0xffff0006            	// #-65530
     ddc:	17fffff9 	b	dc0 <TA_InvokeCommandEntryPoint+0x3c0>

0000000000000de0 <handle_db_init>:
handle_db_init():
/media/home/beste/01_Pro/ld25x/bsp_hu/MYD-LD25X-Uboot-L2022.10-V1.0.0/GEN_FIP/myir-st-optee/ta/pkcs11/src/handle.c:22
     de0:	52800202 	mov	w2, #0x10                  	// #16
     de4:	52800001 	mov	w1, #0x0                   	// #0
     de8:	14003fb7 	b	10cc4 <TEE_MemFill>

0000000000000dec <handle_db_destroy>:
handle_db_destroy():
/media/home/beste/01_Pro/ld25x/bsp_hu/MYD-LD25X-Uboot-L2022.10-V1.0.0/GEN_FIP/myir-st-optee/ta/pkcs11/src/handle.c:27
     dec:	b4000180 	cbz	x0, e1c <handle_db_destroy+0x30>
/media/home/beste/01_Pro/ld25x/bsp_hu/MYD-LD25X-Uboot-L2022.10-V1.0.0/GEN_FIP/myir-st-optee/ta/pkcs11/src/handle.c:26
     df0:	a9be7bfd 	stp	x29, x30, [sp, #-32]!
     df4:	910003fd 	mov	x29, sp
     df8:	f9000bf3 	str	x19, [sp, #16]
     dfc:	aa0003f3 	mov	x19, x0
/media/home/beste/01_Pro/ld25x/bsp_hu/MYD-LD25X-Uboot-L2022.10-V1.0.0/GEN_FIP/myir-st-optee/ta/pkcs11/src/handle.c:28
     e00:	f9400000 	ldr	x0, [x0]
     e04:	94004018 	bl	10e64 <TEE_Free>
/media/home/beste/01_Pro/ld25x/bsp_hu/MYD-LD25X-Uboot-L2022.10-V1.0.0/GEN_FIP/myir-st-optee/ta/pkcs11/src/handle.c:29
     e08:	f900027f 	str	xzr, [x19]
/media/home/beste/01_Pro/ld25x/bsp_hu/MYD-LD25X-Uboot-L2022.10-V1.0.0/GEN_FIP/myir-st-optee/ta/pkcs11/src/handle.c:30
     e0c:	b9000a7f 	str	wzr, [x19, #8]
/media/home/beste/01_Pro/ld25x/bsp_hu/MYD-LD25X-Uboot-L2022.10-V1.0.0/GEN_FIP/myir-st-optee/ta/pkcs11/src/handle.c:32
     e10:	f9400bf3 	ldr	x19, [sp, #16]
     e14:	a8c27bfd 	ldp	x29, x30, [sp], #32
     e18:	d65f03c0 	ret
     e1c:	d65f03c0 	ret

0000000000000e20 <handle_get>:
handle_get():
/media/home/beste/01_Pro/ld25x/bsp_hu/MYD-LD25X-Uboot-L2022.10-V1.0.0/GEN_FIP/myir-st-optee/ta/pkcs11/src/handle.c:35
     e20:	a9bd7bfd 	stp	x29, x30, [sp, #-48]!
/media/home/beste/01_Pro/ld25x/bsp_hu/MYD-LD25X-Uboot-L2022.10-V1.0.0/GEN_FIP/myir-st-optee/ta/pkcs11/src/handle.c:40
     e24:	f100001f 	cmp	x0, #0x0
     e28:	fa401824 	ccmp	x1, #0x0, #0x4, ne	// ne = any
/media/home/beste/01_Pro/ld25x/bsp_hu/MYD-LD25X-Uboot-L2022.10-V1.0.0/GEN_FIP/myir-st-optee/ta/pkcs11/src/handle.c:35
     e2c:	910003fd 	mov	x29, sp
     e30:	a90153f3 	stp	x19, x20, [sp, #16]
     e34:	a9025bf5 	stp	x21, x22, [sp, #32]
/media/home/beste/01_Pro/ld25x/bsp_hu/MYD-LD25X-Uboot-L2022.10-V1.0.0/GEN_FIP/myir-st-optee/ta/pkcs11/src/handle.c:40
     e38:	540000e1 	b.ne	e54 <handle_get+0x34>  // b.any
/media/home/beste/01_Pro/ld25x/bsp_hu/MYD-LD25X-Uboot-L2022.10-V1.0.0/GEN_FIP/myir-st-optee/ta/pkcs11/src/handle.c:41
     e3c:	52800014 	mov	w20, #0x0                   	// #0
/media/home/beste/01_Pro/ld25x/bsp_hu/MYD-LD25X-Uboot-L2022.10-V1.0.0/GEN_FIP/myir-st-optee/ta/pkcs11/src/handle.c:68
     e40:	a9425bf5 	ldp	x21, x22, [sp, #32]
     e44:	2a1403e0 	mov	w0, w20
     e48:	a94153f3 	ldp	x19, x20, [sp, #16]
     e4c:	a8c37bfd 	ldp	x29, x30, [sp], #48
     e50:	d65f03c0 	ret
     e54:	aa0003f3 	mov	x19, x0
     e58:	aa0103f5 	mov	x21, x1
/media/home/beste/01_Pro/ld25x/bsp_hu/MYD-LD25X-Uboot-L2022.10-V1.0.0/GEN_FIP/myir-st-optee/ta/pkcs11/src/handle.c:44
     e5c:	b9400801 	ldr	w1, [x0, #8]
/media/home/beste/01_Pro/ld25x/bsp_hu/MYD-LD25X-Uboot-L2022.10-V1.0.0/GEN_FIP/myir-st-optee/ta/pkcs11/src/handle.c:45
     e60:	d2800102 	mov	x2, #0x8                   	// #8
     e64:	f9400000 	ldr	x0, [x0]
/media/home/beste/01_Pro/ld25x/bsp_hu/MYD-LD25X-Uboot-L2022.10-V1.0.0/GEN_FIP/myir-st-optee/ta/pkcs11/src/handle.c:44
     e68:	52800034 	mov	w20, #0x1                   	// #1
/media/home/beste/01_Pro/ld25x/bsp_hu/MYD-LD25X-Uboot-L2022.10-V1.0.0/GEN_FIP/myir-st-optee/ta/pkcs11/src/handle.c:44 (discriminator 1)
     e6c:	6b14003f 	cmp	w1, w20
     e70:	54000268 	b.hi	ebc <handle_get+0x9c>  // b.pmore
/media/home/beste/01_Pro/ld25x/bsp_hu/MYD-LD25X-Uboot-L2022.10-V1.0.0/GEN_FIP/myir-st-optee/ta/pkcs11/src/handle.c:53
     e74:	531f7836 	lsl	w22, w1, #1
     e78:	7100003f 	cmp	w1, #0x0
     e7c:	52800081 	mov	w1, #0x4                   	// #4
     e80:	1a8112d6 	csel	w22, w22, w1, ne	// ne = any
/media/home/beste/01_Pro/ld25x/bsp_hu/MYD-LD25X-Uboot-L2022.10-V1.0.0/GEN_FIP/myir-st-optee/ta/pkcs11/src/handle.c:57
     e84:	531d72c1 	lsl	w1, w22, #3
     e88:	94003ffb 	bl	10e74 <TEE_Realloc>
/media/home/beste/01_Pro/ld25x/bsp_hu/MYD-LD25X-Uboot-L2022.10-V1.0.0/GEN_FIP/myir-st-optee/ta/pkcs11/src/handle.c:58
     e8c:	b4fffd80 	cbz	x0, e3c <handle_get+0x1c>
/media/home/beste/01_Pro/ld25x/bsp_hu/MYD-LD25X-Uboot-L2022.10-V1.0.0/GEN_FIP/myir-st-optee/ta/pkcs11/src/handle.c:61
     e90:	b9400a63 	ldr	w3, [x19, #8]
     e94:	52800001 	mov	w1, #0x0                   	// #0
/media/home/beste/01_Pro/ld25x/bsp_hu/MYD-LD25X-Uboot-L2022.10-V1.0.0/GEN_FIP/myir-st-optee/ta/pkcs11/src/handle.c:60
     e98:	f9000260 	str	x0, [x19]
/media/home/beste/01_Pro/ld25x/bsp_hu/MYD-LD25X-Uboot-L2022.10-V1.0.0/GEN_FIP/myir-st-optee/ta/pkcs11/src/handle.c:62
     e9c:	4b0302c2 	sub	w2, w22, w3
/media/home/beste/01_Pro/ld25x/bsp_hu/MYD-LD25X-Uboot-L2022.10-V1.0.0/GEN_FIP/myir-st-optee/ta/pkcs11/src/handle.c:61
     ea0:	8b234c00 	add	x0, x0, w3, uxtw #3
     ea4:	531d7042 	lsl	w2, w2, #3
     ea8:	94003f87 	bl	10cc4 <TEE_MemFill>
/media/home/beste/01_Pro/ld25x/bsp_hu/MYD-LD25X-Uboot-L2022.10-V1.0.0/GEN_FIP/myir-st-optee/ta/pkcs11/src/handle.c:66
     eac:	f9400260 	ldr	x0, [x19]
/media/home/beste/01_Pro/ld25x/bsp_hu/MYD-LD25X-Uboot-L2022.10-V1.0.0/GEN_FIP/myir-st-optee/ta/pkcs11/src/handle.c:63
     eb0:	b9000a76 	str	w22, [x19, #8]
/media/home/beste/01_Pro/ld25x/bsp_hu/MYD-LD25X-Uboot-L2022.10-V1.0.0/GEN_FIP/myir-st-optee/ta/pkcs11/src/handle.c:66
     eb4:	f8345815 	str	x21, [x0, w20, uxtw #3]
/media/home/beste/01_Pro/ld25x/bsp_hu/MYD-LD25X-Uboot-L2022.10-V1.0.0/GEN_FIP/myir-st-optee/ta/pkcs11/src/handle.c:67
     eb8:	17ffffe2 	b	e40 <handle_get+0x20>
/media/home/beste/01_Pro/ld25x/bsp_hu/MYD-LD25X-Uboot-L2022.10-V1.0.0/GEN_FIP/myir-st-optee/ta/pkcs11/src/handle.c:45
     ebc:	8b020003 	add	x3, x0, x2
     ec0:	91002042 	add	x2, x2, #0x8
     ec4:	f9400064 	ldr	x4, [x3]
     ec8:	b5000064 	cbnz	x4, ed4 <handle_get+0xb4>
/media/home/beste/01_Pro/ld25x/bsp_hu/MYD-LD25X-Uboot-L2022.10-V1.0.0/GEN_FIP/myir-st-optee/ta/pkcs11/src/handle.c:46
     ecc:	f9000075 	str	x21, [x3]
/media/home/beste/01_Pro/ld25x/bsp_hu/MYD-LD25X-Uboot-L2022.10-V1.0.0/GEN_FIP/myir-st-optee/ta/pkcs11/src/handle.c:47
     ed0:	17ffffdc 	b	e40 <handle_get+0x20>
/media/home/beste/01_Pro/ld25x/bsp_hu/MYD-LD25X-Uboot-L2022.10-V1.0.0/GEN_FIP/myir-st-optee/ta/pkcs11/src/handle.c:44 (discriminator 2)
     ed4:	11000694 	add	w20, w20, #0x1
     ed8:	17ffffe5 	b	e6c <handle_get+0x4c>

0000000000000edc <handle_put>:
handle_put():
/media/home/beste/01_Pro/ld25x/bsp_hu/MYD-LD25X-Uboot-L2022.10-V1.0.0/GEN_FIP/myir-st-optee/ta/pkcs11/src/handle.c:74
     edc:	f100001f 	cmp	x0, #0x0
     ee0:	7a401824 	ccmp	w1, #0x0, #0x4, ne	// ne = any
     ee4:	54000120 	b.eq	f08 <handle_put+0x2c>  // b.none
/media/home/beste/01_Pro/ld25x/bsp_hu/MYD-LD25X-Uboot-L2022.10-V1.0.0/GEN_FIP/myir-st-optee/ta/pkcs11/src/handle.c:74 (discriminator 1)
     ee8:	b9400802 	ldr	w2, [x0, #8]
     eec:	6b01005f 	cmp	w2, w1
     ef0:	540000c9 	b.ls	f08 <handle_put+0x2c>  // b.plast
/media/home/beste/01_Pro/ld25x/bsp_hu/MYD-LD25X-Uboot-L2022.10-V1.0.0/GEN_FIP/myir-st-optee/ta/pkcs11/src/handle.c:77
     ef4:	f9400002 	ldr	x2, [x0]
     ef8:	d37d7c21 	ubfiz	x1, x1, #3, #32
     efc:	f8616840 	ldr	x0, [x2, x1]
/media/home/beste/01_Pro/ld25x/bsp_hu/MYD-LD25X-Uboot-L2022.10-V1.0.0/GEN_FIP/myir-st-optee/ta/pkcs11/src/handle.c:78
     f00:	f821685f 	str	xzr, [x2, x1]
/media/home/beste/01_Pro/ld25x/bsp_hu/MYD-LD25X-Uboot-L2022.10-V1.0.0/GEN_FIP/myir-st-optee/ta/pkcs11/src/handle.c:80
     f04:	d65f03c0 	ret
/media/home/beste/01_Pro/ld25x/bsp_hu/MYD-LD25X-Uboot-L2022.10-V1.0.0/GEN_FIP/myir-st-optee/ta/pkcs11/src/handle.c:75
     f08:	d2800000 	mov	x0, #0x0                   	// #0
     f0c:	17fffffe 	b	f04 <handle_put+0x28>

0000000000000f10 <handle_lookup>:
handle_lookup():
/media/home/beste/01_Pro/ld25x/bsp_hu/MYD-LD25X-Uboot-L2022.10-V1.0.0/GEN_FIP/myir-st-optee/ta/pkcs11/src/handle.c:84
     f10:	f100001f 	cmp	x0, #0x0
     f14:	7a401824 	ccmp	w1, #0x0, #0x4, ne	// ne = any
     f18:	540000e0 	b.eq	f34 <handle_lookup+0x24>  // b.none
/media/home/beste/01_Pro/ld25x/bsp_hu/MYD-LD25X-Uboot-L2022.10-V1.0.0/GEN_FIP/myir-st-optee/ta/pkcs11/src/handle.c:84 (discriminator 1)
     f1c:	b9400802 	ldr	w2, [x0, #8]
     f20:	6b01005f 	cmp	w2, w1
     f24:	54000089 	b.ls	f34 <handle_lookup+0x24>  // b.plast
/media/home/beste/01_Pro/ld25x/bsp_hu/MYD-LD25X-Uboot-L2022.10-V1.0.0/GEN_FIP/myir-st-optee/ta/pkcs11/src/handle.c:87
     f28:	f9400000 	ldr	x0, [x0]
     f2c:	f8615800 	ldr	x0, [x0, w1, uxtw #3]
/media/home/beste/01_Pro/ld25x/bsp_hu/MYD-LD25X-Uboot-L2022.10-V1.0.0/GEN_FIP/myir-st-optee/ta/pkcs11/src/handle.c:88
     f30:	d65f03c0 	ret
/media/home/beste/01_Pro/ld25x/bsp_hu/MYD-LD25X-Uboot-L2022.10-V1.0.0/GEN_FIP/myir-st-optee/ta/pkcs11/src/handle.c:85
     f34:	d2800000 	mov	x0, #0x0                   	// #0
     f38:	17fffffe 	b	f30 <handle_lookup+0x20>

0000000000000f3c <handle_lookup_handle>:
handle_lookup_handle():
/media/home/beste/01_Pro/ld25x/bsp_hu/MYD-LD25X-Uboot-L2022.10-V1.0.0/GEN_FIP/myir-st-optee/ta/pkcs11/src/handle.c:91
     f3c:	aa0003e2 	mov	x2, x0
/media/home/beste/01_Pro/ld25x/bsp_hu/MYD-LD25X-Uboot-L2022.10-V1.0.0/GEN_FIP/myir-st-optee/ta/pkcs11/src/handle.c:94
     f40:	b40000c1 	cbz	x1, f58 <handle_lookup_handle+0x1c>
/media/home/beste/01_Pro/ld25x/bsp_hu/MYD-LD25X-Uboot-L2022.10-V1.0.0/GEN_FIP/myir-st-optee/ta/pkcs11/src/handle.c:95
     f44:	b9400844 	ldr	w4, [x2, #8]
     f48:	d2800103 	mov	x3, #0x8                   	// #8
     f4c:	52800020 	mov	w0, #0x1                   	// #1
/media/home/beste/01_Pro/ld25x/bsp_hu/MYD-LD25X-Uboot-L2022.10-V1.0.0/GEN_FIP/myir-st-optee/ta/pkcs11/src/handle.c:95 (discriminator 1)
     f50:	6b00009f 	cmp	w4, w0
     f54:	54000068 	b.hi	f60 <handle_lookup_handle+0x24>  // b.pmore
/media/home/beste/01_Pro/ld25x/bsp_hu/MYD-LD25X-Uboot-L2022.10-V1.0.0/GEN_FIP/myir-st-optee/ta/pkcs11/src/handle.c:100
     f58:	52800000 	mov	w0, #0x0                   	// #0
/media/home/beste/01_Pro/ld25x/bsp_hu/MYD-LD25X-Uboot-L2022.10-V1.0.0/GEN_FIP/myir-st-optee/ta/pkcs11/src/handle.c:101
     f5c:	d65f03c0 	ret
/media/home/beste/01_Pro/ld25x/bsp_hu/MYD-LD25X-Uboot-L2022.10-V1.0.0/GEN_FIP/myir-st-optee/ta/pkcs11/src/handle.c:96
     f60:	f9400045 	ldr	x5, [x2]
     f64:	f86368a5 	ldr	x5, [x5, x3]
     f68:	91002063 	add	x3, x3, #0x8
     f6c:	eb0100bf 	cmp	x5, x1
     f70:	54ffff60 	b.eq	f5c <handle_lookup_handle+0x20>  // b.none
/media/home/beste/01_Pro/ld25x/bsp_hu/MYD-LD25X-Uboot-L2022.10-V1.0.0/GEN_FIP/myir-st-optee/ta/pkcs11/src/handle.c:95 (discriminator 2)
     f74:	11000400 	add	w0, w0, #0x1
     f78:	17fffff6 	b	f50 <handle_lookup_handle+0x14>

0000000000000f7c <cleanup_volatile_obj_ref>:
cleanup_volatile_obj_ref():
/media/home/beste/01_Pro/ld25x/bsp_hu/MYD-LD25X-Uboot-L2022.10-V1.0.0/GEN_FIP/myir-st-optee/ta/pkcs11/src/object.c:85
     f7c:	b4000320 	cbz	x0, fe0 <cleanup_volatile_obj_ref+0x64>
/media/home/beste/01_Pro/ld25x/bsp_hu/MYD-LD25X-Uboot-L2022.10-V1.0.0/GEN_FIP/myir-st-optee/ta/pkcs11/src/object.c:84
     f80:	a9be7bfd 	stp	x29, x30, [sp, #-32]!
     f84:	910003fd 	mov	x29, sp
     f88:	f9000bf3 	str	x19, [sp, #16]
     f8c:	aa0003f3 	mov	x19, x0
/media/home/beste/01_Pro/ld25x/bsp_hu/MYD-LD25X-Uboot-L2022.10-V1.0.0/GEN_FIP/myir-st-optee/ta/pkcs11/src/object.c:88
     f90:	f9400000 	ldr	x0, [x0]
     f94:	b4000060 	cbz	x0, fa0 <cleanup_volatile_obj_ref+0x24>
/media/home/beste/01_Pro/ld25x/bsp_hu/MYD-LD25X-Uboot-L2022.10-V1.0.0/GEN_FIP/myir-st-optee/ta/pkcs11/src/object.c:88 (discriminator 1)
     f98:	f9400661 	ldr	x1, [x19, #8]
     f9c:	f9000401 	str	x1, [x0, #8]
/media/home/beste/01_Pro/ld25x/bsp_hu/MYD-LD25X-Uboot-L2022.10-V1.0.0/GEN_FIP/myir-st-optee/ta/pkcs11/src/object.c:88 (discriminator 3)
     fa0:	f9400661 	ldr	x1, [x19, #8]
     fa4:	f9000020 	str	x0, [x1]
/media/home/beste/01_Pro/ld25x/bsp_hu/MYD-LD25X-Uboot-L2022.10-V1.0.0/GEN_FIP/myir-st-optee/ta/pkcs11/src/object.c:90 (discriminator 3)
     fa8:	f9400e60 	ldr	x0, [x19, #24]
     fac:	b4000040 	cbz	x0, fb4 <cleanup_volatile_obj_ref+0x38>
/media/home/beste/01_Pro/ld25x/bsp_hu/MYD-LD25X-Uboot-L2022.10-V1.0.0/GEN_FIP/myir-st-optee/ta/pkcs11/src/object.c:91
     fb0:	940040c2 	bl	112b8 <TEE_FreeTransientObject>
/media/home/beste/01_Pro/ld25x/bsp_hu/MYD-LD25X-Uboot-L2022.10-V1.0.0/GEN_FIP/myir-st-optee/ta/pkcs11/src/object.c:93
     fb4:	f9401e60 	ldr	x0, [x19, #56]
     fb8:	b4000040 	cbz	x0, fc0 <cleanup_volatile_obj_ref+0x44>
/media/home/beste/01_Pro/ld25x/bsp_hu/MYD-LD25X-Uboot-L2022.10-V1.0.0/GEN_FIP/myir-st-optee/ta/pkcs11/src/object.c:94
     fbc:	94004095 	bl	11210 <TEE_CloseObject>
/media/home/beste/01_Pro/ld25x/bsp_hu/MYD-LD25X-Uboot-L2022.10-V1.0.0/GEN_FIP/myir-st-optee/ta/pkcs11/src/object.c:96
     fc0:	f9400a60 	ldr	x0, [x19, #16]
     fc4:	94003fa8 	bl	10e64 <TEE_Free>
/media/home/beste/01_Pro/ld25x/bsp_hu/MYD-LD25X-Uboot-L2022.10-V1.0.0/GEN_FIP/myir-st-optee/ta/pkcs11/src/object.c:97
     fc8:	f9401a60 	ldr	x0, [x19, #48]
     fcc:	94003fa6 	bl	10e64 <TEE_Free>
/media/home/beste/01_Pro/ld25x/bsp_hu/MYD-LD25X-Uboot-L2022.10-V1.0.0/GEN_FIP/myir-st-optee/ta/pkcs11/src/object.c:98
     fd0:	aa1303e0 	mov	x0, x19
/media/home/beste/01_Pro/ld25x/bsp_hu/MYD-LD25X-Uboot-L2022.10-V1.0.0/GEN_FIP/myir-st-optee/ta/pkcs11/src/object.c:99
     fd4:	f9400bf3 	ldr	x19, [sp, #16]
     fd8:	a8c27bfd 	ldp	x29, x30, [sp], #32
/media/home/beste/01_Pro/ld25x/bsp_hu/MYD-LD25X-Uboot-L2022.10-V1.0.0/GEN_FIP/myir-st-optee/ta/pkcs11/src/object.c:98
     fdc:	14003fa2 	b	10e64 <TEE_Free>
     fe0:	d65f03c0 	ret

0000000000000fe4 <get_class>:
get_class():
/media/home/beste/01_Pro/ld25x/bsp_hu/MYD-LD25X-Uboot-L2022.10-V1.0.0/GEN_FIP/myir-st-optee/ta/pkcs11/src/attributes.h:237
     fe4:	a9be7bfd 	stp	x29, x30, [sp, #-32]!
/media/home/beste/01_Pro/ld25x/bsp_hu/MYD-LD25X-Uboot-L2022.10-V1.0.0/GEN_FIP/myir-st-optee/ta/pkcs11/src/attributes.h:239
     fe8:	52800081 	mov	w1, #0x4                   	// #4
/media/home/beste/01_Pro/ld25x/bsp_hu/MYD-LD25X-Uboot-L2022.10-V1.0.0/GEN_FIP/myir-st-optee/ta/pkcs11/src/attributes.h:237
     fec:	910003fd 	mov	x29, sp
/media/home/beste/01_Pro/ld25x/bsp_hu/MYD-LD25X-Uboot-L2022.10-V1.0.0/GEN_FIP/myir-st-optee/ta/pkcs11/src/attributes.h:241
     ff0:	910073e3 	add	x3, sp, #0x1c
     ff4:	910063e2 	add	x2, sp, #0x18
/media/home/beste/01_Pro/ld25x/bsp_hu/MYD-LD25X-Uboot-L2022.10-V1.0.0/GEN_FIP/myir-st-optee/ta/pkcs11/src/attributes.h:239
     ff8:	290307ff 	stp	wzr, w1, [sp, #24]
/media/home/beste/01_Pro/ld25x/bsp_hu/MYD-LD25X-Uboot-L2022.10-V1.0.0/GEN_FIP/myir-st-optee/ta/pkcs11/src/attributes.h:241
     ffc:	52800001 	mov	w1, #0x0                   	// #0
    1000:	97fffcfd 	bl	3f4 <get_attribute>
/media/home/beste/01_Pro/ld25x/bsp_hu/MYD-LD25X-Uboot-L2022.10-V1.0.0/GEN_FIP/myir-st-optee/ta/pkcs11/src/attributes.h:244
    1004:	7100001f 	cmp	w0, #0x0
/media/home/beste/01_Pro/ld25x/bsp_hu/MYD-LD25X-Uboot-L2022.10-V1.0.0/GEN_FIP/myir-st-optee/ta/pkcs11/src/attributes.h:245
    1008:	b9401be0 	ldr	w0, [sp, #24]
    100c:	a8c27bfd 	ldp	x29, x30, [sp], #32
    1010:	5a9f0000 	csinv	w0, w0, wzr, eq	// eq = none
    1014:	d65f03c0 	ret

0000000000001018 <find_ctx_add>:
find_ctx_add():
/media/home/beste/01_Pro/ld25x/bsp_hu/MYD-LD25X-Uboot-L2022.10-V1.0.0/GEN_FIP/myir-st-optee/ta/pkcs11/src/object.c:473
    1018:	a9be7bfd 	stp	x29, x30, [sp, #-32]!
    101c:	910003fd 	mov	x29, sp
    1020:	a90153f3 	stp	x19, x20, [sp, #16]
    1024:	aa0003f3 	mov	x19, x0
    1028:	2a0103f4 	mov	w20, w1
/media/home/beste/01_Pro/ld25x/bsp_hu/MYD-LD25X-Uboot-L2022.10-V1.0.0/GEN_FIP/myir-st-optee/ta/pkcs11/src/object.c:474
    102c:	a9408001 	ldp	x1, x0, [x0, #8]
/media/home/beste/01_Pro/ld25x/bsp_hu/MYD-LD25X-Uboot-L2022.10-V1.0.0/GEN_FIP/myir-st-optee/ta/pkcs11/src/object.c:475
    1030:	91000421 	add	x1, x1, #0x1
/media/home/beste/01_Pro/ld25x/bsp_hu/MYD-LD25X-Uboot-L2022.10-V1.0.0/GEN_FIP/myir-st-optee/ta/pkcs11/src/object.c:474
    1034:	531e7421 	lsl	w1, w1, #2
    1038:	94003f8f 	bl	10e74 <TEE_Realloc>
/media/home/beste/01_Pro/ld25x/bsp_hu/MYD-LD25X-Uboot-L2022.10-V1.0.0/GEN_FIP/myir-st-optee/ta/pkcs11/src/object.c:477
    103c:	b4000140 	cbz	x0, 1064 <find_ctx_add+0x4c>
/media/home/beste/01_Pro/ld25x/bsp_hu/MYD-LD25X-Uboot-L2022.10-V1.0.0/GEN_FIP/myir-st-optee/ta/pkcs11/src/object.c:482
    1040:	f9400662 	ldr	x2, [x19, #8]
/media/home/beste/01_Pro/ld25x/bsp_hu/MYD-LD25X-Uboot-L2022.10-V1.0.0/GEN_FIP/myir-st-optee/ta/pkcs11/src/object.c:480
    1044:	f9000a60 	str	x0, [x19, #16]
/media/home/beste/01_Pro/ld25x/bsp_hu/MYD-LD25X-Uboot-L2022.10-V1.0.0/GEN_FIP/myir-st-optee/ta/pkcs11/src/object.c:482
    1048:	b8227814 	str	w20, [x0, x2, lsl #2]
/media/home/beste/01_Pro/ld25x/bsp_hu/MYD-LD25X-Uboot-L2022.10-V1.0.0/GEN_FIP/myir-st-optee/ta/pkcs11/src/object.c:483
    104c:	91000442 	add	x2, x2, #0x1
/media/home/beste/01_Pro/ld25x/bsp_hu/MYD-LD25X-Uboot-L2022.10-V1.0.0/GEN_FIP/myir-st-optee/ta/pkcs11/src/object.c:485
    1050:	52800000 	mov	w0, #0x0                   	// #0
/media/home/beste/01_Pro/ld25x/bsp_hu/MYD-LD25X-Uboot-L2022.10-V1.0.0/GEN_FIP/myir-st-optee/ta/pkcs11/src/object.c:483
    1054:	f9000662 	str	x2, [x19, #8]
/media/home/beste/01_Pro/ld25x/bsp_hu/MYD-LD25X-Uboot-L2022.10-V1.0.0/GEN_FIP/myir-st-optee/ta/pkcs11/src/object.c:486
    1058:	a94153f3 	ldp	x19, x20, [sp, #16]
    105c:	a8c27bfd 	ldp	x29, x30, [sp], #32
    1060:	d65f03c0 	ret
/media/home/beste/01_Pro/ld25x/bsp_hu/MYD-LD25X-Uboot-L2022.10-V1.0.0/GEN_FIP/myir-st-optee/ta/pkcs11/src/object.c:478
    1064:	52800620 	mov	w0, #0x31                  	// #49
    1068:	17fffffc 	b	1058 <find_ctx_add+0x40>

000000000000106c <pkcs11_handle2object>:
pkcs11_handle2object():
/media/home/beste/01_Pro/ld25x/bsp_hu/MYD-LD25X-Uboot-L2022.10-V1.0.0/GEN_FIP/myir-st-optee/ta/pkcs11/src/object.c:35
    106c:	a9be7bfd 	stp	x29, x30, [sp, #-32]!
    1070:	910003fd 	mov	x29, sp
    1074:	a90153f3 	stp	x19, x20, [sp, #16]
    1078:	2a0003f4 	mov	w20, w0
    107c:	aa0103f3 	mov	x19, x1
/media/home/beste/01_Pro/ld25x/bsp_hu/MYD-LD25X-Uboot-L2022.10-V1.0.0/GEN_FIP/myir-st-optee/ta/pkcs11/src/object.c:38
    1080:	aa0103e0 	mov	x0, x1
    1084:	9400162b 	bl	6930 <get_object_handle_db>
    1088:	2a1403e1 	mov	w1, w20
    108c:	97ffffa1 	bl	f10 <handle_lookup>
/media/home/beste/01_Pro/ld25x/bsp_hu/MYD-LD25X-Uboot-L2022.10-V1.0.0/GEN_FIP/myir-st-optee/ta/pkcs11/src/object.c:39
    1090:	b40000c0 	cbz	x0, 10a8 <pkcs11_handle2object+0x3c>
/media/home/beste/01_Pro/ld25x/bsp_hu/MYD-LD25X-Uboot-L2022.10-V1.0.0/GEN_FIP/myir-st-optee/ta/pkcs11/src/object.c:46
    1094:	f9401401 	ldr	x1, [x0, #40]
    1098:	b4000081 	cbz	x1, 10a8 <pkcs11_handle2object+0x3c>
/media/home/beste/01_Pro/ld25x/bsp_hu/MYD-LD25X-Uboot-L2022.10-V1.0.0/GEN_FIP/myir-st-optee/ta/pkcs11/src/object.c:53
    109c:	f9400e62 	ldr	x2, [x19, #24]
/media/home/beste/01_Pro/ld25x/bsp_hu/MYD-LD25X-Uboot-L2022.10-V1.0.0/GEN_FIP/myir-st-optee/ta/pkcs11/src/object.c:40
    10a0:	eb02003f 	cmp	x1, x2
    10a4:	9a9f0000 	csel	x0, x0, xzr, eq	// eq = none
/media/home/beste/01_Pro/ld25x/bsp_hu/MYD-LD25X-Uboot-L2022.10-V1.0.0/GEN_FIP/myir-st-optee/ta/pkcs11/src/object.c:57
    10a8:	a94153f3 	ldp	x19, x20, [sp, #16]
    10ac:	a8c27bfd 	ldp	x29, x30, [sp], #32
    10b0:	d65f03c0 	ret

00000000000010b4 <pkcs11_object2handle>:
pkcs11_object2handle():
/media/home/beste/01_Pro/ld25x/bsp_hu/MYD-LD25X-Uboot-L2022.10-V1.0.0/GEN_FIP/myir-st-optee/ta/pkcs11/src/object.c:61
    10b4:	a9be7bfd 	stp	x29, x30, [sp, #-32]!
    10b8:	910003fd 	mov	x29, sp
    10bc:	f9000bf3 	str	x19, [sp, #16]
    10c0:	aa0003f3 	mov	x19, x0
    10c4:	aa0103e0 	mov	x0, x1
/media/home/beste/01_Pro/ld25x/bsp_hu/MYD-LD25X-Uboot-L2022.10-V1.0.0/GEN_FIP/myir-st-optee/ta/pkcs11/src/object.c:62
    10c8:	9400161a 	bl	6930 <get_object_handle_db>
    10cc:	aa1303e1 	mov	x1, x19
/media/home/beste/01_Pro/ld25x/bsp_hu/MYD-LD25X-Uboot-L2022.10-V1.0.0/GEN_FIP/myir-st-optee/ta/pkcs11/src/object.c:63
    10d0:	f9400bf3 	ldr	x19, [sp, #16]
    10d4:	a8c27bfd 	ldp	x29, x30, [sp], #32
/media/home/beste/01_Pro/ld25x/bsp_hu/MYD-LD25X-Uboot-L2022.10-V1.0.0/GEN_FIP/myir-st-optee/ta/pkcs11/src/object.c:62
    10d8:	17ffff99 	b	f3c <handle_lookup_handle>

00000000000010dc <cleanup_persistent_object>:
cleanup_persistent_object():
/media/home/beste/01_Pro/ld25x/bsp_hu/MYD-LD25X-Uboot-L2022.10-V1.0.0/GEN_FIP/myir-st-optee/ta/pkcs11/src/object.c:107
    10dc:	b4000340 	cbz	x0, 1144 <cleanup_persistent_object+0x68>
/media/home/beste/01_Pro/ld25x/bsp_hu/MYD-LD25X-Uboot-L2022.10-V1.0.0/GEN_FIP/myir-st-optee/ta/pkcs11/src/object.c:104
    10e0:	a9be7bfd 	stp	x29, x30, [sp, #-32]!
    10e4:	910003fd 	mov	x29, sp
    10e8:	a90153f3 	stp	x19, x20, [sp, #16]
    10ec:	aa0003f3 	mov	x19, x0
    10f0:	aa0103f4 	mov	x20, x1
/media/home/beste/01_Pro/ld25x/bsp_hu/MYD-LD25X-Uboot-L2022.10-V1.0.0/GEN_FIP/myir-st-optee/ta/pkcs11/src/object.c:111
    10f4:	f9401c00 	ldr	x0, [x0, #56]
    10f8:	b4000040 	cbz	x0, 1100 <cleanup_persistent_object+0x24>
/media/home/beste/01_Pro/ld25x/bsp_hu/MYD-LD25X-Uboot-L2022.10-V1.0.0/GEN_FIP/myir-st-optee/ta/pkcs11/src/object.c:112
    10fc:	94004045 	bl	11210 <TEE_CloseObject>
/media/home/beste/01_Pro/ld25x/bsp_hu/MYD-LD25X-Uboot-L2022.10-V1.0.0/GEN_FIP/myir-st-optee/ta/pkcs11/src/object.c:114
    1100:	f9401a61 	ldr	x1, [x19, #48]
    1104:	9100e264 	add	x4, x19, #0x38
    1108:	52800083 	mov	w3, #0x4                   	// #4
    110c:	52800202 	mov	w2, #0x10                  	// #16
    1110:	52800020 	mov	w0, #0x1                   	// #1
    1114:	94004156 	bl	1166c <TEE_OpenPersistentObject>
/media/home/beste/01_Pro/ld25x/bsp_hu/MYD-LD25X-Uboot-L2022.10-V1.0.0/GEN_FIP/myir-st-optee/ta/pkcs11/src/object.c:118
    1118:	35000060 	cbnz	w0, 1124 <cleanup_persistent_object+0x48>
/media/home/beste/01_Pro/ld25x/bsp_hu/MYD-LD25X-Uboot-L2022.10-V1.0.0/GEN_FIP/myir-st-optee/ta/pkcs11/src/object.c:119
    111c:	f9401e60 	ldr	x0, [x19, #56]
    1120:	940041b5 	bl	117f4 <TEE_CloseAndDeletePersistentObject1>
/media/home/beste/01_Pro/ld25x/bsp_hu/MYD-LD25X-Uboot-L2022.10-V1.0.0/GEN_FIP/myir-st-optee/ta/pkcs11/src/object.c:121
    1124:	f9001e7f 	str	xzr, [x19, #56]
/media/home/beste/01_Pro/ld25x/bsp_hu/MYD-LD25X-Uboot-L2022.10-V1.0.0/GEN_FIP/myir-st-optee/ta/pkcs11/src/object.c:122
    1128:	aa1303e1 	mov	x1, x19
    112c:	aa1403e0 	mov	x0, x20
    1130:	94000689 	bl	2b54 <destroy_object_uuid>
/media/home/beste/01_Pro/ld25x/bsp_hu/MYD-LD25X-Uboot-L2022.10-V1.0.0/GEN_FIP/myir-st-optee/ta/pkcs11/src/object.c:124
    1134:	aa1303e0 	mov	x0, x19
/media/home/beste/01_Pro/ld25x/bsp_hu/MYD-LD25X-Uboot-L2022.10-V1.0.0/GEN_FIP/myir-st-optee/ta/pkcs11/src/object.c:125
    1138:	a94153f3 	ldp	x19, x20, [sp, #16]
    113c:	a8c27bfd 	ldp	x29, x30, [sp], #32
/media/home/beste/01_Pro/ld25x/bsp_hu/MYD-LD25X-Uboot-L2022.10-V1.0.0/GEN_FIP/myir-st-optee/ta/pkcs11/src/object.c:124
    1140:	17ffff8f 	b	f7c <cleanup_volatile_obj_ref>
    1144:	d65f03c0 	ret

0000000000001148 <destroy_object>:
destroy_object():
/media/home/beste/01_Pro/ld25x/bsp_hu/MYD-LD25X-Uboot-L2022.10-V1.0.0/GEN_FIP/myir-st-optee/ta/pkcs11/src/object.c:136
    1148:	a9bd7bfd 	stp	x29, x30, [sp, #-48]!
    114c:	910003fd 	mov	x29, sp
    1150:	a90153f3 	stp	x19, x20, [sp, #16]
    1154:	aa0003f4 	mov	x20, x0
    1158:	aa0103f3 	mov	x19, x1
    115c:	f90013f5 	str	x21, [sp, #32]
/media/home/beste/01_Pro/ld25x/bsp_hu/MYD-LD25X-Uboot-L2022.10-V1.0.0/GEN_FIP/myir-st-optee/ta/pkcs11/src/object.c:143
    1160:	72001c5f 	tst	w2, #0xff
    1164:	540001c0 	b.eq	119c <destroy_object+0x54>  // b.none
/media/home/beste/01_Pro/ld25x/bsp_hu/MYD-LD25X-Uboot-L2022.10-V1.0.0/GEN_FIP/myir-st-optee/ta/pkcs11/src/object.c:164
    1168:	940015f2 	bl	6930 <get_object_handle_db>
    116c:	aa0003f5 	mov	x21, x0
    1170:	aa1403e1 	mov	x1, x20
    1174:	aa1303e0 	mov	x0, x19
    1178:	97ffffcf 	bl	10b4 <pkcs11_object2handle>
    117c:	2a0003e1 	mov	w1, w0
    1180:	aa1503e0 	mov	x0, x21
    1184:	97ffff56 	bl	edc <handle_put>
/media/home/beste/01_Pro/ld25x/bsp_hu/MYD-LD25X-Uboot-L2022.10-V1.0.0/GEN_FIP/myir-st-optee/ta/pkcs11/src/object.c:168
    1188:	f94013f5 	ldr	x21, [sp, #32]
/media/home/beste/01_Pro/ld25x/bsp_hu/MYD-LD25X-Uboot-L2022.10-V1.0.0/GEN_FIP/myir-st-optee/ta/pkcs11/src/object.c:166
    118c:	aa1303e0 	mov	x0, x19
/media/home/beste/01_Pro/ld25x/bsp_hu/MYD-LD25X-Uboot-L2022.10-V1.0.0/GEN_FIP/myir-st-optee/ta/pkcs11/src/object.c:168
    1190:	a94153f3 	ldp	x19, x20, [sp, #16]
    1194:	a8c37bfd 	ldp	x29, x30, [sp], #48
/media/home/beste/01_Pro/ld25x/bsp_hu/MYD-LD25X-Uboot-L2022.10-V1.0.0/GEN_FIP/myir-st-optee/ta/pkcs11/src/object.c:166
    1198:	17ffff79 	b	f7c <cleanup_volatile_obj_ref>
/media/home/beste/01_Pro/ld25x/bsp_hu/MYD-LD25X-Uboot-L2022.10-V1.0.0/GEN_FIP/myir-st-optee/ta/pkcs11/src/object.c:153
    119c:	f9400a60 	ldr	x0, [x19, #16]
    11a0:	52800021 	mov	w1, #0x1                   	// #1
    11a4:	97fffcf6 	bl	57c <get_bool>
    11a8:	72001c1f 	tst	w0, #0xff
    11ac:	54000480 	b.eq	123c <destroy_object+0xf4>  // b.none
/media/home/beste/01_Pro/ld25x/bsp_hu/MYD-LD25X-Uboot-L2022.10-V1.0.0/GEN_FIP/myir-st-optee/ta/pkcs11/src/object.c:154
    11b0:	f9401a61 	ldr	x1, [x19, #48]
    11b4:	b5000141 	cbnz	x1, 11dc <destroy_object+0x94>
_assert_trap():
/media/home/beste/01_Pro/ld25x/bsp_hu/MYD-LD25X-Uboot-L2022.10-V1.0.0/GEN_FIP/myir-st-optee/../build/myb-stm32mp257x-2GB/export-ta_arm64/include/assert.h:19
    11b8:	d0000103 	adrp	x3, 23000 <trace_ext_prefix+0x8>
    11bc:	d0000101 	adrp	x1, 23000 <trace_ext_prefix+0x8>
    11c0:	913ad063 	add	x3, x3, #0xeb4
    11c4:	91391821 	add	x1, x1, #0xe46
    11c8:	f0000100 	adrp	x0, 24000 <__func__.0+0x13d>
    11cc:	91014000 	add	x0, x0, #0x50
    11d0:	52801342 	mov	w2, #0x9a                  	// #154
    11d4:	94003c78 	bl	103b4 <_assert_log>
/media/home/beste/01_Pro/ld25x/bsp_hu/MYD-LD25X-Uboot-L2022.10-V1.0.0/GEN_FIP/myir-st-optee/../build/myb-stm32mp257x-2GB/export-ta_arm64/include/assert.h:20
    11d8:	94003c88 	bl	103f8 <_assert_break>
destroy_object():
/media/home/beste/01_Pro/ld25x/bsp_hu/MYD-LD25X-Uboot-L2022.10-V1.0.0/GEN_FIP/myir-st-optee/ta/pkcs11/src/object.c:156
    11dc:	f9400e80 	ldr	x0, [x20, #24]
    11e0:	9400068a 	bl	2c08 <unregister_persistent_object>
    11e4:	340000e0 	cbz	w0, 1200 <destroy_object+0xb8>
/media/home/beste/01_Pro/ld25x/bsp_hu/MYD-LD25X-Uboot-L2022.10-V1.0.0/GEN_FIP/myir-st-optee/ta/pkcs11/src/object.c:157
    11e8:	f9400e80 	ldr	x0, [x20, #24]
    11ec:	f9401a61 	ldr	x1, [x19, #48]
    11f0:	94000686 	bl	2c08 <unregister_persistent_object>
/media/home/beste/01_Pro/ld25x/bsp_hu/MYD-LD25X-Uboot-L2022.10-V1.0.0/GEN_FIP/myir-st-optee/ta/pkcs11/src/object.c:156
    11f4:	34000060 	cbz	w0, 1200 <destroy_object+0xb8>
/media/home/beste/01_Pro/ld25x/bsp_hu/MYD-LD25X-Uboot-L2022.10-V1.0.0/GEN_FIP/myir-st-optee/ta/pkcs11/src/object.c:158
    11f8:	52800000 	mov	w0, #0x0                   	// #0
    11fc:	94004e35 	bl	14ad0 <TEE_Panic>
/media/home/beste/01_Pro/ld25x/bsp_hu/MYD-LD25X-Uboot-L2022.10-V1.0.0/GEN_FIP/myir-st-optee/ta/pkcs11/src/object.c:160
    1200:	aa1403e0 	mov	x0, x20
    1204:	940015cb 	bl	6930 <get_object_handle_db>
    1208:	aa1403e1 	mov	x1, x20
    120c:	aa0003f5 	mov	x21, x0
    1210:	aa1303e0 	mov	x0, x19
    1214:	97ffffa8 	bl	10b4 <pkcs11_object2handle>
    1218:	2a0003e1 	mov	w1, w0
    121c:	aa1503e0 	mov	x0, x21
    1220:	97ffff2f 	bl	edc <handle_put>
/media/home/beste/01_Pro/ld25x/bsp_hu/MYD-LD25X-Uboot-L2022.10-V1.0.0/GEN_FIP/myir-st-optee/ta/pkcs11/src/object.c:162
    1224:	f9400e81 	ldr	x1, [x20, #24]
    1228:	aa1303e0 	mov	x0, x19
/media/home/beste/01_Pro/ld25x/bsp_hu/MYD-LD25X-Uboot-L2022.10-V1.0.0/GEN_FIP/myir-st-optee/ta/pkcs11/src/object.c:168
    122c:	a94153f3 	ldp	x19, x20, [sp, #16]
    1230:	f94013f5 	ldr	x21, [sp, #32]
    1234:	a8c37bfd 	ldp	x29, x30, [sp], #48
/media/home/beste/01_Pro/ld25x/bsp_hu/MYD-LD25X-Uboot-L2022.10-V1.0.0/GEN_FIP/myir-st-optee/ta/pkcs11/src/object.c:162
    1238:	17ffffa9 	b	10dc <cleanup_persistent_object>
/media/home/beste/01_Pro/ld25x/bsp_hu/MYD-LD25X-Uboot-L2022.10-V1.0.0/GEN_FIP/myir-st-optee/ta/pkcs11/src/object.c:164
    123c:	aa1403e0 	mov	x0, x20
    1240:	17ffffca 	b	1168 <destroy_object+0x20>

0000000000001244 <create_token_object>:
create_token_object():
/media/home/beste/01_Pro/ld25x/bsp_hu/MYD-LD25X-Uboot-L2022.10-V1.0.0/GEN_FIP/myir-st-optee/ta/pkcs11/src/object.c:190
    1244:	a9bd7bfd 	stp	x29, x30, [sp, #-48]!
    1248:	910003fd 	mov	x29, sp
    124c:	a90153f3 	stp	x19, x20, [sp, #16]
    1250:	aa0103f3 	mov	x19, x1
    1254:	aa0203f4 	mov	x20, x2
create_obj_instance():
/media/home/beste/01_Pro/ld25x/bsp_hu/MYD-LD25X-Uboot-L2022.10-V1.0.0/GEN_FIP/myir-st-optee/ta/pkcs11/src/object.c:175
    1258:	52800001 	mov	w1, #0x0                   	// #0
create_token_object():
/media/home/beste/01_Pro/ld25x/bsp_hu/MYD-LD25X-Uboot-L2022.10-V1.0.0/GEN_FIP/myir-st-optee/ta/pkcs11/src/object.c:190
    125c:	f90013f5 	str	x21, [sp, #32]
    1260:	aa0003f5 	mov	x21, x0
create_obj_instance():
/media/home/beste/01_Pro/ld25x/bsp_hu/MYD-LD25X-Uboot-L2022.10-V1.0.0/GEN_FIP/myir-st-optee/ta/pkcs11/src/object.c:175
    1264:	52800800 	mov	w0, #0x40                  	// #64
    1268:	94003ee5 	bl	10dfc <TEE_Malloc>
/media/home/beste/01_Pro/ld25x/bsp_hu/MYD-LD25X-Uboot-L2022.10-V1.0.0/GEN_FIP/myir-st-optee/ta/pkcs11/src/object.c:176
    126c:	b4000080 	cbz	x0, 127c <create_token_object+0x38>
/media/home/beste/01_Pro/ld25x/bsp_hu/MYD-LD25X-Uboot-L2022.10-V1.0.0/GEN_FIP/myir-st-optee/ta/pkcs11/src/object.c:179
    1270:	a9017c15 	stp	x21, xzr, [x0, #16]
create_token_object():
/media/home/beste/01_Pro/ld25x/bsp_hu/MYD-LD25X-Uboot-L2022.10-V1.0.0/GEN_FIP/myir-st-optee/ta/pkcs11/src/object.c:194
    1274:	a902cc14 	stp	x20, x19, [x0, #40]
create_obj_instance():
/media/home/beste/01_Pro/ld25x/bsp_hu/MYD-LD25X-Uboot-L2022.10-V1.0.0/GEN_FIP/myir-st-optee/ta/pkcs11/src/object.c:180
    1278:	f9001c1f 	str	xzr, [x0, #56]
create_token_object():
/media/home/beste/01_Pro/ld25x/bsp_hu/MYD-LD25X-Uboot-L2022.10-V1.0.0/GEN_FIP/myir-st-optee/ta/pkcs11/src/object.c:197
    127c:	a94153f3 	ldp	x19, x20, [sp, #16]
    1280:	f94013f5 	ldr	x21, [sp, #32]
    1284:	a8c37bfd 	ldp	x29, x30, [sp], #48
    1288:	d65f03c0 	ret

000000000000128c <create_object>:
create_object():
/media/home/beste/01_Pro/ld25x/bsp_hu/MYD-LD25X-Uboot-L2022.10-V1.0.0/GEN_FIP/myir-st-optee/ta/pkcs11/src/object.c:208
    128c:	a9bb7bfd 	stp	x29, x30, [sp, #-80]!
    1290:	910003fd 	mov	x29, sp
    1294:	a90153f3 	stp	x19, x20, [sp, #16]
    1298:	aa0003f4 	mov	x20, x0
create_obj_instance():
/media/home/beste/01_Pro/ld25x/bsp_hu/MYD-LD25X-Uboot-L2022.10-V1.0.0/GEN_FIP/myir-st-optee/ta/pkcs11/src/object.c:175
    129c:	52800800 	mov	w0, #0x40                  	// #64
create_object():
/media/home/beste/01_Pro/ld25x/bsp_hu/MYD-LD25X-Uboot-L2022.10-V1.0.0/GEN_FIP/myir-st-optee/ta/pkcs11/src/object.c:208
    12a0:	a9025bf5 	stp	x21, x22, [sp, #32]
    12a4:	a90363f7 	stp	x23, x24, [sp, #48]
    12a8:	aa0103f8 	mov	x24, x1
    12ac:	aa0203f7 	mov	x23, x2
create_obj_instance():
/media/home/beste/01_Pro/ld25x/bsp_hu/MYD-LD25X-Uboot-L2022.10-V1.0.0/GEN_FIP/myir-st-optee/ta/pkcs11/src/object.c:175
    12b0:	52800001 	mov	w1, #0x0                   	// #0
create_object():
/media/home/beste/01_Pro/ld25x/bsp_hu/MYD-LD25X-Uboot-L2022.10-V1.0.0/GEN_FIP/myir-st-optee/ta/pkcs11/src/object.c:208
    12b4:	f90023f9 	str	x25, [sp, #64]
create_obj_instance():
/media/home/beste/01_Pro/ld25x/bsp_hu/MYD-LD25X-Uboot-L2022.10-V1.0.0/GEN_FIP/myir-st-optee/ta/pkcs11/src/object.c:175
    12b8:	94003ed1 	bl	10dfc <TEE_Malloc>
/media/home/beste/01_Pro/ld25x/bsp_hu/MYD-LD25X-Uboot-L2022.10-V1.0.0/GEN_FIP/myir-st-optee/ta/pkcs11/src/object.c:176
    12bc:	b4000d40 	cbz	x0, 1464 <create_object+0x1d8>
create_object():
/media/home/beste/01_Pro/ld25x/bsp_hu/MYD-LD25X-Uboot-L2022.10-V1.0.0/GEN_FIP/myir-st-optee/ta/pkcs11/src/object.c:227
    12c0:	f0000143 	adrp	x3, 2c000 <_DYNAMIC>
    12c4:	aa0003f3 	mov	x19, x0
    12c8:	f940b463 	ldr	x3, [x3, #360]
create_obj_instance():
/media/home/beste/01_Pro/ld25x/bsp_hu/MYD-LD25X-Uboot-L2022.10-V1.0.0/GEN_FIP/myir-st-optee/ta/pkcs11/src/object.c:179
    12cc:	a9017e78 	stp	x24, xzr, [x19, #16]
/media/home/beste/01_Pro/ld25x/bsp_hu/MYD-LD25X-Uboot-L2022.10-V1.0.0/GEN_FIP/myir-st-optee/ta/pkcs11/src/object.c:182
    12d0:	f900167f 	str	xzr, [x19, #40]
create_object():
/media/home/beste/01_Pro/ld25x/bsp_hu/MYD-LD25X-Uboot-L2022.10-V1.0.0/GEN_FIP/myir-st-optee/ta/pkcs11/src/object.c:227
    12d4:	f9400060 	ldr	x0, [x3]
    12d8:	f9000260 	str	x0, [x19]
create_obj_instance():
/media/home/beste/01_Pro/ld25x/bsp_hu/MYD-LD25X-Uboot-L2022.10-V1.0.0/GEN_FIP/myir-st-optee/ta/pkcs11/src/object.c:180
    12dc:	f9001e7f 	str	xzr, [x19, #56]
create_object():
/media/home/beste/01_Pro/ld25x/bsp_hu/MYD-LD25X-Uboot-L2022.10-V1.0.0/GEN_FIP/myir-st-optee/ta/pkcs11/src/object.c:227
    12e0:	b4000040 	cbz	x0, 12e8 <create_object+0x5c>
/media/home/beste/01_Pro/ld25x/bsp_hu/MYD-LD25X-Uboot-L2022.10-V1.0.0/GEN_FIP/myir-st-optee/ta/pkcs11/src/object.c:227 (discriminator 1)
    12e4:	f9000413 	str	x19, [x0, #8]
/media/home/beste/01_Pro/ld25x/bsp_hu/MYD-LD25X-Uboot-L2022.10-V1.0.0/GEN_FIP/myir-st-optee/ta/pkcs11/src/object.c:227 (discriminator 3)
    12e8:	f0000143 	adrp	x3, 2c000 <_DYNAMIC>
/media/home/beste/01_Pro/ld25x/bsp_hu/MYD-LD25X-Uboot-L2022.10-V1.0.0/GEN_FIP/myir-st-optee/ta/pkcs11/src/object.c:230 (discriminator 3)
    12ec:	aa1403e0 	mov	x0, x20
/media/home/beste/01_Pro/ld25x/bsp_hu/MYD-LD25X-Uboot-L2022.10-V1.0.0/GEN_FIP/myir-st-optee/ta/pkcs11/src/object.c:227 (discriminator 3)
    12f0:	f940b463 	ldr	x3, [x3, #360]
    12f4:	f9000663 	str	x3, [x19, #8]
    12f8:	f9000073 	str	x19, [x3]
/media/home/beste/01_Pro/ld25x/bsp_hu/MYD-LD25X-Uboot-L2022.10-V1.0.0/GEN_FIP/myir-st-optee/ta/pkcs11/src/object.c:230 (discriminator 3)
    12fc:	9400158d 	bl	6930 <get_object_handle_db>
    1300:	aa1303e1 	mov	x1, x19
    1304:	97fffec7 	bl	e20 <handle_get>
    1308:	2a0003f6 	mov	w22, w0
/media/home/beste/01_Pro/ld25x/bsp_hu/MYD-LD25X-Uboot-L2022.10-V1.0.0/GEN_FIP/myir-st-optee/ta/pkcs11/src/object.c:231 (discriminator 3)
    130c:	34000a20 	cbz	w0, 1450 <create_object+0x1c4>
/media/home/beste/01_Pro/ld25x/bsp_hu/MYD-LD25X-Uboot-L2022.10-V1.0.0/GEN_FIP/myir-st-optee/ta/pkcs11/src/object.c:236
    1310:	f9400a60 	ldr	x0, [x19, #16]
    1314:	52800021 	mov	w1, #0x1                   	// #1
    1318:	97fffc99 	bl	57c <get_bool>
    131c:	72001c1f 	tst	w0, #0xff
    1320:	54000800 	b.eq	1420 <create_object+0x194>  // b.none
/media/home/beste/01_Pro/ld25x/bsp_hu/MYD-LD25X-Uboot-L2022.10-V1.0.0/GEN_FIP/myir-st-optee/ta/pkcs11/src/object.c:246
    1324:	f9400a60 	ldr	x0, [x19, #16]
/media/home/beste/01_Pro/ld25x/bsp_hu/MYD-LD25X-Uboot-L2022.10-V1.0.0/GEN_FIP/myir-st-optee/ta/pkcs11/src/object.c:251
    1328:	aa1303e1 	mov	x1, x19
/media/home/beste/01_Pro/ld25x/bsp_hu/MYD-LD25X-Uboot-L2022.10-V1.0.0/GEN_FIP/myir-st-optee/ta/pkcs11/src/object.c:246
    132c:	b9400019 	ldr	w25, [x0]
/media/home/beste/01_Pro/ld25x/bsp_hu/MYD-LD25X-Uboot-L2022.10-V1.0.0/GEN_FIP/myir-st-optee/ta/pkcs11/src/object.c:251
    1330:	f9400e80 	ldr	x0, [x20, #24]
    1334:	940005e4 	bl	2ac4 <create_object_uuid>
    1338:	2a0003f5 	mov	w21, w0
/media/home/beste/01_Pro/ld25x/bsp_hu/MYD-LD25X-Uboot-L2022.10-V1.0.0/GEN_FIP/myir-st-optee/ta/pkcs11/src/object.c:252
    133c:	350001a0 	cbnz	w0, 1370 <create_object+0xe4>
/media/home/beste/01_Pro/ld25x/bsp_hu/MYD-LD25X-Uboot-L2022.10-V1.0.0/GEN_FIP/myir-st-optee/ta/pkcs11/src/object.c:255
    1340:	f9400a65 	ldr	x5, [x19, #16]
    1344:	9100e267 	add	x7, x19, #0x38
    1348:	f9401a61 	ldr	x1, [x19, #48]
    134c:	11002326 	add	w6, w25, #0x8
    1350:	d2800004 	mov	x4, #0x0                   	// #0
    1354:	528000e3 	mov	w3, #0x7                   	// #7
    1358:	52800202 	mov	w2, #0x10                  	// #16
    135c:	52800020 	mov	w0, #0x1                   	// #1
    1360:	940040ef 	bl	1171c <TEE_CreatePersistentObject>
/media/home/beste/01_Pro/ld25x/bsp_hu/MYD-LD25X-Uboot-L2022.10-V1.0.0/GEN_FIP/myir-st-optee/ta/pkcs11/src/object.c:261
    1364:	34000220 	cbz	w0, 13a8 <create_object+0x11c>
/media/home/beste/01_Pro/ld25x/bsp_hu/MYD-LD25X-Uboot-L2022.10-V1.0.0/GEN_FIP/myir-st-optee/ta/pkcs11/src/object.c:262
    1368:	9400123f 	bl	5c64 <tee2pkcs_error>
    136c:	2a0003f5 	mov	w21, w0
/media/home/beste/01_Pro/ld25x/bsp_hu/MYD-LD25X-Uboot-L2022.10-V1.0.0/GEN_FIP/myir-st-optee/ta/pkcs11/src/object.c:288
    1370:	f9000a7f 	str	xzr, [x19, #16]
/media/home/beste/01_Pro/ld25x/bsp_hu/MYD-LD25X-Uboot-L2022.10-V1.0.0/GEN_FIP/myir-st-optee/ta/pkcs11/src/object.c:289
    1374:	aa1403e0 	mov	x0, x20
    1378:	9400156e 	bl	6930 <get_object_handle_db>
    137c:	2a1603e1 	mov	w1, w22
    1380:	97fffed7 	bl	edc <handle_put>
/media/home/beste/01_Pro/ld25x/bsp_hu/MYD-LD25X-Uboot-L2022.10-V1.0.0/GEN_FIP/myir-st-optee/ta/pkcs11/src/object.c:290
    1384:	aa1803e0 	mov	x0, x24
    1388:	52800021 	mov	w1, #0x1                   	// #1
    138c:	97fffc7c 	bl	57c <get_bool>
    1390:	72001c1f 	tst	w0, #0xff
    1394:	54000620 	b.eq	1458 <create_object+0x1cc>  // b.none
/media/home/beste/01_Pro/ld25x/bsp_hu/MYD-LD25X-Uboot-L2022.10-V1.0.0/GEN_FIP/myir-st-optee/ta/pkcs11/src/object.c:291
    1398:	f9400e81 	ldr	x1, [x20, #24]
    139c:	aa1303e0 	mov	x0, x19
    13a0:	97ffff4f 	bl	10dc <cleanup_persistent_object>
    13a4:	14000018 	b	1404 <create_object+0x178>
/media/home/beste/01_Pro/ld25x/bsp_hu/MYD-LD25X-Uboot-L2022.10-V1.0.0/GEN_FIP/myir-st-optee/ta/pkcs11/src/object.c:266
    13a8:	f9400e80 	ldr	x0, [x20, #24]
    13ac:	f9401a61 	ldr	x1, [x19, #48]
    13b0:	9400065f 	bl	2d2c <register_persistent_object>
    13b4:	2a0003f5 	mov	w21, w0
/media/home/beste/01_Pro/ld25x/bsp_hu/MYD-LD25X-Uboot-L2022.10-V1.0.0/GEN_FIP/myir-st-optee/ta/pkcs11/src/object.c:268
    13b8:	35fffdc0 	cbnz	w0, 1370 <create_object+0xe4>
/media/home/beste/01_Pro/ld25x/bsp_hu/MYD-LD25X-Uboot-L2022.10-V1.0.0/GEN_FIP/myir-st-optee/ta/pkcs11/src/object.c:271
    13bc:	f9401e60 	ldr	x0, [x19, #56]
    13c0:	94003f94 	bl	11210 <TEE_CloseObject>
/media/home/beste/01_Pro/ld25x/bsp_hu/MYD-LD25X-Uboot-L2022.10-V1.0.0/GEN_FIP/myir-st-optee/ta/pkcs11/src/object.c:272
    13c4:	f9001e7f 	str	xzr, [x19, #56]
/media/home/beste/01_Pro/ld25x/bsp_hu/MYD-LD25X-Uboot-L2022.10-V1.0.0/GEN_FIP/myir-st-optee/ta/pkcs11/src/object.c:275
    13c8:	f9400260 	ldr	x0, [x19]
    13cc:	b4000060 	cbz	x0, 13d8 <create_object+0x14c>
/media/home/beste/01_Pro/ld25x/bsp_hu/MYD-LD25X-Uboot-L2022.10-V1.0.0/GEN_FIP/myir-st-optee/ta/pkcs11/src/object.c:275 (discriminator 1)
    13d0:	f9400661 	ldr	x1, [x19, #8]
    13d4:	f9000401 	str	x1, [x0, #8]
/media/home/beste/01_Pro/ld25x/bsp_hu/MYD-LD25X-Uboot-L2022.10-V1.0.0/GEN_FIP/myir-st-optee/ta/pkcs11/src/object.c:275 (discriminator 3)
    13d8:	f9400661 	ldr	x1, [x19, #8]
/media/home/beste/01_Pro/ld25x/bsp_hu/MYD-LD25X-Uboot-L2022.10-V1.0.0/GEN_FIP/myir-st-optee/ta/pkcs11/src/object.c:276 (discriminator 3)
    13dc:	f9400e94 	ldr	x20, [x20, #24]
/media/home/beste/01_Pro/ld25x/bsp_hu/MYD-LD25X-Uboot-L2022.10-V1.0.0/GEN_FIP/myir-st-optee/ta/pkcs11/src/object.c:275 (discriminator 3)
    13e0:	f9000020 	str	x0, [x1]
/media/home/beste/01_Pro/ld25x/bsp_hu/MYD-LD25X-Uboot-L2022.10-V1.0.0/GEN_FIP/myir-st-optee/ta/pkcs11/src/object.c:276 (discriminator 3)
    13e4:	f9400a80 	ldr	x0, [x20, #16]
    13e8:	f9000260 	str	x0, [x19]
    13ec:	b4000040 	cbz	x0, 13f4 <create_object+0x168>
/media/home/beste/01_Pro/ld25x/bsp_hu/MYD-LD25X-Uboot-L2022.10-V1.0.0/GEN_FIP/myir-st-optee/ta/pkcs11/src/object.c:276 (discriminator 1)
    13f0:	f9000413 	str	x19, [x0, #8]
/media/home/beste/01_Pro/ld25x/bsp_hu/MYD-LD25X-Uboot-L2022.10-V1.0.0/GEN_FIP/myir-st-optee/ta/pkcs11/src/object.c:276 (discriminator 3)
    13f4:	f8010e93 	str	x19, [x20, #16]!
/media/home/beste/01_Pro/ld25x/bsp_hu/MYD-LD25X-Uboot-L2022.10-V1.0.0/GEN_FIP/myir-st-optee/ta/pkcs11/src/object.c:276 (discriminator 4)
    13f8:	f9000674 	str	x20, [x19, #8]
/media/home/beste/01_Pro/ld25x/bsp_hu/MYD-LD25X-Uboot-L2022.10-V1.0.0/GEN_FIP/myir-st-optee/ta/pkcs11/src/object.c:285 (discriminator 4)
    13fc:	52800015 	mov	w21, #0x0                   	// #0
/media/home/beste/01_Pro/ld25x/bsp_hu/MYD-LD25X-Uboot-L2022.10-V1.0.0/GEN_FIP/myir-st-optee/ta/pkcs11/src/object.c:283 (discriminator 4)
    1400:	b90002f6 	str	w22, [x23]
/media/home/beste/01_Pro/ld25x/bsp_hu/MYD-LD25X-Uboot-L2022.10-V1.0.0/GEN_FIP/myir-st-optee/ta/pkcs11/src/object.c:296
    1404:	a94153f3 	ldp	x19, x20, [sp, #16]
    1408:	2a1503e0 	mov	w0, w21
    140c:	a9425bf5 	ldp	x21, x22, [sp, #32]
    1410:	a94363f7 	ldp	x23, x24, [sp, #48]
    1414:	f94023f9 	ldr	x25, [sp, #64]
    1418:	a8c57bfd 	ldp	x29, x30, [sp], #80
    141c:	d65f03c0 	ret
/media/home/beste/01_Pro/ld25x/bsp_hu/MYD-LD25X-Uboot-L2022.10-V1.0.0/GEN_FIP/myir-st-optee/ta/pkcs11/src/object.c:279
    1420:	f9400260 	ldr	x0, [x19]
    1424:	b4000060 	cbz	x0, 1430 <create_object+0x1a4>
/media/home/beste/01_Pro/ld25x/bsp_hu/MYD-LD25X-Uboot-L2022.10-V1.0.0/GEN_FIP/myir-st-optee/ta/pkcs11/src/object.c:279 (discriminator 1)
    1428:	f9400661 	ldr	x1, [x19, #8]
    142c:	f9000401 	str	x1, [x0, #8]
/media/home/beste/01_Pro/ld25x/bsp_hu/MYD-LD25X-Uboot-L2022.10-V1.0.0/GEN_FIP/myir-st-optee/ta/pkcs11/src/object.c:279 (discriminator 3)
    1430:	f9400661 	ldr	x1, [x19, #8]
    1434:	f9000020 	str	x0, [x1]
/media/home/beste/01_Pro/ld25x/bsp_hu/MYD-LD25X-Uboot-L2022.10-V1.0.0/GEN_FIP/myir-st-optee/ta/pkcs11/src/object.c:280 (discriminator 3)
    1438:	f9401680 	ldr	x0, [x20, #40]
    143c:	f9000260 	str	x0, [x19]
    1440:	b4000040 	cbz	x0, 1448 <create_object+0x1bc>
/media/home/beste/01_Pro/ld25x/bsp_hu/MYD-LD25X-Uboot-L2022.10-V1.0.0/GEN_FIP/myir-st-optee/ta/pkcs11/src/object.c:280
    1444:	f9000413 	str	x19, [x0, #8]
/media/home/beste/01_Pro/ld25x/bsp_hu/MYD-LD25X-Uboot-L2022.10-V1.0.0/GEN_FIP/myir-st-optee/ta/pkcs11/src/object.c:280 (discriminator 3)
    1448:	f8028e93 	str	x19, [x20, #40]!
    144c:	17ffffeb 	b	13f8 <create_object+0x16c>
/media/home/beste/01_Pro/ld25x/bsp_hu/MYD-LD25X-Uboot-L2022.10-V1.0.0/GEN_FIP/myir-st-optee/ta/pkcs11/src/object.c:232
    1450:	52800635 	mov	w21, #0x31                  	// #49
    1454:	17ffffc7 	b	1370 <create_object+0xe4>
/media/home/beste/01_Pro/ld25x/bsp_hu/MYD-LD25X-Uboot-L2022.10-V1.0.0/GEN_FIP/myir-st-optee/ta/pkcs11/src/object.c:293
    1458:	aa1303e0 	mov	x0, x19
    145c:	97fffec8 	bl	f7c <cleanup_volatile_obj_ref>
    1460:	17ffffe9 	b	1404 <create_object+0x178>
/media/home/beste/01_Pro/ld25x/bsp_hu/MYD-LD25X-Uboot-L2022.10-V1.0.0/GEN_FIP/myir-st-optee/ta/pkcs11/src/object.c:225
    1464:	52800635 	mov	w21, #0x31                  	// #49
    1468:	17ffffe7 	b	1404 <create_object+0x178>

000000000000146c <entry_create_object>:
entry_create_object():
/media/home/beste/01_Pro/ld25x/bsp_hu/MYD-LD25X-Uboot-L2022.10-V1.0.0/GEN_FIP/myir-st-optee/ta/pkcs11/src/object.c:300
    146c:	a9b97bfd 	stp	x29, x30, [sp, #-112]!
/media/home/beste/01_Pro/ld25x/bsp_hu/MYD-LD25X-Uboot-L2022.10-V1.0.0/GEN_FIP/myir-st-optee/ta/pkcs11/src/object.c:319
    1470:	71181c3f 	cmp	w1, #0x607
    1474:	fa400804 	ccmp	x0, #0x0, #0x4, eq	// eq = none
/media/home/beste/01_Pro/ld25x/bsp_hu/MYD-LD25X-Uboot-L2022.10-V1.0.0/GEN_FIP/myir-st-optee/ta/pkcs11/src/object.c:300
    1478:	910003fd 	mov	x29, sp
    147c:	a90153f3 	stp	x19, x20, [sp, #16]
    1480:	a9025bf5 	stp	x21, x22, [sp, #32]
/media/home/beste/01_Pro/ld25x/bsp_hu/MYD-LD25X-Uboot-L2022.10-V1.0.0/GEN_FIP/myir-st-optee/ta/pkcs11/src/object.c:313
    1484:	b9003fff 	str	wzr, [sp, #60]
/media/home/beste/01_Pro/ld25x/bsp_hu/MYD-LD25X-Uboot-L2022.10-V1.0.0/GEN_FIP/myir-st-optee/ta/pkcs11/src/object.c:310
    1488:	a9047fff 	stp	xzr, xzr, [sp, #64]
/media/home/beste/01_Pro/ld25x/bsp_hu/MYD-LD25X-Uboot-L2022.10-V1.0.0/GEN_FIP/myir-st-optee/ta/pkcs11/src/object.c:308
    148c:	a9057fff 	stp	xzr, xzr, [sp, #80]
    1490:	a9067fff 	stp	xzr, xzr, [sp, #96]
/media/home/beste/01_Pro/ld25x/bsp_hu/MYD-LD25X-Uboot-L2022.10-V1.0.0/GEN_FIP/myir-st-optee/ta/pkcs11/src/object.c:319
    1494:	540009a0 	b.eq	15c8 <entry_create_object+0x15c>  // b.none
    1498:	aa0003f3 	mov	x19, x0
/media/home/beste/01_Pro/ld25x/bsp_hu/MYD-LD25X-Uboot-L2022.10-V1.0.0/GEN_FIP/myir-st-optee/ta/pkcs11/src/object.c:319 (discriminator 1)
    149c:	b9402840 	ldr	w0, [x2, #40]
    14a0:	aa0203f4 	mov	x20, x2
    14a4:	7100101f 	cmp	w0, #0x4
    14a8:	54000901 	b.ne	15c8 <entry_create_object+0x15c>  // b.any
/media/home/beste/01_Pro/ld25x/bsp_hu/MYD-LD25X-Uboot-L2022.10-V1.0.0/GEN_FIP/myir-st-optee/ta/pkcs11/src/object.c:323
    14ac:	f9400281 	ldr	x1, [x20]
    14b0:	910163f6 	add	x22, sp, #0x58
    14b4:	b9400842 	ldr	w2, [x2, #8]
    14b8:	aa1603e0 	mov	x0, x22
    14bc:	940034de 	bl	e834 <serialargs_init>
/media/home/beste/01_Pro/ld25x/bsp_hu/MYD-LD25X-Uboot-L2022.10-V1.0.0/GEN_FIP/myir-st-optee/ta/pkcs11/src/object.c:325
    14c0:	aa1303e1 	mov	x1, x19
    14c4:	910103e2 	add	x2, sp, #0x40
    14c8:	aa1603e0 	mov	x0, x22
    14cc:	94003583 	bl	ead8 <serialargs_get_session_from_handle>
    14d0:	2a0003f3 	mov	w19, w0
/media/home/beste/01_Pro/ld25x/bsp_hu/MYD-LD25X-Uboot-L2022.10-V1.0.0/GEN_FIP/myir-st-optee/ta/pkcs11/src/object.c:326
    14d4:	350006c0 	cbnz	w0, 15ac <entry_create_object+0x140>
/media/home/beste/01_Pro/ld25x/bsp_hu/MYD-LD25X-Uboot-L2022.10-V1.0.0/GEN_FIP/myir-st-optee/ta/pkcs11/src/object.c:329
    14d8:	910143e1 	add	x1, sp, #0x50
    14dc:	aa1603e0 	mov	x0, x22
    14e0:	9400355d 	bl	ea54 <serialargs_alloc_get_attributes>
    14e4:	2a0003f3 	mov	w19, w0
/media/home/beste/01_Pro/ld25x/bsp_hu/MYD-LD25X-Uboot-L2022.10-V1.0.0/GEN_FIP/myir-st-optee/ta/pkcs11/src/object.c:330
    14e8:	35000620 	cbnz	w0, 15ac <entry_create_object+0x140>
/media/home/beste/01_Pro/ld25x/bsp_hu/MYD-LD25X-Uboot-L2022.10-V1.0.0/GEN_FIP/myir-st-optee/ta/pkcs11/src/object.c:333
    14ec:	aa1603e0 	mov	x0, x22
    14f0:	94003574 	bl	eac0 <serialargs_remaining_bytes>
    14f4:	72001c1f 	tst	w0, #0xff
    14f8:	54000641 	b.ne	15c0 <entry_create_object+0x154>  // b.any
/media/home/beste/01_Pro/ld25x/bsp_hu/MYD-LD25X-Uboot-L2022.10-V1.0.0/GEN_FIP/myir-st-optee/ta/pkcs11/src/object.c:338
    14fc:	f9402be1 	ldr	x1, [sp, #80]
/media/home/beste/01_Pro/ld25x/bsp_hu/MYD-LD25X-Uboot-L2022.10-V1.0.0/GEN_FIP/myir-st-optee/ta/pkcs11/src/object.c:344
    1500:	12800006 	mov	w6, #0xffffffff            	// #-1
    1504:	52b00005 	mov	w5, #0x80000000            	// #-2147483648
    1508:	52800184 	mov	w4, #0xc                   	// #12
    150c:	d2800003 	mov	x3, #0x0                   	// #0
    1510:	910123e0 	add	x0, sp, #0x48
/media/home/beste/01_Pro/ld25x/bsp_hu/MYD-LD25X-Uboot-L2022.10-V1.0.0/GEN_FIP/myir-st-optee/ta/pkcs11/src/object.c:338
    1514:	b9400022 	ldr	w2, [x1]
/media/home/beste/01_Pro/ld25x/bsp_hu/MYD-LD25X-Uboot-L2022.10-V1.0.0/GEN_FIP/myir-st-optee/ta/pkcs11/src/object.c:344
    1518:	91002042 	add	x2, x2, #0x8
    151c:	940009b9 	bl	3c00 <create_attributes_from_template>
    1520:	2a0003f3 	mov	w19, w0
/media/home/beste/01_Pro/ld25x/bsp_hu/MYD-LD25X-Uboot-L2022.10-V1.0.0/GEN_FIP/myir-st-optee/ta/pkcs11/src/object.c:348
    1524:	f9402be0 	ldr	x0, [sp, #80]
    1528:	94003e4f 	bl	10e64 <TEE_Free>
/media/home/beste/01_Pro/ld25x/bsp_hu/MYD-LD25X-Uboot-L2022.10-V1.0.0/GEN_FIP/myir-st-optee/ta/pkcs11/src/object.c:349
    152c:	f9002bff 	str	xzr, [sp, #80]
/media/home/beste/01_Pro/ld25x/bsp_hu/MYD-LD25X-Uboot-L2022.10-V1.0.0/GEN_FIP/myir-st-optee/ta/pkcs11/src/object.c:350
    1530:	35000373 	cbnz	w19, 159c <entry_create_object+0x130>
/media/home/beste/01_Pro/ld25x/bsp_hu/MYD-LD25X-Uboot-L2022.10-V1.0.0/GEN_FIP/myir-st-optee/ta/pkcs11/src/object.c:357
    1534:	f94027e1 	ldr	x1, [sp, #72]
    1538:	52b00000 	mov	w0, #0x80000000            	// #-2147483648
    153c:	94000d80 	bl	4b3c <check_created_attrs_against_processing>
    1540:	2a0003f3 	mov	w19, w0
/media/home/beste/01_Pro/ld25x/bsp_hu/MYD-LD25X-Uboot-L2022.10-V1.0.0/GEN_FIP/myir-st-optee/ta/pkcs11/src/object.c:359
    1544:	350002c0 	cbnz	w0, 159c <entry_create_object+0x130>
/media/home/beste/01_Pro/ld25x/bsp_hu/MYD-LD25X-Uboot-L2022.10-V1.0.0/GEN_FIP/myir-st-optee/ta/pkcs11/src/object.c:362
    1548:	a94407e0 	ldp	x0, x1, [sp, #64]
    154c:	94000d48 	bl	4a6c <check_created_attrs_against_token>
    1550:	2a0003f3 	mov	w19, w0
/media/home/beste/01_Pro/ld25x/bsp_hu/MYD-LD25X-Uboot-L2022.10-V1.0.0/GEN_FIP/myir-st-optee/ta/pkcs11/src/object.c:363
    1554:	35000240 	cbnz	w0, 159c <entry_create_object+0x130>
/media/home/beste/01_Pro/ld25x/bsp_hu/MYD-LD25X-Uboot-L2022.10-V1.0.0/GEN_FIP/myir-st-optee/ta/pkcs11/src/object.c:366
    1558:	a94407e0 	ldp	x0, x1, [sp, #64]
    155c:	94000d28 	bl	49fc <check_access_attrs_against_token>
    1560:	2a0003f3 	mov	w19, w0
/media/home/beste/01_Pro/ld25x/bsp_hu/MYD-LD25X-Uboot-L2022.10-V1.0.0/GEN_FIP/myir-st-optee/ta/pkcs11/src/object.c:367
    1564:	350001c0 	cbnz	w0, 159c <entry_create_object+0x130>
/media/home/beste/01_Pro/ld25x/bsp_hu/MYD-LD25X-Uboot-L2022.10-V1.0.0/GEN_FIP/myir-st-optee/ta/pkcs11/src/object.c:375
    1568:	a94407e0 	ldp	x0, x1, [sp, #64]
    156c:	9100f3f6 	add	x22, sp, #0x3c
    1570:	aa1603e2 	mov	x2, x22
    1574:	97ffff46 	bl	128c <create_object>
    1578:	2a0003f3 	mov	w19, w0
/media/home/beste/01_Pro/ld25x/bsp_hu/MYD-LD25X-Uboot-L2022.10-V1.0.0/GEN_FIP/myir-st-optee/ta/pkcs11/src/object.c:376
    157c:	35000100 	cbnz	w0, 159c <entry_create_object+0x130>
/media/home/beste/01_Pro/ld25x/bsp_hu/MYD-LD25X-Uboot-L2022.10-V1.0.0/GEN_FIP/myir-st-optee/ta/pkcs11/src/object.c:388
    1580:	f9401280 	ldr	x0, [x20, #32]
    1584:	aa1603e1 	mov	x1, x22
    1588:	52800082 	mov	w2, #0x4                   	// #4
/media/home/beste/01_Pro/ld25x/bsp_hu/MYD-LD25X-Uboot-L2022.10-V1.0.0/GEN_FIP/myir-st-optee/ta/pkcs11/src/object.c:386
    158c:	f90027ff 	str	xzr, [sp, #72]
/media/home/beste/01_Pro/ld25x/bsp_hu/MYD-LD25X-Uboot-L2022.10-V1.0.0/GEN_FIP/myir-st-optee/ta/pkcs11/src/object.c:388
    1590:	94003dc9 	bl	10cb4 <TEE_MemMove>
/media/home/beste/01_Pro/ld25x/bsp_hu/MYD-LD25X-Uboot-L2022.10-V1.0.0/GEN_FIP/myir-st-optee/ta/pkcs11/src/object.c:389
    1594:	52800080 	mov	w0, #0x4                   	// #4
    1598:	b9002a80 	str	w0, [x20, #40]
/media/home/beste/01_Pro/ld25x/bsp_hu/MYD-LD25X-Uboot-L2022.10-V1.0.0/GEN_FIP/myir-st-optee/ta/pkcs11/src/object.c:395
    159c:	f9402be0 	ldr	x0, [sp, #80]
    15a0:	94003e31 	bl	10e64 <TEE_Free>
/media/home/beste/01_Pro/ld25x/bsp_hu/MYD-LD25X-Uboot-L2022.10-V1.0.0/GEN_FIP/myir-st-optee/ta/pkcs11/src/object.c:396
    15a4:	f94027e0 	ldr	x0, [sp, #72]
    15a8:	94003e2f 	bl	10e64 <TEE_Free>
/media/home/beste/01_Pro/ld25x/bsp_hu/MYD-LD25X-Uboot-L2022.10-V1.0.0/GEN_FIP/myir-st-optee/ta/pkcs11/src/object.c:399
    15ac:	a9425bf5 	ldp	x21, x22, [sp, #32]
    15b0:	2a1303e0 	mov	w0, w19
    15b4:	a94153f3 	ldp	x19, x20, [sp, #16]
    15b8:	a8c77bfd 	ldp	x29, x30, [sp], #112
    15bc:	d65f03c0 	ret
/media/home/beste/01_Pro/ld25x/bsp_hu/MYD-LD25X-Uboot-L2022.10-V1.0.0/GEN_FIP/myir-st-optee/ta/pkcs11/src/object.c:334
    15c0:	528000f3 	mov	w19, #0x7                   	// #7
    15c4:	17fffff6 	b	159c <entry_create_object+0x130>
/media/home/beste/01_Pro/ld25x/bsp_hu/MYD-LD25X-Uboot-L2022.10-V1.0.0/GEN_FIP/myir-st-optee/ta/pkcs11/src/object.c:321
    15c8:	528000f3 	mov	w19, #0x7                   	// #7
    15cc:	17fffff8 	b	15ac <entry_create_object+0x140>

00000000000015d0 <entry_destroy_object>:
entry_destroy_object():
/media/home/beste/01_Pro/ld25x/bsp_hu/MYD-LD25X-Uboot-L2022.10-V1.0.0/GEN_FIP/myir-st-optee/ta/pkcs11/src/object.c:403
    15d0:	a9bb7bfd 	stp	x29, x30, [sp, #-80]!
/media/home/beste/01_Pro/ld25x/bsp_hu/MYD-LD25X-Uboot-L2022.10-V1.0.0/GEN_FIP/myir-st-optee/ta/pkcs11/src/object.c:415
    15d4:	f100001f 	cmp	x0, #0x0
    15d8:	7a471820 	ccmp	w1, #0x7, #0x0, ne	// ne = any
/media/home/beste/01_Pro/ld25x/bsp_hu/MYD-LD25X-Uboot-L2022.10-V1.0.0/GEN_FIP/myir-st-optee/ta/pkcs11/src/object.c:403
    15dc:	910003fd 	mov	x29, sp
    15e0:	a90153f3 	stp	x19, x20, [sp, #16]
    15e4:	aa0003f3 	mov	x19, x0
/media/home/beste/01_Pro/ld25x/bsp_hu/MYD-LD25X-Uboot-L2022.10-V1.0.0/GEN_FIP/myir-st-optee/ta/pkcs11/src/object.c:411
    15e8:	b9002fff 	str	wzr, [sp, #44]
/media/home/beste/01_Pro/ld25x/bsp_hu/MYD-LD25X-Uboot-L2022.10-V1.0.0/GEN_FIP/myir-st-optee/ta/pkcs11/src/object.c:410
    15ec:	a9037fff 	stp	xzr, xzr, [sp, #48]
    15f0:	a9047fff 	stp	xzr, xzr, [sp, #64]
/media/home/beste/01_Pro/ld25x/bsp_hu/MYD-LD25X-Uboot-L2022.10-V1.0.0/GEN_FIP/myir-st-optee/ta/pkcs11/src/object.c:415
    15f4:	540000c0 	b.eq	160c <entry_destroy_object+0x3c>  // b.none
/media/home/beste/01_Pro/ld25x/bsp_hu/MYD-LD25X-Uboot-L2022.10-V1.0.0/GEN_FIP/myir-st-optee/ta/pkcs11/src/object.c:416
    15f8:	528000f3 	mov	w19, #0x7                   	// #7
/media/home/beste/01_Pro/ld25x/bsp_hu/MYD-LD25X-Uboot-L2022.10-V1.0.0/GEN_FIP/myir-st-optee/ta/pkcs11/src/object.c:459
    15fc:	2a1303e0 	mov	w0, w19
    1600:	a94153f3 	ldp	x19, x20, [sp, #16]
    1604:	a8c57bfd 	ldp	x29, x30, [sp], #80
    1608:	d65f03c0 	ret
    160c:	aa0203e0 	mov	x0, x2
/media/home/beste/01_Pro/ld25x/bsp_hu/MYD-LD25X-Uboot-L2022.10-V1.0.0/GEN_FIP/myir-st-optee/ta/pkcs11/src/object.c:418
    1610:	b9400842 	ldr	w2, [x2, #8]
    1614:	9100e3f4 	add	x20, sp, #0x38
    1618:	f9400001 	ldr	x1, [x0]
    161c:	aa1403e0 	mov	x0, x20
    1620:	94003485 	bl	e834 <serialargs_init>
/media/home/beste/01_Pro/ld25x/bsp_hu/MYD-LD25X-Uboot-L2022.10-V1.0.0/GEN_FIP/myir-st-optee/ta/pkcs11/src/object.c:420
    1624:	aa1303e1 	mov	x1, x19
    1628:	9100c3e2 	add	x2, sp, #0x30
    162c:	aa1403e0 	mov	x0, x20
    1630:	9400352a 	bl	ead8 <serialargs_get_session_from_handle>
    1634:	2a0003f3 	mov	w19, w0
/media/home/beste/01_Pro/ld25x/bsp_hu/MYD-LD25X-Uboot-L2022.10-V1.0.0/GEN_FIP/myir-st-optee/ta/pkcs11/src/object.c:421
    1638:	35fffe20 	cbnz	w0, 15fc <entry_destroy_object+0x2c>
serialargs_get_u32():
/media/home/beste/01_Pro/ld25x/bsp_hu/MYD-LD25X-Uboot-L2022.10-V1.0.0/GEN_FIP/myir-st-optee/ta/pkcs11/src/serializer.h:56
    163c:	9100b3e1 	add	x1, sp, #0x2c
    1640:	aa1403e0 	mov	x0, x20
    1644:	d2800082 	mov	x2, #0x4                   	// #4
    1648:	9400349f 	bl	e8c4 <serialargs_get>
    164c:	2a0003f3 	mov	w19, w0
entry_destroy_object():
/media/home/beste/01_Pro/ld25x/bsp_hu/MYD-LD25X-Uboot-L2022.10-V1.0.0/GEN_FIP/myir-st-optee/ta/pkcs11/src/object.c:425
    1650:	35fffd60 	cbnz	w0, 15fc <entry_destroy_object+0x2c>
/media/home/beste/01_Pro/ld25x/bsp_hu/MYD-LD25X-Uboot-L2022.10-V1.0.0/GEN_FIP/myir-st-optee/ta/pkcs11/src/object.c:428
    1654:	aa1403e0 	mov	x0, x20
    1658:	9400351a 	bl	eac0 <serialargs_remaining_bytes>
    165c:	72001c1f 	tst	w0, #0xff
    1660:	54fffcc1 	b.ne	15f8 <entry_destroy_object+0x28>  // b.any
/media/home/beste/01_Pro/ld25x/bsp_hu/MYD-LD25X-Uboot-L2022.10-V1.0.0/GEN_FIP/myir-st-optee/ta/pkcs11/src/object.c:431
    1664:	f9401be1 	ldr	x1, [sp, #48]
    1668:	b9402fe0 	ldr	w0, [sp, #44]
    166c:	97fffe80 	bl	106c <pkcs11_handle2object>
    1670:	aa0003f4 	mov	x20, x0
/media/home/beste/01_Pro/ld25x/bsp_hu/MYD-LD25X-Uboot-L2022.10-V1.0.0/GEN_FIP/myir-st-optee/ta/pkcs11/src/object.c:432
    1674:	b4000340 	cbz	x0, 16dc <entry_destroy_object+0x10c>
/media/home/beste/01_Pro/ld25x/bsp_hu/MYD-LD25X-Uboot-L2022.10-V1.0.0/GEN_FIP/myir-st-optee/ta/pkcs11/src/object.c:436
    1678:	f9400800 	ldr	x0, [x0, #16]
    167c:	52800021 	mov	w1, #0x1                   	// #1
    1680:	97fffbbf 	bl	57c <get_bool>
    1684:	72001c1f 	tst	w0, #0xff
    1688:	540000c0 	b.eq	16a0 <entry_destroy_object+0xd0>  // b.none
pkcs11_session_is_read_write():
/media/home/beste/01_Pro/ld25x/bsp_hu/MYD-LD25X-Uboot-L2022.10-V1.0.0/GEN_FIP/myir-st-optee/ta/pkcs11/src/pkcs11_token.h:291 (discriminator 1)
    168c:	f9401be0 	ldr	x0, [sp, #48]
/media/home/beste/01_Pro/ld25x/bsp_hu/MYD-LD25X-Uboot-L2022.10-V1.0.0/GEN_FIP/myir-st-optee/ta/pkcs11/src/pkcs11_token.h:292 (discriminator 1)
    1690:	b9403000 	ldr	w0, [x0, #48]
    1694:	51000800 	sub	w0, w0, #0x2
entry_destroy_object():
/media/home/beste/01_Pro/ld25x/bsp_hu/MYD-LD25X-Uboot-L2022.10-V1.0.0/GEN_FIP/myir-st-optee/ta/pkcs11/src/object.c:436 (discriminator 1)
    1698:	7100081f 	cmp	w0, #0x2
    169c:	54000248 	b.hi	16e4 <entry_destroy_object+0x114>  // b.pmore
/media/home/beste/01_Pro/ld25x/bsp_hu/MYD-LD25X-Uboot-L2022.10-V1.0.0/GEN_FIP/myir-st-optee/ta/pkcs11/src/object.c:445
    16a0:	f9400a81 	ldr	x1, [x20, #16]
    16a4:	f9401be0 	ldr	x0, [sp, #48]
    16a8:	94000cd5 	bl	49fc <check_access_attrs_against_token>
    16ac:	2a0003f3 	mov	w19, w0
/media/home/beste/01_Pro/ld25x/bsp_hu/MYD-LD25X-Uboot-L2022.10-V1.0.0/GEN_FIP/myir-st-optee/ta/pkcs11/src/object.c:446
    16b0:	350001e0 	cbnz	w0, 16ec <entry_destroy_object+0x11c>
/media/home/beste/01_Pro/ld25x/bsp_hu/MYD-LD25X-Uboot-L2022.10-V1.0.0/GEN_FIP/myir-st-optee/ta/pkcs11/src/object.c:450
    16b4:	f9400a80 	ldr	x0, [x20, #16]
    16b8:	52802e41 	mov	w1, #0x172                 	// #370
    16bc:	97fffbb0 	bl	57c <get_bool>
    16c0:	72001c1f 	tst	w0, #0xff
    16c4:	54000180 	b.eq	16f4 <entry_destroy_object+0x124>  // b.none
/media/home/beste/01_Pro/ld25x/bsp_hu/MYD-LD25X-Uboot-L2022.10-V1.0.0/GEN_FIP/myir-st-optee/ta/pkcs11/src/object.c:453
    16c8:	f9401be0 	ldr	x0, [sp, #48]
    16cc:	aa1403e1 	mov	x1, x20
    16d0:	52800002 	mov	w2, #0x0                   	// #0
    16d4:	97fffe9d 	bl	1148 <destroy_object>
/media/home/beste/01_Pro/ld25x/bsp_hu/MYD-LD25X-Uboot-L2022.10-V1.0.0/GEN_FIP/myir-st-optee/ta/pkcs11/src/object.c:458
    16d8:	17ffffc9 	b	15fc <entry_destroy_object+0x2c>
/media/home/beste/01_Pro/ld25x/bsp_hu/MYD-LD25X-Uboot-L2022.10-V1.0.0/GEN_FIP/myir-st-optee/ta/pkcs11/src/object.c:433
    16dc:	52801053 	mov	w19, #0x82                  	// #130
    16e0:	17ffffc7 	b	15fc <entry_destroy_object+0x2c>
/media/home/beste/01_Pro/ld25x/bsp_hu/MYD-LD25X-Uboot-L2022.10-V1.0.0/GEN_FIP/myir-st-optee/ta/pkcs11/src/object.c:439
    16e4:	528016b3 	mov	w19, #0xb5                  	// #181
    16e8:	17ffffc5 	b	15fc <entry_destroy_object+0x2c>
/media/home/beste/01_Pro/ld25x/bsp_hu/MYD-LD25X-Uboot-L2022.10-V1.0.0/GEN_FIP/myir-st-optee/ta/pkcs11/src/object.c:447
    16ec:	52802033 	mov	w19, #0x101                 	// #257
    16f0:	17ffffc3 	b	15fc <entry_destroy_object+0x2c>
/media/home/beste/01_Pro/ld25x/bsp_hu/MYD-LD25X-Uboot-L2022.10-V1.0.0/GEN_FIP/myir-st-optee/ta/pkcs11/src/object.c:451
    16f4:	52800373 	mov	w19, #0x1b                  	// #27
    16f8:	17ffffc1 	b	15fc <entry_destroy_object+0x2c>

00000000000016fc <entry_find_objects_init>:
entry_find_objects_init():
/media/home/beste/01_Pro/ld25x/bsp_hu/MYD-LD25X-Uboot-L2022.10-V1.0.0/GEN_FIP/myir-st-optee/ta/pkcs11/src/object.c:490
    16fc:	a9b97bfd 	stp	x29, x30, [sp, #-112]!
/media/home/beste/01_Pro/ld25x/bsp_hu/MYD-LD25X-Uboot-L2022.10-V1.0.0/GEN_FIP/myir-st-optee/ta/pkcs11/src/object.c:506
    1700:	f100001f 	cmp	x0, #0x0
    1704:	7a471820 	ccmp	w1, #0x7, #0x0, ne	// ne = any
/media/home/beste/01_Pro/ld25x/bsp_hu/MYD-LD25X-Uboot-L2022.10-V1.0.0/GEN_FIP/myir-st-optee/ta/pkcs11/src/object.c:490
    1708:	910003fd 	mov	x29, sp
    170c:	a90153f3 	stp	x19, x20, [sp, #16]
    1710:	aa0003f3 	mov	x19, x0
    1714:	a9025bf5 	stp	x21, x22, [sp, #32]
    1718:	f9001bf7 	str	x23, [sp, #48]
/media/home/beste/01_Pro/ld25x/bsp_hu/MYD-LD25X-Uboot-L2022.10-V1.0.0/GEN_FIP/myir-st-optee/ta/pkcs11/src/object.c:500
    171c:	a9047fff 	stp	xzr, xzr, [sp, #64]
/media/home/beste/01_Pro/ld25x/bsp_hu/MYD-LD25X-Uboot-L2022.10-V1.0.0/GEN_FIP/myir-st-optee/ta/pkcs11/src/object.c:497
    1720:	a9057fff 	stp	xzr, xzr, [sp, #80]
    1724:	a9067fff 	stp	xzr, xzr, [sp, #96]
/media/home/beste/01_Pro/ld25x/bsp_hu/MYD-LD25X-Uboot-L2022.10-V1.0.0/GEN_FIP/myir-st-optee/ta/pkcs11/src/object.c:506
    1728:	54000100 	b.eq	1748 <entry_find_objects_init+0x4c>  // b.none
/media/home/beste/01_Pro/ld25x/bsp_hu/MYD-LD25X-Uboot-L2022.10-V1.0.0/GEN_FIP/myir-st-optee/ta/pkcs11/src/object.c:507
    172c:	528000f3 	mov	w19, #0x7                   	// #7
/media/home/beste/01_Pro/ld25x/bsp_hu/MYD-LD25X-Uboot-L2022.10-V1.0.0/GEN_FIP/myir-st-optee/ta/pkcs11/src/object.c:650
    1730:	a9425bf5 	ldp	x21, x22, [sp, #32]
    1734:	2a1303e0 	mov	w0, w19
    1738:	a94153f3 	ldp	x19, x20, [sp, #16]
    173c:	f9401bf7 	ldr	x23, [sp, #48]
    1740:	a8c77bfd 	ldp	x29, x30, [sp], #112
    1744:	d65f03c0 	ret
    1748:	aa0203e0 	mov	x0, x2
/media/home/beste/01_Pro/ld25x/bsp_hu/MYD-LD25X-Uboot-L2022.10-V1.0.0/GEN_FIP/myir-st-optee/ta/pkcs11/src/object.c:509
    174c:	b9400842 	ldr	w2, [x2, #8]
    1750:	910163f4 	add	x20, sp, #0x58
    1754:	f9400001 	ldr	x1, [x0]
    1758:	aa1403e0 	mov	x0, x20
    175c:	94003436 	bl	e834 <serialargs_init>
/media/home/beste/01_Pro/ld25x/bsp_hu/MYD-LD25X-Uboot-L2022.10-V1.0.0/GEN_FIP/myir-st-optee/ta/pkcs11/src/object.c:511
    1760:	aa1303e1 	mov	x1, x19
    1764:	910103e2 	add	x2, sp, #0x40
    1768:	aa1403e0 	mov	x0, x20
    176c:	940034db 	bl	ead8 <serialargs_get_session_from_handle>
    1770:	2a0003f3 	mov	w19, w0
/media/home/beste/01_Pro/ld25x/bsp_hu/MYD-LD25X-Uboot-L2022.10-V1.0.0/GEN_FIP/myir-st-optee/ta/pkcs11/src/object.c:512
    1774:	35fffde0 	cbnz	w0, 1730 <entry_find_objects_init+0x34>
/media/home/beste/01_Pro/ld25x/bsp_hu/MYD-LD25X-Uboot-L2022.10-V1.0.0/GEN_FIP/myir-st-optee/ta/pkcs11/src/object.c:515
    1778:	910123e1 	add	x1, sp, #0x48
    177c:	aa1403e0 	mov	x0, x20
    1780:	940034b5 	bl	ea54 <serialargs_alloc_get_attributes>
    1784:	2a0003f3 	mov	w19, w0
/media/home/beste/01_Pro/ld25x/bsp_hu/MYD-LD25X-Uboot-L2022.10-V1.0.0/GEN_FIP/myir-st-optee/ta/pkcs11/src/object.c:516
    1788:	35fffd40 	cbnz	w0, 1730 <entry_find_objects_init+0x34>
/media/home/beste/01_Pro/ld25x/bsp_hu/MYD-LD25X-Uboot-L2022.10-V1.0.0/GEN_FIP/myir-st-optee/ta/pkcs11/src/object.c:519
    178c:	aa1403e0 	mov	x0, x20
    1790:	940034cc 	bl	eac0 <serialargs_remaining_bytes>
    1794:	72001c1f 	tst	w0, #0xff
    1798:	54001581 	b.ne	1a48 <entry_find_objects_init+0x34c>  // b.any
/media/home/beste/01_Pro/ld25x/bsp_hu/MYD-LD25X-Uboot-L2022.10-V1.0.0/GEN_FIP/myir-st-optee/ta/pkcs11/src/object.c:525
    179c:	f94023e0 	ldr	x0, [sp, #64]
    17a0:	f9401c01 	ldr	x1, [x0, #56]
    17a4:	b5001461 	cbnz	x1, 1a30 <entry_find_objects_init+0x334>
/media/home/beste/01_Pro/ld25x/bsp_hu/MYD-LD25X-Uboot-L2022.10-V1.0.0/GEN_FIP/myir-st-optee/ta/pkcs11/src/object.c:530
    17a8:	f9402000 	ldr	x0, [x0, #64]
    17ac:	b4000200 	cbz	x0, 17ec <entry_find_objects_init+0xf0>
/media/home/beste/01_Pro/ld25x/bsp_hu/MYD-LD25X-Uboot-L2022.10-V1.0.0/GEN_FIP/myir-st-optee/ta/pkcs11/src/object.c:531
    17b0:	d0000100 	adrp	x0, 23000 <trace_ext_prefix+0x8>
    17b4:	913ad000 	add	x0, x0, #0xeb4
    17b8:	52800023 	mov	w3, #0x1                   	// #1
    17bc:	52800022 	mov	w2, #0x1                   	// #1
    17c0:	52804261 	mov	w1, #0x213                 	// #531
    17c4:	91003c00 	add	x0, x0, #0xf
    17c8:	d0000104 	adrp	x4, 23000 <trace_ext_prefix+0x8>
    17cc:	91397484 	add	x4, x4, #0xe5d
    17d0:	94003ab5 	bl	102a4 <trace_printf>
/media/home/beste/01_Pro/ld25x/bsp_hu/MYD-LD25X-Uboot-L2022.10-V1.0.0/GEN_FIP/myir-st-optee/ta/pkcs11/src/object.c:532
    17d4:	528000d3 	mov	w19, #0x6                   	// #6
/media/home/beste/01_Pro/ld25x/bsp_hu/MYD-LD25X-Uboot-L2022.10-V1.0.0/GEN_FIP/myir-st-optee/ta/pkcs11/src/object.c:645
    17d8:	f9402be0 	ldr	x0, [sp, #80]
    17dc:	94003da2 	bl	10e64 <TEE_Free>
/media/home/beste/01_Pro/ld25x/bsp_hu/MYD-LD25X-Uboot-L2022.10-V1.0.0/GEN_FIP/myir-st-optee/ta/pkcs11/src/object.c:646
    17e0:	f94027e0 	ldr	x0, [sp, #72]
    17e4:	94003da0 	bl	10e64 <TEE_Free>
release_find_obj_context():
/media/home/beste/01_Pro/ld25x/bsp_hu/MYD-LD25X-Uboot-L2022.10-V1.0.0/GEN_FIP/myir-st-optee/ta/pkcs11/src/object.c:463
    17e8:	17ffffd2 	b	1730 <entry_find_objects_init+0x34>
entry_find_objects_init():
/media/home/beste/01_Pro/ld25x/bsp_hu/MYD-LD25X-Uboot-L2022.10-V1.0.0/GEN_FIP/myir-st-optee/ta/pkcs11/src/object.c:536
    17ec:	f94027e1 	ldr	x1, [sp, #72]
    17f0:	12800004 	mov	w4, #0xffffffff            	// #-1
    17f4:	910143e0 	add	x0, sp, #0x50
    17f8:	2a0403e3 	mov	w3, w4
/media/home/beste/01_Pro/ld25x/bsp_hu/MYD-LD25X-Uboot-L2022.10-V1.0.0/GEN_FIP/myir-st-optee/ta/pkcs11/src/object.c:537
    17fc:	b9400022 	ldr	w2, [x1]
/media/home/beste/01_Pro/ld25x/bsp_hu/MYD-LD25X-Uboot-L2022.10-V1.0.0/GEN_FIP/myir-st-optee/ta/pkcs11/src/object.c:536
    1800:	91002042 	add	x2, x2, #0x8
    1804:	940032df 	bl	e380 <sanitize_client_object>
    1808:	2a0003f3 	mov	w19, w0
/media/home/beste/01_Pro/ld25x/bsp_hu/MYD-LD25X-Uboot-L2022.10-V1.0.0/GEN_FIP/myir-st-optee/ta/pkcs11/src/object.c:539
    180c:	350010e0 	cbnz	w0, 1a28 <entry_find_objects_init+0x32c>
/media/home/beste/01_Pro/ld25x/bsp_hu/MYD-LD25X-Uboot-L2022.10-V1.0.0/GEN_FIP/myir-st-optee/ta/pkcs11/src/object.c:543
    1810:	52800001 	mov	w1, #0x0                   	// #0
    1814:	52800400 	mov	w0, #0x20                  	// #32
    1818:	94003d79 	bl	10dfc <TEE_Malloc>
    181c:	aa0003f4 	mov	x20, x0
/media/home/beste/01_Pro/ld25x/bsp_hu/MYD-LD25X-Uboot-L2022.10-V1.0.0/GEN_FIP/myir-st-optee/ta/pkcs11/src/object.c:544
    1820:	b4000f80 	cbz	x0, 1a10 <entry_find_objects_init+0x314>
/media/home/beste/01_Pro/ld25x/bsp_hu/MYD-LD25X-Uboot-L2022.10-V1.0.0/GEN_FIP/myir-st-optee/ta/pkcs11/src/object.c:549
    1824:	f94027e0 	ldr	x0, [sp, #72]
    1828:	94003d8f 	bl	10e64 <TEE_Free>
/media/home/beste/01_Pro/ld25x/bsp_hu/MYD-LD25X-Uboot-L2022.10-V1.0.0/GEN_FIP/myir-st-optee/ta/pkcs11/src/object.c:550
    182c:	f90027ff 	str	xzr, [sp, #72]
/media/home/beste/01_Pro/ld25x/bsp_hu/MYD-LD25X-Uboot-L2022.10-V1.0.0/GEN_FIP/myir-st-optee/ta/pkcs11/src/object.c:552
    1830:	f9402be0 	ldr	x0, [sp, #80]
    1834:	97fffdec 	bl	fe4 <get_class>
    1838:	51001400 	sub	w0, w0, #0x5
    183c:	31001c1f 	cmn	w0, #0x7
    1840:	540003a8 	b.hi	18b4 <entry_find_objects_init+0x1b8>  // b.pmore
/media/home/beste/01_Pro/ld25x/bsp_hu/MYD-LD25X-Uboot-L2022.10-V1.0.0/GEN_FIP/myir-st-optee/ta/pkcs11/src/object.c:562
    1844:	f9402be0 	ldr	x0, [sp, #80]
    1848:	97fffde7 	bl	fe4 <get_class>
    184c:	940012aa 	bl	62f4 <id2str_class>
    1850:	aa0003f3 	mov	x19, x0
    1854:	f9402be0 	ldr	x0, [sp, #80]
    1858:	97fffde3 	bl	fe4 <get_class>
    185c:	2a0003e6 	mov	w6, w0
    1860:	d0000100 	adrp	x0, 23000 <trace_ext_prefix+0x8>
    1864:	913ad000 	add	x0, x0, #0xeb4
    1868:	aa1303e5 	mov	x5, x19
    186c:	91003c00 	add	x0, x0, #0xf
    1870:	52800023 	mov	w3, #0x1                   	// #1
    1874:	52800022 	mov	w2, #0x1                   	// #1
    1878:	52804641 	mov	w1, #0x232                 	// #562
    187c:	d0000104 	adrp	x4, 23000 <trace_ext_prefix+0x8>
    1880:	913a1884 	add	x4, x4, #0xe86
    1884:	94003a88 	bl	102a4 <trace_printf>
/media/home/beste/01_Pro/ld25x/bsp_hu/MYD-LD25X-Uboot-L2022.10-V1.0.0/GEN_FIP/myir-st-optee/ta/pkcs11/src/object.c:645
    1888:	f9402be0 	ldr	x0, [sp, #80]
/media/home/beste/01_Pro/ld25x/bsp_hu/MYD-LD25X-Uboot-L2022.10-V1.0.0/GEN_FIP/myir-st-optee/ta/pkcs11/src/object.c:565
    188c:	528000f3 	mov	w19, #0x7                   	// #7
/media/home/beste/01_Pro/ld25x/bsp_hu/MYD-LD25X-Uboot-L2022.10-V1.0.0/GEN_FIP/myir-st-optee/ta/pkcs11/src/object.c:645
    1890:	94003d75 	bl	10e64 <TEE_Free>
/media/home/beste/01_Pro/ld25x/bsp_hu/MYD-LD25X-Uboot-L2022.10-V1.0.0/GEN_FIP/myir-st-optee/ta/pkcs11/src/object.c:646
    1894:	f94027e0 	ldr	x0, [sp, #72]
    1898:	94003d73 	bl	10e64 <TEE_Free>
release_find_obj_context():
/media/home/beste/01_Pro/ld25x/bsp_hu/MYD-LD25X-Uboot-L2022.10-V1.0.0/GEN_FIP/myir-st-optee/ta/pkcs11/src/object.c:466
    189c:	f9400280 	ldr	x0, [x20]
    18a0:	94003d71 	bl	10e64 <TEE_Free>
/media/home/beste/01_Pro/ld25x/bsp_hu/MYD-LD25X-Uboot-L2022.10-V1.0.0/GEN_FIP/myir-st-optee/ta/pkcs11/src/object.c:467
    18a4:	f9400a80 	ldr	x0, [x20, #16]
    18a8:	94003d6f 	bl	10e64 <TEE_Free>
/media/home/beste/01_Pro/ld25x/bsp_hu/MYD-LD25X-Uboot-L2022.10-V1.0.0/GEN_FIP/myir-st-optee/ta/pkcs11/src/object.c:468
    18ac:	aa1403e0 	mov	x0, x20
    18b0:	14000014 	b	1900 <entry_find_objects_init+0x204>
entry_find_objects_init():
/media/home/beste/01_Pro/ld25x/bsp_hu/MYD-LD25X-Uboot-L2022.10-V1.0.0/GEN_FIP/myir-st-optee/ta/pkcs11/src/object.c:575
    18b4:	f94023e0 	ldr	x0, [sp, #64]
    18b8:	94001421 	bl	693c <get_session_list>
    18bc:	f9400017 	ldr	x23, [x0]
/media/home/beste/01_Pro/ld25x/bsp_hu/MYD-LD25X-Uboot-L2022.10-V1.0.0/GEN_FIP/myir-st-optee/ta/pkcs11/src/object.c:575 (discriminator 1)
    18c0:	b5000257 	cbnz	x23, 1908 <entry_find_objects_init+0x20c>
/media/home/beste/01_Pro/ld25x/bsp_hu/MYD-LD25X-Uboot-L2022.10-V1.0.0/GEN_FIP/myir-st-optee/ta/pkcs11/src/object.c:596
    18c4:	f94023e0 	ldr	x0, [sp, #64]
    18c8:	9400141a 	bl	6930 <get_object_handle_db>
    18cc:	aa0003f7 	mov	x23, x0
/media/home/beste/01_Pro/ld25x/bsp_hu/MYD-LD25X-Uboot-L2022.10-V1.0.0/GEN_FIP/myir-st-optee/ta/pkcs11/src/object.c:599
    18d0:	f94023e0 	ldr	x0, [sp, #64]
    18d4:	f9400c00 	ldr	x0, [x0, #24]
    18d8:	f9400816 	ldr	x22, [x0, #16]
/media/home/beste/01_Pro/ld25x/bsp_hu/MYD-LD25X-Uboot-L2022.10-V1.0.0/GEN_FIP/myir-st-optee/ta/pkcs11/src/object.c:599 (discriminator 1)
    18dc:	b50004d6 	cbnz	x22, 1974 <entry_find_objects_init+0x278>
/media/home/beste/01_Pro/ld25x/bsp_hu/MYD-LD25X-Uboot-L2022.10-V1.0.0/GEN_FIP/myir-st-optee/ta/pkcs11/src/object.c:638
    18e0:	f9402be0 	ldr	x0, [sp, #80]
    18e4:	f9000280 	str	x0, [x20]
/media/home/beste/01_Pro/ld25x/bsp_hu/MYD-LD25X-Uboot-L2022.10-V1.0.0/GEN_FIP/myir-st-optee/ta/pkcs11/src/object.c:640
    18e8:	f94023e0 	ldr	x0, [sp, #64]
/media/home/beste/01_Pro/ld25x/bsp_hu/MYD-LD25X-Uboot-L2022.10-V1.0.0/GEN_FIP/myir-st-optee/ta/pkcs11/src/object.c:639
    18ec:	f9002bff 	str	xzr, [sp, #80]
/media/home/beste/01_Pro/ld25x/bsp_hu/MYD-LD25X-Uboot-L2022.10-V1.0.0/GEN_FIP/myir-st-optee/ta/pkcs11/src/object.c:640
    18f0:	f9002014 	str	x20, [x0, #64]
/media/home/beste/01_Pro/ld25x/bsp_hu/MYD-LD25X-Uboot-L2022.10-V1.0.0/GEN_FIP/myir-st-optee/ta/pkcs11/src/object.c:645
    18f4:	d2800000 	mov	x0, #0x0                   	// #0
    18f8:	94003d5b 	bl	10e64 <TEE_Free>
/media/home/beste/01_Pro/ld25x/bsp_hu/MYD-LD25X-Uboot-L2022.10-V1.0.0/GEN_FIP/myir-st-optee/ta/pkcs11/src/object.c:646
    18fc:	f94027e0 	ldr	x0, [sp, #72]
release_find_obj_context():
/media/home/beste/01_Pro/ld25x/bsp_hu/MYD-LD25X-Uboot-L2022.10-V1.0.0/GEN_FIP/myir-st-optee/ta/pkcs11/src/object.c:468
    1900:	94003d59 	bl	10e64 <TEE_Free>
    1904:	17ffff8b 	b	1730 <entry_find_objects_init+0x34>
entry_find_objects_init():
/media/home/beste/01_Pro/ld25x/bsp_hu/MYD-LD25X-Uboot-L2022.10-V1.0.0/GEN_FIP/myir-st-optee/ta/pkcs11/src/object.c:576
    1908:	f94016f6 	ldr	x22, [x23, #40]
/media/home/beste/01_Pro/ld25x/bsp_hu/MYD-LD25X-Uboot-L2022.10-V1.0.0/GEN_FIP/myir-st-optee/ta/pkcs11/src/object.c:576 (discriminator 1)
    190c:	b5000076 	cbnz	x22, 1918 <entry_find_objects_init+0x21c>
/media/home/beste/01_Pro/ld25x/bsp_hu/MYD-LD25X-Uboot-L2022.10-V1.0.0/GEN_FIP/myir-st-optee/ta/pkcs11/src/object.c:575 (discriminator 2)
    1910:	f94002f7 	ldr	x23, [x23]
    1914:	17ffffeb 	b	18c0 <entry_find_objects_init+0x1c4>
/media/home/beste/01_Pro/ld25x/bsp_hu/MYD-LD25X-Uboot-L2022.10-V1.0.0/GEN_FIP/myir-st-optee/ta/pkcs11/src/object.c:582
    1918:	f94016c0 	ldr	x0, [x22, #40]
    191c:	b4000060 	cbz	x0, 1928 <entry_find_objects_init+0x22c>
/media/home/beste/01_Pro/ld25x/bsp_hu/MYD-LD25X-Uboot-L2022.10-V1.0.0/GEN_FIP/myir-st-optee/ta/pkcs11/src/object.c:576
    1920:	f94002d6 	ldr	x22, [x22]
    1924:	17fffffa 	b	190c <entry_find_objects_init+0x210>
/media/home/beste/01_Pro/ld25x/bsp_hu/MYD-LD25X-Uboot-L2022.10-V1.0.0/GEN_FIP/myir-st-optee/ta/pkcs11/src/object.c:585
    1928:	f9400ac0 	ldr	x0, [x22, #16]
    192c:	f9402be1 	ldr	x1, [sp, #80]
    1930:	97fffb2f 	bl	5ec <attributes_match_reference>
    1934:	72001c1f 	tst	w0, #0xff
    1938:	54ffff40 	b.eq	1920 <entry_find_objects_init+0x224>  // b.none
/media/home/beste/01_Pro/ld25x/bsp_hu/MYD-LD25X-Uboot-L2022.10-V1.0.0/GEN_FIP/myir-st-optee/ta/pkcs11/src/object.c:589
    193c:	f94023e1 	ldr	x1, [sp, #64]
    1940:	aa1603e0 	mov	x0, x22
    1944:	97fffddc 	bl	10b4 <pkcs11_object2handle>
    1948:	2a0003e1 	mov	w1, w0
    194c:	aa1403e0 	mov	x0, x20
    1950:	97fffdb2 	bl	1018 <find_ctx_add>
    1954:	2a0003f5 	mov	w21, w0
/media/home/beste/01_Pro/ld25x/bsp_hu/MYD-LD25X-Uboot-L2022.10-V1.0.0/GEN_FIP/myir-st-optee/ta/pkcs11/src/object.c:591
    1958:	34fffe40 	cbz	w0, 1920 <entry_find_objects_init+0x224>
/media/home/beste/01_Pro/ld25x/bsp_hu/MYD-LD25X-Uboot-L2022.10-V1.0.0/GEN_FIP/myir-st-optee/ta/pkcs11/src/object.c:645
    195c:	f9402be0 	ldr	x0, [sp, #80]
/media/home/beste/01_Pro/ld25x/bsp_hu/MYD-LD25X-Uboot-L2022.10-V1.0.0/GEN_FIP/myir-st-optee/ta/pkcs11/src/object.c:646
    1960:	2a1503f3 	mov	w19, w21
/media/home/beste/01_Pro/ld25x/bsp_hu/MYD-LD25X-Uboot-L2022.10-V1.0.0/GEN_FIP/myir-st-optee/ta/pkcs11/src/object.c:645
    1964:	94003d40 	bl	10e64 <TEE_Free>
/media/home/beste/01_Pro/ld25x/bsp_hu/MYD-LD25X-Uboot-L2022.10-V1.0.0/GEN_FIP/myir-st-optee/ta/pkcs11/src/object.c:646
    1968:	f94027e0 	ldr	x0, [sp, #72]
    196c:	94003d3e 	bl	10e64 <TEE_Free>
release_find_obj_context():
/media/home/beste/01_Pro/ld25x/bsp_hu/MYD-LD25X-Uboot-L2022.10-V1.0.0/GEN_FIP/myir-st-optee/ta/pkcs11/src/object.c:463
    1970:	17ffffcb 	b	189c <entry_find_objects_init+0x1a0>
entry_find_objects_init():
/media/home/beste/01_Pro/ld25x/bsp_hu/MYD-LD25X-Uboot-L2022.10-V1.0.0/GEN_FIP/myir-st-optee/ta/pkcs11/src/object.c:603
    1974:	f9400ac1 	ldr	x1, [x22, #16]
    1978:	b5000141 	cbnz	x1, 19a0 <entry_find_objects_init+0x2a4>
/media/home/beste/01_Pro/ld25x/bsp_hu/MYD-LD25X-Uboot-L2022.10-V1.0.0/GEN_FIP/myir-st-optee/ta/pkcs11/src/object.c:604
    197c:	aa1603e0 	mov	x0, x22
    1980:	9400052b 	bl	2e2c <load_persistent_object_attributes>
/media/home/beste/01_Pro/ld25x/bsp_hu/MYD-LD25X-Uboot-L2022.10-V1.0.0/GEN_FIP/myir-st-optee/ta/pkcs11/src/object.c:605
    1984:	350006c0 	cbnz	w0, 1a5c <entry_find_objects_init+0x360>
/media/home/beste/01_Pro/ld25x/bsp_hu/MYD-LD25X-Uboot-L2022.10-V1.0.0/GEN_FIP/myir-st-optee/ta/pkcs11/src/object.c:613
    1988:	f9400ac1 	ldr	x1, [x22, #16]
    198c:	b5000161 	cbnz	x1, 19b8 <entry_find_objects_init+0x2bc>
/media/home/beste/01_Pro/ld25x/bsp_hu/MYD-LD25X-Uboot-L2022.10-V1.0.0/GEN_FIP/myir-st-optee/ta/pkcs11/src/object.c:618
    1990:	aa1603e0 	mov	x0, x22
    1994:	940005ae 	bl	304c <release_persistent_object_attributes>
/media/home/beste/01_Pro/ld25x/bsp_hu/MYD-LD25X-Uboot-L2022.10-V1.0.0/GEN_FIP/myir-st-optee/ta/pkcs11/src/object.c:599 (discriminator 2)
    1998:	f94002d6 	ldr	x22, [x22]
    199c:	17ffffd0 	b	18dc <entry_find_objects_init+0x1e0>
/media/home/beste/01_Pro/ld25x/bsp_hu/MYD-LD25X-Uboot-L2022.10-V1.0.0/GEN_FIP/myir-st-optee/ta/pkcs11/src/object.c:601
    19a0:	52800015 	mov	w21, #0x0                   	// #0
/media/home/beste/01_Pro/ld25x/bsp_hu/MYD-LD25X-Uboot-L2022.10-V1.0.0/GEN_FIP/myir-st-optee/ta/pkcs11/src/object.c:614 (discriminator 1)
    19a4:	f94023e0 	ldr	x0, [sp, #64]
    19a8:	94000c15 	bl	49fc <check_access_attrs_against_token>
/media/home/beste/01_Pro/ld25x/bsp_hu/MYD-LD25X-Uboot-L2022.10-V1.0.0/GEN_FIP/myir-st-optee/ta/pkcs11/src/object.c:613 (discriminator 1)
    19ac:	340000a0 	cbz	w0, 19c0 <entry_find_objects_init+0x2c4>
/media/home/beste/01_Pro/ld25x/bsp_hu/MYD-LD25X-Uboot-L2022.10-V1.0.0/GEN_FIP/myir-st-optee/ta/pkcs11/src/object.c:617
    19b0:	35ffff15 	cbnz	w21, 1990 <entry_find_objects_init+0x294>
    19b4:	17fffff9 	b	1998 <entry_find_objects_init+0x29c>
/media/home/beste/01_Pro/ld25x/bsp_hu/MYD-LD25X-Uboot-L2022.10-V1.0.0/GEN_FIP/myir-st-optee/ta/pkcs11/src/object.c:610
    19b8:	52800035 	mov	w21, #0x1                   	// #1
    19bc:	17fffffa 	b	19a4 <entry_find_objects_init+0x2a8>
/media/home/beste/01_Pro/ld25x/bsp_hu/MYD-LD25X-Uboot-L2022.10-V1.0.0/GEN_FIP/myir-st-optee/ta/pkcs11/src/object.c:616
    19c0:	f9400ac0 	ldr	x0, [x22, #16]
    19c4:	f9402be1 	ldr	x1, [sp, #80]
    19c8:	97fffb09 	bl	5ec <attributes_match_reference>
/media/home/beste/01_Pro/ld25x/bsp_hu/MYD-LD25X-Uboot-L2022.10-V1.0.0/GEN_FIP/myir-st-optee/ta/pkcs11/src/object.c:615
    19cc:	72001c1f 	tst	w0, #0xff
    19d0:	54ffff00 	b.eq	19b0 <entry_find_objects_init+0x2b4>  // b.none
/media/home/beste/01_Pro/ld25x/bsp_hu/MYD-LD25X-Uboot-L2022.10-V1.0.0/GEN_FIP/myir-st-optee/ta/pkcs11/src/object.c:624
    19d4:	f94023e1 	ldr	x1, [sp, #64]
    19d8:	aa1603e0 	mov	x0, x22
    19dc:	97fffdb6 	bl	10b4 <pkcs11_object2handle>
    19e0:	2a0003e1 	mov	w1, w0
/media/home/beste/01_Pro/ld25x/bsp_hu/MYD-LD25X-Uboot-L2022.10-V1.0.0/GEN_FIP/myir-st-optee/ta/pkcs11/src/object.c:625
    19e4:	350000c0 	cbnz	w0, 19fc <entry_find_objects_init+0x300>
/media/home/beste/01_Pro/ld25x/bsp_hu/MYD-LD25X-Uboot-L2022.10-V1.0.0/GEN_FIP/myir-st-optee/ta/pkcs11/src/object.c:626
    19e8:	aa1603e1 	mov	x1, x22
    19ec:	aa1703e0 	mov	x0, x23
    19f0:	97fffd0c 	bl	e20 <handle_get>
    19f4:	2a0003e1 	mov	w1, w0
/media/home/beste/01_Pro/ld25x/bsp_hu/MYD-LD25X-Uboot-L2022.10-V1.0.0/GEN_FIP/myir-st-optee/ta/pkcs11/src/object.c:627
    19f8:	34000360 	cbz	w0, 1a64 <entry_find_objects_init+0x368>
/media/home/beste/01_Pro/ld25x/bsp_hu/MYD-LD25X-Uboot-L2022.10-V1.0.0/GEN_FIP/myir-st-optee/ta/pkcs11/src/object.c:633
    19fc:	aa1403e0 	mov	x0, x20
    1a00:	97fffd86 	bl	1018 <find_ctx_add>
    1a04:	2a0003f5 	mov	w21, w0
/media/home/beste/01_Pro/ld25x/bsp_hu/MYD-LD25X-Uboot-L2022.10-V1.0.0/GEN_FIP/myir-st-optee/ta/pkcs11/src/object.c:634
    1a08:	34fffc80 	cbz	w0, 1998 <entry_find_objects_init+0x29c>
    1a0c:	17ffffd4 	b	195c <entry_find_objects_init+0x260>
/media/home/beste/01_Pro/ld25x/bsp_hu/MYD-LD25X-Uboot-L2022.10-V1.0.0/GEN_FIP/myir-st-optee/ta/pkcs11/src/object.c:645
    1a10:	f9402be0 	ldr	x0, [sp, #80]
/media/home/beste/01_Pro/ld25x/bsp_hu/MYD-LD25X-Uboot-L2022.10-V1.0.0/GEN_FIP/myir-st-optee/ta/pkcs11/src/object.c:545
    1a14:	52800633 	mov	w19, #0x31                  	// #49
/media/home/beste/01_Pro/ld25x/bsp_hu/MYD-LD25X-Uboot-L2022.10-V1.0.0/GEN_FIP/myir-st-optee/ta/pkcs11/src/object.c:645
    1a18:	94003d13 	bl	10e64 <TEE_Free>
/media/home/beste/01_Pro/ld25x/bsp_hu/MYD-LD25X-Uboot-L2022.10-V1.0.0/GEN_FIP/myir-st-optee/ta/pkcs11/src/object.c:646
    1a1c:	f94027e0 	ldr	x0, [sp, #72]
    1a20:	94003d11 	bl	10e64 <TEE_Free>
release_find_obj_context():
/media/home/beste/01_Pro/ld25x/bsp_hu/MYD-LD25X-Uboot-L2022.10-V1.0.0/GEN_FIP/myir-st-optee/ta/pkcs11/src/object.c:463
    1a24:	17ffff43 	b	1730 <entry_find_objects_init+0x34>
entry_find_objects_init():
/media/home/beste/01_Pro/ld25x/bsp_hu/MYD-LD25X-Uboot-L2022.10-V1.0.0/GEN_FIP/myir-st-optee/ta/pkcs11/src/object.c:645
    1a28:	f9402be0 	ldr	x0, [sp, #80]
    1a2c:	17ffffb3 	b	18f8 <entry_find_objects_init+0x1fc>
    1a30:	f9402be0 	ldr	x0, [sp, #80]
/media/home/beste/01_Pro/ld25x/bsp_hu/MYD-LD25X-Uboot-L2022.10-V1.0.0/GEN_FIP/myir-st-optee/ta/pkcs11/src/object.c:526
    1a34:	52801213 	mov	w19, #0x90                  	// #144
/media/home/beste/01_Pro/ld25x/bsp_hu/MYD-LD25X-Uboot-L2022.10-V1.0.0/GEN_FIP/myir-st-optee/ta/pkcs11/src/object.c:645
    1a38:	94003d0b 	bl	10e64 <TEE_Free>
/media/home/beste/01_Pro/ld25x/bsp_hu/MYD-LD25X-Uboot-L2022.10-V1.0.0/GEN_FIP/myir-st-optee/ta/pkcs11/src/object.c:646
    1a3c:	f94027e0 	ldr	x0, [sp, #72]
    1a40:	94003d09 	bl	10e64 <TEE_Free>
release_find_obj_context():
/media/home/beste/01_Pro/ld25x/bsp_hu/MYD-LD25X-Uboot-L2022.10-V1.0.0/GEN_FIP/myir-st-optee/ta/pkcs11/src/object.c:463
    1a44:	17ffff3b 	b	1730 <entry_find_objects_init+0x34>
entry_find_objects_init():
/media/home/beste/01_Pro/ld25x/bsp_hu/MYD-LD25X-Uboot-L2022.10-V1.0.0/GEN_FIP/myir-st-optee/ta/pkcs11/src/object.c:645
    1a48:	f9402be0 	ldr	x0, [sp, #80]
    1a4c:	94003d06 	bl	10e64 <TEE_Free>
/media/home/beste/01_Pro/ld25x/bsp_hu/MYD-LD25X-Uboot-L2022.10-V1.0.0/GEN_FIP/myir-st-optee/ta/pkcs11/src/object.c:646
    1a50:	f94027e0 	ldr	x0, [sp, #72]
    1a54:	94003d04 	bl	10e64 <TEE_Free>
release_find_obj_context():
/media/home/beste/01_Pro/ld25x/bsp_hu/MYD-LD25X-Uboot-L2022.10-V1.0.0/GEN_FIP/myir-st-optee/ta/pkcs11/src/object.c:463
    1a58:	17ffff35 	b	172c <entry_find_objects_init+0x30>
entry_find_objects_init():
/media/home/beste/01_Pro/ld25x/bsp_hu/MYD-LD25X-Uboot-L2022.10-V1.0.0/GEN_FIP/myir-st-optee/ta/pkcs11/src/object.c:606
    1a5c:	528000b5 	mov	w21, #0x5                   	// #5
    1a60:	17ffffbf 	b	195c <entry_find_objects_init+0x260>
/media/home/beste/01_Pro/ld25x/bsp_hu/MYD-LD25X-Uboot-L2022.10-V1.0.0/GEN_FIP/myir-st-optee/ta/pkcs11/src/object.c:628
    1a64:	52800635 	mov	w21, #0x31                  	// #49
    1a68:	17ffffbd 	b	195c <entry_find_objects_init+0x260>

0000000000001a6c <entry_find_objects>:
entry_find_objects():
/media/home/beste/01_Pro/ld25x/bsp_hu/MYD-LD25X-Uboot-L2022.10-V1.0.0/GEN_FIP/myir-st-optee/ta/pkcs11/src/object.c:654
    1a6c:	a9ba7bfd 	stp	x29, x30, [sp, #-96]!
/media/home/beste/01_Pro/ld25x/bsp_hu/MYD-LD25X-Uboot-L2022.10-V1.0.0/GEN_FIP/myir-st-optee/ta/pkcs11/src/object.c:669
    1a70:	71181c3f 	cmp	w1, #0x607
    1a74:	fa400804 	ccmp	x0, #0x0, #0x4, eq	// eq = none
/media/home/beste/01_Pro/ld25x/bsp_hu/MYD-LD25X-Uboot-L2022.10-V1.0.0/GEN_FIP/myir-st-optee/ta/pkcs11/src/object.c:654
    1a78:	910003fd 	mov	x29, sp
    1a7c:	a90153f3 	stp	x19, x20, [sp, #16]
    1a80:	a9025bf5 	stp	x21, x22, [sp, #32]
    1a84:	a90363f7 	stp	x23, x24, [sp, #48]
/media/home/beste/01_Pro/ld25x/bsp_hu/MYD-LD25X-Uboot-L2022.10-V1.0.0/GEN_FIP/myir-st-optee/ta/pkcs11/src/object.c:662
    1a88:	a9047fff 	stp	xzr, xzr, [sp, #64]
    1a8c:	a9057fff 	stp	xzr, xzr, [sp, #80]
/media/home/beste/01_Pro/ld25x/bsp_hu/MYD-LD25X-Uboot-L2022.10-V1.0.0/GEN_FIP/myir-st-optee/ta/pkcs11/src/object.c:669
    1a90:	54000101 	b.ne	1ab0 <entry_find_objects+0x44>  // b.any
/media/home/beste/01_Pro/ld25x/bsp_hu/MYD-LD25X-Uboot-L2022.10-V1.0.0/GEN_FIP/myir-st-optee/ta/pkcs11/src/object.c:670
    1a94:	528000f4 	mov	w20, #0x7                   	// #7
/media/home/beste/01_Pro/ld25x/bsp_hu/MYD-LD25X-Uboot-L2022.10-V1.0.0/GEN_FIP/myir-st-optee/ta/pkcs11/src/object.c:700
    1a98:	a9425bf5 	ldp	x21, x22, [sp, #32]
    1a9c:	2a1403e0 	mov	w0, w20
    1aa0:	a94153f3 	ldp	x19, x20, [sp, #16]
    1aa4:	a94363f7 	ldp	x23, x24, [sp, #48]
    1aa8:	a8c67bfd 	ldp	x29, x30, [sp], #96
    1aac:	d65f03c0 	ret
    1ab0:	aa0203e3 	mov	x3, x2
/media/home/beste/01_Pro/ld25x/bsp_hu/MYD-LD25X-Uboot-L2022.10-V1.0.0/GEN_FIP/myir-st-optee/ta/pkcs11/src/object.c:672
    1ab4:	91008057 	add	x23, x2, #0x20
/media/home/beste/01_Pro/ld25x/bsp_hu/MYD-LD25X-Uboot-L2022.10-V1.0.0/GEN_FIP/myir-st-optee/ta/pkcs11/src/object.c:675
    1ab8:	b9400842 	ldr	w2, [x2, #8]
    1abc:	910123f5 	add	x21, sp, #0x48
    1ac0:	aa0003f3 	mov	x19, x0
/media/home/beste/01_Pro/ld25x/bsp_hu/MYD-LD25X-Uboot-L2022.10-V1.0.0/GEN_FIP/myir-st-optee/ta/pkcs11/src/object.c:672
    1ac4:	b9400af6 	ldr	w22, [x23, #8]
/media/home/beste/01_Pro/ld25x/bsp_hu/MYD-LD25X-Uboot-L2022.10-V1.0.0/GEN_FIP/myir-st-optee/ta/pkcs11/src/object.c:675
    1ac8:	f9400061 	ldr	x1, [x3]
    1acc:	aa1503e0 	mov	x0, x21
/media/home/beste/01_Pro/ld25x/bsp_hu/MYD-LD25X-Uboot-L2022.10-V1.0.0/GEN_FIP/myir-st-optee/ta/pkcs11/src/object.c:673
    1ad0:	f9401078 	ldr	x24, [x3, #32]
/media/home/beste/01_Pro/ld25x/bsp_hu/MYD-LD25X-Uboot-L2022.10-V1.0.0/GEN_FIP/myir-st-optee/ta/pkcs11/src/object.c:675
    1ad4:	94003358 	bl	e834 <serialargs_init>
/media/home/beste/01_Pro/ld25x/bsp_hu/MYD-LD25X-Uboot-L2022.10-V1.0.0/GEN_FIP/myir-st-optee/ta/pkcs11/src/object.c:677
    1ad8:	910103e2 	add	x2, sp, #0x40
    1adc:	aa1303e1 	mov	x1, x19
    1ae0:	aa1503e0 	mov	x0, x21
    1ae4:	940033fd 	bl	ead8 <serialargs_get_session_from_handle>
    1ae8:	2a0003f4 	mov	w20, w0
/media/home/beste/01_Pro/ld25x/bsp_hu/MYD-LD25X-Uboot-L2022.10-V1.0.0/GEN_FIP/myir-st-optee/ta/pkcs11/src/object.c:678
    1aec:	35fffd60 	cbnz	w0, 1a98 <entry_find_objects+0x2c>
/media/home/beste/01_Pro/ld25x/bsp_hu/MYD-LD25X-Uboot-L2022.10-V1.0.0/GEN_FIP/myir-st-optee/ta/pkcs11/src/object.c:681
    1af0:	aa1503e0 	mov	x0, x21
    1af4:	940033f3 	bl	eac0 <serialargs_remaining_bytes>
    1af8:	72001c1f 	tst	w0, #0xff
    1afc:	54fffcc1 	b.ne	1a94 <entry_find_objects+0x28>  // b.any
/media/home/beste/01_Pro/ld25x/bsp_hu/MYD-LD25X-Uboot-L2022.10-V1.0.0/GEN_FIP/myir-st-optee/ta/pkcs11/src/object.c:684
    1b00:	f94023e0 	ldr	x0, [sp, #64]
    1b04:	f9402015 	ldr	x21, [x0, #64]
/media/home/beste/01_Pro/ld25x/bsp_hu/MYD-LD25X-Uboot-L2022.10-V1.0.0/GEN_FIP/myir-st-optee/ta/pkcs11/src/object.c:686
    1b08:	b40002d5 	cbz	x21, 1b60 <entry_find_objects+0xf4>
/media/home/beste/01_Pro/ld25x/bsp_hu/MYD-LD25X-Uboot-L2022.10-V1.0.0/GEN_FIP/myir-st-optee/ta/pkcs11/src/object.c:672
    1b0c:	53027ed6 	lsr	w22, w22, #2
/media/home/beste/01_Pro/ld25x/bsp_hu/MYD-LD25X-Uboot-L2022.10-V1.0.0/GEN_FIP/myir-st-optee/ta/pkcs11/src/object.c:689
    1b10:	d2800013 	mov	x19, #0x0                   	// #0
/media/home/beste/01_Pro/ld25x/bsp_hu/MYD-LD25X-Uboot-L2022.10-V1.0.0/GEN_FIP/myir-st-optee/ta/pkcs11/src/object.c:689 (discriminator 1)
    1b14:	f94006a1 	ldr	x1, [x21, #8]
    1b18:	f9400ea0 	ldr	x0, [x21, #24]
    1b1c:	eb01001f 	cmp	x0, x1
    1b20:	54000083 	b.cc	1b30 <entry_find_objects+0xc4>  // b.lo, b.ul, b.last
/media/home/beste/01_Pro/ld25x/bsp_hu/MYD-LD25X-Uboot-L2022.10-V1.0.0/GEN_FIP/myir-st-optee/ta/pkcs11/src/object.c:695
    1b24:	531e7673 	lsl	w19, w19, #2
    1b28:	b9000af3 	str	w19, [x23, #8]
/media/home/beste/01_Pro/ld25x/bsp_hu/MYD-LD25X-Uboot-L2022.10-V1.0.0/GEN_FIP/myir-st-optee/ta/pkcs11/src/object.c:699
    1b2c:	17ffffdb 	b	1a98 <entry_find_objects+0x2c>
/media/home/beste/01_Pro/ld25x/bsp_hu/MYD-LD25X-Uboot-L2022.10-V1.0.0/GEN_FIP/myir-st-optee/ta/pkcs11/src/object.c:689 (discriminator 2)
    1b30:	eb16027f 	cmp	x19, x22
    1b34:	54ffff82 	b.cs	1b24 <entry_find_objects+0xb8>  // b.hs, b.nlast
/media/home/beste/01_Pro/ld25x/bsp_hu/MYD-LD25X-Uboot-L2022.10-V1.0.0/GEN_FIP/myir-st-optee/ta/pkcs11/src/object.c:692
    1b38:	f9400aa1 	ldr	x1, [x21, #16]
/media/home/beste/01_Pro/ld25x/bsp_hu/MYD-LD25X-Uboot-L2022.10-V1.0.0/GEN_FIP/myir-st-optee/ta/pkcs11/src/object.c:691
    1b3c:	52800082 	mov	w2, #0x4                   	// #4
    1b40:	8b000821 	add	x1, x1, x0, lsl #2
    1b44:	8b130b00 	add	x0, x24, x19, lsl #2
    1b48:	94003c5b 	bl	10cb4 <TEE_MemMove>
/media/home/beste/01_Pro/ld25x/bsp_hu/MYD-LD25X-Uboot-L2022.10-V1.0.0/GEN_FIP/myir-st-optee/ta/pkcs11/src/object.c:690
    1b4c:	91000673 	add	x19, x19, #0x1
    1b50:	f9400ea0 	ldr	x0, [x21, #24]
    1b54:	91000400 	add	x0, x0, #0x1
    1b58:	f9000ea0 	str	x0, [x21, #24]
    1b5c:	17ffffee 	b	1b14 <entry_find_objects+0xa8>
/media/home/beste/01_Pro/ld25x/bsp_hu/MYD-LD25X-Uboot-L2022.10-V1.0.0/GEN_FIP/myir-st-optee/ta/pkcs11/src/object.c:687
    1b60:	52801234 	mov	w20, #0x91                  	// #145
    1b64:	17ffffcd 	b	1a98 <entry_find_objects+0x2c>

0000000000001b68 <release_session_find_obj_context>:
release_session_find_obj_context():
/media/home/beste/01_Pro/ld25x/bsp_hu/MYD-LD25X-Uboot-L2022.10-V1.0.0/GEN_FIP/myir-st-optee/ta/pkcs11/src/object.c:703
    1b68:	a9be7bfd 	stp	x29, x30, [sp, #-32]!
    1b6c:	910003fd 	mov	x29, sp
    1b70:	a90153f3 	stp	x19, x20, [sp, #16]
    1b74:	aa0003f3 	mov	x19, x0
/media/home/beste/01_Pro/ld25x/bsp_hu/MYD-LD25X-Uboot-L2022.10-V1.0.0/GEN_FIP/myir-st-optee/ta/pkcs11/src/object.c:704
    1b78:	f9402014 	ldr	x20, [x0, #64]
release_find_obj_context():
/media/home/beste/01_Pro/ld25x/bsp_hu/MYD-LD25X-Uboot-L2022.10-V1.0.0/GEN_FIP/myir-st-optee/ta/pkcs11/src/object.c:463
    1b7c:	b40000f4 	cbz	x20, 1b98 <release_session_find_obj_context+0x30>
/media/home/beste/01_Pro/ld25x/bsp_hu/MYD-LD25X-Uboot-L2022.10-V1.0.0/GEN_FIP/myir-st-optee/ta/pkcs11/src/object.c:466
    1b80:	f9400280 	ldr	x0, [x20]
    1b84:	94003cb8 	bl	10e64 <TEE_Free>
/media/home/beste/01_Pro/ld25x/bsp_hu/MYD-LD25X-Uboot-L2022.10-V1.0.0/GEN_FIP/myir-st-optee/ta/pkcs11/src/object.c:467
    1b88:	f9400a80 	ldr	x0, [x20, #16]
    1b8c:	94003cb6 	bl	10e64 <TEE_Free>
/media/home/beste/01_Pro/ld25x/bsp_hu/MYD-LD25X-Uboot-L2022.10-V1.0.0/GEN_FIP/myir-st-optee/ta/pkcs11/src/object.c:468
    1b90:	aa1403e0 	mov	x0, x20
    1b94:	94003cb4 	bl	10e64 <TEE_Free>
release_session_find_obj_context():
/media/home/beste/01_Pro/ld25x/bsp_hu/MYD-LD25X-Uboot-L2022.10-V1.0.0/GEN_FIP/myir-st-optee/ta/pkcs11/src/object.c:705
    1b98:	f900227f 	str	xzr, [x19, #64]
/media/home/beste/01_Pro/ld25x/bsp_hu/MYD-LD25X-Uboot-L2022.10-V1.0.0/GEN_FIP/myir-st-optee/ta/pkcs11/src/object.c:706
    1b9c:	a94153f3 	ldp	x19, x20, [sp, #16]
    1ba0:	a8c27bfd 	ldp	x29, x30, [sp], #32
    1ba4:	d65f03c0 	ret

0000000000001ba8 <entry_find_objects_final>:
entry_find_objects_final():
/media/home/beste/01_Pro/ld25x/bsp_hu/MYD-LD25X-Uboot-L2022.10-V1.0.0/GEN_FIP/myir-st-optee/ta/pkcs11/src/object.c:710
    1ba8:	a9bc7bfd 	stp	x29, x30, [sp, #-64]!
/media/home/beste/01_Pro/ld25x/bsp_hu/MYD-LD25X-Uboot-L2022.10-V1.0.0/GEN_FIP/myir-st-optee/ta/pkcs11/src/object.c:720
    1bac:	f100001f 	cmp	x0, #0x0
    1bb0:	7a471820 	ccmp	w1, #0x7, #0x0, ne	// ne = any
/media/home/beste/01_Pro/ld25x/bsp_hu/MYD-LD25X-Uboot-L2022.10-V1.0.0/GEN_FIP/myir-st-optee/ta/pkcs11/src/object.c:710
    1bb4:	910003fd 	mov	x29, sp
    1bb8:	a90153f3 	stp	x19, x20, [sp, #16]
    1bbc:	aa0003f3 	mov	x19, x0
/media/home/beste/01_Pro/ld25x/bsp_hu/MYD-LD25X-Uboot-L2022.10-V1.0.0/GEN_FIP/myir-st-optee/ta/pkcs11/src/object.c:717
    1bc0:	a9027fff 	stp	xzr, xzr, [sp, #32]
    1bc4:	a9037fff 	stp	xzr, xzr, [sp, #48]
/media/home/beste/01_Pro/ld25x/bsp_hu/MYD-LD25X-Uboot-L2022.10-V1.0.0/GEN_FIP/myir-st-optee/ta/pkcs11/src/object.c:720
    1bc8:	540000c0 	b.eq	1be0 <entry_find_objects_final+0x38>  // b.none
/media/home/beste/01_Pro/ld25x/bsp_hu/MYD-LD25X-Uboot-L2022.10-V1.0.0/GEN_FIP/myir-st-optee/ta/pkcs11/src/object.c:721
    1bcc:	528000f3 	mov	w19, #0x7                   	// #7
/media/home/beste/01_Pro/ld25x/bsp_hu/MYD-LD25X-Uboot-L2022.10-V1.0.0/GEN_FIP/myir-st-optee/ta/pkcs11/src/object.c:738
    1bd0:	2a1303e0 	mov	w0, w19
    1bd4:	a94153f3 	ldp	x19, x20, [sp, #16]
    1bd8:	a8c47bfd 	ldp	x29, x30, [sp], #64
    1bdc:	d65f03c0 	ret
    1be0:	aa0203e0 	mov	x0, x2
/media/home/beste/01_Pro/ld25x/bsp_hu/MYD-LD25X-Uboot-L2022.10-V1.0.0/GEN_FIP/myir-st-optee/ta/pkcs11/src/object.c:723
    1be4:	b9400842 	ldr	w2, [x2, #8]
    1be8:	9100a3f4 	add	x20, sp, #0x28
    1bec:	f9400001 	ldr	x1, [x0]
    1bf0:	aa1403e0 	mov	x0, x20
    1bf4:	94003310 	bl	e834 <serialargs_init>
/media/home/beste/01_Pro/ld25x/bsp_hu/MYD-LD25X-Uboot-L2022.10-V1.0.0/GEN_FIP/myir-st-optee/ta/pkcs11/src/object.c:725
    1bf8:	aa1303e1 	mov	x1, x19
    1bfc:	910083e2 	add	x2, sp, #0x20
    1c00:	aa1403e0 	mov	x0, x20
    1c04:	940033b5 	bl	ead8 <serialargs_get_session_from_handle>
    1c08:	2a0003f3 	mov	w19, w0
/media/home/beste/01_Pro/ld25x/bsp_hu/MYD-LD25X-Uboot-L2022.10-V1.0.0/GEN_FIP/myir-st-optee/ta/pkcs11/src/object.c:726
    1c0c:	35fffe20 	cbnz	w0, 1bd0 <entry_find_objects_final+0x28>
/media/home/beste/01_Pro/ld25x/bsp_hu/MYD-LD25X-Uboot-L2022.10-V1.0.0/GEN_FIP/myir-st-optee/ta/pkcs11/src/object.c:729
    1c10:	aa1403e0 	mov	x0, x20
    1c14:	940033ab 	bl	eac0 <serialargs_remaining_bytes>
    1c18:	72001c1f 	tst	w0, #0xff
    1c1c:	54fffd81 	b.ne	1bcc <entry_find_objects_final+0x24>  // b.any
/media/home/beste/01_Pro/ld25x/bsp_hu/MYD-LD25X-Uboot-L2022.10-V1.0.0/GEN_FIP/myir-st-optee/ta/pkcs11/src/object.c:732
    1c20:	f94013e0 	ldr	x0, [sp, #32]
    1c24:	f9402001 	ldr	x1, [x0, #64]
    1c28:	b4000061 	cbz	x1, 1c34 <entry_find_objects_final+0x8c>
/media/home/beste/01_Pro/ld25x/bsp_hu/MYD-LD25X-Uboot-L2022.10-V1.0.0/GEN_FIP/myir-st-optee/ta/pkcs11/src/object.c:735
    1c2c:	97ffffcf 	bl	1b68 <release_session_find_obj_context>
/media/home/beste/01_Pro/ld25x/bsp_hu/MYD-LD25X-Uboot-L2022.10-V1.0.0/GEN_FIP/myir-st-optee/ta/pkcs11/src/object.c:737
    1c30:	17ffffe8 	b	1bd0 <entry_find_objects_final+0x28>
/media/home/beste/01_Pro/ld25x/bsp_hu/MYD-LD25X-Uboot-L2022.10-V1.0.0/GEN_FIP/myir-st-optee/ta/pkcs11/src/object.c:733
    1c34:	52801233 	mov	w19, #0x91                  	// #145
    1c38:	17ffffe6 	b	1bd0 <entry_find_objects_final+0x28>

0000000000001c3c <entry_get_attribute_value>:
entry_get_attribute_value():
/media/home/beste/01_Pro/ld25x/bsp_hu/MYD-LD25X-Uboot-L2022.10-V1.0.0/GEN_FIP/myir-st-optee/ta/pkcs11/src/object.c:742
    1c3c:	a9b57bfd 	stp	x29, x30, [sp, #-176]!
/media/home/beste/01_Pro/ld25x/bsp_hu/MYD-LD25X-Uboot-L2022.10-V1.0.0/GEN_FIP/myir-st-optee/ta/pkcs11/src/object.c:762
    1c40:	71181c3f 	cmp	w1, #0x607
    1c44:	fa400804 	ccmp	x0, #0x0, #0x4, eq	// eq = none
/media/home/beste/01_Pro/ld25x/bsp_hu/MYD-LD25X-Uboot-L2022.10-V1.0.0/GEN_FIP/myir-st-optee/ta/pkcs11/src/object.c:742
    1c48:	910003fd 	mov	x29, sp
    1c4c:	a90153f3 	stp	x19, x20, [sp, #16]
    1c50:	a9025bf5 	stp	x21, x22, [sp, #32]
    1c54:	a90363f7 	stp	x23, x24, [sp, #48]
    1c58:	a9046bf9 	stp	x25, x26, [sp, #64]
    1c5c:	a90573fb 	stp	x27, x28, [sp, #80]
/media/home/beste/01_Pro/ld25x/bsp_hu/MYD-LD25X-Uboot-L2022.10-V1.0.0/GEN_FIP/myir-st-optee/ta/pkcs11/src/object.c:754
    1c60:	b9007fff 	str	wzr, [sp, #124]
/media/home/beste/01_Pro/ld25x/bsp_hu/MYD-LD25X-Uboot-L2022.10-V1.0.0/GEN_FIP/myir-st-optee/ta/pkcs11/src/object.c:752
    1c64:	a9087fff 	stp	xzr, xzr, [sp, #128]
/media/home/beste/01_Pro/ld25x/bsp_hu/MYD-LD25X-Uboot-L2022.10-V1.0.0/GEN_FIP/myir-st-optee/ta/pkcs11/src/object.c:750
    1c68:	a909ffff 	stp	xzr, xzr, [sp, #152]
    1c6c:	f90057ff 	str	xzr, [sp, #168]
/media/home/beste/01_Pro/ld25x/bsp_hu/MYD-LD25X-Uboot-L2022.10-V1.0.0/GEN_FIP/myir-st-optee/ta/pkcs11/src/object.c:762
    1c70:	54001060 	b.eq	1e7c <entry_get_attribute_value+0x240>  // b.none
    1c74:	aa0203f5 	mov	x21, x2
/media/home/beste/01_Pro/ld25x/bsp_hu/MYD-LD25X-Uboot-L2022.10-V1.0.0/GEN_FIP/myir-st-optee/ta/pkcs11/src/object.c:765
    1c78:	b9400842 	ldr	w2, [x2, #8]
    1c7c:	910263f4 	add	x20, sp, #0x98
    1c80:	aa0003f3 	mov	x19, x0
    1c84:	aa1403e0 	mov	x0, x20
