
../build/myb-stm32mp257x-2GB-ca35tdcid-ostl/ta/avb/023f8f1a-292a-432b-8fc4-de8471358067.elf:     file format elf64-littleaarch64
../build/myb-stm32mp257x-2GB-ca35tdcid-ostl/ta/avb/023f8f1a-292a-432b-8fc4-de8471358067.elf
architecture: aarch64, flags 0x00000150:
HAS_SYMS, DYNAMIC, D_PAGED
start address 0x00000000000006ec

Program Header:
    LOAD off    0x0000000000001000 vaddr 0x0000000000000000 paddr 0x0000000000000000 align 2**12
         filesz 0x0000000000013680 memsz 0x0000000000013680 flags r-x
    LOAD off    0x0000000000015000 vaddr 0x0000000000014000 paddr 0x0000000000014000 align 2**12
         filesz 0x000000000000057c memsz 0x0000000000007618 flags rw-
 DYNAMIC off    0x0000000000015000 vaddr 0x0000000000014000 paddr 0x0000000000014000 align 2**3
         filesz 0x0000000000000110 memsz 0x0000000000000110 flags rw-
   STACK off    0x0000000000000000 vaddr 0x0000000000000000 paddr 0x0000000000000000 align 2**4
         filesz 0x0000000000000000 memsz 0x0000000000000000 flags rw-

Dynamic Section:
  HASH                 0x0000000000013368
  GNU_HASH             0x0000000000013278
  STRTAB               0x0000000000013338
  SYMTAB               0x00000000000132a8
  STRSZ                0x000000000000002e
  SYMENT               0x0000000000000018
  DEBUG                0x0000000000000000
  RELA                 0x0000000000013398
  RELASZ               0x0000000000000498
  RELAENT              0x0000000000000018
  FLAGS_1              0x0000000008000000
  RELACOUNT            0x000000000000001f
private flags = 0x0:

Sections:
Idx Name          Size      VMA               LMA               File off  Algn
  0 .ta_head      00000020  0000000000000000  0000000000000000  00001000  2**3
                  CONTENTS, ALLOC, LOAD, READONLY, DATA
  1 .text         0000eee8  0000000000000020  0000000000000020  00001020  2**4
                  CONTENTS, ALLOC, LOAD, READONLY, CODE
  2 .eh_frame     00002fd4  000000000000ef08  000000000000ef08  0000ff08  2**3
                  CONTENTS, ALLOC, LOAD, READONLY, DATA
  3 .rodata       00001392  0000000000011ee0  0000000000011ee0  00012ee0  2**3
                  CONTENTS, ALLOC, LOAD, READONLY, DATA
  4 .gnu.hash     00000030  0000000000013278  0000000000013278  00014278  2**3
                  CONTENTS, ALLOC, LOAD, READONLY, DATA
  5 .dynsym       00000090  00000000000132a8  00000000000132a8  000142a8  2**3
                  CONTENTS, ALLOC, LOAD, READONLY, DATA
  6 .dynstr       0000002e  0000000000013338  0000000000013338  00014338  2**0
                  CONTENTS, ALLOC, LOAD, READONLY, DATA
  7 .hash         0000002c  0000000000013368  0000000000013368  00014368  2**3
                  CONTENTS, ALLOC, LOAD, READONLY, DATA
  8 .rela.dyn     000002e8  0000000000013398  0000000000013398  00014398  2**3
                  CONTENTS, ALLOC, LOAD, READONLY, DATA
  9 .dynamic      00000110  0000000000014000  0000000000014000  00015000  2**3
                  CONTENTS, ALLOC, LOAD, DATA
 10 .got          000000b0  0000000000014110  0000000000014110  00015110  2**3
                  CONTENTS, ALLOC, LOAD, DATA
 11 .rela.got     000001b0  00000000000141c0  00000000000141c0  000151c0  2**3
                  CONTENTS, ALLOC, LOAD, READONLY, DATA
 12 .data         0000020c  0000000000014370  0000000000014370  00015370  2**3
                  CONTENTS, ALLOC, LOAD, DATA
 13 .bss          00007098  0000000000014580  0000000000014580  0001557c  2**3
                  ALLOC
 14 .debug_info   0001d4fa  0000000000000000  0000000000000000  0001557c  2**0
                  CONTENTS, READONLY, DEBUGGING, OCTETS
 15 .debug_abbrev 00004939  0000000000000000  0000000000000000  00032a76  2**0
                  CONTENTS, READONLY, DEBUGGING, OCTETS
 16 .debug_loclists 000123f9  0000000000000000  0000000000000000  000373af  2**0
                  CONTENTS, READONLY, DEBUGGING, OCTETS
 17 .debug_aranges 00000980  0000000000000000  0000000000000000  000497b0  2**4
                  CONTENTS, READONLY, DEBUGGING, OCTETS
 18 .debug_rnglists 000009da  0000000000000000  0000000000000000  0004a130  2**0
                  CONTENTS, READONLY, DEBUGGING, OCTETS
 19 .debug_macro  00019006  0000000000000000  0000000000000000  0004ab0a  2**0
                  CONTENTS, READONLY, DEBUGGING, OCTETS
 20 .debug_line   0000e181  0000000000000000  0000000000000000  00063b10  2**0
                  CONTENTS, READONLY, DEBUGGING, OCTETS
 21 .debug_str    0001ad9a  0000000000000000  0000000000000000  00071c91  2**0
                  CONTENTS, READONLY, DEBUGGING, OCTETS
 22 .debug_line_str 00000aa8  0000000000000000  0000000000000000  0008ca2b  2**0
                  CONTENTS, READONLY, DEBUGGING, OCTETS
 23 .comment      00000012  0000000000000000  0000000000000000  0008d4d3  2**0
                  CONTENTS, READONLY
SYMBOL TABLE:
0000000000000000 l    d  .ta_head	0000000000000000 .ta_head
0000000000000020 l    d  .text	0000000000000000 .text
000000000000ef08 l    d  .eh_frame	0000000000000000 .eh_frame
0000000000011ee0 l    d  .rodata	0000000000000000 .rodata
0000000000013278 l    d  .gnu.hash	0000000000000000 .gnu.hash
00000000000132a8 l    d  .dynsym	0000000000000000 .dynsym
0000000000013338 l    d  .dynstr	0000000000000000 .dynstr
0000000000013368 l    d  .hash	0000000000000000 .hash
0000000000013398 l    d  .rela.dyn	0000000000000000 .rela.dyn
0000000000014000 l    d  .dynamic	0000000000000000 .dynamic
0000000000014110 l    d  .got	0000000000000000 .got
00000000000141c0 l    d  .rela.got	0000000000000000 .rela.got
0000000000014370 l    d  .data	0000000000000000 .data
0000000000014580 l    d  .bss	0000000000000000 .bss
0000000000000000 l    d  .debug_info	0000000000000000 .debug_info
0000000000000000 l    d  .debug_abbrev	0000000000000000 .debug_abbrev
0000000000000000 l    d  .debug_loclists	0000000000000000 .debug_loclists
0000000000000000 l    d  .debug_aranges	0000000000000000 .debug_aranges
0000000000000000 l    d  .debug_rnglists	0000000000000000 .debug_rnglists
0000000000000000 l    d  .debug_macro	0000000000000000 .debug_macro
0000000000000000 l    d  .debug_line	0000000000000000 .debug_line
0000000000000000 l    d  .debug_str	0000000000000000 .debug_str
0000000000000000 l    d  .debug_line_str	0000000000000000 .debug_line_str
0000000000000000 l    d  .comment	0000000000000000 .comment
0000000000000000 l    df *ABS*	0000000000000000 user_ta_header.c
0000000000011ee8 l     O .rodata	0000000000000004 __compound_literal.4
0000000000011eec l     O .rodata	0000000000000004 __compound_literal.3
0000000000011ef0 l     O .rodata	0000000000000001 __compound_literal.2
0000000000011ef1 l     O .rodata	0000000000000001 __compound_literal.1
0000000000011ef2 l     O .rodata	0000000000000001 __compound_literal.0
0000000000000000 l    df *ABS*	0000000000000000 memcpy.c
0000000000000000 l    df *ABS*	0000000000000000 entry.c
00000000000000f8 l     F .text	000000000000007c open_rb_state
0000000000000174 l     F .text	0000000000000078 get_named_object_name.constprop.0
000000000001237e l     O .rodata	0000000000000009 rb_obj_name
0000000000012387 l     O .rodata	0000000000000013 __func__.1
000000000001239a l     O .rodata	0000000000000014 __func__.0
00000000000123ae l     O .rodata	000000000000001b __func__.2
0000000000000000 l    df *ABS*	0000000000000000 trace.c
0000000000012491 l     O .rodata	0000000000000005 lvl_strs.0
0000000000000000 l    df *ABS*	0000000000000000 snprintk.c
0000000000000af4 l     F .text	0000000000000be4 kprintf.constprop.0
0000000000011fa6 l     O .rodata	0000000000000011 hexdigits
0000000000011fb7 l     O .rodata	0000000000000011 HEXDIGITS
0000000000000000 l    df *ABS*	0000000000000000 memchr.c
0000000000000000 l    df *ABS*	0000000000000000 strlen.c
0000000000000000 l    df *ABS*	0000000000000000 trace_ext.c
0000000000000000 l    df *ABS*	0000000000000000 tee_api.c
00000000000018e0 l     F .text	00000000000000a8 update_out_param
0000000000001a48 l     F .text	00000000000001c0 copy_param
00000000000124df l     O .rodata	000000000000000b __func__.0
0000000000014580 l     O .bss	0000000000000008 tee_api_instance_data
0000000000000000 l    df *ABS*	0000000000000000 tee_api_objects.c
0000000000000000 l    df *ABS*	0000000000000000 tee_api_panic.c
0000000000002e48 l     F .text	000000000000001c check_access
0000000000002e6c l     F .text	0000000000000008 check_res.part.0
0000000000002e74 l     F .text	000000000000005c __utee_check_outbuf_annotation.localalias
0000000000000000 l    df *ABS*	0000000000000000 tee_system_pta.c
0000000000002f9c l     F .text	0000000000000084 invoke_system_pta
0000000000011fc8 l     O .rodata	0000000000000010 uuid.2
0000000000011fd8 l     O .rodata	000000000000000a __func__.1
0000000000011fe2 l     O .rodata	0000000000000017 __func__.0
0000000000014588 l     O .bss	0000000000000008 sess.3
0000000000000000 l    df *ABS*	0000000000000000 utee_syscalls_a64.o
0000000000000000 l    df *ABS*	0000000000000000 user_ta_entry.c
0000000000003488 l     F .text	00000000000000b0 _get_fn_array
0000000000003538 l     F .text	000000000000005c _fini_iterate_phdr_cb
0000000000003594 l     F .text	0000000000000028 ta_header_get_session
00000000000035bc l     F .text	0000000000000070 to_utee_params
000000000000362c l     F .text	0000000000000060 from_utee_params
000000000000368c l     F .text	0000000000000094 _init_iterate_phdr_cb
0000000000003850 l     F .text	0000000000000094 ta_header_remove_session
000000000001258e l     O .rodata	0000000000000016 __func__.0
0000000000014590 l     O .bss	0000000000000008 _num_mod_init
0000000000014598 l     O .bss	0000000000000001 init_done
0000000000014418 l     O .data	0000000000000010 ta_sessions
0000000000014428 l     O .data	0000000000000010 __phdr_info_head
0000000000000000 l    df *ABS*	0000000000000000 abort.c
0000000000000000 l    df *ABS*	0000000000000000 tee_api_arith_mpi.c
0000000000003b30 l     F .text	0000000000000030 api_panic
0000000000003b60 l     F .text	0000000000000030 mpi_panic
0000000000003b90 l     F .text	0000000000000098 get_mpi
0000000000003c28 l     F .text	0000000000000068 copy_mpi_to_bigint
0000000000003c90 l     F .text	0000000000000120 bigint_binary
0000000000003db0 l     F .text	0000000000000020 mpi_is_odd
0000000000003dd0 l     F .text	0000000000000028 rng_read
0000000000003df8 l     F .text	0000000000000540 mpi_egcd
00000000000145f8 l     O .bss	0000000000003000 data.17
00000000000046d0 l     F .text	00000000000001a4 bigint_binary_mod
0000000000012662 l     O .rodata	0000000000000008 __func__.14
000000000001266a l     O .rodata	000000000000000e __func__.10
0000000000012678 l     O .rodata	0000000000000009 __func__.2
0000000000012681 l     O .rodata	0000000000000012 __func__.16
0000000000012693 l     O .rodata	000000000000000f __func__.15
00000000000126a2 l     O .rodata	000000000000001f __func__.13
00000000000126c1 l     O .rodata	0000000000000019 __func__.12
00000000000126da l     O .rodata	0000000000000012 __func__.6
00000000000126ec l     O .rodata	0000000000000015 __func__.11
0000000000012701 l     O .rodata	000000000000000e __func__.9
000000000001270f l     O .rodata	000000000000000e __func__.8
000000000001271d l     O .rodata	000000000000000e __func__.7
000000000001272b l     O .rodata	0000000000000011 __func__.5
000000000001273c l     O .rodata	0000000000000018 __func__.4
0000000000012754 l     O .rodata	000000000000001d __func__.3
0000000000012771 l     O .rodata	0000000000000019 __func__.1
000000000001278a l     O .rodata	0000000000000015 __func__.0
0000000000000000 l    df *ABS*	0000000000000000 tee_api_property.c
0000000000005494 l     F .text	000000000000006c propset_get
0000000000005500 l     F .text	000000000000002c is_propset_pseudo_handle
000000000000552c l     F .text	0000000000000114 propget_get_ext_prop
0000000000005640 l     F .text	0000000000000194 propget_get_property
0000000000011ffc l     O .rodata	0000000000000004 __compound_literal.3
0000000000012000 l     O .rodata	0000000000000004 __compound_literal.2
0000000000012004 l     O .rodata	0000000000000004 __compound_literal.1
0000000000012008 l     O .rodata	0000000000000004 __compound_literal.0
0000000000000000 l    df *ABS*	0000000000000000 tcb.c
00000000000128cc l     O .rodata	0000000000000010 __func__.1
00000000000128dc l     O .rodata	0000000000000010 __func__.0
00000000000175f8 l     O .bss	0000000000000008 _tls_size
0000000000017600 l     O .bss	0000000000000008 _tcb
0000000000000000 l    df *ABS*	0000000000000000 assert.c
0000000000000000 l    df *ABS*	0000000000000000 base64.c
0000000000012913 l     O .rodata	0000000000000041 base64_table
0000000000000000 l    df *ABS*	0000000000000000 bignum.c
000000000000659c l     F .text	0000000000000058 mpi_get_digit
00000000000065f4 l     F .text	000000000000040c mpi_mul_hlp
0000000000006a00 l     F .text	0000000000000148 mpi_montmul
0000000000006b48 l     F .text	0000000000000040 mpi_montred
0000000000006b88 l     F .text	0000000000000038 mpi_montg_init.isra.0
0000000000006bc0 l     F .text	0000000000000074 mpi_bigendian_to_host.part.0
0000000000006c34 l     F .text	00000000000000c0 mpi_fill_random_internal
0000000000006e84 l     F .text	000000000000006c mbedtls_mpi_resize_clear
00000000000089c4 l     F .text	0000000000000094 mpi_check_small_factors
00000000000092d0 l     F .text	0000000000000270 mpi_miller_rabin
000000000001200c l     O .rodata	00000000000002a0 small_prime
00000000000122ac l     O .rodata	0000000000000024 gcd_pairs
0000000000000000 l    df *ABS*	0000000000000000 constant_time.c
000000000000a2c8 l     F .text	0000000000000020 mbedtls_ct_uchar_mask_of_range
0000000000000000 l    df *ABS*	0000000000000000 platform_util.c
00000000000144b0 l     O .data	0000000000000008 memset_func
0000000000000000 l    df *ABS*	0000000000000000 bget_malloc.c
000000000000aaa0 l     F .text	0000000000000024 myrand
000000000000aac4 l     F .text	0000000000000010 _assert_trap
000000000000aad4 l     F .text	0000000000000028 bget_buf_size.part.0
000000000000b374 l     F .text	0000000000000058 stats.constprop.0
000000000000b9cc l     F .text	00000000000000d4 gen_malloc_add_pool
0000000000013153 l     O .rodata	000000000000000e __func__.2
0000000000013161 l     O .rodata	0000000000000005 __func__.9
0000000000013166 l     O .rodata	0000000000000006 __func__.8
000000000001316c l     O .rodata	0000000000000005 __func__.6
0000000000013171 l     O .rodata	0000000000000006 __func__.7
0000000000013177 l     O .rodata	0000000000000006 __func__.5
000000000001317d l     O .rodata	0000000000000007 __func__.4
0000000000013184 l     O .rodata	000000000000000f __func__.3
0000000000013193 l     O .rodata	0000000000000003 CSWTCH.112
0000000000013196 l     O .rodata	0000000000000014 __func__.1
00000000000131aa l     O .rodata	0000000000000013 __func__.0
00000000000144b8 l     O .data	0000000000000008 next
0000000000017610 l     O .bss	0000000000000008 bchain
00000000000144c0 l     O .data	0000000000000038 mypoolset
00000000000144f8 l     O .data	0000000000000080 malloc_ctx
0000000000000000 l    df *ABS*	0000000000000000 snprintf.c
0000000000000000 l    df *ABS*	0000000000000000 memmove.c
0000000000000000 l    df *ABS*	0000000000000000 memset.c
0000000000000000 l    df *ABS*	0000000000000000 strcmp.c
0000000000000000 l    df *ABS*	0000000000000000 strlcpy.c
0000000000000000 l    df *ABS*	0000000000000000 mempool.c
0000000000013246 l     O .rodata	0000000000000013 __func__.2
0000000000013259 l     O .rodata	000000000000000b __func__.1
0000000000013264 l     O .rodata	000000000000000e __func__.0
0000000000000000 l    df *ABS*	0000000000000000 consttime_memcmp.c
0000000000000000 l    df *ABS*	0000000000000000 tee_api_operations.c
000000000000c118 l     F .text	0000000000000068 __tee_alg_get_main_alg
000000000000c180 l     F .text	000000000000021c tee_buffer_update
0000000000000000 l    df *ABS*	0000000000000000 
0000000000014000 l     O *ABS*	0000000000000000 _DYNAMIC
0000000000014128 l     O *ABS*	0000000000000000 _GLOBAL_OFFSET_TABLE_
00000000000018a4 g     F .text	000000000000003c putchar
00000000000024e4 g     F .text	00000000000000d0 TEE_PopulateTransientObject
00000000000052e0 g     F .text	0000000000000004 TEE_BigIntConvertToFMM
0000000000004e40 g     F .text	000000000000000c TEE_BigIntSquareMod
0000000000004874 g     F .text	000000000000016c TEE_BigIntShiftRight
000000000000bb8c g     F .text	0000000000000004 raw_malloc_add_pool
0000000000003124 g     F .text	00000000000000b8 tee_invoke_supp_plugin
0000000000006d98 g     F .text	00000000000000ec mbedtls_mpi_grow
000000000000d5c4 g     F .text	0000000000000070 TEE_DigestUpdate
0000000000001ff8 g     F .text	0000000000000030 TEE_Realloc
000000000000d2c8 g     F .text	00000000000001bc TEE_SetOperationKey2
0000000000002f70 g     F .text	000000000000002c __utee_check_inout_annotation
000000000000b7b8 g     F .text	0000000000000010 raw_free
000000000000179c g     F .text	00000000000000c8 printf
00000000000025b4 g     F .text	0000000000000050 TEE_InitRefAttribute
00000000000031f4 g     F .text	000000000000000c _utee_log
0000000000001cfc g     F .text	0000000000000124 TEE_InvokeTACommand
0000000000002e74 g     F .text	000000000000005c __utee_check_outbuf_annotation
0000000000006d04 g     F .text	0000000000000028 mbedtls_mpi_init_mempool
0000000000003374 g     F .text	000000000000000c _utee_cryp_random_number_generate
00000000000074e8 g     F .text	00000000000000c4 mbedtls_mpi_write_binary
000000000000e124 g     F .text	00000000000001bc TEE_AEEncryptFinal
0000000000000a28 g     F .text	0000000000000058 vsnprintk
0000000000007d10 g     F .text	0000000000000044 mbedtls_mpi_sub_int
000000000000be4c g     F .text	0000000000000058 memmove
000000000000bd7c g     F .text	0000000000000078 snprintf
0000000000004688 g     F .text	0000000000000048 TEE_BigIntCmpS32
000000000000a814 g     F .text	000000000000026c mbedtls_ct_rsaes_pkcs1_v15_unpadding
0000000000002604 g     F .text	000000000000004c TEE_InitValueAttribute
0000000000006ef0 g     F .text	0000000000000118 mbedtls_mpi_shrink
0000000000004a6c g     F .text	000000000000000c TEE_BigIntAdd
0000000000003314 g     F .text	000000000000000c _utee_cryp_obj_restrict_usage
0000000000011ef8 g     O .rodata	0000000000000008 ta_heap_size
0000000000002490 g     F .text	0000000000000054 TEE_ResetTransientObject
00000000000033bc g     F .text	000000000000000c _utee_asymm_operate
0000000000006338 g     F .text	0000000000000018 _base64_enc_len
0000000000007f70 g     F .text	00000000000001d8 mbedtls_mpi_read_string
000000000000d718 g     F .text	00000000000000e0 TEE_CipherInit
0000000000004a84 g     F .text	00000000000000b0 TEE_BigIntNeg
0000000000003410 g     F .text	000000000000000c _utee_storage_free_enum
0000000000000020 g       .text	0000000000000000 __text_start
0000000000005ee8 g     F .text	00000000000000ac TEE_GetNextProperty
0000000000002af8 g     F .text	0000000000000050 TEE_StartPersistentObjectEnumerator
00000000000076bc g     F .text	00000000000000c0 mbedtls_mpi_shift_r
000000000000bd18 g     F .text	0000000000000064 malloc_buffer_overlaps_heap
00000000000032c0 g     F .text	000000000000000c _utee_hash_init
0000000000004e28 g     F .text	000000000000000c TEE_BigIntSubMod
0000000000009b9c g     F .text	0000000000000310 mbedtls_mpi_gen_prime
0000000000005b68 g     F .text	00000000000000b4 TEE_GetPropertyAsBinaryBlock
00000000000071a0 g     F .text	000000000000002c mbedtls_mpi_get_bit
00000000000073ac g     F .text	0000000000000084 mbedtls_mpi_read_binary
000000000000de5c g     F .text	00000000000000d0 TEE_AEInit
0000000000000924 g     F .text	0000000000000070 trace_printf
0000000000008a60 g     F .text	0000000000000004 mbedtls_mpi_montmul
000000000000347c g     F .text	000000000000000c _utee_cache_operation
0000000000000020 g     F .text	00000000000000d8 memcpy
00000000000052e4 g     F .text	000000000000009c TEE_BigIntConvertFromFMM
0000000000002e64 g     F .text	0000000000000008 TEE_Panic
000000000000d484 g     F .text	0000000000000140 TEE_CopyOperation
0000000000001864 g     F .text	0000000000000040 puts
0000000000005380 g     F .text	0000000000000114 TEE_BigIntComputeFMM
000000000000b6b8 g     F .text	000000000000003c malloc_get_stats
0000000000001f58 g     F .text	0000000000000028 TEE_GetREETime
000000000000bb90 g     F .text	000000000000003c raw_malloc_get_stats
0000000000002a4c g     F .text	000000000000005c TEE_AllocatePersistentObjectEnumerator
0000000000014370 g     O .data	00000000000000a8 ta_props
000000000000e478 g     F .text	0000000000000140 TEE_AsymmetricEncrypt
0000000000002ed0 g     F .text	0000000000000040 __utee_check_instring_annotation
000000000000baa0 g     F .text	000000000000001c malloc
0000000000005dd8 g     F .text	0000000000000004 TEE_FreePropertyEnumerator
000000000000a340 g     F .text	0000000000000010 mbedtls_ct_mpi_uint_mask
0000000000002750 g     F .text	00000000000000a0 TEE_GenerateKey
000000000000bdf4 g     F .text	0000000000000058 vsnprintf
0000000000014578 g     O .data	0000000000000004 trace_level
0000000000004620 g     F .text	0000000000000068 TEE_BigIntCmp
0000000000011ee0 g     O .rodata	0000000000000008 ta_num_props
000000000000b134 g     F .text	00000000000000dc bgetr
00000000000033d4 g     F .text	000000000000000c _utee_storage_obj_open
000000000000c094 g     F .text	0000000000000014 mempool_free
000000000000d7f8 g     F .text	0000000000000168 TEE_CipherUpdate
00000000000032cc g     F .text	000000000000000c _utee_hash_update
0000000000004480 g     F .text	0000000000000094 TEE_BigIntConvertToOctetString
000000000000cfc8 g     F .text	0000000000000180 TEE_GetOperationInfoMultiple
00000000000072b8 g     F .text	0000000000000060 mbedtls_mpi_bitlen
00000000000049e0 g     F .text	000000000000004c TEE_BigIntGetBit
0000000000011f00 g     O .rodata	0000000000000003 trace_ext_prefix
0000000000003434 g     F .text	000000000000000c _utee_storage_next_enum
000000000000b7a8 g     F .text	0000000000000010 raw_malloc
000000000000adf4 g     F .text	0000000000000088 bgetz
000000000000a350 g     F .text	0000000000000018 mbedtls_ct_size_bool_eq
0000000000001e2c g     F .text	000000000000000c TEE_GetInstanceData
0000000000001e78 g     F .text	000000000000003c TEE_Wait
0000000000007d54 g     F .text	0000000000000174 mbedtls_mpi_mul_mpi
0000000000002030 g     F .text	0000000000000008 TEE_CacheFlush
0000000000000734 g     F .text	00000000000001f0 trace_vprintf
00000000000001f4 g     F .text	0000000000000004 TA_DestroyEntryPoint
0000000000006cf4 g     F .text	0000000000000010 mbedtls_mpi_init
00000000000033ec g     F .text	000000000000000c _utee_storage_obj_del
0000000000007258 g     F .text	0000000000000060 mbedtls_mpi_lsb
00000000000062e0 g     F .text	0000000000000044 _assert_log
00000000000032a8 g     F .text	000000000000000c _utee_cryp_state_copy
00000000000052d8 g     F .text	0000000000000008 TEE_BigIntFMMContextSizeInU32
0000000000003098 g     F .text	000000000000008c tee_unmap
000000000000dd88 g     F .text	00000000000000d4 TEE_MACCompareFinal
000000000000a384 g     F .text	0000000000000030 mbedtls_ct_uint_if
00000000000029ec g     F .text	0000000000000060 TEE_RenamePersistentObject
000000000000d634 g     F .text	00000000000000e4 TEE_DigestDoFinal
0000000000004338 g     F .text	0000000000000050 _TEE_MathAPI_Init
0000000000005f94 g     F .text	0000000000000240 __utee_tcb_init
0000000000007ba8 g     F .text	0000000000000090 mbedtls_mpi_add_mpi
0000000000003b10 g     F .text	0000000000000020 abort
0000000000009540 g     F .text	000000000000017c mbedtls_mpi_random
0000000000002f14 g     F .text	000000000000002c __utee_check_out_annotation
0000000000017618 g     O .bss	0000000000004000 ta_heap
0000000000004e4c g     F .text	000000000000011c TEE_BigIntInvMod
0000000000003720 g     F .text	0000000000000120 __utee_call_elf_init_fn
0000000000000200 g     F .text	0000000000000004 TA_CloseSessionEntryPoint
0000000000003230 g     F .text	000000000000000c _utee_close_ta_session
000000000000e5b8 g     F .text	0000000000000144 TEE_AsymmetricDecrypt
00000000000027f0 g     F .text	00000000000000b0 TEE_OpenPersistentObject
0000000000007c38 g     F .text	0000000000000094 mbedtls_mpi_sub_mpi
000000000000c0a8 g     F .text	0000000000000070 consttime_memcmp
00000000000031e8 g     F .text	000000000000000c _utee_return
0000000000003200 g     F .text	000000000000000c __utee_panic
000000000000a2e8 g     F .text	0000000000000048 mbedtls_ct_memcmp
00000000000061d4 g     F .text	000000000000001c __tls_get_addr
0000000000000204 g     F .text	00000000000004e8 TA_InvokeCommandEntryPoint
0000000000003840 g     F .text	0000000000000010 __utee_call_elf_fini_fn
000000000000bb44 g     F .text	0000000000000014 free_wipe
000000000000bfe4 g     F .text	0000000000000064 mempool_alloc
00000000000031dc g     F .text	000000000000000c _utee_panic
000000000000bb60 g     F .text	000000000000002c raw_malloc_init_ctx
000000000000c048 g     F .text	000000000000004c mempool_calloc
0000000000003470 g     F .text	000000000000000c _utee_cryp_obj_generate_key
0000000000003458 g     F .text	000000000000000c _utee_storage_obj_trunc
00000000000026fc g     F .text	0000000000000054 TEE_CopyObjectAttributes
0000000000014438 g     O .data	0000000000000078 tee_props
0000000000003260 g     F .text	000000000000000c _utee_unmask_cancellation
0000000000005d84 g     F .text	000000000000000c TEE_ResetPropertyEnumerator
000000000000babc g     F .text	0000000000000020 calloc
0000000000001f80 g     F .text	0000000000000068 TEE_Malloc
0000000000001a34 g     F .text	0000000000000014 TEE_CheckMemoryAccessRights
0000000000005c1c g     F .text	00000000000000b4 TEE_GetPropertyAsUUID
000000000000320c g     F .text	000000000000000c _utee_get_property
0000000000007134 g     F .text	000000000000006c mbedtls_mpi_lset
0000000000002c0c g     F .text	0000000000000094 TEE_ReadObjectData
00000000000021ac g     F .text	00000000000000d0 TEE_GetObjectBufferAttribute
00000000000001f8 g     F .text	0000000000000008 TA_OpenSessionEntryPoint
000000000000c39c g     F .text	0000000000000044 TEE_FreeOperation
00000000000061f0 g     F .text	00000000000000f0 dl_iterate_phdr
000000000001b618 g       .bss	0000000000000000 __ftrace_buf_end
00000000000145f0 g     O .bss	0000000000000004 ta_param_types
00000000000085f8 g     F .text	0000000000000044 mbedtls_mpi_div_int
0000000000002040 g     F .text	0000000000000050 __utee_from_attr
0000000000009ae0 g     F .text	00000000000000ac mbedtls_mpi_is_prime_ext
0000000000005270 g     F .text	0000000000000050 TEE_BigIntIsProbablePrime
0000000000007ec8 g     F .text	00000000000000a8 mbedtls_mpi_mul_int
0000000000002978 g     F .text	0000000000000048 TEE_CloseAndDeletePersistentObject1
0000000000008a68 g     F .text	000000000000065c mbedtls_mpi_exp_mod
000000000000a560 g     F .text	00000000000000bc mbedtls_mpi_safe_cond_assign
00000000000057d4 g     F .text	0000000000000234 TEE_GetPropertyAsString
000000000000a718 g     F .text	00000000000000fc mbedtls_mpi_lt_mpi_ct
000000000000e2e0 g     F .text	0000000000000198 TEE_AEDecryptFinal
0000000000004388 g     F .text	0000000000000064 TEE_BigIntInit
0000000000002f10 g     F .text	0000000000000004 __utee_check_outstring_annotation
0000000000001e38 g     F .text	0000000000000008 TEE_MemMove
000000000000aa80 g     F .text	0000000000000020 mbedtls_platform_zeroize
00000000000043ec g     F .text	0000000000000094 TEE_BigIntConvertFromOctetString
00000000000033b0 g     F .text	000000000000000c _utee_authenc_dec_final
000000000000777c g     F .text	000000000000009c mbedtls_mpi_cmp_abs
0000000000003440 g     F .text	000000000000000c _utee_storage_obj_read
000000000000db68 g     F .text	00000000000000a4 TEE_MACInit
000000000000e6fc g     F .text	0000000000000138 TEE_AsymmetricSignDigest
0000000000001724 g     F .text	000000000000002c memchr
00000000000019dc g     F .text	000000000000002c TEE_UnmaskCancellation
0000000000002090 g     F .text	0000000000000048 TEE_GetObjectInfo
0000000000009eac g     F .text	000000000000041c mbedtls_mpi_self_test
0000000000003464 g     F .text	000000000000000c _utee_storage_obj_seek
000000000000dfc0 g     F .text	0000000000000164 TEE_AEUpdate
000000000000243c g     F .text	0000000000000054 TEE_FreeTransientObject
0000000000003254 g     F .text	000000000000000c _utee_check_access_rights
00000000000078e8 g     F .text	0000000000000044 mbedtls_mpi_cmp_int
0000000000006464 g     F .text	0000000000000138 _base64_dec
000000000000341c g     F .text	000000000000000c _utee_storage_reset_enum
000000000000a4a4 g     F .text	00000000000000bc mbedtls_ct_base64_dec_value
000000000000b3cc g     F .text	00000000000002d4 bget_main_test
000000000000eaf4 g     F .text	0000000000000024 rand
0000000000002f40 g     F .text	0000000000000030 __utee_check_attr_in_annotation
0000000000003398 g     F .text	000000000000000c _utee_authenc_update_payload
000000000000cf74 g     F .text	0000000000000054 TEE_GetOperationInfo
0000000000004db0 g     F .text	000000000000006c TEE_BigIntMod
00000000000086f0 g     F .text	0000000000000098 mbedtls_mpi_mod_int
0000000000007334 g     F .text	0000000000000078 mbedtls_mpi_read_binary_le
0000000000004c24 g     F .text	000000000000018c TEE_BigIntDiv
000000000000332c g     F .text	000000000000000c _utee_cryp_obj_alloc
000000000001b618 g       .bss	0000000000000000 __ftrace_buf_start
000000000000bee4 g     F .text	0000000000000038 strlcpy
000000000000a3f0 g     F .text	00000000000000b4 mbedtls_ct_base64_enc_char
0000000000007008 g     F .text	00000000000000cc mbedtls_mpi_copy
000000000000eb18 g     F .text	00000000000003f0 TEE_IsAlgorithmSupported
000000000000b6a0 g     F .text	0000000000000018 malloc_reset_stats
0000000000005cd0 g     F .text	00000000000000b4 TEE_GetPropertyAsIdentity
00000000000016d8 g     F .text	000000000000004c __vsprintf
0000000000003290 g     F .text	000000000000000c _utee_set_ta_time
000000000000323c g     F .text	000000000000000c _utee_invoke_ta_command
0000000000002118 g     F .text	0000000000000044 TEE_RestrictObjectUsage1
000000000000badc g     F .text	000000000000001c realloc
00000000000070d4 g     F .text	0000000000000060 mbedtls_mpi_swap
000000000000bf1c g     F .text	00000000000000c8 mempool_alloc_pool
0000000000004b34 g     F .text	00000000000000e8 TEE_BigIntMul
000000000000d148 g     F .text	0000000000000078 TEE_ResetOperation
000000000000bb58 g     F .text	0000000000000008 raw_malloc_get_ctx_size
00000000000075ac g     F .text	0000000000000110 mbedtls_mpi_shift_l
0000000000007818 g     F .text	00000000000000d0 mbedtls_mpi_cmp_mpi
0000000000001e48 g     F .text	0000000000000008 TEE_MemFill
000000000000bbcc g     F .text	0000000000000018 malloc_add_pool
000000000000dc0c g     F .text	00000000000000a0 TEE_MACUpdate
0000000000000724 g     F .text	0000000000000010 trace_get_level
000000000000792c g     F .text	0000000000000120 mbedtls_mpi_add_abs
000000000000215c g     F .text	0000000000000050 TEE_RestrictObjectUsage
00000000000052c8 g     F .text	0000000000000010 TEE_BigIntFMMSizeInU32
0000000000005a08 g     F .text	00000000000000ac TEE_GetPropertyAsBool
000000000000b87c g     F .text	0000000000000150 raw_realloc
00000000000052c0 g     F .text	0000000000000004 TEE_BigIntInitFMM
0000000000002394 g     F .text	0000000000000028 TEE_CloseObject
00000000000032e4 g     F .text	000000000000000c _utee_cipher_init
00000000000038e4 g     F .text	000000000000022c __utee_entry
0000000000005ab4 g     F .text	00000000000000b4 TEE_GetPropertyAsU32
000000000000ef08 g       .text	0000000000000000 __text_end
0000000000004f68 g     F .text	00000000000000d4 TEE_BigIntRelativePrime
000000000000863c g     F .text	00000000000000b4 mbedtls_mpi_mod_mpi
0000000000003308 g     F .text	000000000000000c _utee_cryp_obj_get_info
000000000000b210 g     F .text	00000000000000d0 bpool
0000000000005d90 g     F .text	0000000000000048 TEE_AllocatePropertyEnumerator
000000000000329c g     F .text	000000000000000c _utee_cryp_state_alloc
00000000000019b0 g     F .text	000000000000002c TEE_GetCancellationFlag
00000000000090c4 g     F .text	00000000000001a4 mbedtls_mpi_gcd
0000000000001f14 g     F .text	0000000000000044 TEE_SetTAPersistentTime
0000000000007430 g     F .text	00000000000000b8 mbedtls_mpi_write_binary_le
000000000000bea4 g     F .text	000000000000001c memset
000000000000b6f4 g     F .text	00000000000000b4 raw_memalign
0000000000001eb4 g     F .text	0000000000000060 TEE_GetTAPersistentTime
0000000000000994 g     F .text	0000000000000004 dhex_dump
00000000000028a0 g     F .text	00000000000000d8 TEE_CreatePersistentObject
0000000000001a08 g     F .text	000000000000002c TEE_MaskCancellation
000000000000df2c g     F .text	0000000000000094 TEE_AEUpdateAAD
0000000000002d10 g     F .text	0000000000000060 TEE_TruncateObjectData
0000000000003320 g     F .text	000000000000000c _utee_cryp_obj_get_attr
00000000000020d8 g     F .text	0000000000000040 TEE_GetObjectInfo1
00000000000032fc g     F .text	000000000000000c _utee_cipher_final
0000000000000708 g     F .text	000000000000001c trace_set_level
000000000000227c g     F .text	0000000000000118 TEE_GetObjectValueAttribute
000000000000d1c0 g     F .text	0000000000000108 TEE_SetOperationKey
000000000000a368 g     F .text	000000000000001c mbedtls_ct_mpi_uint_lt
00000000000032b4 g     F .text	000000000000000c _utee_cryp_state_free
000000000000bec0 g     F .text	0000000000000024 strcmp
0000000000003224 g     F .text	000000000000000c _utee_open_ta_session
0000000000004598 g     F .text	0000000000000088 TEE_BigIntConvertToS32
0000000000004a78 g     F .text	000000000000000c TEE_BigIntSub
0000000000000700 g     F .text	0000000000000008 tahead_get_trace_level
0000000000003428 g     F .text	000000000000000c _utee_storage_start_enum
0000000000002d70 g     F .text	00000000000000d8 TEE_SeekObjectData
0000000000003020 g     F .text	0000000000000078 tee_map_zi
0000000000008a64 g     F .text	0000000000000004 mbedtls_mpi_montred
000000000000baf8 g     F .text	0000000000000020 memalign
000000000000a330 g     F .text	0000000000000010 mbedtls_ct_uint_mask
000000000000d960 g     F .text	0000000000000208 TEE_CipherDoFinal
0000000000004514 g     F .text	0000000000000084 TEE_BigIntConvertFromS32
0000000000007ccc g     F .text	0000000000000044 mbedtls_mpi_add_int
00000000000033a4 g     F .text	000000000000000c _utee_authenc_enc_final
000000000000bbe4 g     F .text	0000000000000134 malloc_buffer_is_within_alloced
0000000000003338 g     F .text	000000000000000c _utee_cryp_obj_close
00000000000052c4 g     F .text	0000000000000004 TEE_BigIntInitFMMContext
000000000000326c g     F .text	000000000000000c _utee_mask_cancellation
00000000000033f8 g     F .text	000000000000000c _utee_storage_obj_rename
0000000000002ad0 g     F .text	0000000000000028 TEE_ResetPersistentObjectEnumerator
0000000000002ca0 g     F .text	0000000000000070 TEE_WriteObjectData
0000000000004c1c g     F .text	0000000000000008 TEE_BigIntSquare
000000000000344c g     F .text	000000000000000c _utee_storage_obj_write
00000000000001ec g     F .text	0000000000000008 TA_CreateEntryPoint
00000000000006ec g     F .text	0000000000000014 __ta_entry
000000000000338c g     F .text	000000000000000c _utee_authenc_update_aad
0000000000008a58 g     F .text	0000000000000008 mbedtls_mpi_montg_init
0000000000000a80 g     F .text	0000000000000074 snprintk
0000000000004a2c g     F .text	0000000000000040 TEE_BigIntGetBitCount
000000000000335c g     F .text	000000000000000c _utee_cryp_obj_copy
0000000000004e34 g     F .text	000000000000000c TEE_BigIntMulMod
00000000000096bc g     F .text	0000000000000424 mbedtls_mpi_inv_mod
000000000000e958 g     F .text	0000000000000178 TEE_DeriveKey
00000000000145b0 g     O .bss	0000000000000040 ta_params
0000000000008148 g     F .text	00000000000004b0 mbedtls_mpi_div_mpi
0000000000007318 g     F .text	000000000000001c mbedtls_mpi_size
000000000000aafc g     F .text	00000000000002f8 bget
00000000000023bc g     F .text	0000000000000080 TEE_AllocateTransientObject
0000000000005ddc g     F .text	0000000000000010 TEE_StartPropertyEnumerator
0000000000003278 g     F .text	000000000000000c _utee_wait
00000000000071cc g     F .text	000000000000008c mbedtls_mpi_set_bit
0000000000001fe8 g     F .text	0000000000000010 TEE_Free
0000000000009b8c g     F .text	0000000000000010 mbedtls_mpi_is_prime
0000000000002038 g     F .text	0000000000000008 TEE_CacheInvalidate
0000000000006324 g     F .text	0000000000000014 _assert_break
0000000000004e1c g     F .text	000000000000000c TEE_BigIntAddMod
000000000000a3b4 g     F .text	000000000000003c mbedtls_ct_mpi_uint_cond_assign
0000000000003284 g     F .text	000000000000000c _utee_get_time
0000000000005dec g     F .text	00000000000000fc TEE_GetPropertyName
000000000000c3e0 g     F .text	0000000000000b94 TEE_AllocateOperation
0000000000003350 g     F .text	000000000000000c _utee_cryp_obj_populate
000000000000ead0 g     F .text	0000000000000024 TEE_GenerateRandom
0000000000001e40 g     F .text	0000000000000008 TEE_MemCompare
00000000000032f0 g     F .text	000000000000000c _utee_cipher_update
0000000000000998 g     F .text	0000000000000090 __vsnprintf
00000000000145a0 g     O .bss	0000000000000010 __elf_phdr_info
0000000000002aa8 g     F .text	0000000000000028 TEE_FreePersistentObjectEnumerator
0000000000001c08 g     F .text	00000000000000f4 TEE_OpenTASession
000000000000176c g     F .text	0000000000000028 trace_ext_puts
0000000000001794 g     F .text	0000000000000008 trace_ext_get_thread_id
00000000000029c0 g     F .text	000000000000002c TEE_CloseAndDeletePersistentObject
0000000000003368 g     F .text	000000000000000c _utee_cryp_derive_key
0000000000006d2c g     F .text	000000000000006c mbedtls_mpi_free
0000000000003344 g     F .text	000000000000000c _utee_cryp_obj_reset
0000000000002028 g     F .text	0000000000000008 TEE_CacheClean
0000000000003218 g     F .text	000000000000000c _utee_get_property_name_to_index
000000000000b7c8 g     F .text	00000000000000b4 raw_calloc
0000000000006350 g     F .text	0000000000000114 _base64_enc
000000000000a61c g     F .text	00000000000000fc mbedtls_mpi_safe_cond_swap
0000000000003380 g     F .text	000000000000000c _utee_authenc_init
0000000000002650 g     F .text	00000000000000ac TEE_CopyObjectAttributes1
0000000000001750 g     F .text	000000000000001c strlen
000000000000503c g     F .text	0000000000000234 TEE_BigIntComputeExtendedGcd
0000000000003404 g     F .text	000000000000000c _utee_storage_alloc_enum
0000000000001e50 g     F .text	0000000000000028 TEE_GetSystemTime
00000000000033c8 g     F .text	000000000000000c _utee_asymm_verify
0000000000000000 g     O .ta_head	0000000000000020 ta_head
000000000000ae7c g     F .text	00000000000002b8 brel
0000000000007a4c g     F .text	000000000000015c mbedtls_mpi_sub_abs
0000000000009268 g     F .text	0000000000000068 mbedtls_mpi_fill_random
0000000000001e20 g     F .text	000000000000000c TEE_SetInstanceData
0000000000003248 g     F .text	000000000000000c _utee_get_cancellation_flag
0000000000008788 g     F .text	000000000000023c mbedtls_mpi_write_string
000000000000bb18 g     F .text	0000000000000018 aligned_alloc
0000000000002b48 g     F .text	00000000000000c4 TEE_GetNextPersistentObject
0000000000001988 g     F .text	0000000000000028 TEE_CloseTASession
000000000000e834 g     F .text	0000000000000124 TEE_AsymmetricVerifyDigest
00000000000033e0 g     F .text	000000000000000c _utee_storage_obj_create
000000000000bb30 g     F .text	0000000000000014 free
000000000000b2e0 g     F .text	0000000000000094 bstats
000000000000dcac g     F .text	00000000000000dc TEE_MACComputeFinal
0000000000017608 g     O .bss	0000000000000008 mbedtls_mpi_mempool
00000000000032d8 g     F .text	000000000000000c _utee_hash_final



Disassembly of section .text:

0000000000000020 <memcpy>:
memcpy():
/media/home/beste/01_Pro/ld25x/bsp_hu/MYD-LD25X-Uboot-L2022.10-V1.0.0/GEN_FIP/myir-st-optee/lib/libutils/isoc/newlib/memcpy.c:99
      20:	aa0003e5 	mov	x5, x0
/media/home/beste/01_Pro/ld25x/bsp_hu/MYD-LD25X-Uboot-L2022.10-V1.0.0/GEN_FIP/myir-st-optee/lib/libutils/isoc/newlib/memcpy.c:106
      24:	f1007c5f 	cmp	x2, #0x1f
      28:	540004c9 	b.ls	c0 <memcpy+0xa0>  // b.plast
      2c:	aa010006 	orr	x6, x0, x1
      30:	f24008c6 	ands	x6, x6, #0x7
      34:	540005a1 	b.ne	e8 <memcpy+0xc8>  // b.any
      38:	d1008048 	sub	x8, x2, #0x20
/media/home/beste/01_Pro/ld25x/bsp_hu/MYD-LD25X-Uboot-L2022.10-V1.0.0/GEN_FIP/myir-st-optee/lib/libutils/isoc/newlib/memcpy.c:108
      3c:	aa0103e4 	mov	x4, x1
      40:	927be908 	and	x8, x8, #0xffffffffffffffe0
/media/home/beste/01_Pro/ld25x/bsp_hu/MYD-LD25X-Uboot-L2022.10-V1.0.0/GEN_FIP/myir-st-optee/lib/libutils/isoc/newlib/memcpy.c:107
      44:	aa0003e3 	mov	x3, x0
      48:	91008108 	add	x8, x8, #0x20
      4c:	8b080005 	add	x5, x0, x8
/media/home/beste/01_Pro/ld25x/bsp_hu/MYD-LD25X-Uboot-L2022.10-V1.0.0/GEN_FIP/myir-st-optee/lib/libutils/isoc/newlib/memcpy.c:112
      50:	f9400087 	ldr	x7, [x4]
      54:	f9000067 	str	x7, [x3]
/media/home/beste/01_Pro/ld25x/bsp_hu/MYD-LD25X-Uboot-L2022.10-V1.0.0/GEN_FIP/myir-st-optee/lib/libutils/isoc/newlib/memcpy.c:115
      58:	91008084 	add	x4, x4, #0x20
      5c:	91008063 	add	x3, x3, #0x20
/media/home/beste/01_Pro/ld25x/bsp_hu/MYD-LD25X-Uboot-L2022.10-V1.0.0/GEN_FIP/myir-st-optee/lib/libutils/isoc/newlib/memcpy.c:113
      60:	f85e8087 	ldur	x7, [x4, #-24]
      64:	f81e8067 	stur	x7, [x3, #-24]
/media/home/beste/01_Pro/ld25x/bsp_hu/MYD-LD25X-Uboot-L2022.10-V1.0.0/GEN_FIP/myir-st-optee/lib/libutils/isoc/newlib/memcpy.c:114
      68:	f85f0087 	ldur	x7, [x4, #-16]
      6c:	f81f0067 	stur	x7, [x3, #-16]
/media/home/beste/01_Pro/ld25x/bsp_hu/MYD-LD25X-Uboot-L2022.10-V1.0.0/GEN_FIP/myir-st-optee/lib/libutils/isoc/newlib/memcpy.c:115
      70:	f85f8087 	ldur	x7, [x4, #-8]
      74:	f81f8067 	stur	x7, [x3, #-8]
/media/home/beste/01_Pro/ld25x/bsp_hu/MYD-LD25X-Uboot-L2022.10-V1.0.0/GEN_FIP/myir-st-optee/lib/libutils/isoc/newlib/memcpy.c:111
      78:	eb05007f 	cmp	x3, x5
      7c:	54fffea1 	b.ne	50 <memcpy+0x30>  // b.any
/media/home/beste/01_Pro/ld25x/bsp_hu/MYD-LD25X-Uboot-L2022.10-V1.0.0/GEN_FIP/myir-st-optee/lib/libutils/isoc/newlib/memcpy.c:115
      80:	8b080021 	add	x1, x1, x8
/media/home/beste/01_Pro/ld25x/bsp_hu/MYD-LD25X-Uboot-L2022.10-V1.0.0/GEN_FIP/myir-st-optee/lib/libutils/isoc/newlib/memcpy.c:116
      84:	92401043 	and	x3, x2, #0x1f
/media/home/beste/01_Pro/ld25x/bsp_hu/MYD-LD25X-Uboot-L2022.10-V1.0.0/GEN_FIP/myir-st-optee/lib/libutils/isoc/newlib/memcpy.c:120
      88:	f27d045f 	tst	x2, #0x18
      8c:	54000320 	b.eq	f0 <memcpy+0xd0>  // b.none
/media/home/beste/01_Pro/ld25x/bsp_hu/MYD-LD25X-Uboot-L2022.10-V1.0.0/GEN_FIP/myir-st-optee/lib/libutils/isoc/newlib/memcpy.c:121
      90:	f8666824 	ldr	x4, [x1, x6]
      94:	f82668a4 	str	x4, [x5, x6]
/media/home/beste/01_Pro/ld25x/bsp_hu/MYD-LD25X-Uboot-L2022.10-V1.0.0/GEN_FIP/myir-st-optee/lib/libutils/isoc/newlib/memcpy.c:120
      98:	910020c6 	add	x6, x6, #0x8
      9c:	cb060064 	sub	x4, x3, x6
      a0:	f1001c9f 	cmp	x4, #0x7
      a4:	54ffff68 	b.hi	90 <memcpy+0x70>  // b.pmore
      a8:	d1002063 	sub	x3, x3, #0x8
/media/home/beste/01_Pro/ld25x/bsp_hu/MYD-LD25X-Uboot-L2022.10-V1.0.0/GEN_FIP/myir-st-optee/lib/libutils/isoc/newlib/memcpy.c:122
      ac:	92400842 	and	x2, x2, #0x7
      b0:	927df063 	and	x3, x3, #0xfffffffffffffff8
      b4:	91002063 	add	x3, x3, #0x8
/media/home/beste/01_Pro/ld25x/bsp_hu/MYD-LD25X-Uboot-L2022.10-V1.0.0/GEN_FIP/myir-st-optee/lib/libutils/isoc/newlib/memcpy.c:121
      b8:	8b0300a5 	add	x5, x5, x3
      bc:	8b030021 	add	x1, x1, x3
/media/home/beste/01_Pro/ld25x/bsp_hu/MYD-LD25X-Uboot-L2022.10-V1.0.0/GEN_FIP/myir-st-optee/lib/libutils/isoc/newlib/memcpy.c:130
      c0:	d1000446 	sub	x6, x2, #0x1
      c4:	b4000102 	cbz	x2, e4 <memcpy+0xc4>
/media/home/beste/01_Pro/ld25x/bsp_hu/MYD-LD25X-Uboot-L2022.10-V1.0.0/GEN_FIP/myir-st-optee/lib/libutils/isoc/newlib/memcpy.c:99
      c8:	d2800002 	mov	x2, #0x0                   	// #0
      cc:	d503201f 	nop
/media/home/beste/01_Pro/ld25x/bsp_hu/MYD-LD25X-Uboot-L2022.10-V1.0.0/GEN_FIP/myir-st-optee/lib/libutils/isoc/newlib/memcpy.c:131
      d0:	38626824 	ldrb	w4, [x1, x2]
/media/home/beste/01_Pro/ld25x/bsp_hu/MYD-LD25X-Uboot-L2022.10-V1.0.0/GEN_FIP/myir-st-optee/lib/libutils/isoc/newlib/memcpy.c:130
      d4:	eb0200df 	cmp	x6, x2
/media/home/beste/01_Pro/ld25x/bsp_hu/MYD-LD25X-Uboot-L2022.10-V1.0.0/GEN_FIP/myir-st-optee/lib/libutils/isoc/newlib/memcpy.c:131
      d8:	382268a4 	strb	w4, [x5, x2]
/media/home/beste/01_Pro/ld25x/bsp_hu/MYD-LD25X-Uboot-L2022.10-V1.0.0/GEN_FIP/myir-st-optee/lib/libutils/isoc/newlib/memcpy.c:130
      dc:	91000442 	add	x2, x2, #0x1
      e0:	54ffff81 	b.ne	d0 <memcpy+0xb0>  // b.any
/media/home/beste/01_Pro/ld25x/bsp_hu/MYD-LD25X-Uboot-L2022.10-V1.0.0/GEN_FIP/myir-st-optee/lib/libutils/isoc/newlib/memcpy.c:135
      e4:	d65f03c0 	ret
/media/home/beste/01_Pro/ld25x/bsp_hu/MYD-LD25X-Uboot-L2022.10-V1.0.0/GEN_FIP/myir-st-optee/lib/libutils/isoc/newlib/memcpy.c:130
      e8:	d1000446 	sub	x6, x2, #0x1
      ec:	17fffff7 	b	c8 <memcpy+0xa8>
/media/home/beste/01_Pro/ld25x/bsp_hu/MYD-LD25X-Uboot-L2022.10-V1.0.0/GEN_FIP/myir-st-optee/lib/libutils/isoc/newlib/memcpy.c:116
      f0:	aa0303e2 	mov	x2, x3
      f4:	17fffff3 	b	c0 <memcpy+0xa0>

00000000000000f8 <open_rb_state>:
open_rb_state():
/media/home/beste/01_Pro/ld25x/bsp_hu/MYD-LD25X-Uboot-L2022.10-V1.0.0/GEN_FIP/myir-st-optee/ta/avb/entry.c:39
      f8:	a9bc7bfd 	stp	x29, x30, [sp, #-64]!
/media/home/beste/01_Pro/ld25x/bsp_hu/MYD-LD25X-Uboot-L2022.10-V1.0.0/GEN_FIP/myir-st-optee/ta/avb/entry.c:44
      fc:	aa0103e4 	mov	x4, x1
     100:	52800063 	mov	w3, #0x3                   	// #3
/media/home/beste/01_Pro/ld25x/bsp_hu/MYD-LD25X-Uboot-L2022.10-V1.0.0/GEN_FIP/myir-st-optee/ta/avb/entry.c:39
     104:	910003fd 	mov	x29, sp
     108:	a90153f3 	stp	x19, x20, [sp, #16]
/media/home/beste/01_Pro/ld25x/bsp_hu/MYD-LD25X-Uboot-L2022.10-V1.0.0/GEN_FIP/myir-st-optee/ta/avb/entry.c:44
     10c:	d0000093 	adrp	x19, 12000 <__compound_literal.2>
     110:	910dfa73 	add	x19, x19, #0x37e
/media/home/beste/01_Pro/ld25x/bsp_hu/MYD-LD25X-Uboot-L2022.10-V1.0.0/GEN_FIP/myir-st-optee/ta/avb/entry.c:39
     114:	f90013f5 	str	x21, [sp, #32]
     118:	2a0003f5 	mov	w21, w0
/media/home/beste/01_Pro/ld25x/bsp_hu/MYD-LD25X-Uboot-L2022.10-V1.0.0/GEN_FIP/myir-st-optee/ta/avb/entry.c:44
     11c:	52802000 	mov	w0, #0x100                 	// #256
/media/home/beste/01_Pro/ld25x/bsp_hu/MYD-LD25X-Uboot-L2022.10-V1.0.0/GEN_FIP/myir-st-optee/ta/avb/entry.c:39
     120:	aa0103f4 	mov	x20, x1
/media/home/beste/01_Pro/ld25x/bsp_hu/MYD-LD25X-Uboot-L2022.10-V1.0.0/GEN_FIP/myir-st-optee/ta/avb/entry.c:44
     124:	52800122 	mov	w2, #0x9                   	// #9
     128:	aa1303e1 	mov	x1, x19
     12c:	72b00000 	movk	w0, #0x8000, lsl #16
     130:	940009b0 	bl	27f0 <TEE_OpenPersistentObject>
/media/home/beste/01_Pro/ld25x/bsp_hu/MYD-LD25X-Uboot-L2022.10-V1.0.0/GEN_FIP/myir-st-optee/ta/avb/entry.c:46
     134:	34000180 	cbz	w0, 164 <open_rb_state+0x6c>
create_rb_state():
/media/home/beste/01_Pro/ld25x/bsp_hu/MYD-LD25X-Uboot-L2022.10-V1.0.0/GEN_FIP/myir-st-optee/ta/avb/entry.c:32
     138:	52802000 	mov	w0, #0x100                 	// #256
     13c:	aa1403e7 	mov	x7, x20
     140:	9100f3e5 	add	x5, sp, #0x3c
     144:	aa1303e1 	mov	x1, x19
     148:	52800086 	mov	w6, #0x4                   	// #4
     14c:	d2800004 	mov	x4, #0x0                   	// #0
     150:	52808063 	mov	w3, #0x403                 	// #1027
     154:	52800122 	mov	w2, #0x9                   	// #9
     158:	72b00000 	movk	w0, #0x8000, lsl #16
     15c:	b9003ff5 	str	w21, [sp, #60]
     160:	940009d0 	bl	28a0 <TEE_CreatePersistentObject>
open_rb_state():
/media/home/beste/01_Pro/ld25x/bsp_hu/MYD-LD25X-Uboot-L2022.10-V1.0.0/GEN_FIP/myir-st-optee/ta/avb/entry.c:50
     164:	a94153f3 	ldp	x19, x20, [sp, #16]
     168:	f94013f5 	ldr	x21, [sp, #32]
     16c:	a8c47bfd 	ldp	x29, x30, [sp], #64
     170:	d65f03c0 	ret

0000000000000174 <get_named_object_name.constprop.0>:
get_named_object_name():
/media/home/beste/01_Pro/ld25x/bsp_hu/MYD-LD25X-Uboot-L2022.10-V1.0.0/GEN_FIP/myir-st-optee/ta/avb/entry.c:52
     174:	a9bd7bfd 	stp	x29, x30, [sp, #-48]!
     178:	910003fd 	mov	x29, sp
     17c:	a9025bf5 	stp	x21, x22, [sp, #32]
     180:	aa0003f6 	mov	x22, x0
     184:	2a0103e0 	mov	w0, w1
     188:	a90153f3 	stp	x19, x20, [sp, #16]
     18c:	aa0003f3 	mov	x19, x0
/media/home/beste/01_Pro/ld25x/bsp_hu/MYD-LD25X-Uboot-L2022.10-V1.0.0/GEN_FIP/myir-st-optee/ta/avb/entry.c:58
     190:	91003000 	add	x0, x0, #0xc
     194:	f101001f 	cmp	x0, #0x40
     198:	54000268 	b.hi	1e4 <get_named_object_name.constprop.0+0x70>  // b.pmore
     19c:	aa0203f4 	mov	x20, x2
     1a0:	aa0303f5 	mov	x21, x3
/media/home/beste/01_Pro/ld25x/bsp_hu/MYD-LD25X-Uboot-L2022.10-V1.0.0/GEN_FIP/myir-st-optee/ta/avb/entry.c:63
     1a4:	52800182 	mov	w2, #0xc                   	// #12
     1a8:	aa1403e0 	mov	x0, x20
     1ac:	d0000081 	adrp	x1, 12000 <__compound_literal.2>
     1b0:	910b4021 	add	x1, x1, #0x2d0
     1b4:	94000721 	bl	1e38 <TEE_MemMove>
/media/home/beste/01_Pro/ld25x/bsp_hu/MYD-LD25X-Uboot-L2022.10-V1.0.0/GEN_FIP/myir-st-optee/ta/avb/entry.c:66
     1b8:	2a1303e2 	mov	w2, w19
     1bc:	aa1603e1 	mov	x1, x22
     1c0:	91003280 	add	x0, x20, #0xc
     1c4:	9400071d 	bl	1e38 <TEE_MemMove>
/media/home/beste/01_Pro/ld25x/bsp_hu/MYD-LD25X-Uboot-L2022.10-V1.0.0/GEN_FIP/myir-st-optee/ta/avb/entry.c:68
     1c8:	11003273 	add	w19, w19, #0xc
/media/home/beste/01_Pro/ld25x/bsp_hu/MYD-LD25X-Uboot-L2022.10-V1.0.0/GEN_FIP/myir-st-optee/ta/avb/entry.c:70
     1cc:	52800000 	mov	w0, #0x0                   	// #0
/media/home/beste/01_Pro/ld25x/bsp_hu/MYD-LD25X-Uboot-L2022.10-V1.0.0/GEN_FIP/myir-st-optee/ta/avb/entry.c:68
     1d0:	b90002b3 	str	w19, [x21]
/media/home/beste/01_Pro/ld25x/bsp_hu/MYD-LD25X-Uboot-L2022.10-V1.0.0/GEN_FIP/myir-st-optee/ta/avb/entry.c:71
     1d4:	a94153f3 	ldp	x19, x20, [sp, #16]
     1d8:	a9425bf5 	ldp	x21, x22, [sp, #32]
     1dc:	a8c37bfd 	ldp	x29, x30, [sp], #48
     1e0:	d65f03c0 	ret
/media/home/beste/01_Pro/ld25x/bsp_hu/MYD-LD25X-Uboot-L2022.10-V1.0.0/GEN_FIP/myir-st-optee/ta/avb/entry.c:60
     1e4:	129fff20 	mov	w0, #0xffff0006            	// #-65530
     1e8:	17fffffb 	b	1d4 <get_named_object_name.constprop.0+0x60>

00000000000001ec <TA_CreateEntryPoint>:
TA_CreateEntryPoint():
/media/home/beste/01_Pro/ld25x/bsp_hu/MYD-LD25X-Uboot-L2022.10-V1.0.0/GEN_FIP/myir-st-optee/ta/avb/entry.c:360
     1ec:	52800000 	mov	w0, #0x0                   	// #0
     1f0:	d65f03c0 	ret

00000000000001f4 <TA_DestroyEntryPoint>:
TA_DestroyEntryPoint():
/media/home/beste/01_Pro/ld25x/bsp_hu/MYD-LD25X-Uboot-L2022.10-V1.0.0/GEN_FIP/myir-st-optee/ta/avb/entry.c:364
     1f4:	d65f03c0 	ret

00000000000001f8 <TA_OpenSessionEntryPoint>:
TA_OpenSessionEntryPoint():
/media/home/beste/01_Pro/ld25x/bsp_hu/MYD-LD25X-Uboot-L2022.10-V1.0.0/GEN_FIP/myir-st-optee/ta/avb/entry.c:371
     1f8:	52800000 	mov	w0, #0x0                   	// #0
     1fc:	d65f03c0 	ret

0000000000000200 <TA_CloseSessionEntryPoint>:
TA_CloseSessionEntryPoint():
/media/home/beste/01_Pro/ld25x/bsp_hu/MYD-LD25X-Uboot-L2022.10-V1.0.0/GEN_FIP/myir-st-optee/ta/avb/entry.c:375
     200:	d65f03c0 	ret

0000000000000204 <TA_InvokeCommandEntryPoint>:
TA_InvokeCommandEntryPoint():
/media/home/beste/01_Pro/ld25x/bsp_hu/MYD-LD25X-Uboot-L2022.10-V1.0.0/GEN_FIP/myir-st-optee/ta/avb/entry.c:380
     204:	a9b57bfd 	stp	x29, x30, [sp, #-176]!
     208:	910003fd 	mov	x29, sp
     20c:	a90153f3 	stp	x19, x20, [sp, #16]
     210:	aa0303f4 	mov	x20, x3
     214:	a9025bf5 	stp	x21, x22, [sp, #32]
     218:	a90363f7 	stp	x23, x24, [sp, #48]
     21c:	f90023f9 	str	x25, [sp, #64]
/media/home/beste/01_Pro/ld25x/bsp_hu/MYD-LD25X-Uboot-L2022.10-V1.0.0/GEN_FIP/myir-st-optee/ta/avb/entry.c:381
     220:	71000c3f 	cmp	w1, #0x3
     224:	54001280 	b.eq	474 <TA_InvokeCommandEntryPoint+0x270>  // b.none
     228:	2a0103e5 	mov	w5, w1
     22c:	540005e8 	b.hi	2e8 <TA_InvokeCommandEntryPoint+0xe4>  // b.pmore
     230:	7100043f 	cmp	w1, #0x1
     234:	54000920 	b.eq	358 <TA_InvokeCommandEntryPoint+0x154>  // b.none
     238:	7100083f 	cmp	w1, #0x2
     23c:	54000ee0 	b.eq	418 <TA_InvokeCommandEntryPoint+0x214>  // b.none
read_rb_idx():
/media/home/beste/01_Pro/ld25x/bsp_hu/MYD-LD25X-Uboot-L2022.10-V1.0.0/GEN_FIP/myir-st-optee/ta/avb/entry.c:85
     240:	7100845f 	cmp	w2, #0x21
     244:	540024c1 	b.ne	6dc <TA_InvokeCommandEntryPoint+0x4d8>  // b.any
/media/home/beste/01_Pro/ld25x/bsp_hu/MYD-LD25X-Uboot-L2022.10-V1.0.0/GEN_FIP/myir-st-optee/ta/avb/entry.c:88
     248:	b9400075 	ldr	w21, [x3]
get_slot_offset():
/media/home/beste/01_Pro/ld25x/bsp_hu/MYD-LD25X-Uboot-L2022.10-V1.0.0/GEN_FIP/myir-st-optee/ta/avb/entry.c:19
     24c:	7103febf 	cmp	w21, #0xff
     250:	54002468 	b.hi	6dc <TA_InvokeCommandEntryPoint+0x4d8>  // b.pmore
read_rb_idx():
/media/home/beste/01_Pro/ld25x/bsp_hu/MYD-LD25X-Uboot-L2022.10-V1.0.0/GEN_FIP/myir-st-optee/ta/avb/entry.c:92
     254:	9101c3e1 	add	x1, sp, #0x70
     258:	52800000 	mov	w0, #0x0                   	// #0
     25c:	97ffffa7 	bl	f8 <open_rb_state>
     260:	2a0003f3 	mov	w19, w0
/media/home/beste/01_Pro/ld25x/bsp_hu/MYD-LD25X-Uboot-L2022.10-V1.0.0/GEN_FIP/myir-st-optee/ta/avb/entry.c:93
     264:	35000340 	cbnz	w0, 2cc <TA_InvokeCommandEntryPoint+0xc8>
get_slot_offset():
/media/home/beste/01_Pro/ld25x/bsp_hu/MYD-LD25X-Uboot-L2022.10-V1.0.0/GEN_FIP/myir-st-optee/ta/avb/entry.c:22
     268:	d2800080 	mov	x0, #0x4                   	// #4
read_rb_idx():
/media/home/beste/01_Pro/ld25x/bsp_hu/MYD-LD25X-Uboot-L2022.10-V1.0.0/GEN_FIP/myir-st-optee/ta/avb/entry.c:96
     26c:	52800002 	mov	w2, #0x0                   	// #0
get_slot_offset():
/media/home/beste/01_Pro/ld25x/bsp_hu/MYD-LD25X-Uboot-L2022.10-V1.0.0/GEN_FIP/myir-st-optee/ta/avb/entry.c:22
     270:	8b354c15 	add	x21, x0, w21, uxtw #3
read_rb_idx():
/media/home/beste/01_Pro/ld25x/bsp_hu/MYD-LD25X-Uboot-L2022.10-V1.0.0/GEN_FIP/myir-st-optee/ta/avb/entry.c:96
     274:	f9403be0 	ldr	x0, [sp, #112]
     278:	2a1503e1 	mov	w1, w21
     27c:	94000abd 	bl	2d70 <TEE_SeekObjectData>
     280:	2a0003f3 	mov	w19, w0
/media/home/beste/01_Pro/ld25x/bsp_hu/MYD-LD25X-Uboot-L2022.10-V1.0.0/GEN_FIP/myir-st-optee/ta/avb/entry.c:97
     284:	35000200 	cbnz	w0, 2c4 <TA_InvokeCommandEntryPoint+0xc0>
/media/home/beste/01_Pro/ld25x/bsp_hu/MYD-LD25X-Uboot-L2022.10-V1.0.0/GEN_FIP/myir-st-optee/ta/avb/entry.c:100
     288:	f9403be0 	ldr	x0, [sp, #112]
     28c:	9101a3f6 	add	x22, sp, #0x68
     290:	910183e3 	add	x3, sp, #0x60
     294:	aa1603e1 	mov	x1, x22
     298:	52800102 	mov	w2, #0x8                   	// #8
     29c:	94000a5c 	bl	2c0c <TEE_ReadObjectData>
     2a0:	2a0003f3 	mov	w19, w0
/media/home/beste/01_Pro/ld25x/bsp_hu/MYD-LD25X-Uboot-L2022.10-V1.0.0/GEN_FIP/myir-st-optee/ta/avb/entry.c:101
     2a4:	35000100 	cbnz	w0, 2c4 <TA_InvokeCommandEntryPoint+0xc0>
/media/home/beste/01_Pro/ld25x/bsp_hu/MYD-LD25X-Uboot-L2022.10-V1.0.0/GEN_FIP/myir-st-optee/ta/avb/entry.c:103
     2a8:	b94063e1 	ldr	w1, [sp, #96]
/media/home/beste/01_Pro/ld25x/bsp_hu/MYD-LD25X-Uboot-L2022.10-V1.0.0/GEN_FIP/myir-st-optee/ta/avb/entry.c:111
     2ac:	f9403be0 	ldr	x0, [sp, #112]
/media/home/beste/01_Pro/ld25x/bsp_hu/MYD-LD25X-Uboot-L2022.10-V1.0.0/GEN_FIP/myir-st-optee/ta/avb/entry.c:103
     2b0:	7100203f 	cmp	w1, #0x8
     2b4:	54000381 	b.ne	324 <TA_InvokeCommandEntryPoint+0x120>  // b.any
/media/home/beste/01_Pro/ld25x/bsp_hu/MYD-LD25X-Uboot-L2022.10-V1.0.0/GEN_FIP/myir-st-optee/ta/avb/entry.c:121
     2b8:	f94037e0 	ldr	x0, [sp, #104]
     2bc:	d360fc01 	lsr	x1, x0, #32
/media/home/beste/01_Pro/ld25x/bsp_hu/MYD-LD25X-Uboot-L2022.10-V1.0.0/GEN_FIP/myir-st-optee/ta/avb/entry.c:122
     2c0:	29020281 	stp	w1, w0, [x20, #16]
write_lock_state():
/media/home/beste/01_Pro/ld25x/bsp_hu/MYD-LD25X-Uboot-L2022.10-V1.0.0/GEN_FIP/myir-st-optee/ta/avb/entry.c:244
     2c4:	f9403be0 	ldr	x0, [sp, #112]
     2c8:	94000833 	bl	2394 <TEE_CloseObject>
TA_InvokeCommandEntryPoint():
/media/home/beste/01_Pro/ld25x/bsp_hu/MYD-LD25X-Uboot-L2022.10-V1.0.0/GEN_FIP/myir-st-optee/ta/avb/entry.c:398
     2cc:	a9425bf5 	ldp	x21, x22, [sp, #32]
     2d0:	2a1303e0 	mov	w0, w19
     2d4:	a94153f3 	ldp	x19, x20, [sp, #16]
     2d8:	a94363f7 	ldp	x23, x24, [sp, #48]
     2dc:	f94023f9 	ldr	x25, [sp, #64]
     2e0:	a8cb7bfd 	ldp	x29, x30, [sp], #176
     2e4:	d65f03c0 	ret
/media/home/beste/01_Pro/ld25x/bsp_hu/MYD-LD25X-Uboot-L2022.10-V1.0.0/GEN_FIP/myir-st-optee/ta/avb/entry.c:381
     2e8:	7100103f 	cmp	w1, #0x4
     2ec:	540010a0 	b.eq	500 <TA_InvokeCommandEntryPoint+0x2fc>  // b.none
     2f0:	7100143f 	cmp	w1, #0x5
     2f4:	54001920 	b.eq	618 <TA_InvokeCommandEntryPoint+0x414>  // b.none
/media/home/beste/01_Pro/ld25x/bsp_hu/MYD-LD25X-Uboot-L2022.10-V1.0.0/GEN_FIP/myir-st-optee/ta/avb/entry.c:395
     2f8:	d0000080 	adrp	x0, 12000 <__compound_literal.2>
     2fc:	910df800 	add	x0, x0, #0x37e
     300:	9100c000 	add	x0, x0, #0x30
     304:	d0000084 	adrp	x4, 12000 <__compound_literal.2>
     308:	52800023 	mov	w3, #0x1                   	// #1
     30c:	910d7484 	add	x4, x4, #0x35d
     310:	52800022 	mov	w2, #0x1                   	// #1
     314:	52803161 	mov	w1, #0x18b                 	// #395
/media/home/beste/01_Pro/ld25x/bsp_hu/MYD-LD25X-Uboot-L2022.10-V1.0.0/GEN_FIP/myir-st-optee/ta/avb/entry.c:396
     318:	129ffeb3 	mov	w19, #0xffff000a            	// #-65526
/media/home/beste/01_Pro/ld25x/bsp_hu/MYD-LD25X-Uboot-L2022.10-V1.0.0/GEN_FIP/myir-st-optee/ta/avb/entry.c:395
     31c:	94000182 	bl	924 <trace_printf>
/media/home/beste/01_Pro/ld25x/bsp_hu/MYD-LD25X-Uboot-L2022.10-V1.0.0/GEN_FIP/myir-st-optee/ta/avb/entry.c:396
     320:	17ffffeb 	b	2cc <TA_InvokeCommandEntryPoint+0xc8>
read_rb_idx():
/media/home/beste/01_Pro/ld25x/bsp_hu/MYD-LD25X-Uboot-L2022.10-V1.0.0/GEN_FIP/myir-st-optee/ta/avb/entry.c:104
     324:	f90037ff 	str	xzr, [sp, #104]
/media/home/beste/01_Pro/ld25x/bsp_hu/MYD-LD25X-Uboot-L2022.10-V1.0.0/GEN_FIP/myir-st-optee/ta/avb/entry.c:106
     328:	34fffc81 	cbz	w1, 2b8 <TA_InvokeCommandEntryPoint+0xb4>
/media/home/beste/01_Pro/ld25x/bsp_hu/MYD-LD25X-Uboot-L2022.10-V1.0.0/GEN_FIP/myir-st-optee/ta/avb/entry.c:111
     32c:	2a1503e1 	mov	w1, w21
     330:	52800002 	mov	w2, #0x0                   	// #0
     334:	94000a8f 	bl	2d70 <TEE_SeekObjectData>
/media/home/beste/01_Pro/ld25x/bsp_hu/MYD-LD25X-Uboot-L2022.10-V1.0.0/GEN_FIP/myir-st-optee/ta/avb/entry.c:113
     338:	350000c0 	cbnz	w0, 350 <TA_InvokeCommandEntryPoint+0x14c>
/media/home/beste/01_Pro/ld25x/bsp_hu/MYD-LD25X-Uboot-L2022.10-V1.0.0/GEN_FIP/myir-st-optee/ta/avb/entry.c:115
     33c:	f9403be0 	ldr	x0, [sp, #112]
     340:	aa1603e1 	mov	x1, x22
     344:	52800102 	mov	w2, #0x8                   	// #8
     348:	94000a56 	bl	2ca0 <TEE_WriteObjectData>
/media/home/beste/01_Pro/ld25x/bsp_hu/MYD-LD25X-Uboot-L2022.10-V1.0.0/GEN_FIP/myir-st-optee/ta/avb/entry.c:116
     34c:	34fffb60 	cbz	w0, 2b8 <TA_InvokeCommandEntryPoint+0xb4>
create_rb_state():
/media/home/beste/01_Pro/ld25x/bsp_hu/MYD-LD25X-Uboot-L2022.10-V1.0.0/GEN_FIP/myir-st-optee/ta/avb/entry.c:32
     350:	2a0003f3 	mov	w19, w0
     354:	17ffffdc 	b	2c4 <TA_InvokeCommandEntryPoint+0xc0>
write_rb_idx():
/media/home/beste/01_Pro/ld25x/bsp_hu/MYD-LD25X-Uboot-L2022.10-V1.0.0/GEN_FIP/myir-st-optee/ta/avb/entry.c:141
     358:	7100445f 	cmp	w2, #0x11
     35c:	54001c01 	b.ne	6dc <TA_InvokeCommandEntryPoint+0x4d8>  // b.any
/media/home/beste/01_Pro/ld25x/bsp_hu/MYD-LD25X-Uboot-L2022.10-V1.0.0/GEN_FIP/myir-st-optee/ta/avb/entry.c:144
     360:	b9400075 	ldr	w21, [x3]
get_slot_offset():
/media/home/beste/01_Pro/ld25x/bsp_hu/MYD-LD25X-Uboot-L2022.10-V1.0.0/GEN_FIP/myir-st-optee/ta/avb/entry.c:19
     364:	7103febf 	cmp	w21, #0xff
     368:	54001ba8 	b.hi	6dc <TA_InvokeCommandEntryPoint+0x4d8>  // b.pmore
write_rb_idx():
/media/home/beste/01_Pro/ld25x/bsp_hu/MYD-LD25X-Uboot-L2022.10-V1.0.0/GEN_FIP/myir-st-optee/ta/avb/entry.c:147
     36c:	29420460 	ldp	w0, w1, [x3, #16]
     370:	aa008020 	orr	x0, x1, x0, lsl #32
/media/home/beste/01_Pro/ld25x/bsp_hu/MYD-LD25X-Uboot-L2022.10-V1.0.0/GEN_FIP/myir-st-optee/ta/avb/entry.c:149
     374:	9101c3e1 	add	x1, sp, #0x70
/media/home/beste/01_Pro/ld25x/bsp_hu/MYD-LD25X-Uboot-L2022.10-V1.0.0/GEN_FIP/myir-st-optee/ta/avb/entry.c:147
     378:	f90033e0 	str	x0, [sp, #96]
/media/home/beste/01_Pro/ld25x/bsp_hu/MYD-LD25X-Uboot-L2022.10-V1.0.0/GEN_FIP/myir-st-optee/ta/avb/entry.c:149
     37c:	52800000 	mov	w0, #0x0                   	// #0
     380:	97ffff5e 	bl	f8 <open_rb_state>
     384:	2a0003f3 	mov	w19, w0
/media/home/beste/01_Pro/ld25x/bsp_hu/MYD-LD25X-Uboot-L2022.10-V1.0.0/GEN_FIP/myir-st-optee/ta/avb/entry.c:150
     388:	35fffa20 	cbnz	w0, 2cc <TA_InvokeCommandEntryPoint+0xc8>
get_slot_offset():
/media/home/beste/01_Pro/ld25x/bsp_hu/MYD-LD25X-Uboot-L2022.10-V1.0.0/GEN_FIP/myir-st-optee/ta/avb/entry.c:22
     38c:	d2800080 	mov	x0, #0x4                   	// #4
write_rb_idx():
/media/home/beste/01_Pro/ld25x/bsp_hu/MYD-LD25X-Uboot-L2022.10-V1.0.0/GEN_FIP/myir-st-optee/ta/avb/entry.c:153
     390:	52800002 	mov	w2, #0x0                   	// #0
get_slot_offset():
/media/home/beste/01_Pro/ld25x/bsp_hu/MYD-LD25X-Uboot-L2022.10-V1.0.0/GEN_FIP/myir-st-optee/ta/avb/entry.c:22
     394:	8b354c15 	add	x21, x0, w21, uxtw #3
write_rb_idx():
/media/home/beste/01_Pro/ld25x/bsp_hu/MYD-LD25X-Uboot-L2022.10-V1.0.0/GEN_FIP/myir-st-optee/ta/avb/entry.c:153
     398:	f9403be0 	ldr	x0, [sp, #112]
     39c:	2a1503e1 	mov	w1, w21
     3a0:	94000a74 	bl	2d70 <TEE_SeekObjectData>
     3a4:	2a0003f3 	mov	w19, w0
/media/home/beste/01_Pro/ld25x/bsp_hu/MYD-LD25X-Uboot-L2022.10-V1.0.0/GEN_FIP/myir-st-optee/ta/avb/entry.c:154
     3a8:	35fff8e0 	cbnz	w0, 2c4 <TA_InvokeCommandEntryPoint+0xc0>
/media/home/beste/01_Pro/ld25x/bsp_hu/MYD-LD25X-Uboot-L2022.10-V1.0.0/GEN_FIP/myir-st-optee/ta/avb/entry.c:157
     3ac:	f9403be0 	ldr	x0, [sp, #112]
     3b0:	910173e3 	add	x3, sp, #0x5c
     3b4:	9101a3e1 	add	x1, sp, #0x68
     3b8:	52800102 	mov	w2, #0x8                   	// #8
     3bc:	94000a14 	bl	2c0c <TEE_ReadObjectData>
     3c0:	2a0003f3 	mov	w19, w0
/media/home/beste/01_Pro/ld25x/bsp_hu/MYD-LD25X-Uboot-L2022.10-V1.0.0/GEN_FIP/myir-st-optee/ta/avb/entry.c:158
     3c4:	35fff800 	cbnz	w0, 2c4 <TA_InvokeCommandEntryPoint+0xc0>
/media/home/beste/01_Pro/ld25x/bsp_hu/MYD-LD25X-Uboot-L2022.10-V1.0.0/GEN_FIP/myir-st-optee/ta/avb/entry.c:160
     3c8:	b9405fe0 	ldr	w0, [sp, #92]
     3cc:	7100201f 	cmp	w0, #0x8
     3d0:	540001a0 	b.eq	404 <TA_InvokeCommandEntryPoint+0x200>  // b.none
/media/home/beste/01_Pro/ld25x/bsp_hu/MYD-LD25X-Uboot-L2022.10-V1.0.0/GEN_FIP/myir-st-optee/ta/avb/entry.c:161
     3d4:	f90037ff 	str	xzr, [sp, #104]
/media/home/beste/01_Pro/ld25x/bsp_hu/MYD-LD25X-Uboot-L2022.10-V1.0.0/GEN_FIP/myir-st-optee/ta/avb/entry.c:168
     3d8:	f9403be0 	ldr	x0, [sp, #112]
     3dc:	2a1503e1 	mov	w1, w21
     3e0:	52800002 	mov	w2, #0x0                   	// #0
     3e4:	94000a63 	bl	2d70 <TEE_SeekObjectData>
     3e8:	2a0003f3 	mov	w19, w0
/media/home/beste/01_Pro/ld25x/bsp_hu/MYD-LD25X-Uboot-L2022.10-V1.0.0/GEN_FIP/myir-st-optee/ta/avb/entry.c:169
     3ec:	35fff6c0 	cbnz	w0, 2c4 <TA_InvokeCommandEntryPoint+0xc0>
/media/home/beste/01_Pro/ld25x/bsp_hu/MYD-LD25X-Uboot-L2022.10-V1.0.0/GEN_FIP/myir-st-optee/ta/avb/entry.c:172
     3f0:	f9403be0 	ldr	x0, [sp, #112]
     3f4:	910183e1 	add	x1, sp, #0x60
     3f8:	52800102 	mov	w2, #0x8                   	// #8
     3fc:	94000a29 	bl	2ca0 <TEE_WriteObjectData>
     400:	17ffffd4 	b	350 <TA_InvokeCommandEntryPoint+0x14c>
/media/home/beste/01_Pro/ld25x/bsp_hu/MYD-LD25X-Uboot-L2022.10-V1.0.0/GEN_FIP/myir-st-optee/ta/avb/entry.c:163
     404:	a94603e1 	ldp	x1, x0, [sp, #96]
/media/home/beste/01_Pro/ld25x/bsp_hu/MYD-LD25X-Uboot-L2022.10-V1.0.0/GEN_FIP/myir-st-optee/ta/avb/entry.c:164
     408:	129ffe13 	mov	w19, #0xffff000f            	// #-65521
/media/home/beste/01_Pro/ld25x/bsp_hu/MYD-LD25X-Uboot-L2022.10-V1.0.0/GEN_FIP/myir-st-optee/ta/avb/entry.c:163
     40c:	eb00003f 	cmp	x1, x0
     410:	54fff5a3 	b.cc	2c4 <TA_InvokeCommandEntryPoint+0xc0>  // b.lo, b.ul, b.last
     414:	17fffff1 	b	3d8 <TA_InvokeCommandEntryPoint+0x1d4>
read_lock_state():
/media/home/beste/01_Pro/ld25x/bsp_hu/MYD-LD25X-Uboot-L2022.10-V1.0.0/GEN_FIP/myir-st-optee/ta/avb/entry.c:189
     418:	7100085f 	cmp	w2, #0x2
     41c:	54001601 	b.ne	6dc <TA_InvokeCommandEntryPoint+0x4d8>  // b.any
/media/home/beste/01_Pro/ld25x/bsp_hu/MYD-LD25X-Uboot-L2022.10-V1.0.0/GEN_FIP/myir-st-optee/ta/avb/entry.c:192
     420:	9101c3e1 	add	x1, sp, #0x70
     424:	52800000 	mov	w0, #0x0                   	// #0
     428:	97ffff34 	bl	f8 <open_rb_state>
     42c:	2a0003f3 	mov	w19, w0
/media/home/beste/01_Pro/ld25x/bsp_hu/MYD-LD25X-Uboot-L2022.10-V1.0.0/GEN_FIP/myir-st-optee/ta/avb/entry.c:193
     430:	35fff4e0 	cbnz	w0, 2cc <TA_InvokeCommandEntryPoint+0xc8>
/media/home/beste/01_Pro/ld25x/bsp_hu/MYD-LD25X-Uboot-L2022.10-V1.0.0/GEN_FIP/myir-st-optee/ta/avb/entry.c:196
     434:	f9403be0 	ldr	x0, [sp, #112]
     438:	9101a3e3 	add	x3, sp, #0x68
     43c:	910183e1 	add	x1, sp, #0x60
     440:	52800082 	mov	w2, #0x4                   	// #4
     444:	940009f2 	bl	2c0c <TEE_ReadObjectData>
     448:	2a0003f3 	mov	w19, w0
/media/home/beste/01_Pro/ld25x/bsp_hu/MYD-LD25X-Uboot-L2022.10-V1.0.0/GEN_FIP/myir-st-optee/ta/avb/entry.c:197
     44c:	35fff3c0 	cbnz	w0, 2c4 <TA_InvokeCommandEntryPoint+0xc0>
/media/home/beste/01_Pro/ld25x/bsp_hu/MYD-LD25X-Uboot-L2022.10-V1.0.0/GEN_FIP/myir-st-optee/ta/avb/entry.c:199
     450:	b9406be0 	ldr	w0, [sp, #104]
     454:	7100101f 	cmp	w0, #0x4
     458:	54000081 	b.ne	468 <TA_InvokeCommandEntryPoint+0x264>  // b.any
/media/home/beste/01_Pro/ld25x/bsp_hu/MYD-LD25X-Uboot-L2022.10-V1.0.0/GEN_FIP/myir-st-optee/ta/avb/entry.c:208
     45c:	b94063e0 	ldr	w0, [sp, #96]
     460:	b9000280 	str	w0, [x20]
     464:	17ffff98 	b	2c4 <TA_InvokeCommandEntryPoint+0xc0>
/media/home/beste/01_Pro/ld25x/bsp_hu/MYD-LD25X-Uboot-L2022.10-V1.0.0/GEN_FIP/myir-st-optee/ta/avb/entry.c:204
     468:	52800033 	mov	w19, #0x1                   	// #1
     46c:	72be0213 	movk	w19, #0xf010, lsl #16
/media/home/beste/01_Pro/ld25x/bsp_hu/MYD-LD25X-Uboot-L2022.10-V1.0.0/GEN_FIP/myir-st-optee/ta/avb/entry.c:210
     470:	17ffff95 	b	2c4 <TA_InvokeCommandEntryPoint+0xc0>
write_lock_state():
/media/home/beste/01_Pro/ld25x/bsp_hu/MYD-LD25X-Uboot-L2022.10-V1.0.0/GEN_FIP/myir-st-optee/ta/avb/entry.c:227
     474:	7100045f 	cmp	w2, #0x1
     478:	54001321 	b.ne	6dc <TA_InvokeCommandEntryPoint+0x4d8>  // b.any
/media/home/beste/01_Pro/ld25x/bsp_hu/MYD-LD25X-Uboot-L2022.10-V1.0.0/GEN_FIP/myir-st-optee/ta/avb/entry.c:230
     47c:	b9400074 	ldr	w20, [x3]
/media/home/beste/01_Pro/ld25x/bsp_hu/MYD-LD25X-Uboot-L2022.10-V1.0.0/GEN_FIP/myir-st-optee/ta/avb/entry.c:232
     480:	9101c3f5 	add	x21, sp, #0x70
     484:	aa1503e1 	mov	x1, x21
     488:	2a1403e0 	mov	w0, w20
     48c:	97ffff1b 	bl	f8 <open_rb_state>
     490:	2a0003f3 	mov	w19, w0
/media/home/beste/01_Pro/ld25x/bsp_hu/MYD-LD25X-Uboot-L2022.10-V1.0.0/GEN_FIP/myir-st-optee/ta/avb/entry.c:233
     494:	35fff1c0 	cbnz	w0, 2cc <TA_InvokeCommandEntryPoint+0xc8>
/media/home/beste/01_Pro/ld25x/bsp_hu/MYD-LD25X-Uboot-L2022.10-V1.0.0/GEN_FIP/myir-st-optee/ta/avb/entry.c:236
     498:	f9403be0 	ldr	x0, [sp, #112]
     49c:	910183e3 	add	x3, sp, #0x60
     4a0:	910173e1 	add	x1, sp, #0x5c
     4a4:	52800082 	mov	w2, #0x4                   	// #4
     4a8:	940009d9 	bl	2c0c <TEE_ReadObjectData>
     4ac:	2a0003f3 	mov	w19, w0
/media/home/beste/01_Pro/ld25x/bsp_hu/MYD-LD25X-Uboot-L2022.10-V1.0.0/GEN_FIP/myir-st-optee/ta/avb/entry.c:237
     4b0:	35fff0a0 	cbnz	w0, 2c4 <TA_InvokeCommandEntryPoint+0xc0>
/media/home/beste/01_Pro/ld25x/bsp_hu/MYD-LD25X-Uboot-L2022.10-V1.0.0/GEN_FIP/myir-st-optee/ta/avb/entry.c:239
     4b4:	b94063e0 	ldr	w0, [sp, #96]
     4b8:	7100101f 	cmp	w0, #0x4
     4bc:	54000081 	b.ne	4cc <TA_InvokeCommandEntryPoint+0x2c8>  // b.any
     4c0:	b9405fe0 	ldr	w0, [sp, #92]
     4c4:	6b00029f 	cmp	w20, w0
     4c8:	54ffefe0 	b.eq	2c4 <TA_InvokeCommandEntryPoint+0xc0>  // b.none
create_rb_state():
/media/home/beste/01_Pro/ld25x/bsp_hu/MYD-LD25X-Uboot-L2022.10-V1.0.0/GEN_FIP/myir-st-optee/ta/avb/entry.c:32
     4cc:	52802000 	mov	w0, #0x100                 	// #256
     4d0:	aa1503e7 	mov	x7, x21
     4d4:	9101a3e5 	add	x5, sp, #0x68
     4d8:	52800086 	mov	w6, #0x4                   	// #4
     4dc:	d2800004 	mov	x4, #0x0                   	// #0
     4e0:	52808063 	mov	w3, #0x403                 	// #1027
     4e4:	52800122 	mov	w2, #0x9                   	// #9
     4e8:	d0000081 	adrp	x1, 12000 <__compound_literal.2>
     4ec:	72b00000 	movk	w0, #0x8000, lsl #16
     4f0:	910df821 	add	x1, x1, #0x37e
     4f4:	b9006bf4 	str	w20, [sp, #104]
     4f8:	940008ea 	bl	28a0 <TEE_CreatePersistentObject>
     4fc:	17ffff95 	b	350 <TA_InvokeCommandEntryPoint+0x14c>
read_persist_value():
/media/home/beste/01_Pro/ld25x/bsp_hu/MYD-LD25X-Uboot-L2022.10-V1.0.0/GEN_FIP/myir-st-optee/ta/avb/entry.c:315
     500:	290bffff 	stp	wzr, wzr, [sp, #92]
/media/home/beste/01_Pro/ld25x/bsp_hu/MYD-LD25X-Uboot-L2022.10-V1.0.0/GEN_FIP/myir-st-optee/ta/avb/entry.c:308
     504:	f90037ff 	str	xzr, [sp, #104]
/media/home/beste/01_Pro/ld25x/bsp_hu/MYD-LD25X-Uboot-L2022.10-V1.0.0/GEN_FIP/myir-st-optee/ta/avb/entry.c:317
     508:	7101d45f 	cmp	w2, #0x75
     50c:	54000e81 	b.ne	6dc <TA_InvokeCommandEntryPoint+0x4d8>  // b.any
/media/home/beste/01_Pro/ld25x/bsp_hu/MYD-LD25X-Uboot-L2022.10-V1.0.0/GEN_FIP/myir-st-optee/ta/avb/entry.c:322
     510:	b9401876 	ldr	w22, [x3, #24]
     514:	91004077 	add	x23, x3, #0x10
/media/home/beste/01_Pro/ld25x/bsp_hu/MYD-LD25X-Uboot-L2022.10-V1.0.0/GEN_FIP/myir-st-optee/ta/avb/entry.c:320
     518:	f9400073 	ldr	x19, [x3]
/media/home/beste/01_Pro/ld25x/bsp_hu/MYD-LD25X-Uboot-L2022.10-V1.0.0/GEN_FIP/myir-st-optee/ta/avb/entry.c:323
     51c:	2a1603e0 	mov	w0, w22
/media/home/beste/01_Pro/ld25x/bsp_hu/MYD-LD25X-Uboot-L2022.10-V1.0.0/GEN_FIP/myir-st-optee/ta/avb/entry.c:321
     520:	b9400879 	ldr	w25, [x3, #8]
/media/home/beste/01_Pro/ld25x/bsp_hu/MYD-LD25X-Uboot-L2022.10-V1.0.0/GEN_FIP/myir-st-optee/ta/avb/entry.c:323
     524:	52800001 	mov	w1, #0x0                   	// #0
     528:	94000696 	bl	1f80 <TEE_Malloc>
     52c:	aa0003f5 	mov	x21, x0
/media/home/beste/01_Pro/ld25x/bsp_hu/MYD-LD25X-Uboot-L2022.10-V1.0.0/GEN_FIP/myir-st-optee/ta/avb/entry.c:324
     530:	b4000da0 	cbz	x0, 6e4 <TA_InvokeCommandEntryPoint+0x4e0>
/media/home/beste/01_Pro/ld25x/bsp_hu/MYD-LD25X-Uboot-L2022.10-V1.0.0/GEN_FIP/myir-st-optee/ta/avb/entry.c:327
     534:	9101c3f8 	add	x24, sp, #0x70
     538:	aa1303e0 	mov	x0, x19
     53c:	910173e3 	add	x3, sp, #0x5c
     540:	aa1803e2 	mov	x2, x24
     544:	2a1903e1 	mov	w1, w25
     548:	97ffff0b 	bl	174 <get_named_object_name.constprop.0>
     54c:	2a0003f3 	mov	w19, w0
/media/home/beste/01_Pro/ld25x/bsp_hu/MYD-LD25X-Uboot-L2022.10-V1.0.0/GEN_FIP/myir-st-optee/ta/avb/entry.c:329
     550:	35000280 	cbnz	w0, 5a0 <TA_InvokeCommandEntryPoint+0x39c>
/media/home/beste/01_Pro/ld25x/bsp_hu/MYD-LD25X-Uboot-L2022.10-V1.0.0/GEN_FIP/myir-st-optee/ta/avb/entry.c:332
     554:	b9405fe2 	ldr	w2, [sp, #92]
     558:	52802000 	mov	w0, #0x100                 	// #256
     55c:	9101a3e4 	add	x4, sp, #0x68
     560:	aa1803e1 	mov	x1, x24
     564:	52800063 	mov	w3, #0x3                   	// #3
     568:	72b00000 	movk	w0, #0x8000, lsl #16
     56c:	940008a1 	bl	27f0 <TEE_OpenPersistentObject>
     570:	2a0003f3 	mov	w19, w0
/media/home/beste/01_Pro/ld25x/bsp_hu/MYD-LD25X-Uboot-L2022.10-V1.0.0/GEN_FIP/myir-st-optee/ta/avb/entry.c:334
     574:	340001c0 	cbz	w0, 5ac <TA_InvokeCommandEntryPoint+0x3a8>
/media/home/beste/01_Pro/ld25x/bsp_hu/MYD-LD25X-Uboot-L2022.10-V1.0.0/GEN_FIP/myir-st-optee/ta/avb/entry.c:335
     578:	2a0003e5 	mov	w5, w0
     57c:	d0000080 	adrp	x0, 12000 <__compound_literal.2>
     580:	910df800 	add	x0, x0, #0x37e
     584:	d0000084 	adrp	x4, 12000 <__compound_literal.2>
     588:	91002400 	add	x0, x0, #0x9
     58c:	910b7484 	add	x4, x4, #0x2dd
     590:	52800023 	mov	w3, #0x1                   	// #1
     594:	52800022 	mov	w2, #0x1                   	// #1
     598:	528029e1 	mov	w1, #0x14f                 	// #335
     59c:	940000e2 	bl	924 <trace_printf>
write_persist_value():
/media/home/beste/01_Pro/ld25x/bsp_hu/MYD-LD25X-Uboot-L2022.10-V1.0.0/GEN_FIP/myir-st-optee/ta/avb/entry.c:293
     5a0:	aa1503e0 	mov	x0, x21
     5a4:	94000691 	bl	1fe8 <TEE_Free>
/media/home/beste/01_Pro/ld25x/bsp_hu/MYD-LD25X-Uboot-L2022.10-V1.0.0/GEN_FIP/myir-st-optee/ta/avb/entry.c:295
     5a8:	17ffff49 	b	2cc <TA_InvokeCommandEntryPoint+0xc8>
read_persist_value():
/media/home/beste/01_Pro/ld25x/bsp_hu/MYD-LD25X-Uboot-L2022.10-V1.0.0/GEN_FIP/myir-st-optee/ta/avb/entry.c:339
     5ac:	f94037e0 	ldr	x0, [sp, #104]
     5b0:	910183e3 	add	x3, sp, #0x60
     5b4:	2a1603e2 	mov	w2, w22
     5b8:	aa1503e1 	mov	x1, x21
     5bc:	94000994 	bl	2c0c <TEE_ReadObjectData>
     5c0:	2a0003f3 	mov	w19, w0
/media/home/beste/01_Pro/ld25x/bsp_hu/MYD-LD25X-Uboot-L2022.10-V1.0.0/GEN_FIP/myir-st-optee/ta/avb/entry.c:340
     5c4:	34000180 	cbz	w0, 5f4 <TA_InvokeCommandEntryPoint+0x3f0>
/media/home/beste/01_Pro/ld25x/bsp_hu/MYD-LD25X-Uboot-L2022.10-V1.0.0/GEN_FIP/myir-st-optee/ta/avb/entry.c:341
     5c8:	2a0003e5 	mov	w5, w0
     5cc:	d0000080 	adrp	x0, 12000 <__compound_literal.2>
     5d0:	910df800 	add	x0, x0, #0x37e
     5d4:	d0000084 	adrp	x4, 12000 <__compound_literal.2>
     5d8:	91002400 	add	x0, x0, #0x9
     5dc:	910c1c84 	add	x4, x4, #0x307
     5e0:	52800023 	mov	w3, #0x1                   	// #1
     5e4:	52800022 	mov	w2, #0x1                   	// #1
     5e8:	52802aa1 	mov	w1, #0x155                 	// #341
write_persist_value():
/media/home/beste/01_Pro/ld25x/bsp_hu/MYD-LD25X-Uboot-L2022.10-V1.0.0/GEN_FIP/myir-st-optee/ta/avb/entry.c:289
     5ec:	940000ce 	bl	924 <trace_printf>
     5f0:	14000007 	b	60c <TA_InvokeCommandEntryPoint+0x408>
read_persist_value():
/media/home/beste/01_Pro/ld25x/bsp_hu/MYD-LD25X-Uboot-L2022.10-V1.0.0/GEN_FIP/myir-st-optee/ta/avb/entry.c:345
     5f4:	f9400a80 	ldr	x0, [x20, #16]
     5f8:	2a1603e2 	mov	w2, w22
     5fc:	aa1503e1 	mov	x1, x21
     600:	9400060e 	bl	1e38 <TEE_MemMove>
/media/home/beste/01_Pro/ld25x/bsp_hu/MYD-LD25X-Uboot-L2022.10-V1.0.0/GEN_FIP/myir-st-optee/ta/avb/entry.c:348
     604:	b94063e0 	ldr	w0, [sp, #96]
     608:	b9000ae0 	str	w0, [x23, #8]
write_persist_value():
/media/home/beste/01_Pro/ld25x/bsp_hu/MYD-LD25X-Uboot-L2022.10-V1.0.0/GEN_FIP/myir-st-optee/ta/avb/entry.c:291
     60c:	f94037e0 	ldr	x0, [sp, #104]
     610:	94000761 	bl	2394 <TEE_CloseObject>
     614:	17ffffe3 	b	5a0 <TA_InvokeCommandEntryPoint+0x39c>
/media/home/beste/01_Pro/ld25x/bsp_hu/MYD-LD25X-Uboot-L2022.10-V1.0.0/GEN_FIP/myir-st-optee/ta/avb/entry.c:261
     618:	b90063ff 	str	wzr, [sp, #96]
/media/home/beste/01_Pro/ld25x/bsp_hu/MYD-LD25X-Uboot-L2022.10-V1.0.0/GEN_FIP/myir-st-optee/ta/avb/entry.c:259
     61c:	f90037ff 	str	xzr, [sp, #104]
/media/home/beste/01_Pro/ld25x/bsp_hu/MYD-LD25X-Uboot-L2022.10-V1.0.0/GEN_FIP/myir-st-optee/ta/avb/entry.c:258
     620:	a9077fff 	stp	xzr, xzr, [sp, #112]
     624:	a9087fff 	stp	xzr, xzr, [sp, #128]
     628:	a9097fff 	stp	xzr, xzr, [sp, #144]
     62c:	a90a7fff 	stp	xzr, xzr, [sp, #160]
/media/home/beste/01_Pro/ld25x/bsp_hu/MYD-LD25X-Uboot-L2022.10-V1.0.0/GEN_FIP/myir-st-optee/ta/avb/entry.c:267
     630:	7101545f 	cmp	w2, #0x55
     634:	54000541 	b.ne	6dc <TA_InvokeCommandEntryPoint+0x4d8>  // b.any
/media/home/beste/01_Pro/ld25x/bsp_hu/MYD-LD25X-Uboot-L2022.10-V1.0.0/GEN_FIP/myir-st-optee/ta/avb/entry.c:272
     638:	b9401876 	ldr	w22, [x3, #24]
/media/home/beste/01_Pro/ld25x/bsp_hu/MYD-LD25X-Uboot-L2022.10-V1.0.0/GEN_FIP/myir-st-optee/ta/avb/entry.c:273
     63c:	52800001 	mov	w1, #0x0                   	// #0
/media/home/beste/01_Pro/ld25x/bsp_hu/MYD-LD25X-Uboot-L2022.10-V1.0.0/GEN_FIP/myir-st-optee/ta/avb/entry.c:270
     640:	f9400073 	ldr	x19, [x3]
/media/home/beste/01_Pro/ld25x/bsp_hu/MYD-LD25X-Uboot-L2022.10-V1.0.0/GEN_FIP/myir-st-optee/ta/avb/entry.c:273
     644:	2a1603e0 	mov	w0, w22
/media/home/beste/01_Pro/ld25x/bsp_hu/MYD-LD25X-Uboot-L2022.10-V1.0.0/GEN_FIP/myir-st-optee/ta/avb/entry.c:271
     648:	b9400877 	ldr	w23, [x3, #8]
/media/home/beste/01_Pro/ld25x/bsp_hu/MYD-LD25X-Uboot-L2022.10-V1.0.0/GEN_FIP/myir-st-optee/ta/avb/entry.c:273
     64c:	9400064d 	bl	1f80 <TEE_Malloc>
     650:	aa0003f5 	mov	x21, x0
/media/home/beste/01_Pro/ld25x/bsp_hu/MYD-LD25X-Uboot-L2022.10-V1.0.0/GEN_FIP/myir-st-optee/ta/avb/entry.c:274
     654:	b4000480 	cbz	x0, 6e4 <TA_InvokeCommandEntryPoint+0x4e0>
/media/home/beste/01_Pro/ld25x/bsp_hu/MYD-LD25X-Uboot-L2022.10-V1.0.0/GEN_FIP/myir-st-optee/ta/avb/entry.c:277
     658:	f9400a81 	ldr	x1, [x20, #16]
     65c:	2a1603e2 	mov	w2, w22
/media/home/beste/01_Pro/ld25x/bsp_hu/MYD-LD25X-Uboot-L2022.10-V1.0.0/GEN_FIP/myir-st-optee/ta/avb/entry.c:279
     660:	9101c3f4 	add	x20, sp, #0x70
/media/home/beste/01_Pro/ld25x/bsp_hu/MYD-LD25X-Uboot-L2022.10-V1.0.0/GEN_FIP/myir-st-optee/ta/avb/entry.c:277
     664:	940005f5 	bl	1e38 <TEE_MemMove>
/media/home/beste/01_Pro/ld25x/bsp_hu/MYD-LD25X-Uboot-L2022.10-V1.0.0/GEN_FIP/myir-st-optee/ta/avb/entry.c:279
     668:	aa1303e0 	mov	x0, x19
     66c:	910183e3 	add	x3, sp, #0x60
     670:	aa1403e2 	mov	x2, x20
     674:	2a1703e1 	mov	w1, w23
     678:	97fffebf 	bl	174 <get_named_object_name.constprop.0>
     67c:	2a0003f3 	mov	w19, w0
/media/home/beste/01_Pro/ld25x/bsp_hu/MYD-LD25X-Uboot-L2022.10-V1.0.0/GEN_FIP/myir-st-optee/ta/avb/entry.c:281
     680:	35fff900 	cbnz	w0, 5a0 <TA_InvokeCommandEntryPoint+0x39c>
/media/home/beste/01_Pro/ld25x/bsp_hu/MYD-LD25X-Uboot-L2022.10-V1.0.0/GEN_FIP/myir-st-optee/ta/avb/entry.c:284
     684:	b94063e2 	ldr	w2, [sp, #96]
     688:	52802000 	mov	w0, #0x100                 	// #256
     68c:	9101a3e7 	add	x7, sp, #0x68
     690:	2a1603e6 	mov	w6, w22
     694:	aa1503e5 	mov	x5, x21
     698:	aa1403e1 	mov	x1, x20
     69c:	d2800004 	mov	x4, #0x0                   	// #0
     6a0:	52808063 	mov	w3, #0x403                 	// #1027
     6a4:	72b00000 	movk	w0, #0x8000, lsl #16
     6a8:	9400087e 	bl	28a0 <TEE_CreatePersistentObject>
     6ac:	2a0003f3 	mov	w19, w0
/media/home/beste/01_Pro/ld25x/bsp_hu/MYD-LD25X-Uboot-L2022.10-V1.0.0/GEN_FIP/myir-st-optee/ta/avb/entry.c:288
     6b0:	34fffae0 	cbz	w0, 60c <TA_InvokeCommandEntryPoint+0x408>
/media/home/beste/01_Pro/ld25x/bsp_hu/MYD-LD25X-Uboot-L2022.10-V1.0.0/GEN_FIP/myir-st-optee/ta/avb/entry.c:289
     6b4:	2a0003e5 	mov	w5, w0
     6b8:	d0000080 	adrp	x0, 12000 <__compound_literal.2>
     6bc:	910df800 	add	x0, x0, #0x37e
     6c0:	d0000084 	adrp	x4, 12000 <__compound_literal.2>
     6c4:	91007000 	add	x0, x0, #0x1c
     6c8:	910cc484 	add	x4, x4, #0x331
     6cc:	52800023 	mov	w3, #0x1                   	// #1
     6d0:	52800022 	mov	w2, #0x1                   	// #1
     6d4:	52802421 	mov	w1, #0x121                 	// #289
     6d8:	17ffffc5 	b	5ec <TA_InvokeCommandEntryPoint+0x3e8>
/media/home/beste/01_Pro/ld25x/bsp_hu/MYD-LD25X-Uboot-L2022.10-V1.0.0/GEN_FIP/myir-st-optee/ta/avb/entry.c:268
     6dc:	129fff33 	mov	w19, #0xffff0006            	// #-65530
     6e0:	17fffefb 	b	2cc <TA_InvokeCommandEntryPoint+0xc8>
/media/home/beste/01_Pro/ld25x/bsp_hu/MYD-LD25X-Uboot-L2022.10-V1.0.0/GEN_FIP/myir-st-optee/ta/avb/entry.c:275
     6e4:	129ffe73 	mov	w19, #0xffff000c            	// #-65524
TA_InvokeCommandEntryPoint():
/media/home/beste/01_Pro/ld25x/bsp_hu/MYD-LD25X-Uboot-L2022.10-V1.0.0/GEN_FIP/myir-st-optee/ta/avb/entry.c:393
     6e8:	17fffef9 	b	2cc <TA_InvokeCommandEntryPoint+0xc8>

00000000000006ec <__ta_entry>:
__ta_entry():
/media/home/beste/01_Pro/ld25x/bsp_hu/MYD-LD25X-Uboot-L2022.10-V1.0.0/GEN_FIP/myir-st-optee/../build/myb-stm32mp257x-2GB-ca35tdcid-ostl/export-ta_arm64/src/user_ta_header.c:48
     6ec:	a9bf7bfd 	stp	x29, x30, [sp, #-16]!
     6f0:	910003fd 	mov	x29, sp
/media/home/beste/01_Pro/ld25x/bsp_hu/MYD-LD25X-Uboot-L2022.10-V1.0.0/GEN_FIP/myir-st-optee/../build/myb-stm32mp257x-2GB-ca35tdcid-ostl/export-ta_arm64/src/user_ta_header.c:49
     6f4:	94000c7c 	bl	38e4 <__utee_entry>
/media/home/beste/01_Pro/ld25x/bsp_hu/MYD-LD25X-Uboot-L2022.10-V1.0.0/GEN_FIP/myir-st-optee/../build/myb-stm32mp257x-2GB-ca35tdcid-ostl/export-ta_arm64/src/user_ta_header.c:60
     6f8:	2a0003e0 	mov	w0, w0
     6fc:	94000abb 	bl	31e8 <_utee_return>

0000000000000700 <tahead_get_trace_level>:
tahead_get_trace_level():
/media/home/beste/01_Pro/ld25x/bsp_hu/MYD-LD25X-Uboot-L2022.10-V1.0.0/GEN_FIP/myir-st-optee/../build/myb-stm32mp257x-2GB-ca35tdcid-ostl/export-ta_arm64/src/user_ta_header.c:154
     700:	52800020 	mov	w0, #0x1                   	// #1
     704:	d65f03c0 	ret

0000000000000708 <trace_set_level>:
trace_set_level():
/media/home/beste/01_Pro/ld25x/bsp_hu/MYD-LD25X-Uboot-L2022.10-V1.0.0/GEN_FIP/myir-st-optee/lib/libutils/ext/trace.c:28
     708:	7100141f 	cmp	w0, #0x5
     70c:	52800081 	mov	w1, #0x4                   	// #4
     710:	1a813000 	csel	w0, w0, w1, cc	// cc = lo, ul, last
     714:	900000a1 	adrp	x1, 14000 <_DYNAMIC>
     718:	f940a021 	ldr	x1, [x1, #320]
     71c:	b9000020 	str	w0, [x1]
/media/home/beste/01_Pro/ld25x/bsp_hu/MYD-LD25X-Uboot-L2022.10-V1.0.0/GEN_FIP/myir-st-optee/lib/libutils/ext/trace.c:29
     720:	d65f03c0 	ret

0000000000000724 <trace_get_level>:
trace_get_level():
/media/home/beste/01_Pro/ld25x/bsp_hu/MYD-LD25X-Uboot-L2022.10-V1.0.0/GEN_FIP/myir-st-optee/lib/libutils/ext/trace.c:33
     724:	900000a0 	adrp	x0, 14000 <_DYNAMIC>
/media/home/beste/01_Pro/ld25x/bsp_hu/MYD-LD25X-Uboot-L2022.10-V1.0.0/GEN_FIP/myir-st-optee/lib/libutils/ext/trace.c:34
     728:	f940a000 	ldr	x0, [x0, #320]
     72c:	b9400000 	ldr	w0, [x0]
     730:	d65f03c0 	ret

0000000000000734 <trace_vprintf>:
trace_vprintf():
/media/home/beste/01_Pro/ld25x/bsp_hu/MYD-LD25X-Uboot-L2022.10-V1.0.0/GEN_FIP/myir-st-optee/lib/libutils/ext/trace.c:113
     734:	a9a87bfd 	stp	x29, x30, [sp, #-384]!
     738:	910003fd 	mov	x29, sp
     73c:	a90153f3 	stp	x19, x20, [sp, #16]
     740:	2a0203f3 	mov	w19, w2
     744:	a9025bf5 	stp	x21, x22, [sp, #32]
     748:	aa0003f6 	mov	x22, x0
     74c:	a90363f7 	stp	x23, x24, [sp, #48]
     750:	aa0403f7 	mov	x23, x4
     754:	aa0503f8 	mov	x24, x5
     758:	a9046bf9 	stp	x25, x26, [sp, #64]
     75c:	2a0103f9 	mov	w25, w1
/media/home/beste/01_Pro/ld25x/bsp_hu/MYD-LD25X-Uboot-L2022.10-V1.0.0/GEN_FIP/myir-st-optee/lib/libutils/ext/trace.c:118
     760:	72001c7a 	ands	w26, w3, #0xff
/media/home/beste/01_Pro/ld25x/bsp_hu/MYD-LD25X-Uboot-L2022.10-V1.0.0/GEN_FIP/myir-st-optee/lib/libutils/ext/trace.c:113
     764:	f9002bfb 	str	x27, [sp, #80]
/media/home/beste/01_Pro/ld25x/bsp_hu/MYD-LD25X-Uboot-L2022.10-V1.0.0/GEN_FIP/myir-st-optee/lib/libutils/ext/trace.c:118
     768:	54000b60 	b.eq	8d4 <trace_vprintf+0x1a0>  // b.none
/media/home/beste/01_Pro/ld25x/bsp_hu/MYD-LD25X-Uboot-L2022.10-V1.0.0/GEN_FIP/myir-st-optee/lib/libutils/ext/trace.c:118 (discriminator 1)
     76c:	900000a3 	adrp	x3, 14000 <_DYNAMIC>
     770:	f940a063 	ldr	x3, [x3, #320]
     774:	b9400060 	ldr	w0, [x3]
     778:	6b02001f 	cmp	w0, w2
     77c:	540009eb 	b.lt	8b8 <trace_vprintf+0x184>  // b.tstop
trace_level_to_string():
/media/home/beste/01_Pro/ld25x/bsp_hu/MYD-LD25X-Uboot-L2022.10-V1.0.0/GEN_FIP/myir-st-optee/lib/libutils/ext/trace.c:51
     780:	7100105f 	cmp	w2, #0x4
/media/home/beste/01_Pro/ld25x/bsp_hu/MYD-LD25X-Uboot-L2022.10-V1.0.0/GEN_FIP/myir-st-optee/lib/libutils/ext/trace.c:54
     784:	d0000080 	adrp	x0, 12000 <__compound_literal.2>
/media/home/beste/01_Pro/ld25x/bsp_hu/MYD-LD25X-Uboot-L2022.10-V1.0.0/GEN_FIP/myir-st-optee/lib/libutils/ext/trace.c:51
     788:	1a9f9041 	csel	w1, w2, wzr, ls	// ls = plast
/media/home/beste/01_Pro/ld25x/bsp_hu/MYD-LD25X-Uboot-L2022.10-V1.0.0/GEN_FIP/myir-st-optee/lib/libutils/ext/trace.c:54
     78c:	91124400 	add	x0, x0, #0x491
     790:	3861c803 	ldrb	w3, [x0, w1, sxtw]
trace_vprintf():
/media/home/beste/01_Pro/ld25x/bsp_hu/MYD-LD25X-Uboot-L2022.10-V1.0.0/GEN_FIP/myir-st-optee/lib/libutils/ext/trace.c:122
     794:	910203f5 	add	x21, sp, #0x80
     798:	d0000082 	adrp	x2, 12000 <__compound_literal.2>
     79c:	aa1503e0 	mov	x0, x21
     7a0:	9111dc42 	add	x2, x2, #0x477
     7a4:	d2802001 	mov	x1, #0x100                 	// #256
     7a8:	940000b6 	bl	a80 <snprintk>
/media/home/beste/01_Pro/ld25x/bsp_hu/MYD-LD25X-Uboot-L2022.10-V1.0.0/GEN_FIP/myir-st-optee/lib/libutils/ext/trace.c:124
     7ac:	37f80860 	tbnz	w0, #31, 8b8 <trace_vprintf+0x184>
/media/home/beste/01_Pro/ld25x/bsp_hu/MYD-LD25X-Uboot-L2022.10-V1.0.0/GEN_FIP/myir-st-optee/lib/libutils/ext/trace.c:129
     7b0:	900000a3 	adrp	x3, 14000 <_DYNAMIC>
     7b4:	d280201b 	mov	x27, #0x100                 	// #256
/media/home/beste/01_Pro/ld25x/bsp_hu/MYD-LD25X-Uboot-L2022.10-V1.0.0/GEN_FIP/myir-st-optee/lib/libutils/ext/trace.c:126
     7b8:	93407c14 	sxtw	x20, w0
/media/home/beste/01_Pro/ld25x/bsp_hu/MYD-LD25X-Uboot-L2022.10-V1.0.0/GEN_FIP/myir-st-optee/lib/libutils/ext/trace.c:129
     7bc:	cb20c361 	sub	x1, x27, w0, sxtw
     7c0:	f940a863 	ldr	x3, [x3, #336]
     7c4:	d0000082 	adrp	x2, 12000 <__compound_literal.2>
     7c8:	8b20c2a0 	add	x0, x21, w0, sxtw
     7cc:	9111ec42 	add	x2, x2, #0x47b
     7d0:	940000ac 	bl	a80 <snprintk>
/media/home/beste/01_Pro/ld25x/bsp_hu/MYD-LD25X-Uboot-L2022.10-V1.0.0/GEN_FIP/myir-st-optee/lib/libutils/ext/trace.c:131
     7d4:	37f80720 	tbnz	w0, #31, 8b8 <trace_vprintf+0x184>
/media/home/beste/01_Pro/ld25x/bsp_hu/MYD-LD25X-Uboot-L2022.10-V1.0.0/GEN_FIP/myir-st-optee/lib/libutils/ext/trace.c:133
     7d8:	8b20c294 	add	x20, x20, w0, sxtw
/media/home/beste/01_Pro/ld25x/bsp_hu/MYD-LD25X-Uboot-L2022.10-V1.0.0/GEN_FIP/myir-st-optee/lib/libutils/ext/trace.c:135
     7dc:	3400093a 	cbz	w26, 900 <trace_vprintf+0x1cc>
/media/home/beste/01_Pro/ld25x/bsp_hu/MYD-LD25X-Uboot-L2022.10-V1.0.0/GEN_FIP/myir-st-optee/lib/libutils/ext/trace.c:135 (discriminator 1)
     7e0:	52800340 	mov	w0, #0x1a                  	// #26
     7e4:	1ad32400 	lsr	w0, w0, w19
     7e8:	360008c0 	tbz	w0, #0, 900 <trace_vprintf+0x1cc>
print_thread_id():
/media/home/beste/01_Pro/ld25x/bsp_hu/MYD-LD25X-Uboot-L2022.10-V1.0.0/GEN_FIP/myir-st-optee/lib/libutils/ext/trace.c:66
     7ec:	940003ea 	bl	1794 <trace_ext_get_thread_id>
trace_vprintf():
/media/home/beste/01_Pro/ld25x/bsp_hu/MYD-LD25X-Uboot-L2022.10-V1.0.0/GEN_FIP/myir-st-optee/lib/libutils/ext/trace.c:137
     7f0:	8b1402ba 	add	x26, x21, x20
     7f4:	cb14037b 	sub	x27, x27, x20
print_thread_id():
/media/home/beste/01_Pro/ld25x/bsp_hu/MYD-LD25X-Uboot-L2022.10-V1.0.0/GEN_FIP/myir-st-optee/lib/libutils/ext/trace.c:66
     7f8:	2a0003e4 	mov	w4, w0
/media/home/beste/01_Pro/ld25x/bsp_hu/MYD-LD25X-Uboot-L2022.10-V1.0.0/GEN_FIP/myir-st-optee/lib/libutils/ext/trace.c:68
     7fc:	37f80700 	tbnz	w0, #31, 8dc <trace_vprintf+0x1a8>
/media/home/beste/01_Pro/ld25x/bsp_hu/MYD-LD25X-Uboot-L2022.10-V1.0.0/GEN_FIP/myir-st-optee/lib/libutils/ext/trace.c:69
     800:	d0000082 	adrp	x2, 12000 <__compound_literal.2>
     804:	aa1b03e1 	mov	x1, x27
     808:	9111fc42 	add	x2, x2, #0x47f
     80c:	aa1a03e0 	mov	x0, x26
     810:	52800023 	mov	w3, #0x1                   	// #1
     814:	9400009b 	bl	a80 <snprintk>
trace_vprintf():
/media/home/beste/01_Pro/ld25x/bsp_hu/MYD-LD25X-Uboot-L2022.10-V1.0.0/GEN_FIP/myir-st-optee/lib/libutils/ext/trace.c:144
     818:	37f80500 	tbnz	w0, #31, 8b8 <trace_vprintf+0x184>
/media/home/beste/01_Pro/ld25x/bsp_hu/MYD-LD25X-Uboot-L2022.10-V1.0.0/GEN_FIP/myir-st-optee/lib/libutils/ext/trace.c:146
     81c:	8b20c293 	add	x19, x20, w0, sxtw
/media/home/beste/01_Pro/ld25x/bsp_hu/MYD-LD25X-Uboot-L2022.10-V1.0.0/GEN_FIP/myir-st-optee/lib/libutils/ext/trace.c:148
     820:	b4000176 	cbz	x22, 84c <trace_vprintf+0x118>
/media/home/beste/01_Pro/ld25x/bsp_hu/MYD-LD25X-Uboot-L2022.10-V1.0.0/GEN_FIP/myir-st-optee/lib/libutils/ext/trace.c:149
     824:	d0000082 	adrp	x2, 12000 <__compound_literal.2>
     828:	d2802001 	mov	x1, #0x100                 	// #256
     82c:	2a1903e4 	mov	w4, w25
     830:	aa1603e3 	mov	x3, x22
     834:	91122842 	add	x2, x2, #0x48a
     838:	cb130021 	sub	x1, x1, x19
     83c:	8b1302a0 	add	x0, x21, x19
     840:	94000090 	bl	a80 <snprintk>
/media/home/beste/01_Pro/ld25x/bsp_hu/MYD-LD25X-Uboot-L2022.10-V1.0.0/GEN_FIP/myir-st-optee/lib/libutils/ext/trace.c:151
     844:	37f803a0 	tbnz	w0, #31, 8b8 <trace_vprintf+0x184>
/media/home/beste/01_Pro/ld25x/bsp_hu/MYD-LD25X-Uboot-L2022.10-V1.0.0/GEN_FIP/myir-st-optee/lib/libutils/ext/trace.c:153
     848:	8b20c273 	add	x19, x19, w0, sxtw
/media/home/beste/01_Pro/ld25x/bsp_hu/MYD-LD25X-Uboot-L2022.10-V1.0.0/GEN_FIP/myir-st-optee/lib/libutils/ext/trace.c:163
     84c:	910183e3 	add	x3, sp, #0x60
     850:	aa1803e1 	mov	x1, x24
     854:	aa0303e0 	mov	x0, x3
     858:	d2800402 	mov	x2, #0x20                  	// #32
     85c:	97fffdf1 	bl	20 <memcpy>
     860:	aa0003e3 	mov	x3, x0
     864:	d2802001 	mov	x1, #0x100                 	// #256
     868:	aa1703e2 	mov	x2, x23
     86c:	cb130021 	sub	x1, x1, x19
     870:	8b1302a0 	add	x0, x21, x19
     874:	9400006d 	bl	a28 <vsnprintk>
/media/home/beste/01_Pro/ld25x/bsp_hu/MYD-LD25X-Uboot-L2022.10-V1.0.0/GEN_FIP/myir-st-optee/lib/libutils/ext/trace.c:164
     878:	7100001f 	cmp	w0, #0x0
     87c:	5400004d 	b.le	884 <trace_vprintf+0x150>
/media/home/beste/01_Pro/ld25x/bsp_hu/MYD-LD25X-Uboot-L2022.10-V1.0.0/GEN_FIP/myir-st-optee/lib/libutils/ext/trace.c:165
     880:	8b20c273 	add	x19, x19, w0, sxtw
/media/home/beste/01_Pro/ld25x/bsp_hu/MYD-LD25X-Uboot-L2022.10-V1.0.0/GEN_FIP/myir-st-optee/lib/libutils/ext/trace.c:167
     884:	f103fa7f 	cmp	x19, #0xfe
     888:	d2801fc0 	mov	x0, #0xfe                  	// #254
     88c:	9a809273 	csel	x19, x19, x0, ls	// ls = plast
/media/home/beste/01_Pro/ld25x/bsp_hu/MYD-LD25X-Uboot-L2022.10-V1.0.0/GEN_FIP/myir-st-optee/lib/libutils/ext/trace.c:170
     890:	52800140 	mov	w0, #0xa                   	// #10
     894:	38336aa0 	strb	w0, [x21, x19]
/media/home/beste/01_Pro/ld25x/bsp_hu/MYD-LD25X-Uboot-L2022.10-V1.0.0/GEN_FIP/myir-st-optee/lib/libutils/ext/trace.c:171
     898:	b4000093 	cbz	x19, 8a8 <trace_vprintf+0x174>
/media/home/beste/01_Pro/ld25x/bsp_hu/MYD-LD25X-Uboot-L2022.10-V1.0.0/GEN_FIP/myir-st-optee/lib/libutils/ext/trace.c:171 (discriminator 1)
     89c:	38736aa0 	ldrb	w0, [x21, x19]
     8a0:	7100281f 	cmp	w0, #0xa
     8a4:	540003c0 	b.eq	91c <trace_vprintf+0x1e8>  // b.none
/media/home/beste/01_Pro/ld25x/bsp_hu/MYD-LD25X-Uboot-L2022.10-V1.0.0/GEN_FIP/myir-st-optee/lib/libutils/ext/trace.c:174
     8a8:	91020be0 	add	x0, sp, #0x82
     8ac:	3833681f 	strb	wzr, [x0, x19]
/media/home/beste/01_Pro/ld25x/bsp_hu/MYD-LD25X-Uboot-L2022.10-V1.0.0/GEN_FIP/myir-st-optee/lib/libutils/ext/trace.c:176
     8b0:	aa1503e0 	mov	x0, x21
     8b4:	940003ae 	bl	176c <trace_ext_puts>
/media/home/beste/01_Pro/ld25x/bsp_hu/MYD-LD25X-Uboot-L2022.10-V1.0.0/GEN_FIP/myir-st-optee/lib/libutils/ext/trace.c:177
     8b8:	a94153f3 	ldp	x19, x20, [sp, #16]
     8bc:	a9425bf5 	ldp	x21, x22, [sp, #32]
     8c0:	a94363f7 	ldp	x23, x24, [sp, #48]
     8c4:	a9446bf9 	ldp	x25, x26, [sp, #64]
     8c8:	f9402bfb 	ldr	x27, [sp, #80]
     8cc:	a8d87bfd 	ldp	x29, x30, [sp], #384
     8d0:	d65f03c0 	ret
trace_level_to_string():
/media/home/beste/01_Pro/ld25x/bsp_hu/MYD-LD25X-Uboot-L2022.10-V1.0.0/GEN_FIP/myir-st-optee/lib/libutils/ext/trace.c:49
     8d4:	528009a3 	mov	w3, #0x4d                  	// #77
     8d8:	17ffffaf 	b	794 <trace_vprintf+0x60>
print_thread_id():
/media/home/beste/01_Pro/ld25x/bsp_hu/MYD-LD25X-Uboot-L2022.10-V1.0.0/GEN_FIP/myir-st-optee/lib/libutils/ext/trace.c:71
     8dc:	aa1b03e1 	mov	x1, x27
     8e0:	aa1a03e0 	mov	x0, x26
     8e4:	d0000084 	adrp	x4, 12000 <__compound_literal.2>
     8e8:	52800023 	mov	w3, #0x1                   	// #1
     8ec:	9136a484 	add	x4, x4, #0xda9
     8f0:	d0000082 	adrp	x2, 12000 <__compound_literal.2>
     8f4:	91121442 	add	x2, x2, #0x485
     8f8:	94000062 	bl	a80 <snprintk>
     8fc:	17ffffc7 	b	818 <trace_vprintf+0xe4>
trace_vprintf():
/media/home/beste/01_Pro/ld25x/bsp_hu/MYD-LD25X-Uboot-L2022.10-V1.0.0/GEN_FIP/myir-st-optee/lib/libutils/ext/trace.c:157
     900:	f103fa9f 	cmp	x20, #0xfe
     904:	54fffda8 	b.hi	8b8 <trace_vprintf+0x184>  // b.pmore
/media/home/beste/01_Pro/ld25x/bsp_hu/MYD-LD25X-Uboot-L2022.10-V1.0.0/GEN_FIP/myir-st-optee/lib/libutils/ext/trace.c:159
     908:	91000693 	add	x19, x20, #0x1
     90c:	52800400 	mov	w0, #0x20                  	// #32
     910:	38346aa0 	strb	w0, [x21, x20]
/media/home/beste/01_Pro/ld25x/bsp_hu/MYD-LD25X-Uboot-L2022.10-V1.0.0/GEN_FIP/myir-st-optee/lib/libutils/ext/trace.c:160
     914:	38336abf 	strb	wzr, [x21, x19]
     918:	17ffffcd 	b	84c <trace_vprintf+0x118>
/media/home/beste/01_Pro/ld25x/bsp_hu/MYD-LD25X-Uboot-L2022.10-V1.0.0/GEN_FIP/myir-st-optee/lib/libutils/ext/trace.c:172
     91c:	d1000673 	sub	x19, x19, #0x1
     920:	17ffffde 	b	898 <trace_vprintf+0x164>

0000000000000924 <trace_printf>:
trace_printf():
/media/home/beste/01_Pro/ld25x/bsp_hu/MYD-LD25X-Uboot-L2022.10-V1.0.0/GEN_FIP/myir-st-optee/lib/libutils/ext/trace.c:104
     924:	a9b17bfd 	stp	x29, x30, [sp, #-240]!
     928:	910003fd 	mov	x29, sp
     92c:	a90d9be5 	stp	x5, x6, [sp, #216]
/media/home/beste/01_Pro/ld25x/bsp_hu/MYD-LD25X-Uboot-L2022.10-V1.0.0/GEN_FIP/myir-st-optee/lib/libutils/ext/trace.c:107
     930:	9103c3e5 	add	x5, sp, #0xf0
     934:	a90317e5 	stp	x5, x5, [sp, #48]
     938:	910343e5 	add	x5, sp, #0xd0
     93c:	f90023e5 	str	x5, [sp, #64]
     940:	128002e5 	mov	w5, #0xffffffe8            	// #-24
     944:	b9004be5 	str	w5, [sp, #72]
     948:	12800fe5 	mov	w5, #0xffffff80            	// #-128
     94c:	b9004fe5 	str	w5, [sp, #76]
/media/home/beste/01_Pro/ld25x/bsp_hu/MYD-LD25X-Uboot-L2022.10-V1.0.0/GEN_FIP/myir-st-optee/lib/libutils/ext/trace.c:108
     950:	910043e5 	add	x5, sp, #0x10
/media/home/beste/01_Pro/ld25x/bsp_hu/MYD-LD25X-Uboot-L2022.10-V1.0.0/GEN_FIP/myir-st-optee/lib/libutils/ext/trace.c:104
     954:	f90077e7 	str	x7, [sp, #232]
/media/home/beste/01_Pro/ld25x/bsp_hu/MYD-LD25X-Uboot-L2022.10-V1.0.0/GEN_FIP/myir-st-optee/lib/libutils/ext/trace.c:108
     958:	a9431fe6 	ldp	x6, x7, [sp, #48]
     95c:	a9011fe6 	stp	x6, x7, [sp, #16]
     960:	a9441fe6 	ldp	x6, x7, [sp, #64]
     964:	a9021fe6 	stp	x6, x7, [sp, #32]
/media/home/beste/01_Pro/ld25x/bsp_hu/MYD-LD25X-Uboot-L2022.10-V1.0.0/GEN_FIP/myir-st-optee/lib/libutils/ext/trace.c:104
     968:	3d8017e0 	str	q0, [sp, #80]
     96c:	3d801be1 	str	q1, [sp, #96]
     970:	3d801fe2 	str	q2, [sp, #112]
     974:	3d8023e3 	str	q3, [sp, #128]
     978:	3d8027e4 	str	q4, [sp, #144]
     97c:	3d802be5 	str	q5, [sp, #160]
     980:	3d802fe6 	str	q6, [sp, #176]
     984:	3d8033e7 	str	q7, [sp, #192]
/media/home/beste/01_Pro/ld25x/bsp_hu/MYD-LD25X-Uboot-L2022.10-V1.0.0/GEN_FIP/myir-st-optee/lib/libutils/ext/trace.c:108
     988:	97ffff6b 	bl	734 <trace_vprintf>
/media/home/beste/01_Pro/ld25x/bsp_hu/MYD-LD25X-Uboot-L2022.10-V1.0.0/GEN_FIP/myir-st-optee/lib/libutils/ext/trace.c:110
     98c:	a8cf7bfd 	ldp	x29, x30, [sp], #240
     990:	d65f03c0 	ret

0000000000000994 <dhex_dump>:
dhex_dump():
/media/home/beste/01_Pro/ld25x/bsp_hu/MYD-LD25X-Uboot-L2022.10-V1.0.0/GEN_FIP/myir-st-optee/lib/libutils/ext/trace.c:287
     994:	d65f03c0 	ret

0000000000000998 <__vsnprintf>:
__vsnprintf():
/media/home/beste/01_Pro/ld25x/bsp_hu/MYD-LD25X-Uboot-L2022.10-V1.0.0/GEN_FIP/myir-st-optee/lib/libutils/ext/snprintk.c:138
     998:	a9b97bfd 	stp	x29, x30, [sp, #-112]!
/media/home/beste/01_Pro/ld25x/bsp_hu/MYD-LD25X-Uboot-L2022.10-V1.0.0/GEN_FIP/myir-st-optee/lib/libutils/ext/snprintk.c:143
     99c:	910103e5 	add	x5, sp, #0x40
/media/home/beste/01_Pro/ld25x/bsp_hu/MYD-LD25X-Uboot-L2022.10-V1.0.0/GEN_FIP/myir-st-optee/lib/libutils/ext/snprintk.c:138
     9a0:	910003fd 	mov	x29, sp
     9a4:	a90153f3 	stp	x19, x20, [sp, #16]
     9a8:	aa0103f4 	mov	x20, x1
     9ac:	aa0003f3 	mov	x19, x0
     9b0:	aa0303e1 	mov	x1, x3
     9b4:	a9025bf5 	stp	x21, x22, [sp, #32]
     9b8:	aa0203f5 	mov	x21, x2
/media/home/beste/01_Pro/ld25x/bsp_hu/MYD-LD25X-Uboot-L2022.10-V1.0.0/GEN_FIP/myir-st-optee/lib/libutils/ext/snprintk.c:142
     9bc:	8b140016 	add	x22, x0, x20
/media/home/beste/01_Pro/ld25x/bsp_hu/MYD-LD25X-Uboot-L2022.10-V1.0.0/GEN_FIP/myir-st-optee/lib/libutils/ext/snprintk.c:143
     9c0:	d2800402 	mov	x2, #0x20                  	// #32
     9c4:	aa0503e0 	mov	x0, x5
/media/home/beste/01_Pro/ld25x/bsp_hu/MYD-LD25X-Uboot-L2022.10-V1.0.0/GEN_FIP/myir-st-optee/lib/libutils/ext/snprintk.c:138
     9c8:	f9001bf7 	str	x23, [sp, #48]
     9cc:	12001c97 	and	w23, w4, #0xff
/media/home/beste/01_Pro/ld25x/bsp_hu/MYD-LD25X-Uboot-L2022.10-V1.0.0/GEN_FIP/myir-st-optee/lib/libutils/ext/snprintk.c:142
     9d0:	f90037f6 	str	x22, [sp, #104]
/media/home/beste/01_Pro/ld25x/bsp_hu/MYD-LD25X-Uboot-L2022.10-V1.0.0/GEN_FIP/myir-st-optee/lib/libutils/ext/snprintk.c:143
     9d4:	97fffd93 	bl	20 <memcpy>
     9d8:	aa0003e3 	mov	x3, x0
     9dc:	2a1703e4 	mov	w4, w23
     9e0:	aa1303e2 	mov	x2, x19
     9e4:	9101a3e1 	add	x1, sp, #0x68
     9e8:	aa1503e0 	mov	x0, x21
     9ec:	94000042 	bl	af4 <kprintf.constprop.0>
/media/home/beste/01_Pro/ld25x/bsp_hu/MYD-LD25X-Uboot-L2022.10-V1.0.0/GEN_FIP/myir-st-optee/lib/libutils/ext/snprintk.c:144
     9f0:	f100027f 	cmp	x19, #0x0
     9f4:	fa401a84 	ccmp	x20, #0x0, #0x4, ne	// ne = any
     9f8:	540000a0 	b.eq	a0c <__vsnprintf+0x74>  // b.none
/media/home/beste/01_Pro/ld25x/bsp_hu/MYD-LD25X-Uboot-L2022.10-V1.0.0/GEN_FIP/myir-st-optee/lib/libutils/ext/snprintk.c:146
     9fc:	93407c01 	sxtw	x1, w0
     a00:	eb20c29f 	cmp	x20, w0, sxtw
     a04:	540000e8 	b.hi	a20 <__vsnprintf+0x88>  // b.pmore
/media/home/beste/01_Pro/ld25x/bsp_hu/MYD-LD25X-Uboot-L2022.10-V1.0.0/GEN_FIP/myir-st-optee/lib/libutils/ext/snprintk.c:147
     a08:	381ff2df 	sturb	wzr, [x22, #-1]
/media/home/beste/01_Pro/ld25x/bsp_hu/MYD-LD25X-Uboot-L2022.10-V1.0.0/GEN_FIP/myir-st-optee/lib/libutils/ext/snprintk.c:152
     a0c:	a94153f3 	ldp	x19, x20, [sp, #16]
     a10:	a9425bf5 	ldp	x21, x22, [sp, #32]
     a14:	f9401bf7 	ldr	x23, [sp, #48]
     a18:	a8c77bfd 	ldp	x29, x30, [sp], #112
     a1c:	d65f03c0 	ret
/media/home/beste/01_Pro/ld25x/bsp_hu/MYD-LD25X-Uboot-L2022.10-V1.0.0/GEN_FIP/myir-st-optee/lib/libutils/ext/snprintk.c:149
     a20:	38216a7f 	strb	wzr, [x19, x1]
/media/home/beste/01_Pro/ld25x/bsp_hu/MYD-LD25X-Uboot-L2022.10-V1.0.0/GEN_FIP/myir-st-optee/lib/libutils/ext/snprintk.c:151
     a24:	17fffffa 	b	a0c <__vsnprintf+0x74>

0000000000000a28 <vsnprintk>:
vsnprintk():
/media/home/beste/01_Pro/ld25x/bsp_hu/MYD-LD25X-Uboot-L2022.10-V1.0.0/GEN_FIP/myir-st-optee/lib/libutils/ext/snprintk.c:130
     a28:	a9bb7bfd 	stp	x29, x30, [sp, #-80]!
/media/home/beste/01_Pro/ld25x/bsp_hu/MYD-LD25X-Uboot-L2022.10-V1.0.0/GEN_FIP/myir-st-optee/lib/libutils/ext/snprintk.c:131
     a2c:	9100c3e4 	add	x4, sp, #0x30
/media/home/beste/01_Pro/ld25x/bsp_hu/MYD-LD25X-Uboot-L2022.10-V1.0.0/GEN_FIP/myir-st-optee/lib/libutils/ext/snprintk.c:130
     a30:	910003fd 	mov	x29, sp
     a34:	a90153f3 	stp	x19, x20, [sp, #16]
     a38:	aa0003f3 	mov	x19, x0
     a3c:	aa0103f4 	mov	x20, x1
/media/home/beste/01_Pro/ld25x/bsp_hu/MYD-LD25X-Uboot-L2022.10-V1.0.0/GEN_FIP/myir-st-optee/lib/libutils/ext/snprintk.c:131
     a40:	aa0403e0 	mov	x0, x4
/media/home/beste/01_Pro/ld25x/bsp_hu/MYD-LD25X-Uboot-L2022.10-V1.0.0/GEN_FIP/myir-st-optee/lib/libutils/ext/snprintk.c:130
     a44:	aa0303e1 	mov	x1, x3
     a48:	f90013f5 	str	x21, [sp, #32]
     a4c:	aa0203f5 	mov	x21, x2
/media/home/beste/01_Pro/ld25x/bsp_hu/MYD-LD25X-Uboot-L2022.10-V1.0.0/GEN_FIP/myir-st-optee/lib/libutils/ext/snprintk.c:131
     a50:	d2800402 	mov	x2, #0x20                  	// #32
     a54:	97fffd73 	bl	20 <memcpy>
     a58:	aa1503e2 	mov	x2, x21
     a5c:	aa0003e3 	mov	x3, x0
     a60:	aa1403e1 	mov	x1, x20
     a64:	aa1303e0 	mov	x0, x19
     a68:	52800024 	mov	w4, #0x1                   	// #1
     a6c:	97ffffcb 	bl	998 <__vsnprintf>
/media/home/beste/01_Pro/ld25x/bsp_hu/MYD-LD25X-Uboot-L2022.10-V1.0.0/GEN_FIP/myir-st-optee/lib/libutils/ext/snprintk.c:132
     a70:	a94153f3 	ldp	x19, x20, [sp, #16]
     a74:	f94013f5 	ldr	x21, [sp, #32]
     a78:	a8c57bfd 	ldp	x29, x30, [sp], #80
     a7c:	d65f03c0 	ret

0000000000000a80 <snprintk>:
snprintk():
/media/home/beste/01_Pro/ld25x/bsp_hu/MYD-LD25X-Uboot-L2022.10-V1.0.0/GEN_FIP/myir-st-optee/lib/libutils/ext/snprintk.c:113
     a80:	a9b07bfd 	stp	x29, x30, [sp, #-256]!
     a84:	910003fd 	mov	x29, sp
     a88:	a90d93e3 	stp	x3, x4, [sp, #216]
/media/home/beste/01_Pro/ld25x/bsp_hu/MYD-LD25X-Uboot-L2022.10-V1.0.0/GEN_FIP/myir-st-optee/lib/libutils/ext/snprintk.c:117
     a8c:	910403e3 	add	x3, sp, #0x100
     a90:	a9030fe3 	stp	x3, x3, [sp, #48]
     a94:	910343e3 	add	x3, sp, #0xd0
     a98:	f90023e3 	str	x3, [sp, #64]
     a9c:	128004e3 	mov	w3, #0xffffffd8            	// #-40
     aa0:	b9004be3 	str	w3, [sp, #72]
     aa4:	12800fe3 	mov	w3, #0xffffff80            	// #-128
     aa8:	b9004fe3 	str	w3, [sp, #76]
/media/home/beste/01_Pro/ld25x/bsp_hu/MYD-LD25X-Uboot-L2022.10-V1.0.0/GEN_FIP/myir-st-optee/lib/libutils/ext/snprintk.c:118
     aac:	910043e3 	add	x3, sp, #0x10
/media/home/beste/01_Pro/ld25x/bsp_hu/MYD-LD25X-Uboot-L2022.10-V1.0.0/GEN_FIP/myir-st-optee/lib/libutils/ext/snprintk.c:113
     ab0:	a90e9be5 	stp	x5, x6, [sp, #232]
/media/home/beste/01_Pro/ld25x/bsp_hu/MYD-LD25X-Uboot-L2022.10-V1.0.0/GEN_FIP/myir-st-optee/lib/libutils/ext/snprintk.c:118
     ab4:	a94317e4 	ldp	x4, x5, [sp, #48]
     ab8:	a90117e4 	stp	x4, x5, [sp, #16]
     abc:	a94417e4 	ldp	x4, x5, [sp, #64]
     ac0:	a90217e4 	stp	x4, x5, [sp, #32]
/media/home/beste/01_Pro/ld25x/bsp_hu/MYD-LD25X-Uboot-L2022.10-V1.0.0/GEN_FIP/myir-st-optee/lib/libutils/ext/snprintk.c:113
     ac4:	3d8017e0 	str	q0, [sp, #80]
     ac8:	3d801be1 	str	q1, [sp, #96]
     acc:	3d801fe2 	str	q2, [sp, #112]
     ad0:	3d8023e3 	str	q3, [sp, #128]
     ad4:	3d8027e4 	str	q4, [sp, #144]
     ad8:	3d802be5 	str	q5, [sp, #160]
     adc:	3d802fe6 	str	q6, [sp, #176]
     ae0:	3d8033e7 	str	q7, [sp, #192]
     ae4:	f9007fe7 	str	x7, [sp, #248]
/media/home/beste/01_Pro/ld25x/bsp_hu/MYD-LD25X-Uboot-L2022.10-V1.0.0/GEN_FIP/myir-st-optee/lib/libutils/ext/snprintk.c:118
     ae8:	97ffffd0 	bl	a28 <vsnprintk>
/media/home/beste/01_Pro/ld25x/bsp_hu/MYD-LD25X-Uboot-L2022.10-V1.0.0/GEN_FIP/myir-st-optee/lib/libutils/ext/snprintk.c:122
     aec:	a8d07bfd 	ldp	x29, x30, [sp], #256
     af0:	d65f03c0 	ret

0000000000000af4 <kprintf.constprop.0>:
kprintf():
/media/home/beste/01_Pro/ld25x/bsp_hu/MYD-LD25X-Uboot-L2022.10-V1.0.0/GEN_FIP/myir-st-optee/lib/libutils/ext/snprintk.c:242
     af4:	d103c3ff 	sub	sp, sp, #0xf0
     af8:	aa0103eb 	mov	x11, x1
     afc:	a9037bfd 	stp	x29, x30, [sp, #48]
     b00:	9100c3fd 	add	x29, sp, #0x30
     b04:	a90453f3 	stp	x19, x20, [sp, #64]
     b08:	b9401874 	ldr	w20, [x3, #24]
     b0c:	a9055bf5 	stp	x21, x22, [sp, #80]
     b10:	aa0203f5 	mov	x21, x2
     b14:	a90663f7 	stp	x23, x24, [sp, #96]
     b18:	a9076bf9 	stp	x25, x26, [sp, #112]
     b1c:	a90873fb 	stp	x27, x28, [sp, #128]
     b20:	aa0003fc 	mov	x28, x0
     b24:	12001c80 	and	w0, w4, #0xff
     b28:	b900abe0 	str	w0, [sp, #168]
     b2c:	a9406c73 	ldp	x19, x27, [x3]
/media/home/beste/01_Pro/ld25x/bsp_hu/MYD-LD25X-Uboot-L2022.10-V1.0.0/GEN_FIP/myir-st-optee/lib/libutils/ext/snprintk.c:264
     b30:	b4000421 	cbz	x1, bb4 <kprintf.constprop.0+0xc0>
/media/home/beste/01_Pro/ld25x/bsp_hu/MYD-LD25X-Uboot-L2022.10-V1.0.0/GEN_FIP/myir-st-optee/lib/libutils/ext/snprintk.c:265
     b34:	f9400039 	ldr	x25, [x1]
/media/home/beste/01_Pro/ld25x/bsp_hu/MYD-LD25X-Uboot-L2022.10-V1.0.0/GEN_FIP/myir-st-optee/lib/libutils/ext/snprintk.c:297
     b38:	b0000098 	adrp	x24, 11000 <__text_end+0x20f8>
/media/home/beste/01_Pro/ld25x/bsp_hu/MYD-LD25X-Uboot-L2022.10-V1.0.0/GEN_FIP/myir-st-optee/lib/libutils/ext/snprintk.c:275
     b3c:	d2800017 	mov	x23, #0x0                   	// #0
/media/home/beste/01_Pro/ld25x/bsp_hu/MYD-LD25X-Uboot-L2022.10-V1.0.0/GEN_FIP/myir-st-optee/lib/libutils/ext/snprintk.c:297
     b40:	913ce300 	add	x0, x24, #0xf38
/media/home/beste/01_Pro/ld25x/bsp_hu/MYD-LD25X-Uboot-L2022.10-V1.0.0/GEN_FIP/myir-st-optee/lib/libutils/ext/snprintk.c:273
     b44:	5280001a 	mov	w26, #0x0                   	// #0
/media/home/beste/01_Pro/ld25x/bsp_hu/MYD-LD25X-Uboot-L2022.10-V1.0.0/GEN_FIP/myir-st-optee/lib/libutils/ext/snprintk.c:297
     b48:	f9004fe0 	str	x0, [sp, #152]
/media/home/beste/01_Pro/ld25x/bsp_hu/MYD-LD25X-Uboot-L2022.10-V1.0.0/GEN_FIP/myir-st-optee/lib/libutils/ext/snprintk.c:281
     b4c:	39400380 	ldrb	w0, [x28]
     b50:	7100941f 	cmp	w0, #0x25
     b54:	7a401804 	ccmp	w0, #0x0, #0x4, ne	// ne = any
     b58:	54000321 	b.ne	bbc <kprintf.constprop.0+0xc8>  // b.any
/media/home/beste/01_Pro/ld25x/bsp_hu/MYD-LD25X-Uboot-L2022.10-V1.0.0/GEN_FIP/myir-st-optee/lib/libutils/ext/snprintk.c:285
     b5c:	34004ec0 	cbz	w0, 1534 <kprintf.constprop.0+0xa40>
/media/home/beste/01_Pro/ld25x/bsp_hu/MYD-LD25X-Uboot-L2022.10-V1.0.0/GEN_FIP/myir-st-optee/lib/libutils/ext/snprintk.c:297
     b60:	b0000082 	adrp	x2, 11000 <__text_end+0x20f8>
/media/home/beste/01_Pro/ld25x/bsp_hu/MYD-LD25X-Uboot-L2022.10-V1.0.0/GEN_FIP/myir-st-optee/lib/libutils/ext/snprintk.c:288
     b64:	9100079c 	add	x28, x28, #0x1
     b68:	2a1403e4 	mov	w4, w20
     b6c:	aa1303e3 	mov	x3, x19
/media/home/beste/01_Pro/ld25x/bsp_hu/MYD-LD25X-Uboot-L2022.10-V1.0.0/GEN_FIP/myir-st-optee/lib/libutils/ext/snprintk.c:297
     b70:	913c1042 	add	x2, x2, #0xf04
/media/home/beste/01_Pro/ld25x/bsp_hu/MYD-LD25X-Uboot-L2022.10-V1.0.0/GEN_FIP/myir-st-optee/lib/libutils/ext/snprintk.c:294
     b74:	52800001 	mov	w1, #0x0                   	// #0
/media/home/beste/01_Pro/ld25x/bsp_hu/MYD-LD25X-Uboot-L2022.10-V1.0.0/GEN_FIP/myir-st-optee/lib/libutils/ext/snprintk.c:293
     b78:	12800005 	mov	w5, #0xffffffff            	// #-1
/media/home/beste/01_Pro/ld25x/bsp_hu/MYD-LD25X-Uboot-L2022.10-V1.0.0/GEN_FIP/myir-st-optee/lib/libutils/ext/snprintk.c:292
     b7c:	5280000a 	mov	w10, #0x0                   	// #0
/media/home/beste/01_Pro/ld25x/bsp_hu/MYD-LD25X-Uboot-L2022.10-V1.0.0/GEN_FIP/myir-st-optee/lib/libutils/ext/snprintk.c:290
     b80:	52800016 	mov	w22, #0x0                   	// #0
/media/home/beste/01_Pro/ld25x/bsp_hu/MYD-LD25X-Uboot-L2022.10-V1.0.0/GEN_FIP/myir-st-optee/lib/libutils/ext/snprintk.c:296
     b84:	38401798 	ldrb	w24, [x28], #1
/media/home/beste/01_Pro/ld25x/bsp_hu/MYD-LD25X-Uboot-L2022.10-V1.0.0/GEN_FIP/myir-st-optee/lib/libutils/ext/snprintk.c:297
     b88:	7100e71f 	cmp	w24, #0x39
     b8c:	5400052c 	b.gt	c30 <kprintf.constprop.0+0x13c>
     b90:	71007f1f 	cmp	w24, #0x1f
     b94:	54004ced 	b.le	1530 <kprintf.constprop.0+0xa3c>
     b98:	51008300 	sub	w0, w24, #0x20
     b9c:	7100641f 	cmp	w0, #0x19
     ba0:	54004c88 	b.hi	1530 <kprintf.constprop.0+0xa3c>  // b.pmore
     ba4:	78605840 	ldrh	w0, [x2, w0, uxtw #1]
     ba8:	10000066 	adr	x6, bb4 <kprintf.constprop.0+0xc0>
     bac:	8b20a8c0 	add	x0, x6, w0, sxth #2
     bb0:	d61f0000 	br	x0
/media/home/beste/01_Pro/ld25x/bsp_hu/MYD-LD25X-Uboot-L2022.10-V1.0.0/GEN_FIP/myir-st-optee/lib/libutils/ext/snprintk.c:267
     bb4:	d2800019 	mov	x25, #0x0                   	// #0
     bb8:	17ffffe0 	b	b38 <kprintf.constprop.0+0x44>
/media/home/beste/01_Pro/ld25x/bsp_hu/MYD-LD25X-Uboot-L2022.10-V1.0.0/GEN_FIP/myir-st-optee/lib/libutils/ext/snprintk.c:282
     bbc:	1100075a 	add	w26, w26, #0x1
/media/home/beste/01_Pro/ld25x/bsp_hu/MYD-LD25X-Uboot-L2022.10-V1.0.0/GEN_FIP/myir-st-optee/lib/libutils/ext/snprintk.c:283
     bc0:	b40000b5 	cbz	x21, bd4 <kprintf.constprop.0+0xe0>
     bc4:	f100017f 	cmp	x11, #0x0
     bc8:	fa5912a0 	ccmp	x21, x25, #0x0, ne	// ne = any
     bcc:	54000042 	b.cs	bd4 <kprintf.constprop.0+0xe0>  // b.hs, b.nlast
     bd0:	380016a0 	strb	w0, [x21], #1
/media/home/beste/01_Pro/ld25x/bsp_hu/MYD-LD25X-Uboot-L2022.10-V1.0.0/GEN_FIP/myir-st-optee/lib/libutils/ext/snprintk.c:281
     bd4:	9100079c 	add	x28, x28, #0x1
     bd8:	17ffffdd 	b	b4c <kprintf.constprop.0+0x58>
/media/home/beste/01_Pro/ld25x/bsp_hu/MYD-LD25X-Uboot-L2022.10-V1.0.0/GEN_FIP/myir-st-optee/lib/libutils/ext/snprintk.c:297
     bdc:	52800561 	mov	w1, #0x2b                  	// #43
     be0:	17ffffe9 	b	b84 <kprintf.constprop.0+0x90>
     be4:	f9404fe6 	ldr	x6, [sp, #152]
     be8:	786058c0 	ldrh	w0, [x6, w0, uxtw #1]
     bec:	10000066 	adr	x6, bf8 <kprintf.constprop.0+0x104>
     bf0:	8b20a8c0 	add	x0, x6, w0, sxth #2
     bf4:	d61f0000 	br	x0
/media/home/beste/01_Pro/ld25x/bsp_hu/MYD-LD25X-Uboot-L2022.10-V1.0.0/GEN_FIP/myir-st-optee/lib/libutils/ext/snprintk.c:480
     bf8:	b0000097 	adrp	x23, 11000 <__text_end+0x20f8>
     bfc:	913e9af7 	add	x23, x23, #0xfa6
/media/home/beste/01_Pro/ld25x/bsp_hu/MYD-LD25X-Uboot-L2022.10-V1.0.0/GEN_FIP/myir-st-optee/lib/libutils/ext/snprintk.c:481
     c00:	363841f6 	tbz	w22, #7, 143c <kprintf.constprop.0+0x948>
     c04:	37f84324 	tbnz	w4, #31, 1468 <kprintf.constprop.0+0x974>
     c08:	91003c73 	add	x19, x3, #0xf
     c0c:	2a0403f4 	mov	w20, w4
     c10:	927df273 	and	x19, x19, #0xfffffffffffffff8
     c14:	f9400062 	ldr	x2, [x3]
/media/home/beste/01_Pro/ld25x/bsp_hu/MYD-LD25X-Uboot-L2022.10-V1.0.0/GEN_FIP/myir-st-optee/lib/libutils/ext/snprintk.c:484
     c18:	360031f6 	tbz	w22, #0, 1254 <kprintf.constprop.0+0x760>
     c1c:	b40031c2 	cbz	x2, 1254 <kprintf.constprop.0+0x760>
/media/home/beste/01_Pro/ld25x/bsp_hu/MYD-LD25X-Uboot-L2022.10-V1.0.0/GEN_FIP/myir-st-optee/lib/libutils/ext/snprintk.c:485
     c20:	321f02d6 	orr	w22, w22, #0x2
/media/home/beste/01_Pro/ld25x/bsp_hu/MYD-LD25X-Uboot-L2022.10-V1.0.0/GEN_FIP/myir-st-optee/lib/libutils/ext/snprintk.c:482
     c24:	52800040 	mov	w0, #0x2                   	// #2
/media/home/beste/01_Pro/ld25x/bsp_hu/MYD-LD25X-Uboot-L2022.10-V1.0.0/GEN_FIP/myir-st-optee/lib/libutils/ext/snprintk.c:488
     c28:	52800001 	mov	w1, #0x0                   	// #0
     c2c:	1400007b 	b	e18 <kprintf.constprop.0+0x324>
/media/home/beste/01_Pro/ld25x/bsp_hu/MYD-LD25X-Uboot-L2022.10-V1.0.0/GEN_FIP/myir-st-optee/lib/libutils/ext/snprintk.c:297
     c30:	51011300 	sub	w0, w24, #0x44
     c34:	7100d81f 	cmp	w0, #0x36
     c38:	54fffd69 	b.ls	be4 <kprintf.constprop.0+0xf0>  // b.plast
/media/home/beste/01_Pro/ld25x/bsp_hu/MYD-LD25X-Uboot-L2022.10-V1.0.0/GEN_FIP/myir-st-optee/lib/libutils/ext/snprintk.c:554
     c3c:	2a0403f4 	mov	w20, w4
     c40:	aa0303f3 	mov	x19, x3
/media/home/beste/01_Pro/ld25x/bsp_hu/MYD-LD25X-Uboot-L2022.10-V1.0.0/GEN_FIP/myir-st-optee/lib/libutils/ext/snprintk.c:551
     c44:	390323f8 	strb	w24, [sp, #200]
/media/home/beste/01_Pro/ld25x/bsp_hu/MYD-LD25X-Uboot-L2022.10-V1.0.0/GEN_FIP/myir-st-optee/lib/libutils/ext/snprintk.c:554
     c48:	1400005b 	b	db4 <kprintf.constprop.0+0x2c0>
/media/home/beste/01_Pro/ld25x/bsp_hu/MYD-LD25X-Uboot-L2022.10-V1.0.0/GEN_FIP/myir-st-optee/lib/libutils/ext/snprintk.c:305
     c4c:	7100003f 	cmp	w1, #0x0
     c50:	52800400 	mov	w0, #0x20                  	// #32
     c54:	1a801021 	csel	w1, w1, w0, ne	// ne = any
     c58:	17ffffcb 	b	b84 <kprintf.constprop.0+0x90>
/media/home/beste/01_Pro/ld25x/bsp_hu/MYD-LD25X-Uboot-L2022.10-V1.0.0/GEN_FIP/myir-st-optee/lib/libutils/ext/snprintk.c:308
     c5c:	320002d6 	orr	w22, w22, #0x1
/media/home/beste/01_Pro/ld25x/bsp_hu/MYD-LD25X-Uboot-L2022.10-V1.0.0/GEN_FIP/myir-st-optee/lib/libutils/ext/snprintk.c:309
     c60:	17ffffc9 	b	b84 <kprintf.constprop.0+0x90>
/media/home/beste/01_Pro/ld25x/bsp_hu/MYD-LD25X-Uboot-L2022.10-V1.0.0/GEN_FIP/myir-st-optee/lib/libutils/ext/snprintk.c:317
     c64:	37f80124 	tbnz	w4, #31, c88 <kprintf.constprop.0+0x194>
     c68:	91002c66 	add	x6, x3, #0xb
     c6c:	aa0303e0 	mov	x0, x3
     c70:	927df0c3 	and	x3, x6, #0xfffffffffffffff8
     c74:	b940000a 	ldr	w10, [x0]
     c78:	36fff86a 	tbz	w10, #31, b84 <kprintf.constprop.0+0x90>
/media/home/beste/01_Pro/ld25x/bsp_hu/MYD-LD25X-Uboot-L2022.10-V1.0.0/GEN_FIP/myir-st-optee/lib/libutils/ext/snprintk.c:319
     c7c:	4b0a03ea 	neg	w10, w10
/media/home/beste/01_Pro/ld25x/bsp_hu/MYD-LD25X-Uboot-L2022.10-V1.0.0/GEN_FIP/myir-st-optee/lib/libutils/ext/snprintk.c:322
     c80:	321e02d6 	orr	w22, w22, #0x4
/media/home/beste/01_Pro/ld25x/bsp_hu/MYD-LD25X-Uboot-L2022.10-V1.0.0/GEN_FIP/myir-st-optee/lib/libutils/ext/snprintk.c:323
     c84:	17ffffc0 	b	b84 <kprintf.constprop.0+0x90>
/media/home/beste/01_Pro/ld25x/bsp_hu/MYD-LD25X-Uboot-L2022.10-V1.0.0/GEN_FIP/myir-st-optee/lib/libutils/ext/snprintk.c:317
     c88:	11002086 	add	w6, w4, #0x8
     c8c:	710000df 	cmp	w6, #0x0
     c90:	540000cd 	b.le	ca8 <kprintf.constprop.0+0x1b4>
     c94:	91002c67 	add	x7, x3, #0xb
     c98:	aa0303e0 	mov	x0, x3
     c9c:	2a0603e4 	mov	w4, w6
     ca0:	927df0e3 	and	x3, x7, #0xfffffffffffffff8
     ca4:	17fffff4 	b	c74 <kprintf.constprop.0+0x180>
     ca8:	8b24c360 	add	x0, x27, w4, sxtw
     cac:	2a0603e4 	mov	w4, w6
     cb0:	17fffff1 	b	c74 <kprintf.constprop.0+0x180>
/media/home/beste/01_Pro/ld25x/bsp_hu/MYD-LD25X-Uboot-L2022.10-V1.0.0/GEN_FIP/myir-st-optee/lib/libutils/ext/snprintk.c:328
     cb4:	38401798 	ldrb	w24, [x28], #1
     cb8:	7100ab1f 	cmp	w24, #0x2a
     cbc:	54000341 	b.ne	d24 <kprintf.constprop.0+0x230>  // b.any
/media/home/beste/01_Pro/ld25x/bsp_hu/MYD-LD25X-Uboot-L2022.10-V1.0.0/GEN_FIP/myir-st-optee/lib/libutils/ext/snprintk.c:329
     cc0:	37f80144 	tbnz	w4, #31, ce8 <kprintf.constprop.0+0x1f4>
     cc4:	91002c60 	add	x0, x3, #0xb
     cc8:	2a0403e6 	mov	w6, w4
     ccc:	927df000 	and	x0, x0, #0xfffffffffffffff8
/media/home/beste/01_Pro/ld25x/bsp_hu/MYD-LD25X-Uboot-L2022.10-V1.0.0/GEN_FIP/myir-st-optee/lib/libutils/ext/snprintk.c:330
     cd0:	b9400065 	ldr	w5, [x3]
/media/home/beste/01_Pro/ld25x/bsp_hu/MYD-LD25X-Uboot-L2022.10-V1.0.0/GEN_FIP/myir-st-optee/lib/libutils/ext/snprintk.c:331
     cd4:	2a0603e4 	mov	w4, w6
     cd8:	aa0003e3 	mov	x3, x0
/media/home/beste/01_Pro/ld25x/bsp_hu/MYD-LD25X-Uboot-L2022.10-V1.0.0/GEN_FIP/myir-st-optee/lib/libutils/ext/snprintk.c:330
     cdc:	710000bf 	cmp	w5, #0x0
     ce0:	5a9fa0a5 	csinv	w5, w5, wzr, ge	// ge = tcont
/media/home/beste/01_Pro/ld25x/bsp_hu/MYD-LD25X-Uboot-L2022.10-V1.0.0/GEN_FIP/myir-st-optee/lib/libutils/ext/snprintk.c:331
     ce4:	17ffffa8 	b	b84 <kprintf.constprop.0+0x90>
/media/home/beste/01_Pro/ld25x/bsp_hu/MYD-LD25X-Uboot-L2022.10-V1.0.0/GEN_FIP/myir-st-optee/lib/libutils/ext/snprintk.c:329
     ce8:	11002086 	add	w6, w4, #0x8
     cec:	710000df 	cmp	w6, #0x0
     cf0:	5400008d 	b.le	d00 <kprintf.constprop.0+0x20c>
     cf4:	91002c60 	add	x0, x3, #0xb
     cf8:	927df000 	and	x0, x0, #0xfffffffffffffff8
     cfc:	17fffff5 	b	cd0 <kprintf.constprop.0+0x1dc>
     d00:	aa0303e0 	mov	x0, x3
     d04:	8b24c363 	add	x3, x27, w4, sxtw
     d08:	17fffff2 	b	cd0 <kprintf.constprop.0+0x1dc>
/media/home/beste/01_Pro/ld25x/bsp_hu/MYD-LD25X-Uboot-L2022.10-V1.0.0/GEN_FIP/myir-st-optee/lib/libutils/ext/snprintk.c:335
     d0c:	1b0600a5 	madd	w5, w5, w6, w0
/media/home/beste/01_Pro/ld25x/bsp_hu/MYD-LD25X-Uboot-L2022.10-V1.0.0/GEN_FIP/myir-st-optee/lib/libutils/ext/snprintk.c:336
     d10:	38401798 	ldrb	w24, [x28], #1
/media/home/beste/01_Pro/ld25x/bsp_hu/MYD-LD25X-Uboot-L2022.10-V1.0.0/GEN_FIP/myir-st-optee/lib/libutils/ext/snprintk.c:334
     d14:	5100c300 	sub	w0, w24, #0x30
     d18:	7100241f 	cmp	w0, #0x9
     d1c:	54ffff89 	b.ls	d0c <kprintf.constprop.0+0x218>  // b.plast
     d20:	17ffff9a 	b	b88 <kprintf.constprop.0+0x94>
/media/home/beste/01_Pro/ld25x/bsp_hu/MYD-LD25X-Uboot-L2022.10-V1.0.0/GEN_FIP/myir-st-optee/lib/libutils/ext/snprintk.c:333
     d24:	52800005 	mov	w5, #0x0                   	// #0
/media/home/beste/01_Pro/ld25x/bsp_hu/MYD-LD25X-Uboot-L2022.10-V1.0.0/GEN_FIP/myir-st-optee/lib/libutils/ext/snprintk.c:335
     d28:	52800146 	mov	w6, #0xa                   	// #10
     d2c:	17fffffa 	b	d14 <kprintf.constprop.0+0x220>
/media/home/beste/01_Pro/ld25x/bsp_hu/MYD-LD25X-Uboot-L2022.10-V1.0.0/GEN_FIP/myir-st-optee/lib/libutils/ext/snprintk.c:346
     d30:	321602d6 	orr	w22, w22, #0x400
/media/home/beste/01_Pro/ld25x/bsp_hu/MYD-LD25X-Uboot-L2022.10-V1.0.0/GEN_FIP/myir-st-optee/lib/libutils/ext/snprintk.c:347
     d34:	17ffff94 	b	b84 <kprintf.constprop.0+0x90>
/media/home/beste/01_Pro/ld25x/bsp_hu/MYD-LD25X-Uboot-L2022.10-V1.0.0/GEN_FIP/myir-st-optee/lib/libutils/ext/snprintk.c:297
     d38:	5280000a 	mov	w10, #0x0                   	// #0
/media/home/beste/01_Pro/ld25x/bsp_hu/MYD-LD25X-Uboot-L2022.10-V1.0.0/GEN_FIP/myir-st-optee/lib/libutils/ext/snprintk.c:352
     d3c:	52800146 	mov	w6, #0xa                   	// #10
     d40:	5100c308 	sub	w8, w24, #0x30
/media/home/beste/01_Pro/ld25x/bsp_hu/MYD-LD25X-Uboot-L2022.10-V1.0.0/GEN_FIP/myir-st-optee/lib/libutils/ext/snprintk.c:353
     d44:	38401798 	ldrb	w24, [x28], #1
/media/home/beste/01_Pro/ld25x/bsp_hu/MYD-LD25X-Uboot-L2022.10-V1.0.0/GEN_FIP/myir-st-optee/lib/libutils/ext/snprintk.c:354
     d48:	5100c300 	sub	w0, w24, #0x30
/media/home/beste/01_Pro/ld25x/bsp_hu/MYD-LD25X-Uboot-L2022.10-V1.0.0/GEN_FIP/myir-st-optee/lib/libutils/ext/snprintk.c:352
     d4c:	1b06214a 	madd	w10, w10, w6, w8
/media/home/beste/01_Pro/ld25x/bsp_hu/MYD-LD25X-Uboot-L2022.10-V1.0.0/GEN_FIP/myir-st-optee/lib/libutils/ext/snprintk.c:354
     d50:	7100241f 	cmp	w0, #0x9
     d54:	54ffff69 	b.ls	d40 <kprintf.constprop.0+0x24c>  // b.plast
     d58:	17ffff8c 	b	b88 <kprintf.constprop.0+0x94>
/media/home/beste/01_Pro/ld25x/bsp_hu/MYD-LD25X-Uboot-L2022.10-V1.0.0/GEN_FIP/myir-st-optee/lib/libutils/ext/snprintk.c:358
     d5c:	321a02d6 	orr	w22, w22, #0x40
/media/home/beste/01_Pro/ld25x/bsp_hu/MYD-LD25X-Uboot-L2022.10-V1.0.0/GEN_FIP/myir-st-optee/lib/libutils/ext/snprintk.c:359
     d60:	17ffff89 	b	b84 <kprintf.constprop.0+0x90>
/media/home/beste/01_Pro/ld25x/bsp_hu/MYD-LD25X-Uboot-L2022.10-V1.0.0/GEN_FIP/myir-st-optee/lib/libutils/ext/snprintk.c:361
     d64:	321902d6 	orr	w22, w22, #0x80
/media/home/beste/01_Pro/ld25x/bsp_hu/MYD-LD25X-Uboot-L2022.10-V1.0.0/GEN_FIP/myir-st-optee/lib/libutils/ext/snprintk.c:362
     d68:	17ffff87 	b	b84 <kprintf.constprop.0+0x90>
/media/home/beste/01_Pro/ld25x/bsp_hu/MYD-LD25X-Uboot-L2022.10-V1.0.0/GEN_FIP/myir-st-optee/lib/libutils/ext/snprintk.c:364
     d6c:	39400380 	ldrb	w0, [x28]
     d70:	7101b01f 	cmp	w0, #0x6c
     d74:	54000081 	b.ne	d84 <kprintf.constprop.0+0x290>  // b.any
/media/home/beste/01_Pro/ld25x/bsp_hu/MYD-LD25X-Uboot-L2022.10-V1.0.0/GEN_FIP/myir-st-optee/lib/libutils/ext/snprintk.c:328
     d78:	9100079c 	add	x28, x28, #0x1
/media/home/beste/01_Pro/ld25x/bsp_hu/MYD-LD25X-Uboot-L2022.10-V1.0.0/GEN_FIP/myir-st-optee/lib/libutils/ext/snprintk.c:372
     d7c:	321b02d6 	orr	w22, w22, #0x20
/media/home/beste/01_Pro/ld25x/bsp_hu/MYD-LD25X-Uboot-L2022.10-V1.0.0/GEN_FIP/myir-st-optee/lib/libutils/ext/snprintk.c:373
     d80:	17ffff81 	b	b84 <kprintf.constprop.0+0x90>
/media/home/beste/01_Pro/ld25x/bsp_hu/MYD-LD25X-Uboot-L2022.10-V1.0.0/GEN_FIP/myir-st-optee/lib/libutils/ext/snprintk.c:368
     d84:	321c02d6 	orr	w22, w22, #0x10
     d88:	17ffff7f 	b	b84 <kprintf.constprop.0+0x90>
/media/home/beste/01_Pro/ld25x/bsp_hu/MYD-LD25X-Uboot-L2022.10-V1.0.0/GEN_FIP/myir-st-optee/lib/libutils/ext/snprintk.c:375
     d8c:	321802d6 	orr	w22, w22, #0x100
/media/home/beste/01_Pro/ld25x/bsp_hu/MYD-LD25X-Uboot-L2022.10-V1.0.0/GEN_FIP/myir-st-optee/lib/libutils/ext/snprintk.c:376
     d90:	17ffff7d 	b	b84 <kprintf.constprop.0+0x90>
/media/home/beste/01_Pro/ld25x/bsp_hu/MYD-LD25X-Uboot-L2022.10-V1.0.0/GEN_FIP/myir-st-optee/lib/libutils/ext/snprintk.c:378
     d94:	321702d6 	orr	w22, w22, #0x200
/media/home/beste/01_Pro/ld25x/bsp_hu/MYD-LD25X-Uboot-L2022.10-V1.0.0/GEN_FIP/myir-st-optee/lib/libutils/ext/snprintk.c:379
     d98:	17ffff7b 	b	b84 <kprintf.constprop.0+0x90>
/media/home/beste/01_Pro/ld25x/bsp_hu/MYD-LD25X-Uboot-L2022.10-V1.0.0/GEN_FIP/myir-st-optee/lib/libutils/ext/snprintk.c:381
     d9c:	37f80164 	tbnz	w4, #31, dc8 <kprintf.constprop.0+0x2d4>
     da0:	91002c73 	add	x19, x3, #0xb
     da4:	2a0403f4 	mov	w20, w4
     da8:	927df273 	and	x19, x19, #0xfffffffffffffff8
     dac:	b9400060 	ldr	w0, [x3]
     db0:	390323e0 	strb	w0, [sp, #200]
/media/home/beste/01_Pro/ld25x/bsp_hu/MYD-LD25X-Uboot-L2022.10-V1.0.0/GEN_FIP/myir-st-optee/lib/libutils/ext/snprintk.c:550
     db4:	910323ed 	add	x13, sp, #0xc8
/media/home/beste/01_Pro/ld25x/bsp_hu/MYD-LD25X-Uboot-L2022.10-V1.0.0/GEN_FIP/myir-st-optee/lib/libutils/ext/snprintk.c:552
     db8:	52800025 	mov	w5, #0x1                   	// #1
/media/home/beste/01_Pro/ld25x/bsp_hu/MYD-LD25X-Uboot-L2022.10-V1.0.0/GEN_FIP/myir-st-optee/lib/libutils/ext/snprintk.c:291
     dbc:	52800002 	mov	w2, #0x0                   	// #0
/media/home/beste/01_Pro/ld25x/bsp_hu/MYD-LD25X-Uboot-L2022.10-V1.0.0/GEN_FIP/myir-st-optee/lib/libutils/ext/snprintk.c:553
     dc0:	52800001 	mov	w1, #0x0                   	// #0
/media/home/beste/01_Pro/ld25x/bsp_hu/MYD-LD25X-Uboot-L2022.10-V1.0.0/GEN_FIP/myir-st-optee/lib/libutils/ext/snprintk.c:554
     dc4:	140000fa 	b	11ac <kprintf.constprop.0+0x6b8>
/media/home/beste/01_Pro/ld25x/bsp_hu/MYD-LD25X-Uboot-L2022.10-V1.0.0/GEN_FIP/myir-st-optee/lib/libutils/ext/snprintk.c:381
     dc8:	11002094 	add	w20, w4, #0x8
     dcc:	7100029f 	cmp	w20, #0x0
     dd0:	5400008d 	b.le	de0 <kprintf.constprop.0+0x2ec>
     dd4:	91002c73 	add	x19, x3, #0xb
     dd8:	927df273 	and	x19, x19, #0xfffffffffffffff8
     ddc:	17fffff4 	b	dac <kprintf.constprop.0+0x2b8>
     de0:	aa0303f3 	mov	x19, x3
     de4:	8b24c363 	add	x3, x27, w4, sxtw
     de8:	17fffff1 	b	dac <kprintf.constprop.0+0x2b8>
/media/home/beste/01_Pro/ld25x/bsp_hu/MYD-LD25X-Uboot-L2022.10-V1.0.0/GEN_FIP/myir-st-optee/lib/libutils/ext/snprintk.c:386
     dec:	321c02d6 	orr	w22, w22, #0x10
/media/home/beste/01_Pro/ld25x/bsp_hu/MYD-LD25X-Uboot-L2022.10-V1.0.0/GEN_FIP/myir-st-optee/lib/libutils/ext/snprintk.c:390
     df0:	363802f6 	tbz	w22, #7, e4c <kprintf.constprop.0+0x358>
     df4:	37f80424 	tbnz	w4, #31, e78 <kprintf.constprop.0+0x384>
     df8:	91003c73 	add	x19, x3, #0xf
     dfc:	2a0403f4 	mov	w20, w4
     e00:	927df273 	and	x19, x19, #0xfffffffffffffff8
     e04:	f9400062 	ldr	x2, [x3]
/media/home/beste/01_Pro/ld25x/bsp_hu/MYD-LD25X-Uboot-L2022.10-V1.0.0/GEN_FIP/myir-st-optee/lib/libutils/ext/snprintk.c:391
     e08:	b6f82a62 	tbz	x2, #63, 1354 <kprintf.constprop.0+0x860>
/media/home/beste/01_Pro/ld25x/bsp_hu/MYD-LD25X-Uboot-L2022.10-V1.0.0/GEN_FIP/myir-st-optee/lib/libutils/ext/snprintk.c:392
     e0c:	cb0203e2 	neg	x2, x2
/media/home/beste/01_Pro/ld25x/bsp_hu/MYD-LD25X-Uboot-L2022.10-V1.0.0/GEN_FIP/myir-st-optee/lib/libutils/ext/snprintk.c:395
     e10:	52800020 	mov	w0, #0x1                   	// #1
/media/home/beste/01_Pro/ld25x/bsp_hu/MYD-LD25X-Uboot-L2022.10-V1.0.0/GEN_FIP/myir-st-optee/lib/libutils/ext/snprintk.c:393
     e14:	528005a1 	mov	w1, #0x2d                  	// #45
/media/home/beste/01_Pro/ld25x/bsp_hu/MYD-LD25X-Uboot-L2022.10-V1.0.0/GEN_FIP/myir-st-optee/lib/libutils/ext/snprintk.c:494
     e18:	310004bf 	cmn	w5, #0x1
     e1c:	540036a1 	b.ne	14f0 <kprintf.constprop.0+0x9fc>  // b.any
/media/home/beste/01_Pro/ld25x/bsp_hu/MYD-LD25X-Uboot-L2022.10-V1.0.0/GEN_FIP/myir-st-optee/lib/libutils/ext/snprintk.c:509
     e20:	7100041f 	cmp	w0, #0x1
     e24:	540029c0 	b.eq	135c <kprintf.constprop.0+0x868>  // b.none
     e28:	7100081f 	cmp	w0, #0x2
     e2c:	54000ea1 	b.ne	1000 <kprintf.constprop.0+0x50c>  // b.any
/media/home/beste/01_Pro/ld25x/bsp_hu/MYD-LD25X-Uboot-L2022.10-V1.0.0/GEN_FIP/myir-st-optee/lib/libutils/ext/snprintk.c:502
     e30:	9103b7ed 	add	x13, sp, #0xed
/media/home/beste/01_Pro/ld25x/bsp_hu/MYD-LD25X-Uboot-L2022.10-V1.0.0/GEN_FIP/myir-st-optee/lib/libutils/ext/snprintk.c:531
     e34:	92400c40 	and	x0, x2, #0xf
/media/home/beste/01_Pro/ld25x/bsp_hu/MYD-LD25X-Uboot-L2022.10-V1.0.0/GEN_FIP/myir-st-optee/lib/libutils/ext/snprintk.c:532
     e38:	d344fc42 	lsr	x2, x2, #4
/media/home/beste/01_Pro/ld25x/bsp_hu/MYD-LD25X-Uboot-L2022.10-V1.0.0/GEN_FIP/myir-st-optee/lib/libutils/ext/snprintk.c:531
     e3c:	38606ae0 	ldrb	w0, [x23, x0]
     e40:	381ffda0 	strb	w0, [x13, #-1]!
/media/home/beste/01_Pro/ld25x/bsp_hu/MYD-LD25X-Uboot-L2022.10-V1.0.0/GEN_FIP/myir-st-optee/lib/libutils/ext/snprintk.c:533
     e44:	b5ffff82 	cbnz	x2, e34 <kprintf.constprop.0+0x340>
     e48:	1400007b 	b	1034 <kprintf.constprop.0+0x540>
/media/home/beste/01_Pro/ld25x/bsp_hu/MYD-LD25X-Uboot-L2022.10-V1.0.0/GEN_FIP/myir-st-optee/lib/libutils/ext/snprintk.c:390
     e4c:	3747fd56 	tbnz	w22, #8, df4 <kprintf.constprop.0+0x300>
     e50:	374ffd36 	tbnz	w22, #9, df4 <kprintf.constprop.0+0x300>
     e54:	372ffd16 	tbnz	w22, #5, df4 <kprintf.constprop.0+0x300>
     e58:	3727fcf6 	tbnz	w22, #4, df4 <kprintf.constprop.0+0x300>
     e5c:	36300336 	tbz	w22, #6, ec0 <kprintf.constprop.0+0x3cc>
     e60:	37f801e4 	tbnz	w4, #31, e9c <kprintf.constprop.0+0x3a8>
     e64:	91002c73 	add	x19, x3, #0xb
     e68:	2a0403f4 	mov	w20, w4
     e6c:	927df273 	and	x19, x19, #0xfffffffffffffff8
     e70:	79800062 	ldrsh	x2, [x3]
     e74:	17ffffe5 	b	e08 <kprintf.constprop.0+0x314>
     e78:	11002094 	add	w20, w4, #0x8
     e7c:	7100029f 	cmp	w20, #0x0
     e80:	5400008d 	b.le	e90 <kprintf.constprop.0+0x39c>
     e84:	91003c73 	add	x19, x3, #0xf
     e88:	927df273 	and	x19, x19, #0xfffffffffffffff8
     e8c:	17ffffde 	b	e04 <kprintf.constprop.0+0x310>
     e90:	aa0303f3 	mov	x19, x3
     e94:	8b24c363 	add	x3, x27, w4, sxtw
     e98:	17ffffdb 	b	e04 <kprintf.constprop.0+0x310>
     e9c:	11002094 	add	w20, w4, #0x8
     ea0:	7100029f 	cmp	w20, #0x0
     ea4:	5400008d 	b.le	eb4 <kprintf.constprop.0+0x3c0>
     ea8:	91002c73 	add	x19, x3, #0xb
     eac:	927df273 	and	x19, x19, #0xfffffffffffffff8
     eb0:	17fffff0 	b	e70 <kprintf.constprop.0+0x37c>
     eb4:	aa0303f3 	mov	x19, x3
     eb8:	8b24c363 	add	x3, x27, w4, sxtw
     ebc:	17ffffed 	b	e70 <kprintf.constprop.0+0x37c>
     ec0:	37f800c4 	tbnz	w4, #31, ed8 <kprintf.constprop.0+0x3e4>
     ec4:	91002c73 	add	x19, x3, #0xb
     ec8:	2a0403f4 	mov	w20, w4
     ecc:	927df273 	and	x19, x19, #0xfffffffffffffff8
     ed0:	b9800062 	ldrsw	x2, [x3]
     ed4:	17ffffcd 	b	e08 <kprintf.constprop.0+0x314>
     ed8:	11002094 	add	w20, w4, #0x8
     edc:	7100029f 	cmp	w20, #0x0
     ee0:	5400008d 	b.le	ef0 <kprintf.constprop.0+0x3fc>
     ee4:	91002c73 	add	x19, x3, #0xb
     ee8:	927df273 	and	x19, x19, #0xfffffffffffffff8
     eec:	17fffff9 	b	ed0 <kprintf.constprop.0+0x3dc>
     ef0:	aa0303f3 	mov	x19, x3
     ef4:	8b24c363 	add	x3, x27, w4, sxtw
     ef8:	17fffff6 	b	ed0 <kprintf.constprop.0+0x3dc>
/media/home/beste/01_Pro/ld25x/bsp_hu/MYD-LD25X-Uboot-L2022.10-V1.0.0/GEN_FIP/myir-st-optee/lib/libutils/ext/snprintk.c:398
     efc:	36380136 	tbz	w22, #7, f20 <kprintf.constprop.0+0x42c>
/media/home/beste/01_Pro/ld25x/bsp_hu/MYD-LD25X-Uboot-L2022.10-V1.0.0/GEN_FIP/myir-st-optee/lib/libutils/ext/snprintk.c:407
     f00:	37f80284 	tbnz	w4, #31, f50 <kprintf.constprop.0+0x45c>
     f04:	91003c73 	add	x19, x3, #0xf
     f08:	2a0403f4 	mov	w20, w4
     f0c:	927df273 	and	x19, x19, #0xfffffffffffffff8
     f10:	f9400060 	ldr	x0, [x3]
     f14:	93407f41 	sxtw	x1, w26
     f18:	f9000001 	str	x1, [x0]
     f1c:	17ffff0c 	b	b4c <kprintf.constprop.0+0x58>
/media/home/beste/01_Pro/ld25x/bsp_hu/MYD-LD25X-Uboot-L2022.10-V1.0.0/GEN_FIP/myir-st-optee/lib/libutils/ext/snprintk.c:400
     f20:	3747ff16 	tbnz	w22, #8, f00 <kprintf.constprop.0+0x40c>
/media/home/beste/01_Pro/ld25x/bsp_hu/MYD-LD25X-Uboot-L2022.10-V1.0.0/GEN_FIP/myir-st-optee/lib/libutils/ext/snprintk.c:402
     f24:	374ffef6 	tbnz	w22, #9, f00 <kprintf.constprop.0+0x40c>
/media/home/beste/01_Pro/ld25x/bsp_hu/MYD-LD25X-Uboot-L2022.10-V1.0.0/GEN_FIP/myir-st-optee/lib/libutils/ext/snprintk.c:404
     f28:	372ffed6 	tbnz	w22, #5, f00 <kprintf.constprop.0+0x40c>
/media/home/beste/01_Pro/ld25x/bsp_hu/MYD-LD25X-Uboot-L2022.10-V1.0.0/GEN_FIP/myir-st-optee/lib/libutils/ext/snprintk.c:406
     f2c:	3727feb6 	tbnz	w22, #4, f00 <kprintf.constprop.0+0x40c>
/media/home/beste/01_Pro/ld25x/bsp_hu/MYD-LD25X-Uboot-L2022.10-V1.0.0/GEN_FIP/myir-st-optee/lib/libutils/ext/snprintk.c:408
     f30:	36300356 	tbz	w22, #6, f98 <kprintf.constprop.0+0x4a4>
/media/home/beste/01_Pro/ld25x/bsp_hu/MYD-LD25X-Uboot-L2022.10-V1.0.0/GEN_FIP/myir-st-optee/lib/libutils/ext/snprintk.c:409
     f34:	37f80204 	tbnz	w4, #31, f74 <kprintf.constprop.0+0x480>
     f38:	91003c73 	add	x19, x3, #0xf
     f3c:	2a0403f4 	mov	w20, w4
     f40:	927df273 	and	x19, x19, #0xfffffffffffffff8
     f44:	f9400060 	ldr	x0, [x3]
     f48:	7900001a 	strh	w26, [x0]
     f4c:	17ffff00 	b	b4c <kprintf.constprop.0+0x58>
/media/home/beste/01_Pro/ld25x/bsp_hu/MYD-LD25X-Uboot-L2022.10-V1.0.0/GEN_FIP/myir-st-optee/lib/libutils/ext/snprintk.c:407
     f50:	11002094 	add	w20, w4, #0x8
     f54:	7100029f 	cmp	w20, #0x0
     f58:	5400008d 	b.le	f68 <kprintf.constprop.0+0x474>
     f5c:	91003c73 	add	x19, x3, #0xf
     f60:	927df273 	and	x19, x19, #0xfffffffffffffff8
     f64:	17ffffeb 	b	f10 <kprintf.constprop.0+0x41c>
     f68:	aa0303f3 	mov	x19, x3
     f6c:	8b24c363 	add	x3, x27, w4, sxtw
     f70:	17ffffe8 	b	f10 <kprintf.constprop.0+0x41c>
/media/home/beste/01_Pro/ld25x/bsp_hu/MYD-LD25X-Uboot-L2022.10-V1.0.0/GEN_FIP/myir-st-optee/lib/libutils/ext/snprintk.c:409
     f74:	11002094 	add	w20, w4, #0x8
     f78:	7100029f 	cmp	w20, #0x0
     f7c:	5400008d 	b.le	f8c <kprintf.constprop.0+0x498>
     f80:	91003c73 	add	x19, x3, #0xf
     f84:	927df273 	and	x19, x19, #0xfffffffffffffff8
     f88:	17ffffef 	b	f44 <kprintf.constprop.0+0x450>
     f8c:	aa0303f3 	mov	x19, x3
     f90:	8b24c363 	add	x3, x27, w4, sxtw
     f94:	17ffffec 	b	f44 <kprintf.constprop.0+0x450>
/media/home/beste/01_Pro/ld25x/bsp_hu/MYD-LD25X-Uboot-L2022.10-V1.0.0/GEN_FIP/myir-st-optee/lib/libutils/ext/snprintk.c:411
     f98:	37f800e4 	tbnz	w4, #31, fb4 <kprintf.constprop.0+0x4c0>
     f9c:	91003c73 	add	x19, x3, #0xf
     fa0:	2a0403f4 	mov	w20, w4
     fa4:	927df273 	and	x19, x19, #0xfffffffffffffff8
     fa8:	f9400060 	ldr	x0, [x3]
     fac:	b900001a 	str	w26, [x0]
     fb0:	17fffee7 	b	b4c <kprintf.constprop.0+0x58>
     fb4:	11002094 	add	w20, w4, #0x8
     fb8:	7100029f 	cmp	w20, #0x0
     fbc:	5400008d 	b.le	fcc <kprintf.constprop.0+0x4d8>
     fc0:	91003c73 	add	x19, x3, #0xf
     fc4:	927df273 	and	x19, x19, #0xfffffffffffffff8
     fc8:	17fffff8 	b	fa8 <kprintf.constprop.0+0x4b4>
     fcc:	aa0303f3 	mov	x19, x3
     fd0:	8b24c363 	add	x3, x27, w4, sxtw
     fd4:	17fffff5 	b	fa8 <kprintf.constprop.0+0x4b4>
/media/home/beste/01_Pro/ld25x/bsp_hu/MYD-LD25X-Uboot-L2022.10-V1.0.0/GEN_FIP/myir-st-optee/lib/libutils/ext/snprintk.c:414
     fd8:	321c02d6 	orr	w22, w22, #0x10
/media/home/beste/01_Pro/ld25x/bsp_hu/MYD-LD25X-Uboot-L2022.10-V1.0.0/GEN_FIP/myir-st-optee/lib/libutils/ext/snprintk.c:417
     fdc:	36380356 	tbz	w22, #7, 1044 <kprintf.constprop.0+0x550>
     fe0:	37f80484 	tbnz	w4, #31, 1070 <kprintf.constprop.0+0x57c>
     fe4:	91003c73 	add	x19, x3, #0xf
     fe8:	2a0403f4 	mov	w20, w4
     fec:	927df273 	and	x19, x19, #0xfffffffffffffff8
     ff0:	f9400062 	ldr	x2, [x3]
/media/home/beste/01_Pro/ld25x/bsp_hu/MYD-LD25X-Uboot-L2022.10-V1.0.0/GEN_FIP/myir-st-optee/lib/libutils/ext/snprintk.c:494
     ff4:	52800001 	mov	w1, #0x0                   	// #0
     ff8:	310004bf 	cmn	w5, #0x1
     ffc:	54002781 	b.ne	14ec <kprintf.constprop.0+0x9f8>  // b.any
/media/home/beste/01_Pro/ld25x/bsp_hu/MYD-LD25X-Uboot-L2022.10-V1.0.0/GEN_FIP/myir-st-optee/lib/libutils/ext/snprintk.c:502
    1000:	9103b7ed 	add	x13, sp, #0xed
/media/home/beste/01_Pro/ld25x/bsp_hu/MYD-LD25X-Uboot-L2022.10-V1.0.0/GEN_FIP/myir-st-optee/lib/libutils/ext/snprintk.c:512
    1004:	12000840 	and	w0, w2, #0x7
    1008:	aa0d03e4 	mov	x4, x13
    100c:	1100c000 	add	w0, w0, #0x30
    1010:	381ffda0 	strb	w0, [x13, #-1]!
/media/home/beste/01_Pro/ld25x/bsp_hu/MYD-LD25X-Uboot-L2022.10-V1.0.0/GEN_FIP/myir-st-optee/lib/libutils/ext/snprintk.c:513
    1014:	d343fc42 	lsr	x2, x2, #3
/media/home/beste/01_Pro/ld25x/bsp_hu/MYD-LD25X-Uboot-L2022.10-V1.0.0/GEN_FIP/myir-st-optee/lib/libutils/ext/snprintk.c:514
    1018:	b5ffff62 	cbnz	x2, 1004 <kprintf.constprop.0+0x510>
/media/home/beste/01_Pro/ld25x/bsp_hu/MYD-LD25X-Uboot-L2022.10-V1.0.0/GEN_FIP/myir-st-optee/lib/libutils/ext/snprintk.c:516
    101c:	360000d6 	tbz	w22, #0, 1034 <kprintf.constprop.0+0x540>
    1020:	7100c01f 	cmp	w0, #0x30
    1024:	54000080 	b.eq	1034 <kprintf.constprop.0+0x540>  // b.none
/media/home/beste/01_Pro/ld25x/bsp_hu/MYD-LD25X-Uboot-L2022.10-V1.0.0/GEN_FIP/myir-st-optee/lib/libutils/ext/snprintk.c:517
    1028:	52800600 	mov	w0, #0x30                  	// #48
    102c:	381ff1a0 	sturb	w0, [x13, #-1]
    1030:	d100088d 	sub	x13, x4, #0x2
/media/home/beste/01_Pro/ld25x/bsp_hu/MYD-LD25X-Uboot-L2022.10-V1.0.0/GEN_FIP/myir-st-optee/lib/libutils/ext/snprintk.c:543
    1034:	2a0503e2 	mov	w2, w5
    1038:	9103b7e5 	add	x5, sp, #0xed
    103c:	4b0d00a5 	sub	w5, w5, w13
    1040:	1400005b 	b	11ac <kprintf.constprop.0+0x6b8>
/media/home/beste/01_Pro/ld25x/bsp_hu/MYD-LD25X-Uboot-L2022.10-V1.0.0/GEN_FIP/myir-st-optee/lib/libutils/ext/snprintk.c:417
    1044:	3747fcf6 	tbnz	w22, #8, fe0 <kprintf.constprop.0+0x4ec>
    1048:	374ffcd6 	tbnz	w22, #9, fe0 <kprintf.constprop.0+0x4ec>
    104c:	372ffcb6 	tbnz	w22, #5, fe0 <kprintf.constprop.0+0x4ec>
    1050:	3727fc96 	tbnz	w22, #4, fe0 <kprintf.constprop.0+0x4ec>
    1054:	36300336 	tbz	w22, #6, 10b8 <kprintf.constprop.0+0x5c4>
    1058:	37f801e4 	tbnz	w4, #31, 1094 <kprintf.constprop.0+0x5a0>
    105c:	91002c73 	add	x19, x3, #0xb
    1060:	2a0403f4 	mov	w20, w4
    1064:	927df273 	and	x19, x19, #0xfffffffffffffff8
    1068:	79400062 	ldrh	w2, [x3]
    106c:	17ffffe2 	b	ff4 <kprintf.constprop.0+0x500>
    1070:	11002094 	add	w20, w4, #0x8
    1074:	7100029f 	cmp	w20, #0x0
    1078:	5400008d 	b.le	1088 <kprintf.constprop.0+0x594>
    107c:	91003c73 	add	x19, x3, #0xf
    1080:	927df273 	and	x19, x19, #0xfffffffffffffff8
    1084:	17ffffdb 	b	ff0 <kprintf.constprop.0+0x4fc>
    1088:	aa0303f3 	mov	x19, x3
    108c:	8b24c363 	add	x3, x27, w4, sxtw
    1090:	17ffffd8 	b	ff0 <kprintf.constprop.0+0x4fc>
    1094:	11002094 	add	w20, w4, #0x8
    1098:	7100029f 	cmp	w20, #0x0
    109c:	5400008d 	b.le	10ac <kprintf.constprop.0+0x5b8>
    10a0:	91002c73 	add	x19, x3, #0xb
    10a4:	927df273 	and	x19, x19, #0xfffffffffffffff8
    10a8:	17fffff0 	b	1068 <kprintf.constprop.0+0x574>
    10ac:	aa0303f3 	mov	x19, x3
    10b0:	8b24c363 	add	x3, x27, w4, sxtw
    10b4:	17ffffed 	b	1068 <kprintf.constprop.0+0x574>
    10b8:	37f800c4 	tbnz	w4, #31, 10d0 <kprintf.constprop.0+0x5dc>
    10bc:	91002c73 	add	x19, x3, #0xb
    10c0:	2a0403f4 	mov	w20, w4
    10c4:	927df273 	and	x19, x19, #0xfffffffffffffff8
    10c8:	b9400062 	ldr	w2, [x3]
    10cc:	17ffffca 	b	ff4 <kprintf.constprop.0+0x500>
    10d0:	11002094 	add	w20, w4, #0x8
    10d4:	7100029f 	cmp	w20, #0x0
    10d8:	5400008d 	b.le	10e8 <kprintf.constprop.0+0x5f4>
    10dc:	91002c73 	add	x19, x3, #0xb
    10e0:	927df273 	and	x19, x19, #0xfffffffffffffff8
    10e4:	17fffff9 	b	10c8 <kprintf.constprop.0+0x5d4>
    10e8:	aa0303f3 	mov	x19, x3
    10ec:	8b24c363 	add	x3, x27, w4, sxtw
    10f0:	17fffff6 	b	10c8 <kprintf.constprop.0+0x5d4>
/media/home/beste/01_Pro/ld25x/bsp_hu/MYD-LD25X-Uboot-L2022.10-V1.0.0/GEN_FIP/myir-st-optee/lib/libutils/ext/snprintk.c:421
    10f4:	b940abe0 	ldr	w0, [sp, #168]
    10f8:	340009c0 	cbz	w0, 1230 <kprintf.constprop.0+0x73c>
    10fc:	39400380 	ldrb	w0, [x28]
    1100:	7101541f 	cmp	w0, #0x55
    1104:	54000961 	b.ne	1230 <kprintf.constprop.0+0x73c>  // b.any
    1108:	39400780 	ldrb	w0, [x28, #1]
    110c:	7101b01f 	cmp	w0, #0x6c
    1110:	54000901 	b.ne	1230 <kprintf.constprop.0+0x73c>  // b.any
/media/home/beste/01_Pro/ld25x/bsp_hu/MYD-LD25X-Uboot-L2022.10-V1.0.0/GEN_FIP/myir-st-optee/lib/libutils/ext/snprintk.c:426
    1114:	91000b9c 	add	x28, x28, #0x2
/media/home/beste/01_Pro/ld25x/bsp_hu/MYD-LD25X-Uboot-L2022.10-V1.0.0/GEN_FIP/myir-st-optee/lib/libutils/ext/snprintk.c:427
    1118:	37f807a4 	tbnz	w4, #31, 120c <kprintf.constprop.0+0x718>
    111c:	91003c73 	add	x19, x3, #0xf
    1120:	2a0403f4 	mov	w20, w4
    1124:	927df273 	and	x19, x19, #0xfffffffffffffff8
    1128:	f9400061 	ldr	x1, [x3]
uuid2str():
/media/home/beste/01_Pro/ld25x/bsp_hu/MYD-LD25X-Uboot-L2022.10-V1.0.0/GEN_FIP/myir-st-optee/lib/libutils/ext/snprintk.c:229
    112c:	910323ed 	add	x13, sp, #0xc8
    1130:	b0000082 	adrp	x2, 12000 <__compound_literal.2>
    1134:	91127442 	add	x2, x2, #0x49d
    1138:	f90053ed 	str	x13, [sp, #160]
    113c:	39403c20 	ldrb	w0, [x1, #15]
    1140:	39402427 	ldrb	w7, [x1, #9]
    1144:	39402026 	ldrb	w6, [x1, #8]
    1148:	79400c25 	ldrh	w5, [x1, #6]
    114c:	79400824 	ldrh	w4, [x1, #4]
    1150:	b9002be0 	str	w0, [sp, #40]
    1154:	b900afea 	str	w10, [sp, #172]
    1158:	39403820 	ldrb	w0, [x1, #14]
    115c:	b90023e0 	str	w0, [sp, #32]
    1160:	f9005beb 	str	x11, [sp, #176]
    1164:	39403420 	ldrb	w0, [x1, #13]
    1168:	b9001be0 	str	w0, [sp, #24]
    116c:	39403020 	ldrb	w0, [x1, #12]
    1170:	b90013e0 	str	w0, [sp, #16]
    1174:	39402c20 	ldrb	w0, [x1, #11]
    1178:	b9000be0 	str	w0, [sp, #8]
    117c:	39402820 	ldrb	w0, [x1, #10]
    1180:	b90003e0 	str	w0, [sp]
    1184:	aa0d03e0 	mov	x0, x13
    1188:	b9400023 	ldr	w3, [x1]
    118c:	d28004a1 	mov	x1, #0x25                  	// #37
    1190:	97fffe3c 	bl	a80 <snprintk>
    1194:	f94053ed 	ldr	x13, [sp, #160]
kprintf():
/media/home/beste/01_Pro/ld25x/bsp_hu/MYD-LD25X-Uboot-L2022.10-V1.0.0/GEN_FIP/myir-st-optee/lib/libutils/ext/snprintk.c:466
    1198:	2a0003e5 	mov	w5, w0
    119c:	f9405beb 	ldr	x11, [sp, #176]
/media/home/beste/01_Pro/ld25x/bsp_hu/MYD-LD25X-Uboot-L2022.10-V1.0.0/GEN_FIP/myir-st-optee/lib/libutils/ext/snprintk.c:291
    11a0:	52800002 	mov	w2, #0x0                   	// #0
    11a4:	b940afea 	ldr	w10, [sp, #172]
/media/home/beste/01_Pro/ld25x/bsp_hu/MYD-LD25X-Uboot-L2022.10-V1.0.0/GEN_FIP/myir-st-optee/lib/libutils/ext/snprintk.c:467
    11a8:	52800001 	mov	w1, #0x0                   	// #0
/media/home/beste/01_Pro/ld25x/bsp_hu/MYD-LD25X-Uboot-L2022.10-V1.0.0/GEN_FIP/myir-st-optee/lib/libutils/ext/snprintk.c:571
    11ac:	6b05005f 	cmp	w2, w5
/media/home/beste/01_Pro/ld25x/bsp_hu/MYD-LD25X-Uboot-L2022.10-V1.0.0/GEN_FIP/myir-st-optee/lib/libutils/ext/snprintk.c:581
    11b0:	52808084 	mov	w4, #0x404                 	// #1028
/media/home/beste/01_Pro/ld25x/bsp_hu/MYD-LD25X-Uboot-L2022.10-V1.0.0/GEN_FIP/myir-st-optee/lib/libutils/ext/snprintk.c:571
    11b4:	1a85a040 	csel	w0, w2, w5, ge	// ge = tcont
/media/home/beste/01_Pro/ld25x/bsp_hu/MYD-LD25X-Uboot-L2022.10-V1.0.0/GEN_FIP/myir-st-optee/lib/libutils/ext/snprintk.c:581
    11b8:	0a0402c4 	and	w4, w22, w4
/media/home/beste/01_Pro/ld25x/bsp_hu/MYD-LD25X-Uboot-L2022.10-V1.0.0/GEN_FIP/myir-st-optee/lib/libutils/ext/snprintk.c:572
    11bc:	34001d21 	cbz	w1, 1560 <kprintf.constprop.0+0xa6c>
/media/home/beste/01_Pro/ld25x/bsp_hu/MYD-LD25X-Uboot-L2022.10-V1.0.0/GEN_FIP/myir-st-optee/lib/libutils/ext/snprintk.c:573
    11c0:	11000400 	add	w0, w0, #0x1
/media/home/beste/01_Pro/ld25x/bsp_hu/MYD-LD25X-Uboot-L2022.10-V1.0.0/GEN_FIP/myir-st-optee/lib/libutils/ext/snprintk.c:578
    11c4:	6b0a001f 	cmp	w0, w10
    11c8:	1a8aa006 	csel	w6, w0, w10, ge	// ge = tcont
    11cc:	0b06035a 	add	w26, w26, w6
/media/home/beste/01_Pro/ld25x/bsp_hu/MYD-LD25X-Uboot-L2022.10-V1.0.0/GEN_FIP/myir-st-optee/lib/libutils/ext/snprintk.c:581
    11d0:	35001f84 	cbnz	w4, 15c0 <kprintf.constprop.0+0xacc>
/media/home/beste/01_Pro/ld25x/bsp_hu/MYD-LD25X-Uboot-L2022.10-V1.0.0/GEN_FIP/myir-st-optee/lib/libutils/ext/snprintk.c:582
    11d4:	4b000144 	sub	w4, w10, w0
/media/home/beste/01_Pro/ld25x/bsp_hu/MYD-LD25X-Uboot-L2022.10-V1.0.0/GEN_FIP/myir-st-optee/lib/libutils/ext/snprintk.c:583
    11d8:	7100009f 	cmp	w4, #0x0
    11dc:	5400012d 	b.le	1200 <kprintf.constprop.0+0x70c>
/media/home/beste/01_Pro/ld25x/bsp_hu/MYD-LD25X-Uboot-L2022.10-V1.0.0/GEN_FIP/myir-st-optee/lib/libutils/ext/snprintk.c:584
    11e0:	b4001ed5 	cbz	x21, 15b8 <kprintf.constprop.0+0xac4>
    11e4:	f100017f 	cmp	x11, #0x0
    11e8:	fa551322 	ccmp	x25, x21, #0x2, ne	// ne = any
    11ec:	54001e69 	b.ls	15b8 <kprintf.constprop.0+0xac4>  // b.plast
    11f0:	52800403 	mov	w3, #0x20                  	// #32
    11f4:	380016a3 	strb	w3, [x21], #1
/media/home/beste/01_Pro/ld25x/bsp_hu/MYD-LD25X-Uboot-L2022.10-V1.0.0/GEN_FIP/myir-st-optee/lib/libutils/ext/snprintk.c:583
    11f8:	71000484 	subs	w4, w4, #0x1
    11fc:	54ffff41 	b.ne	11e4 <kprintf.constprop.0+0x6f0>  // b.any
/media/home/beste/01_Pro/ld25x/bsp_hu/MYD-LD25X-Uboot-L2022.10-V1.0.0/GEN_FIP/myir-st-optee/lib/libutils/ext/snprintk.c:588
    1200:	350025e1 	cbnz	w1, 16bc <kprintf.constprop.0+0xbc8>
    1204:	52800004 	mov	w4, #0x0                   	// #0
    1208:	140000dc 	b	1578 <kprintf.constprop.0+0xa84>
/media/home/beste/01_Pro/ld25x/bsp_hu/MYD-LD25X-Uboot-L2022.10-V1.0.0/GEN_FIP/myir-st-optee/lib/libutils/ext/snprintk.c:427
    120c:	11002094 	add	w20, w4, #0x8
    1210:	7100029f 	cmp	w20, #0x0
    1214:	5400008d 	b.le	1224 <kprintf.constprop.0+0x730>
    1218:	91003c73 	add	x19, x3, #0xf
    121c:	927df273 	and	x19, x19, #0xfffffffffffffff8
    1220:	17ffffc2 	b	1128 <kprintf.constprop.0+0x634>
    1224:	aa0303f3 	mov	x19, x3
    1228:	8b24c363 	add	x3, x27, w4, sxtw
    122c:	17ffffbf 	b	1128 <kprintf.constprop.0+0x634>
/media/home/beste/01_Pro/ld25x/bsp_hu/MYD-LD25X-Uboot-L2022.10-V1.0.0/GEN_FIP/myir-st-optee/lib/libutils/ext/snprintk.c:441
    1230:	37f801c4 	tbnz	w4, #31, 1268 <kprintf.constprop.0+0x774>
    1234:	91003c73 	add	x19, x3, #0xf
    1238:	2a0403f4 	mov	w20, w4
    123c:	927df273 	and	x19, x19, #0xfffffffffffffff8
    1240:	f9400062 	ldr	x2, [x3]
/media/home/beste/01_Pro/ld25x/bsp_hu/MYD-LD25X-Uboot-L2022.10-V1.0.0/GEN_FIP/myir-st-optee/lib/libutils/ext/snprintk.c:443
    1244:	90000097 	adrp	x23, 11000 <__text_end+0x20f8>
/media/home/beste/01_Pro/ld25x/bsp_hu/MYD-LD25X-Uboot-L2022.10-V1.0.0/GEN_FIP/myir-st-optee/lib/libutils/ext/snprintk.c:444
    1248:	321f02d6 	orr	w22, w22, #0x2
/media/home/beste/01_Pro/ld25x/bsp_hu/MYD-LD25X-Uboot-L2022.10-V1.0.0/GEN_FIP/myir-st-optee/lib/libutils/ext/snprintk.c:443
    124c:	913e9af7 	add	x23, x23, #0xfa6
/media/home/beste/01_Pro/ld25x/bsp_hu/MYD-LD25X-Uboot-L2022.10-V1.0.0/GEN_FIP/myir-st-optee/lib/libutils/ext/snprintk.c:445
    1250:	52800f18 	mov	w24, #0x78                  	// #120
/media/home/beste/01_Pro/ld25x/bsp_hu/MYD-LD25X-Uboot-L2022.10-V1.0.0/GEN_FIP/myir-st-optee/lib/libutils/ext/snprintk.c:494
    1254:	52800001 	mov	w1, #0x0                   	// #0
    1258:	310004bf 	cmn	w5, #0x1
    125c:	54ffdea0 	b.eq	e30 <kprintf.constprop.0+0x33c>  // b.none
    1260:	52800040 	mov	w0, #0x2                   	// #2
    1264:	140000a3 	b	14f0 <kprintf.constprop.0+0x9fc>
/media/home/beste/01_Pro/ld25x/bsp_hu/MYD-LD25X-Uboot-L2022.10-V1.0.0/GEN_FIP/myir-st-optee/lib/libutils/ext/snprintk.c:441
    1268:	11002094 	add	w20, w4, #0x8
    126c:	7100029f 	cmp	w20, #0x0
    1270:	5400008d 	b.le	1280 <kprintf.constprop.0+0x78c>
    1274:	91003c73 	add	x19, x3, #0xf
    1278:	927df273 	and	x19, x19, #0xfffffffffffffff8
    127c:	17fffff1 	b	1240 <kprintf.constprop.0+0x74c>
    1280:	aa0303f3 	mov	x19, x3
    1284:	8b24c363 	add	x3, x27, w4, sxtw
    1288:	17ffffee 	b	1240 <kprintf.constprop.0+0x74c>
/media/home/beste/01_Pro/ld25x/bsp_hu/MYD-LD25X-Uboot-L2022.10-V1.0.0/GEN_FIP/myir-st-optee/lib/libutils/ext/snprintk.c:448
    128c:	37f80364 	tbnz	w4, #31, 12f8 <kprintf.constprop.0+0x804>
    1290:	91003c73 	add	x19, x3, #0xf
    1294:	2a0403f4 	mov	w20, w4
    1298:	927df273 	and	x19, x19, #0xfffffffffffffff8
    129c:	f940006d 	ldr	x13, [x3]
    12a0:	b500006d 	cbnz	x13, 12ac <kprintf.constprop.0+0x7b8>
/media/home/beste/01_Pro/ld25x/bsp_hu/MYD-LD25X-Uboot-L2022.10-V1.0.0/GEN_FIP/myir-st-optee/lib/libutils/ext/snprintk.c:450
    12a4:	b0000083 	adrp	x3, 12000 <__compound_literal.2>
    12a8:	9112586d 	add	x13, x3, #0x496
/media/home/beste/01_Pro/ld25x/bsp_hu/MYD-LD25X-Uboot-L2022.10-V1.0.0/GEN_FIP/myir-st-optee/lib/libutils/ext/snprintk.c:451
    12ac:	310004bf 	cmn	w5, #0x1
    12b0:	54000360 	b.eq	131c <kprintf.constprop.0+0x828>  // b.none
/media/home/beste/01_Pro/ld25x/bsp_hu/MYD-LD25X-Uboot-L2022.10-V1.0.0/GEN_FIP/myir-st-optee/lib/libutils/ext/snprintk.c:457
    12b4:	93407ca2 	sxtw	x2, w5
    12b8:	aa0d03e0 	mov	x0, x13
    12bc:	52800001 	mov	w1, #0x0                   	// #0
    12c0:	f90053ed 	str	x13, [sp, #160]
    12c4:	2915abe5 	stp	w5, w10, [sp, #172]
    12c8:	f9005feb 	str	x11, [sp, #184]
    12cc:	94000116 	bl	1724 <memchr>
/media/home/beste/01_Pro/ld25x/bsp_hu/MYD-LD25X-Uboot-L2022.10-V1.0.0/GEN_FIP/myir-st-optee/lib/libutils/ext/snprintk.c:459
    12d0:	f94053ed 	ldr	x13, [sp, #160]
    12d4:	f9405feb 	ldr	x11, [sp, #184]
    12d8:	2955abe5 	ldp	w5, w10, [sp, #172]
    12dc:	b4000080 	cbz	x0, 12ec <kprintf.constprop.0+0x7f8>
/media/home/beste/01_Pro/ld25x/bsp_hu/MYD-LD25X-Uboot-L2022.10-V1.0.0/GEN_FIP/myir-st-optee/lib/libutils/ext/snprintk.c:460
    12e0:	cb0d0000 	sub	x0, x0, x13
    12e4:	6b0000bf 	cmp	w5, w0
    12e8:	1a80d0a5 	csel	w5, w5, w0, le
/media/home/beste/01_Pro/ld25x/bsp_hu/MYD-LD25X-Uboot-L2022.10-V1.0.0/GEN_FIP/myir-st-optee/lib/libutils/ext/snprintk.c:291
    12ec:	52800002 	mov	w2, #0x0                   	// #0
/media/home/beste/01_Pro/ld25x/bsp_hu/MYD-LD25X-Uboot-L2022.10-V1.0.0/GEN_FIP/myir-st-optee/lib/libutils/ext/snprintk.c:467
    12f0:	52800001 	mov	w1, #0x0                   	// #0
    12f4:	17ffffae 	b	11ac <kprintf.constprop.0+0x6b8>
/media/home/beste/01_Pro/ld25x/bsp_hu/MYD-LD25X-Uboot-L2022.10-V1.0.0/GEN_FIP/myir-st-optee/lib/libutils/ext/snprintk.c:448
    12f8:	11002094 	add	w20, w4, #0x8
    12fc:	7100029f 	cmp	w20, #0x0
    1300:	5400008d 	b.le	1310 <kprintf.constprop.0+0x81c>
    1304:	91003c73 	add	x19, x3, #0xf
    1308:	927df273 	and	x19, x19, #0xfffffffffffffff8
    130c:	17ffffe4 	b	129c <kprintf.constprop.0+0x7a8>
    1310:	aa0303f3 	mov	x19, x3
    1314:	8b24c363 	add	x3, x27, w4, sxtw
    1318:	17ffffe1 	b	129c <kprintf.constprop.0+0x7a8>
/media/home/beste/01_Pro/ld25x/bsp_hu/MYD-LD25X-Uboot-L2022.10-V1.0.0/GEN_FIP/myir-st-optee/lib/libutils/ext/snprintk.c:466
    131c:	aa0d03e0 	mov	x0, x13
    1320:	f90053ed 	str	x13, [sp, #160]
    1324:	b900afea 	str	w10, [sp, #172]
    1328:	f9005beb 	str	x11, [sp, #176]
    132c:	94000109 	bl	1750 <strlen>
    1330:	17ffff99 	b	1194 <kprintf.constprop.0+0x6a0>
/media/home/beste/01_Pro/ld25x/bsp_hu/MYD-LD25X-Uboot-L2022.10-V1.0.0/GEN_FIP/myir-st-optee/lib/libutils/ext/snprintk.c:470
    1334:	321c02d6 	orr	w22, w22, #0x10
/media/home/beste/01_Pro/ld25x/bsp_hu/MYD-LD25X-Uboot-L2022.10-V1.0.0/GEN_FIP/myir-st-optee/lib/libutils/ext/snprintk.c:473
    1338:	36380236 	tbz	w22, #7, 137c <kprintf.constprop.0+0x888>
    133c:	37f80364 	tbnz	w4, #31, 13a8 <kprintf.constprop.0+0x8b4>
    1340:	91003c73 	add	x19, x3, #0xf
    1344:	2a0403f4 	mov	w20, w4
    1348:	927df273 	and	x19, x19, #0xfffffffffffffff8
    134c:	f9400062 	ldr	x2, [x3]
/media/home/beste/01_Pro/ld25x/bsp_hu/MYD-LD25X-Uboot-L2022.10-V1.0.0/GEN_FIP/myir-st-optee/lib/libutils/ext/snprintk.c:488
    1350:	52800001 	mov	w1, #0x0                   	// #0
/media/home/beste/01_Pro/ld25x/bsp_hu/MYD-LD25X-Uboot-L2022.10-V1.0.0/GEN_FIP/myir-st-optee/lib/libutils/ext/snprintk.c:494
    1354:	310004bf 	cmn	w5, #0x1
    1358:	54000da1 	b.ne	150c <kprintf.constprop.0+0xa18>  // b.any
/media/home/beste/01_Pro/ld25x/bsp_hu/MYD-LD25X-Uboot-L2022.10-V1.0.0/GEN_FIP/myir-st-optee/lib/libutils/ext/snprintk.c:502
    135c:	9103b7e0 	add	x0, sp, #0xed
/media/home/beste/01_Pro/ld25x/bsp_hu/MYD-LD25X-Uboot-L2022.10-V1.0.0/GEN_FIP/myir-st-optee/lib/libutils/ext/snprintk.c:523
    1360:	d2800144 	mov	x4, #0xa                   	// #10
    1364:	d100040d 	sub	x13, x0, #0x1
/media/home/beste/01_Pro/ld25x/bsp_hu/MYD-LD25X-Uboot-L2022.10-V1.0.0/GEN_FIP/myir-st-optee/lib/libutils/ext/snprintk.c:522
    1368:	f100245f 	cmp	x2, #0x9
    136c:	54000d48 	b.hi	1514 <kprintf.constprop.0+0xa20>  // b.pmore
/media/home/beste/01_Pro/ld25x/bsp_hu/MYD-LD25X-Uboot-L2022.10-V1.0.0/GEN_FIP/myir-st-optee/lib/libutils/ext/snprintk.c:526
    1370:	1100c042 	add	w2, w2, #0x30
    1374:	381ff002 	sturb	w2, [x0, #-1]
/media/home/beste/01_Pro/ld25x/bsp_hu/MYD-LD25X-Uboot-L2022.10-V1.0.0/GEN_FIP/myir-st-optee/lib/libutils/ext/snprintk.c:527
    1378:	17ffff2f 	b	1034 <kprintf.constprop.0+0x540>
/media/home/beste/01_Pro/ld25x/bsp_hu/MYD-LD25X-Uboot-L2022.10-V1.0.0/GEN_FIP/myir-st-optee/lib/libutils/ext/snprintk.c:473
    137c:	3747fe16 	tbnz	w22, #8, 133c <kprintf.constprop.0+0x848>
    1380:	374ffdf6 	tbnz	w22, #9, 133c <kprintf.constprop.0+0x848>
    1384:	372ffdd6 	tbnz	w22, #5, 133c <kprintf.constprop.0+0x848>
    1388:	3727fdb6 	tbnz	w22, #4, 133c <kprintf.constprop.0+0x848>
    138c:	36300336 	tbz	w22, #6, 13f0 <kprintf.constprop.0+0x8fc>
    1390:	37f801e4 	tbnz	w4, #31, 13cc <kprintf.constprop.0+0x8d8>
    1394:	91002c73 	add	x19, x3, #0xb
    1398:	2a0403f4 	mov	w20, w4
    139c:	927df273 	and	x19, x19, #0xfffffffffffffff8
    13a0:	79400062 	ldrh	w2, [x3]
    13a4:	17ffffeb 	b	1350 <kprintf.constprop.0+0x85c>
    13a8:	11002094 	add	w20, w4, #0x8
    13ac:	7100029f 	cmp	w20, #0x0
    13b0:	5400008d 	b.le	13c0 <kprintf.constprop.0+0x8cc>
    13b4:	91003c73 	add	x19, x3, #0xf
    13b8:	927df273 	and	x19, x19, #0xfffffffffffffff8
    13bc:	17ffffe4 	b	134c <kprintf.constprop.0+0x858>
    13c0:	aa0303f3 	mov	x19, x3
    13c4:	8b24c363 	add	x3, x27, w4, sxtw
    13c8:	17ffffe1 	b	134c <kprintf.constprop.0+0x858>
    13cc:	11002094 	add	w20, w4, #0x8
    13d0:	7100029f 	cmp	w20, #0x0
    13d4:	5400008d 	b.le	13e4 <kprintf.constprop.0+0x8f0>
    13d8:	91002c73 	add	x19, x3, #0xb
    13dc:	927df273 	and	x19, x19, #0xfffffffffffffff8
    13e0:	17fffff0 	b	13a0 <kprintf.constprop.0+0x8ac>
    13e4:	aa0303f3 	mov	x19, x3
    13e8:	8b24c363 	add	x3, x27, w4, sxtw
    13ec:	17ffffed 	b	13a0 <kprintf.constprop.0+0x8ac>
    13f0:	37f800c4 	tbnz	w4, #31, 1408 <kprintf.constprop.0+0x914>
    13f4:	91002c73 	add	x19, x3, #0xb
    13f8:	2a0403f4 	mov	w20, w4
    13fc:	927df273 	and	x19, x19, #0xfffffffffffffff8
    1400:	b9400062 	ldr	w2, [x3]
    1404:	17ffffd3 	b	1350 <kprintf.constprop.0+0x85c>
    1408:	11002094 	add	w20, w4, #0x8
    140c:	7100029f 	cmp	w20, #0x0
    1410:	5400008d 	b.le	1420 <kprintf.constprop.0+0x92c>
    1414:	91002c73 	add	x19, x3, #0xb
    1418:	927df273 	and	x19, x19, #0xfffffffffffffff8
    141c:	17fffff9 	b	1400 <kprintf.constprop.0+0x90c>
    1420:	aa0303f3 	mov	x19, x3
    1424:	8b24c363 	add	x3, x27, w4, sxtw
    1428:	17fffff6 	b	1400 <kprintf.constprop.0+0x90c>
/media/home/beste/01_Pro/ld25x/bsp_hu/MYD-LD25X-Uboot-L2022.10-V1.0.0/GEN_FIP/myir-st-optee/lib/libutils/ext/snprintk.c:297
    142c:	90000097 	adrp	x23, 11000 <__text_end+0x20f8>
    1430:	913e9af7 	add	x23, x23, #0xfa6
    1434:	910046f7 	add	x23, x23, #0x11
    1438:	17fffdf2 	b	c00 <kprintf.constprop.0+0x10c>
/media/home/beste/01_Pro/ld25x/bsp_hu/MYD-LD25X-Uboot-L2022.10-V1.0.0/GEN_FIP/myir-st-optee/lib/libutils/ext/snprintk.c:481
    143c:	3747be56 	tbnz	w22, #8, c04 <kprintf.constprop.0+0x110>
    1440:	374fbe36 	tbnz	w22, #9, c04 <kprintf.constprop.0+0x110>
    1444:	372fbe16 	tbnz	w22, #5, c04 <kprintf.constprop.0+0x110>
    1448:	3727bdf6 	tbnz	w22, #4, c04 <kprintf.constprop.0+0x110>
    144c:	36300336 	tbz	w22, #6, 14b0 <kprintf.constprop.0+0x9bc>
    1450:	37f801e4 	tbnz	w4, #31, 148c <kprintf.constprop.0+0x998>
    1454:	91002c73 	add	x19, x3, #0xb
    1458:	2a0403f4 	mov	w20, w4
    145c:	927df273 	and	x19, x19, #0xfffffffffffffff8
    1460:	79400062 	ldrh	w2, [x3]
    1464:	17fffded 	b	c18 <kprintf.constprop.0+0x124>
    1468:	11002094 	add	w20, w4, #0x8
    146c:	7100029f 	cmp	w20, #0x0
    1470:	5400008d 	b.le	1480 <kprintf.constprop.0+0x98c>
    1474:	91003c73 	add	x19, x3, #0xf
    1478:	927df273 	and	x19, x19, #0xfffffffffffffff8
    147c:	17fffde6 	b	c14 <kprintf.constprop.0+0x120>
    1480:	aa0303f3 	mov	x19, x3
    1484:	8b24c363 	add	x3, x27, w4, sxtw
    1488:	17fffde3 	b	c14 <kprintf.constprop.0+0x120>
    148c:	11002094 	add	w20, w4, #0x8
    1490:	7100029f 	cmp	w20, #0x0
    1494:	5400008d 	b.le	14a4 <kprintf.constprop.0+0x9b0>
    1498:	91002c73 	add	x19, x3, #0xb
    149c:	927df273 	and	x19, x19, #0xfffffffffffffff8
    14a0:	17fffff0 	b	1460 <kprintf.constprop.0+0x96c>
    14a4:	aa0303f3 	mov	x19, x3
    14a8:	8b24c363 	add	x3, x27, w4, sxtw
    14ac:	17ffffed 	b	1460 <kprintf.constprop.0+0x96c>
    14b0:	37f800c4 	tbnz	w4, #31, 14c8 <kprintf.constprop.0+0x9d4>
    14b4:	91002c73 	add	x19, x3, #0xb
    14b8:	2a0403f4 	mov	w20, w4
    14bc:	927df273 	and	x19, x19, #0xfffffffffffffff8
    14c0:	b9400062 	ldr	w2, [x3]
    14c4:	17fffdd5 	b	c18 <kprintf.constprop.0+0x124>
    14c8:	11002094 	add	w20, w4, #0x8
    14cc:	7100029f 	cmp	w20, #0x0
    14d0:	5400008d 	b.le	14e0 <kprintf.constprop.0+0x9ec>
    14d4:	91002c73 	add	x19, x3, #0xb
    14d8:	927df273 	and	x19, x19, #0xfffffffffffffff8
    14dc:	17fffff9 	b	14c0 <kprintf.constprop.0+0x9cc>
    14e0:	aa0303f3 	mov	x19, x3
    14e4:	8b24c363 	add	x3, x27, w4, sxtw
    14e8:	17fffff6 	b	14c0 <kprintf.constprop.0+0x9cc>
/media/home/beste/01_Pro/ld25x/bsp_hu/MYD-LD25X-Uboot-L2022.10-V1.0.0/GEN_FIP/myir-st-optee/lib/libutils/ext/snprintk.c:494
    14ec:	52800000 	mov	w0, #0x0                   	// #0
/media/home/beste/01_Pro/ld25x/bsp_hu/MYD-LD25X-Uboot-L2022.10-V1.0.0/GEN_FIP/myir-st-optee/lib/libutils/ext/snprintk.c:503
    14f0:	f100005f 	cmp	x2, #0x0
/media/home/beste/01_Pro/ld25x/bsp_hu/MYD-LD25X-Uboot-L2022.10-V1.0.0/GEN_FIP/myir-st-optee/lib/libutils/ext/snprintk.c:495
    14f4:	12157ad6 	and	w22, w22, #0xfffffbff
/media/home/beste/01_Pro/ld25x/bsp_hu/MYD-LD25X-Uboot-L2022.10-V1.0.0/GEN_FIP/myir-st-optee/lib/libutils/ext/snprintk.c:503
    14f8:	7a4008a0 	ccmp	w5, #0x0, #0x0, eq	// eq = none
    14fc:	54ffc921 	b.ne	e20 <kprintf.constprop.0+0x32c>  // b.any
/media/home/beste/01_Pro/ld25x/bsp_hu/MYD-LD25X-Uboot-L2022.10-V1.0.0/GEN_FIP/myir-st-optee/lib/libutils/ext/snprintk.c:502
    1500:	9103b7ed 	add	x13, sp, #0xed
    1504:	52800005 	mov	w5, #0x0                   	// #0
    1508:	17fffecb 	b	1034 <kprintf.constprop.0+0x540>
/media/home/beste/01_Pro/ld25x/bsp_hu/MYD-LD25X-Uboot-L2022.10-V1.0.0/GEN_FIP/myir-st-optee/lib/libutils/ext/snprintk.c:494
    150c:	52800020 	mov	w0, #0x1                   	// #1
    1510:	17fffff8 	b	14f0 <kprintf.constprop.0+0x9fc>
/media/home/beste/01_Pro/ld25x/bsp_hu/MYD-LD25X-Uboot-L2022.10-V1.0.0/GEN_FIP/myir-st-optee/lib/libutils/ext/snprintk.c:523
    1514:	9ac40846 	udiv	x6, x2, x4
    1518:	9b0488c2 	msub	x2, x6, x4, x2
    151c:	1100c042 	add	w2, w2, #0x30
    1520:	381ff002 	sturb	w2, [x0, #-1]
/media/home/beste/01_Pro/ld25x/bsp_hu/MYD-LD25X-Uboot-L2022.10-V1.0.0/GEN_FIP/myir-st-optee/lib/libutils/ext/snprintk.c:524
    1524:	aa0603e2 	mov	x2, x6
/media/home/beste/01_Pro/ld25x/bsp_hu/MYD-LD25X-Uboot-L2022.10-V1.0.0/GEN_FIP/myir-st-optee/lib/libutils/ext/snprintk.c:523
    1528:	aa0d03e0 	mov	x0, x13
    152c:	17ffff8e 	b	1364 <kprintf.constprop.0+0x870>
/media/home/beste/01_Pro/ld25x/bsp_hu/MYD-LD25X-Uboot-L2022.10-V1.0.0/GEN_FIP/myir-st-optee/lib/libutils/ext/snprintk.c:547
    1530:	35ffb878 	cbnz	w24, c3c <kprintf.constprop.0+0x148>
/media/home/beste/01_Pro/ld25x/bsp_hu/MYD-LD25X-Uboot-L2022.10-V1.0.0/GEN_FIP/myir-st-optee/lib/libutils/ext/snprintk.c:619
    1534:	b400004b 	cbz	x11, 153c <kprintf.constprop.0+0xa48>
/media/home/beste/01_Pro/ld25x/bsp_hu/MYD-LD25X-Uboot-L2022.10-V1.0.0/GEN_FIP/myir-st-optee/lib/libutils/ext/snprintk.c:620
    1538:	f9000175 	str	x21, [x11]
/media/home/beste/01_Pro/ld25x/bsp_hu/MYD-LD25X-Uboot-L2022.10-V1.0.0/GEN_FIP/myir-st-optee/lib/libutils/ext/snprintk.c:622
    153c:	a9437bfd 	ldp	x29, x30, [sp, #48]
    1540:	2a1a03e0 	mov	w0, w26
    1544:	a94453f3 	ldp	x19, x20, [sp, #64]
    1548:	a9455bf5 	ldp	x21, x22, [sp, #80]
    154c:	a94663f7 	ldp	x23, x24, [sp, #96]
    1550:	a9476bf9 	ldp	x25, x26, [sp, #112]
    1554:	a94873fb 	ldp	x27, x28, [sp, #128]
    1558:	9103c3ff 	add	sp, sp, #0xf0
    155c:	d65f03c0 	ret
/media/home/beste/01_Pro/ld25x/bsp_hu/MYD-LD25X-Uboot-L2022.10-V1.0.0/GEN_FIP/myir-st-optee/lib/libutils/ext/snprintk.c:574
    1560:	36080056 	tbz	w22, #1, 1568 <kprintf.constprop.0+0xa74>
/media/home/beste/01_Pro/ld25x/bsp_hu/MYD-LD25X-Uboot-L2022.10-V1.0.0/GEN_FIP/myir-st-optee/lib/libutils/ext/snprintk.c:575
    1564:	11000800 	add	w0, w0, #0x2
/media/home/beste/01_Pro/ld25x/bsp_hu/MYD-LD25X-Uboot-L2022.10-V1.0.0/GEN_FIP/myir-st-optee/lib/libutils/ext/snprintk.c:578
    1568:	6b0a001f 	cmp	w0, w10
    156c:	1a8aa006 	csel	w6, w0, w10, ge	// ge = tcont
    1570:	0b06035a 	add	w26, w26, w6
/media/home/beste/01_Pro/ld25x/bsp_hu/MYD-LD25X-Uboot-L2022.10-V1.0.0/GEN_FIP/myir-st-optee/lib/libutils/ext/snprintk.c:581
    1574:	34ffe304 	cbz	w4, 11d4 <kprintf.constprop.0+0x6e0>
/media/home/beste/01_Pro/ld25x/bsp_hu/MYD-LD25X-Uboot-L2022.10-V1.0.0/GEN_FIP/myir-st-optee/lib/libutils/ext/snprintk.c:590
    1578:	36080276 	tbz	w22, #1, 15c4 <kprintf.constprop.0+0xad0>
/media/home/beste/01_Pro/ld25x/bsp_hu/MYD-LD25X-Uboot-L2022.10-V1.0.0/GEN_FIP/myir-st-optee/lib/libutils/ext/snprintk.c:591
    157c:	b4000255 	cbz	x21, 15c4 <kprintf.constprop.0+0xad0>
    1580:	f100017f 	cmp	x11, #0x0
    1584:	1a9f17e6 	cset	w6, eq	// eq = none
    1588:	710000df 	cmp	w6, #0x0
    158c:	fa550322 	ccmp	x25, x21, #0x2, eq	// eq = none
    1590:	540001a9 	b.ls	15c4 <kprintf.constprop.0+0xad0>  // b.plast
    1594:	aa1503e1 	mov	x1, x21
    1598:	52800607 	mov	w7, #0x30                  	// #48
/media/home/beste/01_Pro/ld25x/bsp_hu/MYD-LD25X-Uboot-L2022.10-V1.0.0/GEN_FIP/myir-st-optee/lib/libutils/ext/snprintk.c:592
    159c:	710000df 	cmp	w6, #0x0
/media/home/beste/01_Pro/ld25x/bsp_hu/MYD-LD25X-Uboot-L2022.10-V1.0.0/GEN_FIP/myir-st-optee/lib/libutils/ext/snprintk.c:591
    15a0:	38001427 	strb	w7, [x1], #1
/media/home/beste/01_Pro/ld25x/bsp_hu/MYD-LD25X-Uboot-L2022.10-V1.0.0/GEN_FIP/myir-st-optee/lib/libutils/ext/snprintk.c:592
    15a4:	fa410322 	ccmp	x25, x1, #0x2, eq	// eq = none
    15a8:	54000769 	b.ls	1694 <kprintf.constprop.0+0xba0>  // b.plast
    15ac:	91000ab5 	add	x21, x21, #0x2
    15b0:	381ff2b8 	sturb	w24, [x21, #-1]
    15b4:	14000004 	b	15c4 <kprintf.constprop.0+0xad0>
    15b8:	51000484 	sub	w4, w4, #0x1
    15bc:	17ffff07 	b	11d8 <kprintf.constprop.0+0x6e4>
/media/home/beste/01_Pro/ld25x/bsp_hu/MYD-LD25X-Uboot-L2022.10-V1.0.0/GEN_FIP/myir-st-optee/lib/libutils/ext/snprintk.c:589
    15c0:	b5000835 	cbnz	x21, 16c4 <kprintf.constprop.0+0xbd0>
/media/home/beste/01_Pro/ld25x/bsp_hu/MYD-LD25X-Uboot-L2022.10-V1.0.0/GEN_FIP/myir-st-optee/lib/libutils/ext/snprintk.c:596
    15c4:	7110009f 	cmp	w4, #0x400
    15c8:	54000181 	b.ne	15f8 <kprintf.constprop.0+0xb04>  // b.any
/media/home/beste/01_Pro/ld25x/bsp_hu/MYD-LD25X-Uboot-L2022.10-V1.0.0/GEN_FIP/myir-st-optee/lib/libutils/ext/snprintk.c:597
    15cc:	4b000141 	sub	w1, w10, w0
/media/home/beste/01_Pro/ld25x/bsp_hu/MYD-LD25X-Uboot-L2022.10-V1.0.0/GEN_FIP/myir-st-optee/lib/libutils/ext/snprintk.c:599
    15d0:	52800604 	mov	w4, #0x30                  	// #48
/media/home/beste/01_Pro/ld25x/bsp_hu/MYD-LD25X-Uboot-L2022.10-V1.0.0/GEN_FIP/myir-st-optee/lib/libutils/ext/snprintk.c:598
    15d4:	7100003f 	cmp	w1, #0x0
    15d8:	5400010d 	b.le	15f8 <kprintf.constprop.0+0xb04>
/media/home/beste/01_Pro/ld25x/bsp_hu/MYD-LD25X-Uboot-L2022.10-V1.0.0/GEN_FIP/myir-st-optee/lib/libutils/ext/snprintk.c:599
    15dc:	b4000615 	cbz	x21, 169c <kprintf.constprop.0+0xba8>
    15e0:	f100017f 	cmp	x11, #0x0
    15e4:	fa551322 	ccmp	x25, x21, #0x2, ne	// ne = any
    15e8:	540005a9 	b.ls	169c <kprintf.constprop.0+0xba8>  // b.plast
    15ec:	380016a4 	strb	w4, [x21], #1
/media/home/beste/01_Pro/ld25x/bsp_hu/MYD-LD25X-Uboot-L2022.10-V1.0.0/GEN_FIP/myir-st-optee/lib/libutils/ext/snprintk.c:598
    15f0:	71000421 	subs	w1, w1, #0x1
    15f4:	54ffff61 	b.ne	15e0 <kprintf.constprop.0+0xaec>  // b.any
/media/home/beste/01_Pro/ld25x/bsp_hu/MYD-LD25X-Uboot-L2022.10-V1.0.0/GEN_FIP/myir-st-optee/lib/libutils/ext/snprintk.c:603
    15f8:	4b050042 	sub	w2, w2, w5
/media/home/beste/01_Pro/ld25x/bsp_hu/MYD-LD25X-Uboot-L2022.10-V1.0.0/GEN_FIP/myir-st-optee/lib/libutils/ext/snprintk.c:605
    15fc:	52800601 	mov	w1, #0x30                  	// #48
/media/home/beste/01_Pro/ld25x/bsp_hu/MYD-LD25X-Uboot-L2022.10-V1.0.0/GEN_FIP/myir-st-optee/lib/libutils/ext/snprintk.c:604
    1600:	7100005f 	cmp	w2, #0x0
    1604:	5400010d 	b.le	1624 <kprintf.constprop.0+0xb30>
/media/home/beste/01_Pro/ld25x/bsp_hu/MYD-LD25X-Uboot-L2022.10-V1.0.0/GEN_FIP/myir-st-optee/lib/libutils/ext/snprintk.c:605
    1608:	b40004f5 	cbz	x21, 16a4 <kprintf.constprop.0+0xbb0>
    160c:	f100017f 	cmp	x11, #0x0
    1610:	fa551322 	ccmp	x25, x21, #0x2, ne	// ne = any
    1614:	54000489 	b.ls	16a4 <kprintf.constprop.0+0xbb0>  // b.plast
    1618:	380016a1 	strb	w1, [x21], #1
/media/home/beste/01_Pro/ld25x/bsp_hu/MYD-LD25X-Uboot-L2022.10-V1.0.0/GEN_FIP/myir-st-optee/lib/libutils/ext/snprintk.c:604
    161c:	71000442 	subs	w2, w2, #0x1
    1620:	54ffff61 	b.ne	160c <kprintf.constprop.0+0xb18>  // b.any
    1624:	2a0503e5 	mov	w5, w5
/media/home/beste/01_Pro/ld25x/bsp_hu/MYD-LD25X-Uboot-L2022.10-V1.0.0/GEN_FIP/myir-st-optee/lib/libutils/ext/snprintk.c:609
    1628:	d2800001 	mov	x1, #0x0                   	// #0
/media/home/beste/01_Pro/ld25x/bsp_hu/MYD-LD25X-Uboot-L2022.10-V1.0.0/GEN_FIP/myir-st-optee/lib/libutils/ext/snprintk.c:608
    162c:	eb0100bf 	cmp	x5, x1
    1630:	54000140 	b.eq	1658 <kprintf.constprop.0+0xb64>  // b.none
/media/home/beste/01_Pro/ld25x/bsp_hu/MYD-LD25X-Uboot-L2022.10-V1.0.0/GEN_FIP/myir-st-optee/lib/libutils/ext/snprintk.c:609
    1634:	b40003d5 	cbz	x21, 16ac <kprintf.constprop.0+0xbb8>
    1638:	f100017f 	cmp	x11, #0x0
    163c:	fa551322 	ccmp	x25, x21, #0x2, ne	// ne = any
    1640:	54000369 	b.ls	16ac <kprintf.constprop.0+0xbb8>  // b.plast
    1644:	386169a2 	ldrb	w2, [x13, x1]
    1648:	91000421 	add	x1, x1, #0x1
    164c:	380016a2 	strb	w2, [x21], #1
/media/home/beste/01_Pro/ld25x/bsp_hu/MYD-LD25X-Uboot-L2022.10-V1.0.0/GEN_FIP/myir-st-optee/lib/libutils/ext/snprintk.c:608
    1650:	eb0100bf 	cmp	x5, x1
    1654:	54ffff21 	b.ne	1638 <kprintf.constprop.0+0xb44>  // b.any
/media/home/beste/01_Pro/ld25x/bsp_hu/MYD-LD25X-Uboot-L2022.10-V1.0.0/GEN_FIP/myir-st-optee/lib/libutils/ext/snprintk.c:611
    1658:	3617a7b6 	tbz	w22, #2, b4c <kprintf.constprop.0+0x58>
/media/home/beste/01_Pro/ld25x/bsp_hu/MYD-LD25X-Uboot-L2022.10-V1.0.0/GEN_FIP/myir-st-optee/lib/libutils/ext/snprintk.c:612
    165c:	4b000140 	sub	w0, w10, w0
/media/home/beste/01_Pro/ld25x/bsp_hu/MYD-LD25X-Uboot-L2022.10-V1.0.0/GEN_FIP/myir-st-optee/lib/libutils/ext/snprintk.c:613
    1660:	7100001f 	cmp	w0, #0x0
    1664:	54ffa74d 	b.le	b4c <kprintf.constprop.0+0x58>
/media/home/beste/01_Pro/ld25x/bsp_hu/MYD-LD25X-Uboot-L2022.10-V1.0.0/GEN_FIP/myir-st-optee/lib/libutils/ext/snprintk.c:614
    1668:	b4000275 	cbz	x21, 16b4 <kprintf.constprop.0+0xbc0>
    166c:	f100017f 	cmp	x11, #0x0
    1670:	aa1503e1 	mov	x1, x21
    1674:	fa551322 	ccmp	x25, x21, #0x2, ne	// ne = any
    1678:	540001e9 	b.ls	16b4 <kprintf.constprop.0+0xbc0>  // b.plast
    167c:	52800402 	mov	w2, #0x20                  	// #32
    1680:	39000022 	strb	w2, [x1]
    1684:	910006b5 	add	x21, x21, #0x1
/media/home/beste/01_Pro/ld25x/bsp_hu/MYD-LD25X-Uboot-L2022.10-V1.0.0/GEN_FIP/myir-st-optee/lib/libutils/ext/snprintk.c:613
    1688:	71000400 	subs	w0, w0, #0x1
    168c:	54ffff01 	b.ne	166c <kprintf.constprop.0+0xb78>  // b.any
    1690:	17fffd2f 	b	b4c <kprintf.constprop.0+0x58>
/media/home/beste/01_Pro/ld25x/bsp_hu/MYD-LD25X-Uboot-L2022.10-V1.0.0/GEN_FIP/myir-st-optee/lib/libutils/ext/snprintk.c:591
    1694:	aa0103f5 	mov	x21, x1
    1698:	17ffffcb 	b	15c4 <kprintf.constprop.0+0xad0>
    169c:	51000421 	sub	w1, w1, #0x1
    16a0:	17ffffcd 	b	15d4 <kprintf.constprop.0+0xae0>
    16a4:	51000442 	sub	w2, w2, #0x1
    16a8:	17ffffd6 	b	1600 <kprintf.constprop.0+0xb0c>
/media/home/beste/01_Pro/ld25x/bsp_hu/MYD-LD25X-Uboot-L2022.10-V1.0.0/GEN_FIP/myir-st-optee/lib/libutils/ext/snprintk.c:608
    16ac:	91000421 	add	x1, x1, #0x1
    16b0:	17ffffdf 	b	162c <kprintf.constprop.0+0xb38>
    16b4:	51000400 	sub	w0, w0, #0x1
    16b8:	17ffffea 	b	1660 <kprintf.constprop.0+0xb6c>
/media/home/beste/01_Pro/ld25x/bsp_hu/MYD-LD25X-Uboot-L2022.10-V1.0.0/GEN_FIP/myir-st-optee/lib/libutils/ext/snprintk.c:589
    16bc:	b4fff9f5 	cbz	x21, 15f8 <kprintf.constprop.0+0xb04>
    16c0:	52800004 	mov	w4, #0x0                   	// #0
    16c4:	f100017f 	cmp	x11, #0x0
    16c8:	fa551322 	ccmp	x25, x21, #0x2, ne	// ne = any
    16cc:	54fff7c9 	b.ls	15c4 <kprintf.constprop.0+0xad0>  // b.plast
    16d0:	380016a1 	strb	w1, [x21], #1
    16d4:	17ffffbc 	b	15c4 <kprintf.constprop.0+0xad0>

00000000000016d8 <__vsprintf>:
__vsprintf():
/media/home/beste/01_Pro/ld25x/bsp_hu/MYD-LD25X-Uboot-L2022.10-V1.0.0/GEN_FIP/myir-st-optee/lib/libutils/ext/snprintk.c:155
    16d8:	a9bc7bfd 	stp	x29, x30, [sp, #-64]!
/media/home/beste/01_Pro/ld25x/bsp_hu/MYD-LD25X-Uboot-L2022.10-V1.0.0/GEN_FIP/myir-st-optee/lib/libutils/ext/snprintk.c:156
    16dc:	910083e3 	add	x3, sp, #0x20
/media/home/beste/01_Pro/ld25x/bsp_hu/MYD-LD25X-Uboot-L2022.10-V1.0.0/GEN_FIP/myir-st-optee/lib/libutils/ext/snprintk.c:155
    16e0:	910003fd 	mov	x29, sp
    16e4:	a90153f3 	stp	x19, x20, [sp, #16]
    16e8:	aa0003f4 	mov	x20, x0
    16ec:	aa0103f3 	mov	x19, x1
/media/home/beste/01_Pro/ld25x/bsp_hu/MYD-LD25X-Uboot-L2022.10-V1.0.0/GEN_FIP/myir-st-optee/lib/libutils/ext/snprintk.c:156
    16f0:	aa0303e0 	mov	x0, x3
/media/home/beste/01_Pro/ld25x/bsp_hu/MYD-LD25X-Uboot-L2022.10-V1.0.0/GEN_FIP/myir-st-optee/lib/libutils/ext/snprintk.c:155
    16f4:	aa0203e1 	mov	x1, x2
/media/home/beste/01_Pro/ld25x/bsp_hu/MYD-LD25X-Uboot-L2022.10-V1.0.0/GEN_FIP/myir-st-optee/lib/libutils/ext/snprintk.c:156
    16f8:	d2800402 	mov	x2, #0x20                  	// #32
    16fc:	97fffa49 	bl	20 <memcpy>
    1700:	aa1403e2 	mov	x2, x20
    1704:	aa0003e3 	mov	x3, x0
    1708:	52800004 	mov	w4, #0x0                   	// #0
    170c:	aa1303e0 	mov	x0, x19
    1710:	d2800001 	mov	x1, #0x0                   	// #0
    1714:	97fffcf8 	bl	af4 <kprintf.constprop.0>
/media/home/beste/01_Pro/ld25x/bsp_hu/MYD-LD25X-Uboot-L2022.10-V1.0.0/GEN_FIP/myir-st-optee/lib/libutils/ext/snprintk.c:157
    1718:	a94153f3 	ldp	x19, x20, [sp, #16]
    171c:	a8c47bfd 	ldp	x29, x30, [sp], #64
    1720:	d65f03c0 	ret

0000000000001724 <memchr>:
memchr():
/media/home/beste/01_Pro/ld25x/bsp_hu/MYD-LD25X-Uboot-L2022.10-V1.0.0/GEN_FIP/myir-st-optee/lib/libutils/isoc/newlib/memchr.c:109
    1724:	12001c21 	and	w1, w1, #0xff
/media/home/beste/01_Pro/ld25x/bsp_hu/MYD-LD25X-Uboot-L2022.10-V1.0.0/GEN_FIP/myir-st-optee/lib/libutils/isoc/newlib/memchr.c:153
    1728:	8b020002 	add	x2, x0, x2
    172c:	eb02001f 	cmp	x0, x2
    1730:	54000061 	b.ne	173c <memchr+0x18>  // b.any
/media/home/beste/01_Pro/ld25x/bsp_hu/MYD-LD25X-Uboot-L2022.10-V1.0.0/GEN_FIP/myir-st-optee/lib/libutils/isoc/newlib/memchr.c:159
    1734:	d2800000 	mov	x0, #0x0                   	// #0
/media/home/beste/01_Pro/ld25x/bsp_hu/MYD-LD25X-Uboot-L2022.10-V1.0.0/GEN_FIP/myir-st-optee/lib/libutils/isoc/newlib/memchr.c:160
    1738:	d65f03c0 	ret
/media/home/beste/01_Pro/ld25x/bsp_hu/MYD-LD25X-Uboot-L2022.10-V1.0.0/GEN_FIP/myir-st-optee/lib/libutils/isoc/newlib/memchr.c:154
    173c:	39400003 	ldrb	w3, [x0]
    1740:	6b01007f 	cmp	w3, w1
    1744:	54ffffa0 	b.eq	1738 <memchr+0x14>  // b.none
/media/home/beste/01_Pro/ld25x/bsp_hu/MYD-LD25X-Uboot-L2022.10-V1.0.0/GEN_FIP/myir-st-optee/lib/libutils/isoc/newlib/memchr.c:156
    1748:	91000400 	add	x0, x0, #0x1
    174c:	17fffff8 	b	172c <memchr+0x8>

0000000000001750 <strlen>:
strlen():
/media/home/beste/01_Pro/ld25x/bsp_hu/MYD-LD25X-Uboot-L2022.10-V1.0.0/GEN_FIP/myir-st-optee/lib/libutils/isoc/newlib/strlen.c:117
    1750:	aa0003e1 	mov	x1, x0
    1754:	39400022 	ldrb	w2, [x1]
    1758:	35000062 	cbnz	w2, 1764 <strlen+0x14>
/media/home/beste/01_Pro/ld25x/bsp_hu/MYD-LD25X-Uboot-L2022.10-V1.0.0/GEN_FIP/myir-st-optee/lib/libutils/isoc/newlib/strlen.c:120
    175c:	cb000020 	sub	x0, x1, x0
    1760:	d65f03c0 	ret
/media/home/beste/01_Pro/ld25x/bsp_hu/MYD-LD25X-Uboot-L2022.10-V1.0.0/GEN_FIP/myir-st-optee/lib/libutils/isoc/newlib/strlen.c:118
    1764:	91000421 	add	x1, x1, #0x1
    1768:	17fffffb 	b	1754 <strlen+0x4>

000000000000176c <trace_ext_puts>:
trace_ext_puts():
/media/home/beste/01_Pro/ld25x/bsp_hu/MYD-LD25X-Uboot-L2022.10-V1.0.0/GEN_FIP/myir-st-optee/lib/libutee/trace_ext.c:22
    176c:	a9be7bfd 	stp	x29, x30, [sp, #-32]!
    1770:	910003fd 	mov	x29, sp
    1774:	f9000bf3 	str	x19, [sp, #16]
    1778:	aa0003f3 	mov	x19, x0
/media/home/beste/01_Pro/ld25x/bsp_hu/MYD-LD25X-Uboot-L2022.10-V1.0.0/GEN_FIP/myir-st-optee/lib/libutee/trace_ext.c:26
    177c:	97fffff5 	bl	1750 <strlen>
    1780:	aa0003e1 	mov	x1, x0
    1784:	aa1303e0 	mov	x0, x19
/media/home/beste/01_Pro/ld25x/bsp_hu/MYD-LD25X-Uboot-L2022.10-V1.0.0/GEN_FIP/myir-st-optee/lib/libutee/trace_ext.c:28
    1788:	f9400bf3 	ldr	x19, [sp, #16]
    178c:	a8c27bfd 	ldp	x29, x30, [sp], #32
/media/home/beste/01_Pro/ld25x/bsp_hu/MYD-LD25X-Uboot-L2022.10-V1.0.0/GEN_FIP/myir-st-optee/lib/libutee/trace_ext.c:26
    1790:	14000699 	b	31f4 <_utee_log>

0000000000001794 <trace_ext_get_thread_id>:
trace_ext_get_thread_id():
/media/home/beste/01_Pro/ld25x/bsp_hu/MYD-LD25X-Uboot-L2022.10-V1.0.0/GEN_FIP/myir-st-optee/lib/libutee/trace_ext.c:33
    1794:	12800000 	mov	w0, #0xffffffff            	// #-1
    1798:	d65f03c0 	ret

000000000000179c <printf>:
printf():
/media/home/beste/01_Pro/ld25x/bsp_hu/MYD-LD25X-Uboot-L2022.10-V1.0.0/GEN_FIP/myir-st-optee/lib/libutee/trace_ext.c:41
    179c:	d10883ff 	sub	sp, sp, #0x220
    17a0:	a9007bfd 	stp	x29, x30, [sp]
    17a4:	910003fd 	mov	x29, sp
    17a8:	a90153f3 	stp	x19, x20, [sp, #16]
    17ac:	aa0003f3 	mov	x19, x0
    17b0:	3d805be0 	str	q0, [sp, #352]
    17b4:	3d805fe1 	str	q1, [sp, #368]
    17b8:	3d8063e2 	str	q2, [sp, #384]
    17bc:	3d8067e3 	str	q3, [sp, #400]
    17c0:	3d806be4 	str	q4, [sp, #416]
    17c4:	3d806fe5 	str	q5, [sp, #432]
    17c8:	3d8073e6 	str	q6, [sp, #448]
    17cc:	3d8077e7 	str	q7, [sp, #464]
    17d0:	a91e8be1 	stp	x1, x2, [sp, #488]
    17d4:	a91f93e3 	stp	x3, x4, [sp, #504]
    17d8:	f90107e5 	str	x5, [sp, #520]
    17dc:	f9010be6 	str	x6, [sp, #528]
    17e0:	f9010fe7 	str	x7, [sp, #536]
/media/home/beste/01_Pro/ld25x/bsp_hu/MYD-LD25X-Uboot-L2022.10-V1.0.0/GEN_FIP/myir-st-optee/lib/libutee/trace_ext.c:46
    17e4:	97fffbd0 	bl	724 <trace_get_level>
    17e8:	7100001f 	cmp	w0, #0x0
    17ec:	5400038d 	b.le	185c <printf+0xc0>
/media/home/beste/01_Pro/ld25x/bsp_hu/MYD-LD25X-Uboot-L2022.10-V1.0.0/GEN_FIP/myir-st-optee/lib/libutee/trace_ext.c:49
    17f0:	910883e0 	add	x0, sp, #0x220
    17f4:	a90403e0 	stp	x0, x0, [sp, #64]
    17f8:	910783e0 	add	x0, sp, #0x1e0
    17fc:	f9002be0 	str	x0, [sp, #80]
    1800:	128006e0 	mov	w0, #0xffffffc8            	// #-56
    1804:	b9005be0 	str	w0, [sp, #88]
    1808:	12800fe0 	mov	w0, #0xffffff80            	// #-128
    180c:	b9005fe0 	str	w0, [sp, #92]
/media/home/beste/01_Pro/ld25x/bsp_hu/MYD-LD25X-Uboot-L2022.10-V1.0.0/GEN_FIP/myir-st-optee/lib/libutee/trace_ext.c:50
    1810:	910183f4 	add	x20, sp, #0x60
    1814:	a94407e0 	ldp	x0, x1, [sp, #64]
    1818:	a90207e0 	stp	x0, x1, [sp, #32]
    181c:	aa1303e2 	mov	x2, x19
    1820:	a94507e0 	ldp	x0, x1, [sp, #80]
    1824:	910083e3 	add	x3, sp, #0x20
    1828:	a90307e0 	stp	x0, x1, [sp, #48]
    182c:	aa1403e0 	mov	x0, x20
    1830:	d2802001 	mov	x1, #0x100                 	// #256
    1834:	94002970 	bl	bdf4 <vsnprintf>
    1838:	2a0003f3 	mov	w19, w0
/media/home/beste/01_Pro/ld25x/bsp_hu/MYD-LD25X-Uboot-L2022.10-V1.0.0/GEN_FIP/myir-st-optee/lib/libutee/trace_ext.c:53
    183c:	37f80060 	tbnz	w0, #31, 1848 <printf+0xac>
/media/home/beste/01_Pro/ld25x/bsp_hu/MYD-LD25X-Uboot-L2022.10-V1.0.0/GEN_FIP/myir-st-optee/lib/libutee/trace_ext.c:56
    1840:	aa1403e0 	mov	x0, x20
    1844:	97ffffca 	bl	176c <trace_ext_puts>
/media/home/beste/01_Pro/ld25x/bsp_hu/MYD-LD25X-Uboot-L2022.10-V1.0.0/GEN_FIP/myir-st-optee/lib/libutee/trace_ext.c:59
    1848:	a9407bfd 	ldp	x29, x30, [sp]
    184c:	2a1303e0 	mov	w0, w19
    1850:	a94153f3 	ldp	x19, x20, [sp, #16]
    1854:	910883ff 	add	sp, sp, #0x220
    1858:	d65f03c0 	ret
/media/home/beste/01_Pro/ld25x/bsp_hu/MYD-LD25X-Uboot-L2022.10-V1.0.0/GEN_FIP/myir-st-optee/lib/libutee/trace_ext.c:47
    185c:	52800013 	mov	w19, #0x0                   	// #0
    1860:	17fffffa 	b	1848 <printf+0xac>

0000000000001864 <puts>:
puts():
/media/home/beste/01_Pro/ld25x/bsp_hu/MYD-LD25X-Uboot-L2022.10-V1.0.0/GEN_FIP/myir-st-optee/lib/libutee/trace_ext.c:62
    1864:	a9be7bfd 	stp	x29, x30, [sp, #-32]!
    1868:	910003fd 	mov	x29, sp
    186c:	f9000bf3 	str	x19, [sp, #16]
    1870:	aa0003f3 	mov	x19, x0
/media/home/beste/01_Pro/ld25x/bsp_hu/MYD-LD25X-Uboot-L2022.10-V1.0.0/GEN_FIP/myir-st-optee/lib/libutee/trace_ext.c:63
    1874:	97fffbac 	bl	724 <trace_get_level>
    1878:	7100001f 	cmp	w0, #0x0
    187c:	540000cd 	b.le	1894 <puts+0x30>
/media/home/beste/01_Pro/ld25x/bsp_hu/MYD-LD25X-Uboot-L2022.10-V1.0.0/GEN_FIP/myir-st-optee/lib/libutee/trace_ext.c:64
    1880:	aa1303e0 	mov	x0, x19
    1884:	97ffffba 	bl	176c <trace_ext_puts>
/media/home/beste/01_Pro/ld25x/bsp_hu/MYD-LD25X-Uboot-L2022.10-V1.0.0/GEN_FIP/myir-st-optee/lib/libutee/trace_ext.c:65
    1888:	b0000080 	adrp	x0, 12000 <__compound_literal.2>
    188c:	9136a000 	add	x0, x0, #0xda8
    1890:	97ffffb7 	bl	176c <trace_ext_puts>
/media/home/beste/01_Pro/ld25x/bsp_hu/MYD-LD25X-Uboot-L2022.10-V1.0.0/GEN_FIP/myir-st-optee/lib/libutee/trace_ext.c:68
    1894:	f9400bf3 	ldr	x19, [sp, #16]
    1898:	52800020 	mov	w0, #0x1                   	// #1
    189c:	a8c27bfd 	ldp	x29, x30, [sp], #32
    18a0:	d65f03c0 	ret

00000000000018a4 <putchar>:
putchar():
/media/home/beste/01_Pro/ld25x/bsp_hu/MYD-LD25X-Uboot-L2022.10-V1.0.0/GEN_FIP/myir-st-optee/lib/libutee/trace_ext.c:71
    18a4:	a9bd7bfd 	stp	x29, x30, [sp, #-48]!
    18a8:	910003fd 	mov	x29, sp
    18ac:	f9000bf3 	str	x19, [sp, #16]
    18b0:	2a0003f3 	mov	w19, w0
/media/home/beste/01_Pro/ld25x/bsp_hu/MYD-LD25X-Uboot-L2022.10-V1.0.0/GEN_FIP/myir-st-optee/lib/libutee/trace_ext.c:72
    18b4:	3900a3e0 	strb	w0, [sp, #40]
    18b8:	3900a7ff 	strb	wzr, [sp, #41]
/media/home/beste/01_Pro/ld25x/bsp_hu/MYD-LD25X-Uboot-L2022.10-V1.0.0/GEN_FIP/myir-st-optee/lib/libutee/trace_ext.c:74
    18bc:	97fffb9a 	bl	724 <trace_get_level>
    18c0:	7100001f 	cmp	w0, #0x0
    18c4:	5400006d 	b.le	18d0 <putchar+0x2c>
/media/home/beste/01_Pro/ld25x/bsp_hu/MYD-LD25X-Uboot-L2022.10-V1.0.0/GEN_FIP/myir-st-optee/lib/libutee/trace_ext.c:75
    18c8:	9100a3e0 	add	x0, sp, #0x28
    18cc:	97ffffa8 	bl	176c <trace_ext_puts>
/media/home/beste/01_Pro/ld25x/bsp_hu/MYD-LD25X-Uboot-L2022.10-V1.0.0/GEN_FIP/myir-st-optee/lib/libutee/trace_ext.c:82
    18d0:	12001e60 	and	w0, w19, #0xff
    18d4:	f9400bf3 	ldr	x19, [sp, #16]
    18d8:	a8c37bfd 	ldp	x29, x30, [sp], #48
    18dc:	d65f03c0 	ret

00000000000018e0 <update_out_param>:
update_out_param():
/media/home/beste/01_Pro/ld25x/bsp_hu/MYD-LD25X-Uboot-L2022.10-V1.0.0/GEN_FIP/myir-st-optee/lib/libutee/tee_api.c:121
    18e0:	a9bc7bfd 	stp	x29, x30, [sp, #-64]!
    18e4:	910003fd 	mov	x29, sp
    18e8:	a90153f3 	stp	x19, x20, [sp, #16]
/media/home/beste/01_Pro/ld25x/bsp_hu/MYD-LD25X-Uboot-L2022.10-V1.0.0/GEN_FIP/myir-st-optee/lib/libutee/tee_api.c:123
    18ec:	aa0203f4 	mov	x20, x2
    18f0:	aa0003f3 	mov	x19, x0
/media/home/beste/01_Pro/ld25x/bsp_hu/MYD-LD25X-Uboot-L2022.10-V1.0.0/GEN_FIP/myir-st-optee/lib/libutee/tee_api.c:121
    18f4:	a90363f7 	stp	x23, x24, [sp, #48]
    18f8:	aa0103f8 	mov	x24, x1
/media/home/beste/01_Pro/ld25x/bsp_hu/MYD-LD25X-Uboot-L2022.10-V1.0.0/GEN_FIP/myir-st-optee/lib/libutee/tee_api.c:123
    18fc:	f8408697 	ldr	x23, [x20], #8
/media/home/beste/01_Pro/ld25x/bsp_hu/MYD-LD25X-Uboot-L2022.10-V1.0.0/GEN_FIP/myir-st-optee/lib/libutee/tee_api.c:121
    1900:	a9025bf5 	stp	x21, x22, [sp, #32]
/media/home/beste/01_Pro/ld25x/bsp_hu/MYD-LD25X-Uboot-L2022.10-V1.0.0/GEN_FIP/myir-st-optee/lib/libutee/tee_api.c:125
    1904:	d2800015 	mov	x21, #0x0                   	// #0
/media/home/beste/01_Pro/ld25x/bsp_hu/MYD-LD25X-Uboot-L2022.10-V1.0.0/GEN_FIP/myir-st-optee/lib/libutee/tee_api.c:129
    1908:	531e76a0 	lsl	w0, w21, #2
/media/home/beste/01_Pro/ld25x/bsp_hu/MYD-LD25X-Uboot-L2022.10-V1.0.0/GEN_FIP/myir-st-optee/lib/libutee/tee_api.c:127
    190c:	a9405a82 	ldp	x2, x22, [x20]
/media/home/beste/01_Pro/ld25x/bsp_hu/MYD-LD25X-Uboot-L2022.10-V1.0.0/GEN_FIP/myir-st-optee/lib/libutee/tee_api.c:129
    1910:	1ac026e0 	lsr	w0, w23, w0
    1914:	12000c01 	and	w1, w0, #0xf
    1918:	721e041f 	tst	w0, #0xc
    191c:	540000a1 	b.ne	1930 <update_out_param+0x50>  // b.any
    1920:	721f081f 	tst	w0, #0xe
    1924:	540000c0 	b.eq	193c <update_out_param+0x5c>  // b.none
/media/home/beste/01_Pro/ld25x/bsp_hu/MYD-LD25X-Uboot-L2022.10-V1.0.0/GEN_FIP/myir-st-optee/lib/libutee/tee_api.c:133
    1928:	29005a62 	stp	w2, w22, [x19]
/media/home/beste/01_Pro/ld25x/bsp_hu/MYD-LD25X-Uboot-L2022.10-V1.0.0/GEN_FIP/myir-st-optee/lib/libutee/tee_api.c:134
    192c:	14000004 	b	193c <update_out_param+0x5c>
/media/home/beste/01_Pro/ld25x/bsp_hu/MYD-LD25X-Uboot-L2022.10-V1.0.0/GEN_FIP/myir-st-optee/lib/libutee/tee_api.c:129
    1930:	51001820 	sub	w0, w1, #0x6
    1934:	7100041f 	cmp	w0, #0x1
    1938:	54000169 	b.ls	1964 <update_out_param+0x84>  // b.plast
/media/home/beste/01_Pro/ld25x/bsp_hu/MYD-LD25X-Uboot-L2022.10-V1.0.0/GEN_FIP/myir-st-optee/lib/libutee/tee_api.c:125 (discriminator 2)
    193c:	910006b5 	add	x21, x21, #0x1
    1940:	91004294 	add	x20, x20, #0x10
    1944:	91004273 	add	x19, x19, #0x10
    1948:	f10012bf 	cmp	x21, #0x4
    194c:	54fffde1 	b.ne	1908 <update_out_param+0x28>  // b.any
/media/home/beste/01_Pro/ld25x/bsp_hu/MYD-LD25X-Uboot-L2022.10-V1.0.0/GEN_FIP/myir-st-optee/lib/libutee/tee_api.c:146
    1950:	a94153f3 	ldp	x19, x20, [sp, #16]
    1954:	a9425bf5 	ldp	x21, x22, [sp, #32]
    1958:	a94363f7 	ldp	x23, x24, [sp, #48]
    195c:	a8c47bfd 	ldp	x29, x30, [sp], #64
    1960:	d65f03c0 	ret
/media/home/beste/01_Pro/ld25x/bsp_hu/MYD-LD25X-Uboot-L2022.10-V1.0.0/GEN_FIP/myir-st-optee/lib/libutee/tee_api.c:137
    1964:	f8757b01 	ldr	x1, [x24, x21, lsl #3]
    1968:	b40000c1 	cbz	x1, 1980 <update_out_param+0xa0>
/media/home/beste/01_Pro/ld25x/bsp_hu/MYD-LD25X-Uboot-L2022.10-V1.0.0/GEN_FIP/myir-st-optee/lib/libutee/tee_api.c:139
    196c:	b9400a62 	ldr	w2, [x19, #8]
/media/home/beste/01_Pro/ld25x/bsp_hu/MYD-LD25X-Uboot-L2022.10-V1.0.0/GEN_FIP/myir-st-optee/lib/libutee/tee_api.c:138
    1970:	f9400260 	ldr	x0, [x19]
/media/home/beste/01_Pro/ld25x/bsp_hu/MYD-LD25X-Uboot-L2022.10-V1.0.0/GEN_FIP/myir-st-optee/lib/libutee/tee_api.c:139
    1974:	eb16005f 	cmp	x2, x22
/media/home/beste/01_Pro/ld25x/bsp_hu/MYD-LD25X-Uboot-L2022.10-V1.0.0/GEN_FIP/myir-st-optee/lib/libutee/tee_api.c:138
    1978:	9a969042 	csel	x2, x2, x22, ls	// ls = plast
    197c:	97fff9a9 	bl	20 <memcpy>
/media/home/beste/01_Pro/ld25x/bsp_hu/MYD-LD25X-Uboot-L2022.10-V1.0.0/GEN_FIP/myir-st-optee/lib/libutee/tee_api.c:140
    1980:	b9000a76 	str	w22, [x19, #8]
/media/home/beste/01_Pro/ld25x/bsp_hu/MYD-LD25X-Uboot-L2022.10-V1.0.0/GEN_FIP/myir-st-optee/lib/libutee/tee_api.c:141
    1984:	17ffffee 	b	193c <update_out_param+0x5c>

0000000000001988 <TEE_CloseTASession>:
TEE_CloseTASession():
/media/home/beste/01_Pro/ld25x/bsp_hu/MYD-LD25X-Uboot-L2022.10-V1.0.0/GEN_FIP/myir-st-optee/lib/libutee/tee_api.c:196
    1988:	b4000120 	cbz	x0, 19ac <TEE_CloseTASession+0x24>
/media/home/beste/01_Pro/ld25x/bsp_hu/MYD-LD25X-Uboot-L2022.10-V1.0.0/GEN_FIP/myir-st-optee/lib/libutee/tee_api.c:195
    198c:	a9bf7bfd 	stp	x29, x30, [sp, #-16]!
    1990:	910003fd 	mov	x29, sp
/media/home/beste/01_Pro/ld25x/bsp_hu/MYD-LD25X-Uboot-L2022.10-V1.0.0/GEN_FIP/myir-st-optee/lib/libutee/tee_api.c:197
    1994:	94000627 	bl	3230 <_utee_close_ta_session>
/media/home/beste/01_Pro/ld25x/bsp_hu/MYD-LD25X-Uboot-L2022.10-V1.0.0/GEN_FIP/myir-st-optee/lib/libutee/tee_api.c:199
    1998:	34000060 	cbz	w0, 19a4 <TEE_CloseTASession+0x1c>
/media/home/beste/01_Pro/ld25x/bsp_hu/MYD-LD25X-Uboot-L2022.10-V1.0.0/GEN_FIP/myir-st-optee/lib/libutee/tee_api.c:202
    199c:	a8c17bfd 	ldp	x29, x30, [sp], #16
/media/home/beste/01_Pro/ld25x/bsp_hu/MYD-LD25X-Uboot-L2022.10-V1.0.0/GEN_FIP/myir-st-optee/lib/libutee/tee_api.c:200
    19a0:	14000531 	b	2e64 <TEE_Panic>
/media/home/beste/01_Pro/ld25x/bsp_hu/MYD-LD25X-Uboot-L2022.10-V1.0.0/GEN_FIP/myir-st-optee/lib/libutee/tee_api.c:202
    19a4:	a8c17bfd 	ldp	x29, x30, [sp], #16
    19a8:	d65f03c0 	ret
    19ac:	d65f03c0 	ret

00000000000019b0 <TEE_GetCancellationFlag>:
TEE_GetCancellationFlag():
/media/home/beste/01_Pro/ld25x/bsp_hu/MYD-LD25X-Uboot-L2022.10-V1.0.0/GEN_FIP/myir-st-optee/lib/libutee/tee_api.c:257
    19b0:	a9be7bfd 	stp	x29, x30, [sp, #-32]!
    19b4:	910003fd 	mov	x29, sp
/media/home/beste/01_Pro/ld25x/bsp_hu/MYD-LD25X-Uboot-L2022.10-V1.0.0/GEN_FIP/myir-st-optee/lib/libutee/tee_api.c:259
    19b8:	910073e0 	add	x0, sp, #0x1c
    19bc:	94000623 	bl	3248 <_utee_get_cancellation_flag>
/media/home/beste/01_Pro/ld25x/bsp_hu/MYD-LD25X-Uboot-L2022.10-V1.0.0/GEN_FIP/myir-st-optee/lib/libutee/tee_api.c:261
    19c0:	34000040 	cbz	w0, 19c8 <TEE_GetCancellationFlag+0x18>
/media/home/beste/01_Pro/ld25x/bsp_hu/MYD-LD25X-Uboot-L2022.10-V1.0.0/GEN_FIP/myir-st-optee/lib/libutee/tee_api.c:262
    19c4:	b9001fff 	str	wzr, [sp, #28]
/media/home/beste/01_Pro/ld25x/bsp_hu/MYD-LD25X-Uboot-L2022.10-V1.0.0/GEN_FIP/myir-st-optee/lib/libutee/tee_api.c:263
    19c8:	b9401fe0 	ldr	w0, [sp, #28]
/media/home/beste/01_Pro/ld25x/bsp_hu/MYD-LD25X-Uboot-L2022.10-V1.0.0/GEN_FIP/myir-st-optee/lib/libutee/tee_api.c:264
    19cc:	a8c27bfd 	ldp	x29, x30, [sp], #32
/media/home/beste/01_Pro/ld25x/bsp_hu/MYD-LD25X-Uboot-L2022.10-V1.0.0/GEN_FIP/myir-st-optee/lib/libutee/tee_api.c:263
    19d0:	7100001f 	cmp	w0, #0x0
/media/home/beste/01_Pro/ld25x/bsp_hu/MYD-LD25X-Uboot-L2022.10-V1.0.0/GEN_FIP/myir-st-optee/lib/libutee/tee_api.c:264
    19d4:	1a9f07e0 	cset	w0, ne	// ne = any
    19d8:	d65f03c0 	ret

00000000000019dc <TEE_UnmaskCancellation>:
TEE_UnmaskCancellation():
/media/home/beste/01_Pro/ld25x/bsp_hu/MYD-LD25X-Uboot-L2022.10-V1.0.0/GEN_FIP/myir-st-optee/lib/libutee/tee_api.c:267
    19dc:	a9be7bfd 	stp	x29, x30, [sp, #-32]!
    19e0:	910003fd 	mov	x29, sp
/media/home/beste/01_Pro/ld25x/bsp_hu/MYD-LD25X-Uboot-L2022.10-V1.0.0/GEN_FIP/myir-st-optee/lib/libutee/tee_api.c:269
    19e4:	910073e0 	add	x0, sp, #0x1c
    19e8:	9400061e 	bl	3260 <_utee_unmask_cancellation>
/media/home/beste/01_Pro/ld25x/bsp_hu/MYD-LD25X-Uboot-L2022.10-V1.0.0/GEN_FIP/myir-st-optee/lib/libutee/tee_api.c:271
    19ec:	34000040 	cbz	w0, 19f4 <TEE_UnmaskCancellation+0x18>
/media/home/beste/01_Pro/ld25x/bsp_hu/MYD-LD25X-Uboot-L2022.10-V1.0.0/GEN_FIP/myir-st-optee/lib/libutee/tee_api.c:272
    19f0:	9400051d 	bl	2e64 <TEE_Panic>
/media/home/beste/01_Pro/ld25x/bsp_hu/MYD-LD25X-Uboot-L2022.10-V1.0.0/GEN_FIP/myir-st-optee/lib/libutee/tee_api.c:273
    19f4:	b9401fe0 	ldr	w0, [sp, #28]
/media/home/beste/01_Pro/ld25x/bsp_hu/MYD-LD25X-Uboot-L2022.10-V1.0.0/GEN_FIP/myir-st-optee/lib/libutee/tee_api.c:274
    19f8:	a8c27bfd 	ldp	x29, x30, [sp], #32
/media/home/beste/01_Pro/ld25x/bsp_hu/MYD-LD25X-Uboot-L2022.10-V1.0.0/GEN_FIP/myir-st-optee/lib/libutee/tee_api.c:273
    19fc:	7100001f 	cmp	w0, #0x0
/media/home/beste/01_Pro/ld25x/bsp_hu/MYD-LD25X-Uboot-L2022.10-V1.0.0/GEN_FIP/myir-st-optee/lib/libutee/tee_api.c:274
    1a00:	1a9f07e0 	cset	w0, ne	// ne = any
    1a04:	d65f03c0 	ret

0000000000001a08 <TEE_MaskCancellation>:
TEE_MaskCancellation():
/media/home/beste/01_Pro/ld25x/bsp_hu/MYD-LD25X-Uboot-L2022.10-V1.0.0/GEN_FIP/myir-st-optee/lib/libutee/tee_api.c:277
    1a08:	a9be7bfd 	stp	x29, x30, [sp, #-32]!
    1a0c:	910003fd 	mov	x29, sp
/media/home/beste/01_Pro/ld25x/bsp_hu/MYD-LD25X-Uboot-L2022.10-V1.0.0/GEN_FIP/myir-st-optee/lib/libutee/tee_api.c:279
    1a10:	910073e0 	add	x0, sp, #0x1c
    1a14:	94000616 	bl	326c <_utee_mask_cancellation>
/media/home/beste/01_Pro/ld25x/bsp_hu/MYD-LD25X-Uboot-L2022.10-V1.0.0/GEN_FIP/myir-st-optee/lib/libutee/tee_api.c:281
    1a18:	34000040 	cbz	w0, 1a20 <TEE_MaskCancellation+0x18>
/media/home/beste/01_Pro/ld25x/bsp_hu/MYD-LD25X-Uboot-L2022.10-V1.0.0/GEN_FIP/myir-st-optee/lib/libutee/tee_api.c:282
    1a1c:	94000512 	bl	2e64 <TEE_Panic>
/media/home/beste/01_Pro/ld25x/bsp_hu/MYD-LD25X-Uboot-L2022.10-V1.0.0/GEN_FIP/myir-st-optee/lib/libutee/tee_api.c:283
    1a20:	b9401fe0 	ldr	w0, [sp, #28]
/media/home/beste/01_Pro/ld25x/bsp_hu/MYD-LD25X-Uboot-L2022.10-V1.0.0/GEN_FIP/myir-st-optee/lib/libutee/tee_api.c:284
    1a24:	a8c27bfd 	ldp	x29, x30, [sp], #32
/media/home/beste/01_Pro/ld25x/bsp_hu/MYD-LD25X-Uboot-L2022.10-V1.0.0/GEN_FIP/myir-st-optee/lib/libutee/tee_api.c:283
    1a28:	7100001f 	cmp	w0, #0x0
/media/home/beste/01_Pro/ld25x/bsp_hu/MYD-LD25X-Uboot-L2022.10-V1.0.0/GEN_FIP/myir-st-optee/lib/libutee/tee_api.c:284
    1a2c:	1a9f07e0 	cset	w0, ne	// ne = any
    1a30:	d65f03c0 	ret

0000000000001a34 <TEE_CheckMemoryAccessRights>:
TEE_CheckMemoryAccessRights():
/media/home/beste/01_Pro/ld25x/bsp_hu/MYD-LD25X-Uboot-L2022.10-V1.0.0/GEN_FIP/myir-st-optee/lib/libutee/tee_api.c:293
    1a34:	34000062 	cbz	w2, 1a40 <TEE_CheckMemoryAccessRights+0xc>
/media/home/beste/01_Pro/ld25x/bsp_hu/MYD-LD25X-Uboot-L2022.10-V1.0.0/GEN_FIP/myir-st-optee/lib/libutee/tee_api.c:297
    1a38:	2a0203e2 	mov	w2, w2
    1a3c:	14000606 	b	3254 <_utee_check_access_rights>
/media/home/beste/01_Pro/ld25x/bsp_hu/MYD-LD25X-Uboot-L2022.10-V1.0.0/GEN_FIP/myir-st-optee/lib/libutee/tee_api.c:309
    1a40:	52800000 	mov	w0, #0x0                   	// #0
    1a44:	d65f03c0 	ret

0000000000001a48 <copy_param>:
copy_param():
/media/home/beste/01_Pro/ld25x/bsp_hu/MYD-LD25X-Uboot-L2022.10-V1.0.0/GEN_FIP/myir-st-optee/lib/libutee/tee_api.c:29
    1a48:	a9b97bfd 	stp	x29, x30, [sp, #-112]!
    1a4c:	910003fd 	mov	x29, sp
/media/home/beste/01_Pro/ld25x/bsp_hu/MYD-LD25X-Uboot-L2022.10-V1.0.0/GEN_FIP/myir-st-optee/lib/libutee/tee_api.c:45
    1a50:	f900007f 	str	xzr, [x3]
/media/home/beste/01_Pro/ld25x/bsp_hu/MYD-LD25X-Uboot-L2022.10-V1.0.0/GEN_FIP/myir-st-optee/lib/libutee/tee_api.c:29
    1a54:	a90153f3 	stp	x19, x20, [sp, #16]
    1a58:	aa0003f4 	mov	x20, x0
    1a5c:	aa0203f3 	mov	x19, x2
    1a60:	a9025bf5 	stp	x21, x22, [sp, #32]
    1a64:	2a0103f6 	mov	w22, w1
/media/home/beste/01_Pro/ld25x/bsp_hu/MYD-LD25X-Uboot-L2022.10-V1.0.0/GEN_FIP/myir-st-optee/lib/libutee/tee_api.c:47
    1a68:	d2800015 	mov	x21, #0x0                   	// #0
/media/home/beste/01_Pro/ld25x/bsp_hu/MYD-LD25X-Uboot-L2022.10-V1.0.0/GEN_FIP/myir-st-optee/lib/libutee/tee_api.c:29
    1a6c:	a90363f7 	stp	x23, x24, [sp, #48]
    1a70:	aa0403f8 	mov	x24, x4
    1a74:	aa0503f7 	mov	x23, x5
    1a78:	a9046bf9 	stp	x25, x26, [sp, #64]
    1a7c:	aa0303f9 	mov	x25, x3
    1a80:	a90573fb 	stp	x27, x28, [sp, #80]
/media/home/beste/01_Pro/ld25x/bsp_hu/MYD-LD25X-Uboot-L2022.10-V1.0.0/GEN_FIP/myir-st-optee/lib/libutee/tee_api.c:46
    1a84:	aa0203fc 	mov	x28, x2
/media/home/beste/01_Pro/ld25x/bsp_hu/MYD-LD25X-Uboot-L2022.10-V1.0.0/GEN_FIP/myir-st-optee/lib/libutee/tee_api.c:32
    1a88:	d280001b 	mov	x27, #0x0                   	// #0
/media/home/beste/01_Pro/ld25x/bsp_hu/MYD-LD25X-Uboot-L2022.10-V1.0.0/GEN_FIP/myir-st-optee/lib/libutee/tee_api.c:46
    1a8c:	f900009f 	str	xzr, [x4]
/media/home/beste/01_Pro/ld25x/bsp_hu/MYD-LD25X-Uboot-L2022.10-V1.0.0/GEN_FIP/myir-st-optee/lib/libutee/tee_api.c:34
    1a90:	b9006bff 	str	wzr, [sp, #104]
/media/home/beste/01_Pro/ld25x/bsp_hu/MYD-LD25X-Uboot-L2022.10-V1.0.0/GEN_FIP/myir-st-optee/lib/libutee/tee_api.c:49
    1a94:	531e76a0 	lsl	w0, w21, #2
/media/home/beste/01_Pro/ld25x/bsp_hu/MYD-LD25X-Uboot-L2022.10-V1.0.0/GEN_FIP/myir-st-optee/lib/libutee/tee_api.c:48
    1a98:	f8357aff 	str	xzr, [x23, x21, lsl #3]
/media/home/beste/01_Pro/ld25x/bsp_hu/MYD-LD25X-Uboot-L2022.10-V1.0.0/GEN_FIP/myir-st-optee/lib/libutee/tee_api.c:49
    1a9c:	1ac026c0 	lsr	w0, w22, w0
    1aa0:	12000c00 	and	w0, w0, #0xf
    1aa4:	51001400 	sub	w0, w0, #0x5
    1aa8:	7100081f 	cmp	w0, #0x2
    1aac:	54000208 	b.hi	1aec <copy_param+0xa4>  // b.pmore
/media/home/beste/01_Pro/ld25x/bsp_hu/MYD-LD25X-Uboot-L2022.10-V1.0.0/GEN_FIP/myir-st-optee/lib/libutee/tee_api.c:53
    1ab0:	f9400381 	ldr	x1, [x28]
/media/home/beste/01_Pro/ld25x/bsp_hu/MYD-LD25X-Uboot-L2022.10-V1.0.0/GEN_FIP/myir-st-optee/lib/libutee/tee_api.c:54
    1ab4:	b9400b82 	ldr	w2, [x28, #8]
/media/home/beste/01_Pro/ld25x/bsp_hu/MYD-LD25X-Uboot-L2022.10-V1.0.0/GEN_FIP/myir-st-optee/lib/libutee/tee_api.c:64
    1ab8:	f100003f 	cmp	x1, #0x0
/media/home/beste/01_Pro/ld25x/bsp_hu/MYD-LD25X-Uboot-L2022.10-V1.0.0/GEN_FIP/myir-st-optee/lib/libutee/tee_api.c:54
    1abc:	2a0203fa 	mov	w26, w2
/media/home/beste/01_Pro/ld25x/bsp_hu/MYD-LD25X-Uboot-L2022.10-V1.0.0/GEN_FIP/myir-st-optee/lib/libutee/tee_api.c:64
    1ac0:	fa401b44 	ccmp	x26, #0x0, #0x4, ne	// ne = any
    1ac4:	54000140 	b.eq	1aec <copy_param+0xa4>  // b.none
/media/home/beste/01_Pro/ld25x/bsp_hu/MYD-LD25X-Uboot-L2022.10-V1.0.0/GEN_FIP/myir-st-optee/lib/libutee/tee_api.c:65 (discriminator 1)
    1ac8:	52800020 	mov	w0, #0x1                   	// #1
    1acc:	97ffffda 	bl	1a34 <TEE_CheckMemoryAccessRights>
/media/home/beste/01_Pro/ld25x/bsp_hu/MYD-LD25X-Uboot-L2022.10-V1.0.0/GEN_FIP/myir-st-optee/lib/libutee/tee_api.c:64 (discriminator 1)
    1ad0:	350000e0 	cbnz	w0, 1aec <copy_param+0xa4>
/media/home/beste/01_Pro/ld25x/bsp_hu/MYD-LD25X-Uboot-L2022.10-V1.0.0/GEN_FIP/myir-st-optee/lib/libutee/tee_api.c:66
    1ad4:	9101a3e0 	add	x0, sp, #0x68
/media/home/beste/01_Pro/ld25x/bsp_hu/MYD-LD25X-Uboot-L2022.10-V1.0.0/GEN_FIP/myir-st-optee/lib/libutee/tee_api.c:67
    1ad8:	91003f5a 	add	x26, x26, #0xf
    1adc:	927cef5a 	and	x26, x26, #0xfffffffffffffff0
/media/home/beste/01_Pro/ld25x/bsp_hu/MYD-LD25X-Uboot-L2022.10-V1.0.0/GEN_FIP/myir-st-optee/lib/libutee/tee_api.c:66
    1ae0:	52800021 	mov	w1, #0x1                   	// #1
/media/home/beste/01_Pro/ld25x/bsp_hu/MYD-LD25X-Uboot-L2022.10-V1.0.0/GEN_FIP/myir-st-optee/lib/libutee/tee_api.c:67
    1ae4:	8b1a037b 	add	x27, x27, x26
/media/home/beste/01_Pro/ld25x/bsp_hu/MYD-LD25X-Uboot-L2022.10-V1.0.0/GEN_FIP/myir-st-optee/lib/libutee/tee_api.c:66
    1ae8:	38206aa1 	strb	w1, [x21, x0]
/media/home/beste/01_Pro/ld25x/bsp_hu/MYD-LD25X-Uboot-L2022.10-V1.0.0/GEN_FIP/myir-st-optee/lib/libutee/tee_api.c:47 (discriminator 2)
    1aec:	910006b5 	add	x21, x21, #0x1
    1af0:	9100439c 	add	x28, x28, #0x10
    1af4:	f10012bf 	cmp	x21, #0x4
    1af8:	54fffce1 	b.ne	1a94 <copy_param+0x4c>  // b.any
/media/home/beste/01_Pro/ld25x/bsp_hu/MYD-LD25X-Uboot-L2022.10-V1.0.0/GEN_FIP/myir-st-optee/lib/libutee/tee_api.c:75
    1afc:	b400031b 	cbz	x27, 1b5c <copy_param+0x114>
/media/home/beste/01_Pro/ld25x/bsp_hu/MYD-LD25X-Uboot-L2022.10-V1.0.0/GEN_FIP/myir-st-optee/lib/libutee/tee_api.c:76
    1b00:	2a1503e1 	mov	w1, w21
    1b04:	aa1b03e0 	mov	x0, x27
    1b08:	94000546 	bl	3020 <tee_map_zi>
    1b0c:	aa0003e6 	mov	x6, x0
/media/home/beste/01_Pro/ld25x/bsp_hu/MYD-LD25X-Uboot-L2022.10-V1.0.0/GEN_FIP/myir-st-optee/lib/libutee/tee_api.c:77
    1b10:	b4000780 	cbz	x0, 1c00 <copy_param+0x1b8>
/media/home/beste/01_Pro/ld25x/bsp_hu/MYD-LD25X-Uboot-L2022.10-V1.0.0/GEN_FIP/myir-st-optee/lib/libutee/tee_api.c:79
    1b14:	f9000320 	str	x0, [x25]
/media/home/beste/01_Pro/ld25x/bsp_hu/MYD-LD25X-Uboot-L2022.10-V1.0.0/GEN_FIP/myir-st-optee/lib/libutee/tee_api.c:80
    1b18:	f900031b 	str	x27, [x24]
/media/home/beste/01_Pro/ld25x/bsp_hu/MYD-LD25X-Uboot-L2022.10-V1.0.0/GEN_FIP/myir-st-optee/lib/libutee/tee_api.c:95
    1b1c:	9101a3f9 	add	x25, sp, #0x68
/media/home/beste/01_Pro/ld25x/bsp_hu/MYD-LD25X-Uboot-L2022.10-V1.0.0/GEN_FIP/myir-st-optee/lib/libutee/tee_api.c:83
    1b20:	2a1603e0 	mov	w0, w22
/media/home/beste/01_Pro/ld25x/bsp_hu/MYD-LD25X-Uboot-L2022.10-V1.0.0/GEN_FIP/myir-st-optee/lib/libutee/tee_api.c:84
    1b24:	d2800015 	mov	x21, #0x0                   	// #0
/media/home/beste/01_Pro/ld25x/bsp_hu/MYD-LD25X-Uboot-L2022.10-V1.0.0/GEN_FIP/myir-st-optee/lib/libutee/tee_api.c:83
    1b28:	f8008680 	str	x0, [x20], #8
/media/home/beste/01_Pro/ld25x/bsp_hu/MYD-LD25X-Uboot-L2022.10-V1.0.0/GEN_FIP/myir-st-optee/lib/libutee/tee_api.c:85
    1b2c:	531e76a1 	lsl	w1, w21, #2
    1b30:	1ac126c1 	lsr	w1, w22, w1
    1b34:	12000c20 	and	w0, w1, #0xf
    1b38:	71000c1f 	cmp	w0, #0x3
    1b3c:	54000320 	b.eq	1ba0 <copy_param+0x158>  // b.none
    1b40:	721e043f 	tst	w1, #0xc
    1b44:	54000101 	b.ne	1b64 <copy_param+0x11c>  // b.any
    1b48:	7100041f 	cmp	w0, #0x1
    1b4c:	540002a0 	b.eq	1ba0 <copy_param+0x158>  // b.none
/media/home/beste/01_Pro/ld25x/bsp_hu/MYD-LD25X-Uboot-L2022.10-V1.0.0/GEN_FIP/myir-st-optee/lib/libutee/tee_api.c:111
    1b50:	d2800018 	mov	x24, #0x0                   	// #0
/media/home/beste/01_Pro/ld25x/bsp_hu/MYD-LD25X-Uboot-L2022.10-V1.0.0/GEN_FIP/myir-st-optee/lib/libutee/tee_api.c:109
    1b54:	f900029f 	str	xzr, [x20]
/media/home/beste/01_Pro/ld25x/bsp_hu/MYD-LD25X-Uboot-L2022.10-V1.0.0/GEN_FIP/myir-st-optee/lib/libutee/tee_api.c:111
    1b58:	14000014 	b	1ba8 <copy_param+0x160>
/media/home/beste/01_Pro/ld25x/bsp_hu/MYD-LD25X-Uboot-L2022.10-V1.0.0/GEN_FIP/myir-st-optee/lib/libutee/tee_api.c:31
    1b5c:	d2800006 	mov	x6, #0x0                   	// #0
    1b60:	17ffffef 	b	1b1c <copy_param+0xd4>
/media/home/beste/01_Pro/ld25x/bsp_hu/MYD-LD25X-Uboot-L2022.10-V1.0.0/GEN_FIP/myir-st-optee/lib/libutee/tee_api.c:85
    1b64:	51001401 	sub	w1, w0, #0x5
    1b68:	7100083f 	cmp	w1, #0x2
    1b6c:	54ffff28 	b.hi	1b50 <copy_param+0x108>  // b.pmore
/media/home/beste/01_Pro/ld25x/bsp_hu/MYD-LD25X-Uboot-L2022.10-V1.0.0/GEN_FIP/myir-st-optee/lib/libutee/tee_api.c:95
    1b70:	38796aa1 	ldrb	w1, [x21, x25]
/media/home/beste/01_Pro/ld25x/bsp_hu/MYD-LD25X-Uboot-L2022.10-V1.0.0/GEN_FIP/myir-st-optee/lib/libutee/tee_api.c:94
    1b74:	b9400a78 	ldr	w24, [x19, #8]
/media/home/beste/01_Pro/ld25x/bsp_hu/MYD-LD25X-Uboot-L2022.10-V1.0.0/GEN_FIP/myir-st-optee/lib/libutee/tee_api.c:95
    1b78:	34000401 	cbz	w1, 1bf8 <copy_param+0x1b0>
/media/home/beste/01_Pro/ld25x/bsp_hu/MYD-LD25X-Uboot-L2022.10-V1.0.0/GEN_FIP/myir-st-optee/lib/libutee/tee_api.c:97
    1b7c:	f8357ae6 	str	x6, [x23, x21, lsl #3]
/media/home/beste/01_Pro/ld25x/bsp_hu/MYD-LD25X-Uboot-L2022.10-V1.0.0/GEN_FIP/myir-st-optee/lib/libutee/tee_api.c:99
    1b80:	7100181f 	cmp	w0, #0x6
    1b84:	540002e1 	b.ne	1be0 <copy_param+0x198>  // b.any
/media/home/beste/01_Pro/ld25x/bsp_hu/MYD-LD25X-Uboot-L2022.10-V1.0.0/GEN_FIP/myir-st-optee/lib/libutee/tee_api.c:98
    1b88:	91003f00 	add	x0, x24, #0xf
    1b8c:	aa0603e1 	mov	x1, x6
    1b90:	927cec00 	and	x0, x0, #0xfffffffffffffff0
    1b94:	8b0000c6 	add	x6, x6, x0
/media/home/beste/01_Pro/ld25x/bsp_hu/MYD-LD25X-Uboot-L2022.10-V1.0.0/GEN_FIP/myir-st-optee/lib/libutee/tee_api.c:105
    1b98:	f9000281 	str	x1, [x20]
/media/home/beste/01_Pro/ld25x/bsp_hu/MYD-LD25X-Uboot-L2022.10-V1.0.0/GEN_FIP/myir-st-optee/lib/libutee/tee_api.c:107
    1b9c:	14000003 	b	1ba8 <copy_param+0x160>
/media/home/beste/01_Pro/ld25x/bsp_hu/MYD-LD25X-Uboot-L2022.10-V1.0.0/GEN_FIP/myir-st-optee/lib/libutee/tee_api.c:89
    1ba0:	29406260 	ldp	w0, w24, [x19]
/media/home/beste/01_Pro/ld25x/bsp_hu/MYD-LD25X-Uboot-L2022.10-V1.0.0/GEN_FIP/myir-st-optee/lib/libutee/tee_api.c:88
    1ba4:	f9000280 	str	x0, [x20]
/media/home/beste/01_Pro/ld25x/bsp_hu/MYD-LD25X-Uboot-L2022.10-V1.0.0/GEN_FIP/myir-st-optee/lib/libutee/tee_api.c:84 (discriminator 2)
    1ba8:	910006b5 	add	x21, x21, #0x1
/media/home/beste/01_Pro/ld25x/bsp_hu/MYD-LD25X-Uboot-L2022.10-V1.0.0/GEN_FIP/myir-st-optee/lib/libutee/tee_api.c:110 (discriminator 2)
    1bac:	f9000698 	str	x24, [x20, #8]
/media/home/beste/01_Pro/ld25x/bsp_hu/MYD-LD25X-Uboot-L2022.10-V1.0.0/GEN_FIP/myir-st-optee/lib/libutee/tee_api.c:84 (discriminator 2)
    1bb0:	91004273 	add	x19, x19, #0x10
    1bb4:	91004294 	add	x20, x20, #0x10
    1bb8:	f10012bf 	cmp	x21, #0x4
    1bbc:	54fffb81 	b.ne	1b2c <copy_param+0xe4>  // b.any
/media/home/beste/01_Pro/ld25x/bsp_hu/MYD-LD25X-Uboot-L2022.10-V1.0.0/GEN_FIP/myir-st-optee/lib/libutee/tee_api.c:115
    1bc0:	52800000 	mov	w0, #0x0                   	// #0
/media/home/beste/01_Pro/ld25x/bsp_hu/MYD-LD25X-Uboot-L2022.10-V1.0.0/GEN_FIP/myir-st-optee/lib/libutee/tee_api.c:116
    1bc4:	a94153f3 	ldp	x19, x20, [sp, #16]
    1bc8:	a9425bf5 	ldp	x21, x22, [sp, #32]
    1bcc:	a94363f7 	ldp	x23, x24, [sp, #48]
    1bd0:	a9446bf9 	ldp	x25, x26, [sp, #64]
    1bd4:	a94573fb 	ldp	x27, x28, [sp, #80]
    1bd8:	a8c77bfd 	ldp	x29, x30, [sp], #112
    1bdc:	d65f03c0 	ret
/media/home/beste/01_Pro/ld25x/bsp_hu/MYD-LD25X-Uboot-L2022.10-V1.0.0/GEN_FIP/myir-st-optee/lib/libutee/tee_api.c:101
    1be0:	f9400261 	ldr	x1, [x19]
    1be4:	aa0603e0 	mov	x0, x6
    1be8:	aa1803e2 	mov	x2, x24
    1bec:	97fff90d 	bl	20 <memcpy>
    1bf0:	aa0003e6 	mov	x6, x0
    1bf4:	17ffffe5 	b	1b88 <copy_param+0x140>
/media/home/beste/01_Pro/ld25x/bsp_hu/MYD-LD25X-Uboot-L2022.10-V1.0.0/GEN_FIP/myir-st-optee/lib/libutee/tee_api.c:103
    1bf8:	f9400261 	ldr	x1, [x19]
    1bfc:	17ffffe7 	b	1b98 <copy_param+0x150>
/media/home/beste/01_Pro/ld25x/bsp_hu/MYD-LD25X-Uboot-L2022.10-V1.0.0/GEN_FIP/myir-st-optee/lib/libutee/tee_api.c:78
    1c00:	129ffe60 	mov	w0, #0xffff000c            	// #-65524
    1c04:	17fffff0 	b	1bc4 <copy_param+0x17c>

0000000000001c08 <TEE_OpenTASession>:
TEE_OpenTASession():
/media/home/beste/01_Pro/ld25x/bsp_hu/MYD-LD25X-Uboot-L2022.10-V1.0.0/GEN_FIP/myir-st-optee/lib/libutee/tee_api.c:154
    1c08:	a9b37bfd 	stp	x29, x30, [sp, #-208]!
    1c0c:	910003fd 	mov	x29, sp
    1c10:	a90153f3 	stp	x19, x20, [sp, #16]
    1c14:	2a0203f3 	mov	w19, w2
    1c18:	aa0303f4 	mov	x20, x3
    1c1c:	a9025bf5 	stp	x21, x22, [sp, #32]
    1c20:	aa0403f5 	mov	x21, x4
    1c24:	a90363f7 	stp	x23, x24, [sp, #48]
    1c28:	aa0003f7 	mov	x23, x0
    1c2c:	2a0103f8 	mov	w24, w1
    1c30:	a9046bf9 	stp	x25, x26, [sp, #64]
    1c34:	aa0503f9 	mov	x25, x5
/media/home/beste/01_Pro/ld25x/bsp_hu/MYD-LD25X-Uboot-L2022.10-V1.0.0/GEN_FIP/myir-st-optee/lib/libutee/tee_api.c:157
    1c38:	b90057ff 	str	wzr, [sp, #84]
/media/home/beste/01_Pro/ld25x/bsp_hu/MYD-LD25X-Uboot-L2022.10-V1.0.0/GEN_FIP/myir-st-optee/lib/libutee/tee_api.c:160
    1c3c:	a906ffff 	stp	xzr, xzr, [sp, #104]
    1c40:	a907ffff 	stp	xzr, xzr, [sp, #120]
/media/home/beste/01_Pro/ld25x/bsp_hu/MYD-LD25X-Uboot-L2022.10-V1.0.0/GEN_FIP/myir-st-optee/lib/libutee/tee_api.c:162
    1c44:	34000082 	cbz	w2, 1c54 <TEE_OpenTASession+0x4c>
/media/home/beste/01_Pro/ld25x/bsp_hu/MYD-LD25X-Uboot-L2022.10-V1.0.0/GEN_FIP/myir-st-optee/lib/libutee/tee_api.c:163
    1c48:	aa0303e0 	mov	x0, x3
    1c4c:	d2800801 	mov	x1, #0x40                  	// #64
    1c50:	940004c8 	bl	2f70 <__utee_check_inout_annotation>
/media/home/beste/01_Pro/ld25x/bsp_hu/MYD-LD25X-Uboot-L2022.10-V1.0.0/GEN_FIP/myir-st-optee/lib/libutee/tee_api.c:166
    1c54:	aa1503e0 	mov	x0, x21
    1c58:	d2800101 	mov	x1, #0x8                   	// #8
/media/home/beste/01_Pro/ld25x/bsp_hu/MYD-LD25X-Uboot-L2022.10-V1.0.0/GEN_FIP/myir-st-optee/lib/libutee/tee_api.c:168
    1c5c:	9101a3fa 	add	x26, sp, #0x68
/media/home/beste/01_Pro/ld25x/bsp_hu/MYD-LD25X-Uboot-L2022.10-V1.0.0/GEN_FIP/myir-st-optee/lib/libutee/tee_api.c:166
    1c60:	940004ad 	bl	2f14 <__utee_check_out_annotation>
/media/home/beste/01_Pro/ld25x/bsp_hu/MYD-LD25X-Uboot-L2022.10-V1.0.0/GEN_FIP/myir-st-optee/lib/libutee/tee_api.c:168
    1c64:	910223f6 	add	x22, sp, #0x88
    1c68:	2a1303e1 	mov	w1, w19
    1c6c:	aa1a03e5 	mov	x5, x26
    1c70:	910183e4 	add	x4, sp, #0x60
    1c74:	910163e3 	add	x3, sp, #0x58
    1c78:	aa1403e2 	mov	x2, x20
    1c7c:	aa1603e0 	mov	x0, x22
    1c80:	97ffff72 	bl	1a48 <copy_param>
    1c84:	2a0003f3 	mov	w19, w0
/media/home/beste/01_Pro/ld25x/bsp_hu/MYD-LD25X-Uboot-L2022.10-V1.0.0/GEN_FIP/myir-st-optee/lib/libutee/tee_api.c:169
    1c88:	35000260 	cbnz	w0, 1cd4 <TEE_OpenTASession+0xcc>
/media/home/beste/01_Pro/ld25x/bsp_hu/MYD-LD25X-Uboot-L2022.10-V1.0.0/GEN_FIP/myir-st-optee/lib/libutee/tee_api.c:171
    1c8c:	aa1903e4 	mov	x4, x25
    1c90:	910153e3 	add	x3, sp, #0x54
    1c94:	aa1603e2 	mov	x2, x22
    1c98:	2a1803e1 	mov	w1, w24
    1c9c:	aa1703e0 	mov	x0, x23
    1ca0:	94000561 	bl	3224 <_utee_open_ta_session>
/media/home/beste/01_Pro/ld25x/bsp_hu/MYD-LD25X-Uboot-L2022.10-V1.0.0/GEN_FIP/myir-st-optee/lib/libutee/tee_api.c:173
    1ca4:	aa1603e2 	mov	x2, x22
/media/home/beste/01_Pro/ld25x/bsp_hu/MYD-LD25X-Uboot-L2022.10-V1.0.0/GEN_FIP/myir-st-optee/lib/libutee/tee_api.c:171
    1ca8:	2a0003f3 	mov	w19, w0
/media/home/beste/01_Pro/ld25x/bsp_hu/MYD-LD25X-Uboot-L2022.10-V1.0.0/GEN_FIP/myir-st-optee/lib/libutee/tee_api.c:173
    1cac:	aa1a03e1 	mov	x1, x26
    1cb0:	aa1403e0 	mov	x0, x20
    1cb4:	97ffff0b 	bl	18e0 <update_out_param>
/media/home/beste/01_Pro/ld25x/bsp_hu/MYD-LD25X-Uboot-L2022.10-V1.0.0/GEN_FIP/myir-st-optee/lib/libutee/tee_api.c:174
    1cb8:	f9402fe0 	ldr	x0, [sp, #88]
    1cbc:	b40000a0 	cbz	x0, 1cd0 <TEE_OpenTASession+0xc8>
/media/home/beste/01_Pro/ld25x/bsp_hu/MYD-LD25X-Uboot-L2022.10-V1.0.0/GEN_FIP/myir-st-optee/lib/libutee/tee_api.c:175
    1cc0:	f94033e1 	ldr	x1, [sp, #96]
    1cc4:	940004f5 	bl	3098 <tee_unmap>
/media/home/beste/01_Pro/ld25x/bsp_hu/MYD-LD25X-Uboot-L2022.10-V1.0.0/GEN_FIP/myir-st-optee/lib/libutee/tee_api.c:177
    1cc8:	34000040 	cbz	w0, 1cd0 <TEE_OpenTASession+0xc8>
/media/home/beste/01_Pro/ld25x/bsp_hu/MYD-LD25X-Uboot-L2022.10-V1.0.0/GEN_FIP/myir-st-optee/lib/libutee/tee_api.c:178
    1ccc:	94000466 	bl	2e64 <TEE_Panic>
/media/home/beste/01_Pro/ld25x/bsp_hu/MYD-LD25X-Uboot-L2022.10-V1.0.0/GEN_FIP/myir-st-optee/lib/libutee/tee_api.c:187
    1cd0:	34000053 	cbz	w19, 1cd8 <TEE_OpenTASession+0xd0>
/media/home/beste/01_Pro/ld25x/bsp_hu/MYD-LD25X-Uboot-L2022.10-V1.0.0/GEN_FIP/myir-st-optee/lib/libutee/tee_api.c:188
    1cd4:	b90057ff 	str	wzr, [sp, #84]
/media/home/beste/01_Pro/ld25x/bsp_hu/MYD-LD25X-Uboot-L2022.10-V1.0.0/GEN_FIP/myir-st-optee/lib/libutee/tee_api.c:190
    1cd8:	b94057e0 	ldr	w0, [sp, #84]
/media/home/beste/01_Pro/ld25x/bsp_hu/MYD-LD25X-Uboot-L2022.10-V1.0.0/GEN_FIP/myir-st-optee/lib/libutee/tee_api.c:192
    1cdc:	a94363f7 	ldp	x23, x24, [sp, #48]
    1ce0:	a9446bf9 	ldp	x25, x26, [sp, #64]
/media/home/beste/01_Pro/ld25x/bsp_hu/MYD-LD25X-Uboot-L2022.10-V1.0.0/GEN_FIP/myir-st-optee/lib/libutee/tee_api.c:190
    1ce4:	f90002a0 	str	x0, [x21]
/media/home/beste/01_Pro/ld25x/bsp_hu/MYD-LD25X-Uboot-L2022.10-V1.0.0/GEN_FIP/myir-st-optee/lib/libutee/tee_api.c:192
    1ce8:	a9425bf5 	ldp	x21, x22, [sp, #32]
    1cec:	2a1303e0 	mov	w0, w19
    1cf0:	a94153f3 	ldp	x19, x20, [sp, #16]
    1cf4:	a8cd7bfd 	ldp	x29, x30, [sp], #208
    1cf8:	d65f03c0 	ret

0000000000001cfc <TEE_InvokeTACommand>:
TEE_InvokeTACommand():
/media/home/beste/01_Pro/ld25x/bsp_hu/MYD-LD25X-Uboot-L2022.10-V1.0.0/GEN_FIP/myir-st-optee/lib/libutee/tee_api.c:209
    1cfc:	a9b37bfd 	stp	x29, x30, [sp, #-208]!
    1d00:	910003fd 	mov	x29, sp
    1d04:	a90153f3 	stp	x19, x20, [sp, #16]
    1d08:	2a0303f3 	mov	w19, w3
    1d0c:	aa0503f4 	mov	x20, x5
    1d10:	a9025bf5 	stp	x21, x22, [sp, #32]
    1d14:	aa0403f5 	mov	x21, x4
    1d18:	a90363f7 	stp	x23, x24, [sp, #48]
    1d1c:	aa0003f7 	mov	x23, x0
/media/home/beste/01_Pro/ld25x/bsp_hu/MYD-LD25X-Uboot-L2022.10-V1.0.0/GEN_FIP/myir-st-optee/lib/libutee/tee_api.c:211
    1d20:	52800060 	mov	w0, #0x3                   	// #3
/media/home/beste/01_Pro/ld25x/bsp_hu/MYD-LD25X-Uboot-L2022.10-V1.0.0/GEN_FIP/myir-st-optee/lib/libutee/tee_api.c:209
    1d24:	a9046bf9 	stp	x25, x26, [sp, #64]
    1d28:	2a0103f8 	mov	w24, w1
    1d2c:	2a0203f9 	mov	w25, w2
/media/home/beste/01_Pro/ld25x/bsp_hu/MYD-LD25X-Uboot-L2022.10-V1.0.0/GEN_FIP/myir-st-optee/lib/libutee/tee_api.c:211
    1d30:	b90057e0 	str	w0, [sp, #84]
/media/home/beste/01_Pro/ld25x/bsp_hu/MYD-LD25X-Uboot-L2022.10-V1.0.0/GEN_FIP/myir-st-optee/lib/libutee/tee_api.c:215
    1d34:	a906ffff 	stp	xzr, xzr, [sp, #104]
    1d38:	a907ffff 	stp	xzr, xzr, [sp, #120]
/media/home/beste/01_Pro/ld25x/bsp_hu/MYD-LD25X-Uboot-L2022.10-V1.0.0/GEN_FIP/myir-st-optee/lib/libutee/tee_api.c:217
    1d3c:	34000083 	cbz	w3, 1d4c <TEE_InvokeTACommand+0x50>
/media/home/beste/01_Pro/ld25x/bsp_hu/MYD-LD25X-Uboot-L2022.10-V1.0.0/GEN_FIP/myir-st-optee/lib/libutee/tee_api.c:218
    1d40:	aa0403e0 	mov	x0, x4
    1d44:	d2800801 	mov	x1, #0x40                  	// #64
    1d48:	9400048a 	bl	2f70 <__utee_check_inout_annotation>
/media/home/beste/01_Pro/ld25x/bsp_hu/MYD-LD25X-Uboot-L2022.10-V1.0.0/GEN_FIP/myir-st-optee/lib/libutee/tee_api.c:221
    1d4c:	b4000094 	cbz	x20, 1d5c <TEE_InvokeTACommand+0x60>
/media/home/beste/01_Pro/ld25x/bsp_hu/MYD-LD25X-Uboot-L2022.10-V1.0.0/GEN_FIP/myir-st-optee/lib/libutee/tee_api.c:222
    1d50:	aa1403e0 	mov	x0, x20
    1d54:	d2800081 	mov	x1, #0x4                   	// #4
    1d58:	9400046f 	bl	2f14 <__utee_check_out_annotation>
/media/home/beste/01_Pro/ld25x/bsp_hu/MYD-LD25X-Uboot-L2022.10-V1.0.0/GEN_FIP/myir-st-optee/lib/libutee/tee_api.c:225
    1d5c:	9101a3fa 	add	x26, sp, #0x68
    1d60:	910223f6 	add	x22, sp, #0x88
    1d64:	2a1303e1 	mov	w1, w19
    1d68:	aa1a03e5 	mov	x5, x26
    1d6c:	910183e4 	add	x4, sp, #0x60
    1d70:	910163e3 	add	x3, sp, #0x58
    1d74:	aa1503e2 	mov	x2, x21
    1d78:	aa1603e0 	mov	x0, x22
    1d7c:	97ffff33 	bl	1a48 <copy_param>
    1d80:	2a0003f3 	mov	w19, w0
/media/home/beste/01_Pro/ld25x/bsp_hu/MYD-LD25X-Uboot-L2022.10-V1.0.0/GEN_FIP/myir-st-optee/lib/libutee/tee_api.c:226
    1d84:	35000240 	cbnz	w0, 1dcc <TEE_InvokeTACommand+0xd0>
/media/home/beste/01_Pro/ld25x/bsp_hu/MYD-LD25X-Uboot-L2022.10-V1.0.0/GEN_FIP/myir-st-optee/lib/libutee/tee_api.c:228
    1d88:	910153e4 	add	x4, sp, #0x54
    1d8c:	aa1603e3 	mov	x3, x22
    1d90:	2a1903e2 	mov	w2, w25
    1d94:	2a1803e1 	mov	w1, w24
    1d98:	aa1703e0 	mov	x0, x23
    1d9c:	94000528 	bl	323c <_utee_invoke_ta_command>
/media/home/beste/01_Pro/ld25x/bsp_hu/MYD-LD25X-Uboot-L2022.10-V1.0.0/GEN_FIP/myir-st-optee/lib/libutee/tee_api.c:231
    1da0:	aa1603e2 	mov	x2, x22
/media/home/beste/01_Pro/ld25x/bsp_hu/MYD-LD25X-Uboot-L2022.10-V1.0.0/GEN_FIP/myir-st-optee/lib/libutee/tee_api.c:228
    1da4:	2a0003f3 	mov	w19, w0
/media/home/beste/01_Pro/ld25x/bsp_hu/MYD-LD25X-Uboot-L2022.10-V1.0.0/GEN_FIP/myir-st-optee/lib/libutee/tee_api.c:231
    1da8:	aa1a03e1 	mov	x1, x26
    1dac:	aa1503e0 	mov	x0, x21
    1db0:	97fffecc 	bl	18e0 <update_out_param>
/media/home/beste/01_Pro/ld25x/bsp_hu/MYD-LD25X-Uboot-L2022.10-V1.0.0/GEN_FIP/myir-st-optee/lib/libutee/tee_api.c:232
    1db4:	f9402fe0 	ldr	x0, [sp, #88]
    1db8:	b40000a0 	cbz	x0, 1dcc <TEE_InvokeTACommand+0xd0>
/media/home/beste/01_Pro/ld25x/bsp_hu/MYD-LD25X-Uboot-L2022.10-V1.0.0/GEN_FIP/myir-st-optee/lib/libutee/tee_api.c:233
    1dbc:	f94033e1 	ldr	x1, [sp, #96]
    1dc0:	940004b6 	bl	3098 <tee_unmap>
/media/home/beste/01_Pro/ld25x/bsp_hu/MYD-LD25X-Uboot-L2022.10-V1.0.0/GEN_FIP/myir-st-optee/lib/libutee/tee_api.c:235
    1dc4:	34000040 	cbz	w0, 1dcc <TEE_InvokeTACommand+0xd0>
/media/home/beste/01_Pro/ld25x/bsp_hu/MYD-LD25X-Uboot-L2022.10-V1.0.0/GEN_FIP/myir-st-optee/lib/libutee/tee_api.c:236
    1dc8:	94000427 	bl	2e64 <TEE_Panic>
/media/home/beste/01_Pro/ld25x/bsp_hu/MYD-LD25X-Uboot-L2022.10-V1.0.0/GEN_FIP/myir-st-optee/lib/libutee/tee_api.c:241
    1dcc:	b94057e0 	ldr	w0, [sp, #84]
/media/home/beste/01_Pro/ld25x/bsp_hu/MYD-LD25X-Uboot-L2022.10-V1.0.0/GEN_FIP/myir-st-optee/lib/libutee/tee_api.c:240
    1dd0:	b4000054 	cbz	x20, 1dd8 <TEE_InvokeTACommand+0xdc>
/media/home/beste/01_Pro/ld25x/bsp_hu/MYD-LD25X-Uboot-L2022.10-V1.0.0/GEN_FIP/myir-st-optee/lib/libutee/tee_api.c:241
    1dd4:	b9000280 	str	w0, [x20]
/media/home/beste/01_Pro/ld25x/bsp_hu/MYD-LD25X-Uboot-L2022.10-V1.0.0/GEN_FIP/myir-st-optee/lib/libutee/tee_api.c:243
    1dd8:	7100101f 	cmp	w0, #0x4
    1ddc:	54000140 	b.eq	1e04 <TEE_InvokeTACommand+0x108>  // b.none
/media/home/beste/01_Pro/ld25x/bsp_hu/MYD-LD25X-Uboot-L2022.10-V1.0.0/GEN_FIP/myir-st-optee/lib/libutee/tee_api.c:246
    1de0:	7100027f 	cmp	w19, #0x0
    1de4:	129ffe60 	mov	w0, #0xffff000c            	// #-65524
    1de8:	7a401264 	ccmp	w19, w0, #0x4, ne	// ne = any
    1dec:	540000c0 	b.eq	1e04 <TEE_InvokeTACommand+0x108>  // b.none
/media/home/beste/01_Pro/ld25x/bsp_hu/MYD-LD25X-Uboot-L2022.10-V1.0.0/GEN_FIP/myir-st-optee/lib/libutee/tee_api.c:247
    1df0:	1299fb60 	mov	w0, #0xffff3024            	// #-53212
    1df4:	6b00027f 	cmp	w19, w0
    1df8:	54000060 	b.eq	1e04 <TEE_InvokeTACommand+0x108>  // b.none
/media/home/beste/01_Pro/ld25x/bsp_hu/MYD-LD25X-Uboot-L2022.10-V1.0.0/GEN_FIP/myir-st-optee/lib/libutee/tee_api.c:249
    1dfc:	2a1303e0 	mov	w0, w19
    1e00:	94000419 	bl	2e64 <TEE_Panic>
/media/home/beste/01_Pro/ld25x/bsp_hu/MYD-LD25X-Uboot-L2022.10-V1.0.0/GEN_FIP/myir-st-optee/lib/libutee/tee_api.c:252
    1e04:	a9425bf5 	ldp	x21, x22, [sp, #32]
    1e08:	2a1303e0 	mov	w0, w19
    1e0c:	a94153f3 	ldp	x19, x20, [sp, #16]
    1e10:	a94363f7 	ldp	x23, x24, [sp, #48]
    1e14:	a9446bf9 	ldp	x25, x26, [sp, #64]
    1e18:	a8cd7bfd 	ldp	x29, x30, [sp], #208
    1e1c:	d65f03c0 	ret

0000000000001e20 <TEE_SetInstanceData>:
TEE_SetInstanceData():
/media/home/beste/01_Pro/ld25x/bsp_hu/MYD-LD25X-Uboot-L2022.10-V1.0.0/GEN_FIP/myir-st-optee/lib/libutee/tee_api.c:313
    1e20:	f0000081 	adrp	x1, 14000 <_DYNAMIC>
    1e24:	f902c020 	str	x0, [x1, #1408]
/media/home/beste/01_Pro/ld25x/bsp_hu/MYD-LD25X-Uboot-L2022.10-V1.0.0/GEN_FIP/myir-st-optee/lib/libutee/tee_api.c:314
    1e28:	d65f03c0 	ret

0000000000001e2c <TEE_GetInstanceData>:
TEE_GetInstanceData():
/media/home/beste/01_Pro/ld25x/bsp_hu/MYD-LD25X-Uboot-L2022.10-V1.0.0/GEN_FIP/myir-st-optee/lib/libutee/tee_api.c:319
    1e2c:	f0000080 	adrp	x0, 14000 <_DYNAMIC>
    1e30:	f942c000 	ldr	x0, [x0, #1408]
    1e34:	d65f03c0 	ret

0000000000001e38 <TEE_MemMove>:
TEE_MemMove():
/media/home/beste/01_Pro/ld25x/bsp_hu/MYD-LD25X-Uboot-L2022.10-V1.0.0/GEN_FIP/myir-st-optee/lib/libutee/tee_api.c:323
    1e38:	2a0203e2 	mov	w2, w2
    1e3c:	14002804 	b	be4c <memmove>

0000000000001e40 <TEE_MemCompare>:
TEE_MemCompare():
/media/home/beste/01_Pro/ld25x/bsp_hu/MYD-LD25X-Uboot-L2022.10-V1.0.0/GEN_FIP/myir-st-optee/lib/libutee/tee_api.c:328
    1e40:	2a0203e2 	mov	w2, w2
    1e44:	14002899 	b	c0a8 <consttime_memcmp>

0000000000001e48 <TEE_MemFill>:
TEE_MemFill():
/media/home/beste/01_Pro/ld25x/bsp_hu/MYD-LD25X-Uboot-L2022.10-V1.0.0/GEN_FIP/myir-st-optee/lib/libutee/tee_api.c:333
    1e48:	2a0203e2 	mov	w2, w2
    1e4c:	14002816 	b	bea4 <memset>

0000000000001e50 <TEE_GetSystemTime>:
TEE_GetSystemTime():
/media/home/beste/01_Pro/ld25x/bsp_hu/MYD-LD25X-Uboot-L2022.10-V1.0.0/GEN_FIP/myir-st-optee/lib/libutee/tee_api.c:339
    1e50:	a9bf7bfd 	stp	x29, x30, [sp, #-16]!
/media/home/beste/01_Pro/ld25x/bsp_hu/MYD-LD25X-Uboot-L2022.10-V1.0.0/GEN_FIP/myir-st-optee/lib/libutee/tee_api.c:340
    1e54:	aa0003e1 	mov	x1, x0
    1e58:	d2800000 	mov	x0, #0x0                   	// #0
/media/home/beste/01_Pro/ld25x/bsp_hu/MYD-LD25X-Uboot-L2022.10-V1.0.0/GEN_FIP/myir-st-optee/lib/libutee/tee_api.c:339
    1e5c:	910003fd 	mov	x29, sp
/media/home/beste/01_Pro/ld25x/bsp_hu/MYD-LD25X-Uboot-L2022.10-V1.0.0/GEN_FIP/myir-st-optee/lib/libutee/tee_api.c:340
    1e60:	94000509 	bl	3284 <_utee_get_time>
/media/home/beste/01_Pro/ld25x/bsp_hu/MYD-LD25X-Uboot-L2022.10-V1.0.0/GEN_FIP/myir-st-optee/lib/libutee/tee_api.c:342
    1e64:	34000060 	cbz	w0, 1e70 <TEE_GetSystemTime+0x20>
/media/home/beste/01_Pro/ld25x/bsp_hu/MYD-LD25X-Uboot-L2022.10-V1.0.0/GEN_FIP/myir-st-optee/lib/libutee/tee_api.c:344
    1e68:	a8c17bfd 	ldp	x29, x30, [sp], #16
/media/home/beste/01_Pro/ld25x/bsp_hu/MYD-LD25X-Uboot-L2022.10-V1.0.0/GEN_FIP/myir-st-optee/lib/libutee/tee_api.c:343
    1e6c:	140003fe 	b	2e64 <TEE_Panic>
/media/home/beste/01_Pro/ld25x/bsp_hu/MYD-LD25X-Uboot-L2022.10-V1.0.0/GEN_FIP/myir-st-optee/lib/libutee/tee_api.c:344
    1e70:	a8c17bfd 	ldp	x29, x30, [sp], #16
    1e74:	d65f03c0 	ret

0000000000001e78 <TEE_Wait>:
TEE_Wait():
/media/home/beste/01_Pro/ld25x/bsp_hu/MYD-LD25X-Uboot-L2022.10-V1.0.0/GEN_FIP/myir-st-optee/lib/libutee/tee_api.c:347
    1e78:	a9be7bfd 	stp	x29, x30, [sp, #-32]!
/media/home/beste/01_Pro/ld25x/bsp_hu/MYD-LD25X-Uboot-L2022.10-V1.0.0/GEN_FIP/myir-st-optee/lib/libutee/tee_api.c:348
    1e7c:	2a0003e0 	mov	w0, w0
/media/home/beste/01_Pro/ld25x/bsp_hu/MYD-LD25X-Uboot-L2022.10-V1.0.0/GEN_FIP/myir-st-optee/lib/libutee/tee_api.c:347
    1e80:	910003fd 	mov	x29, sp
    1e84:	f9000bf3 	str	x19, [sp, #16]
/media/home/beste/01_Pro/ld25x/bsp_hu/MYD-LD25X-Uboot-L2022.10-V1.0.0/GEN_FIP/myir-st-optee/lib/libutee/tee_api.c:348
    1e88:	940004fc 	bl	3278 <_utee_wait>
/media/home/beste/01_Pro/ld25x/bsp_hu/MYD-LD25X-Uboot-L2022.10-V1.0.0/GEN_FIP/myir-st-optee/lib/libutee/tee_api.c:350
    1e8c:	7100001f 	cmp	w0, #0x0
    1e90:	129fffa1 	mov	w1, #0xffff0002            	// #-65534
/media/home/beste/01_Pro/ld25x/bsp_hu/MYD-LD25X-Uboot-L2022.10-V1.0.0/GEN_FIP/myir-st-optee/lib/libutee/tee_api.c:348
    1e94:	2a0003f3 	mov	w19, w0
/media/home/beste/01_Pro/ld25x/bsp_hu/MYD-LD25X-Uboot-L2022.10-V1.0.0/GEN_FIP/myir-st-optee/lib/libutee/tee_api.c:350
    1e98:	7a411004 	ccmp	w0, w1, #0x4, ne	// ne = any
    1e9c:	54000040 	b.eq	1ea4 <TEE_Wait+0x2c>  // b.none
/media/home/beste/01_Pro/ld25x/bsp_hu/MYD-LD25X-Uboot-L2022.10-V1.0.0/GEN_FIP/myir-st-optee/lib/libutee/tee_api.c:351
    1ea0:	940003f1 	bl	2e64 <TEE_Panic>
/media/home/beste/01_Pro/ld25x/bsp_hu/MYD-LD25X-Uboot-L2022.10-V1.0.0/GEN_FIP/myir-st-optee/lib/libutee/tee_api.c:354
    1ea4:	2a1303e0 	mov	w0, w19
    1ea8:	f9400bf3 	ldr	x19, [sp, #16]
    1eac:	a8c27bfd 	ldp	x29, x30, [sp], #32
    1eb0:	d65f03c0 	ret

0000000000001eb4 <TEE_GetTAPersistentTime>:
TEE_GetTAPersistentTime():
/media/home/beste/01_Pro/ld25x/bsp_hu/MYD-LD25X-Uboot-L2022.10-V1.0.0/GEN_FIP/myir-st-optee/lib/libutee/tee_api.c:357
    1eb4:	a9be7bfd 	stp	x29, x30, [sp, #-32]!
/media/home/beste/01_Pro/ld25x/bsp_hu/MYD-LD25X-Uboot-L2022.10-V1.0.0/GEN_FIP/myir-st-optee/lib/libutee/tee_api.c:360
    1eb8:	aa0003e1 	mov	x1, x0
/media/home/beste/01_Pro/ld25x/bsp_hu/MYD-LD25X-Uboot-L2022.10-V1.0.0/GEN_FIP/myir-st-optee/lib/libutee/tee_api.c:357
    1ebc:	910003fd 	mov	x29, sp
    1ec0:	a90153f3 	stp	x19, x20, [sp, #16]
    1ec4:	aa0003f4 	mov	x20, x0
/media/home/beste/01_Pro/ld25x/bsp_hu/MYD-LD25X-Uboot-L2022.10-V1.0.0/GEN_FIP/myir-st-optee/lib/libutee/tee_api.c:360
    1ec8:	d2800020 	mov	x0, #0x1                   	// #1
    1ecc:	940004ee 	bl	3284 <_utee_get_time>
/media/home/beste/01_Pro/ld25x/bsp_hu/MYD-LD25X-Uboot-L2022.10-V1.0.0/GEN_FIP/myir-st-optee/lib/libutee/tee_api.c:362
    1ed0:	7100001f 	cmp	w0, #0x0
    1ed4:	1299fe01 	mov	w1, #0xffff300f            	// #-53233
/media/home/beste/01_Pro/ld25x/bsp_hu/MYD-LD25X-Uboot-L2022.10-V1.0.0/GEN_FIP/myir-st-optee/lib/libutee/tee_api.c:360
    1ed8:	2a0003f3 	mov	w19, w0
/media/home/beste/01_Pro/ld25x/bsp_hu/MYD-LD25X-Uboot-L2022.10-V1.0.0/GEN_FIP/myir-st-optee/lib/libutee/tee_api.c:362
    1edc:	7a411004 	ccmp	w0, w1, #0x4, ne	// ne = any
    1ee0:	54000120 	b.eq	1f04 <TEE_GetTAPersistentTime+0x50>  // b.none
/media/home/beste/01_Pro/ld25x/bsp_hu/MYD-LD25X-Uboot-L2022.10-V1.0.0/GEN_FIP/myir-st-optee/lib/libutee/tee_api.c:368
    1ee4:	11402c01 	add	w1, w0, #0xb, lsl #12
/media/home/beste/01_Pro/ld25x/bsp_hu/MYD-LD25X-Uboot-L2022.10-V1.0.0/GEN_FIP/myir-st-optee/lib/libutee/tee_api.c:364
    1ee8:	29007e9f 	stp	wzr, wzr, [x20]
/media/home/beste/01_Pro/ld25x/bsp_hu/MYD-LD25X-Uboot-L2022.10-V1.0.0/GEN_FIP/myir-st-optee/lib/libutee/tee_api.c:367
    1eec:	7100043f 	cmp	w1, #0x1
    1ef0:	540000a9 	b.ls	1f04 <TEE_GetTAPersistentTime+0x50>  // b.plast
/media/home/beste/01_Pro/ld25x/bsp_hu/MYD-LD25X-Uboot-L2022.10-V1.0.0/GEN_FIP/myir-st-optee/lib/libutee/tee_api.c:370
    1ef4:	129ffe61 	mov	w1, #0xffff000c            	// #-65524
    1ef8:	6b01001f 	cmp	w0, w1
    1efc:	54000040 	b.eq	1f04 <TEE_GetTAPersistentTime+0x50>  // b.none
/media/home/beste/01_Pro/ld25x/bsp_hu/MYD-LD25X-Uboot-L2022.10-V1.0.0/GEN_FIP/myir-st-optee/lib/libutee/tee_api.c:372
    1f00:	940003d9 	bl	2e64 <TEE_Panic>
/media/home/beste/01_Pro/ld25x/bsp_hu/MYD-LD25X-Uboot-L2022.10-V1.0.0/GEN_FIP/myir-st-optee/lib/libutee/tee_api.c:375
    1f04:	2a1303e0 	mov	w0, w19
    1f08:	a94153f3 	ldp	x19, x20, [sp, #16]
    1f0c:	a8c27bfd 	ldp	x29, x30, [sp], #32
    1f10:	d65f03c0 	ret

0000000000001f14 <TEE_SetTAPersistentTime>:
TEE_SetTAPersistentTime():
/media/home/beste/01_Pro/ld25x/bsp_hu/MYD-LD25X-Uboot-L2022.10-V1.0.0/GEN_FIP/myir-st-optee/lib/libutee/tee_api.c:378
    1f14:	a9be7bfd 	stp	x29, x30, [sp, #-32]!
    1f18:	910003fd 	mov	x29, sp
    1f1c:	f9000bf3 	str	x19, [sp, #16]
/media/home/beste/01_Pro/ld25x/bsp_hu/MYD-LD25X-Uboot-L2022.10-V1.0.0/GEN_FIP/myir-st-optee/lib/libutee/tee_api.c:381
    1f20:	940004dc 	bl	3290 <_utee_set_ta_time>
/media/home/beste/01_Pro/ld25x/bsp_hu/MYD-LD25X-Uboot-L2022.10-V1.0.0/GEN_FIP/myir-st-optee/lib/libutee/tee_api.c:383
    1f24:	7100001f 	cmp	w0, #0x0
    1f28:	129ffe61 	mov	w1, #0xffff000c            	// #-65524
/media/home/beste/01_Pro/ld25x/bsp_hu/MYD-LD25X-Uboot-L2022.10-V1.0.0/GEN_FIP/myir-st-optee/lib/libutee/tee_api.c:381
    1f2c:	2a0003f3 	mov	w19, w0
/media/home/beste/01_Pro/ld25x/bsp_hu/MYD-LD25X-Uboot-L2022.10-V1.0.0/GEN_FIP/myir-st-optee/lib/libutee/tee_api.c:383
    1f30:	7a411004 	ccmp	w0, w1, #0x4, ne	// ne = any
    1f34:	540000a0 	b.eq	1f48 <TEE_SetTAPersistentTime+0x34>  // b.none
/media/home/beste/01_Pro/ld25x/bsp_hu/MYD-LD25X-Uboot-L2022.10-V1.0.0/GEN_FIP/myir-st-optee/lib/libutee/tee_api.c:384
    1f38:	1299f7c1 	mov	w1, #0xffff3041            	// #-53183
    1f3c:	6b01001f 	cmp	w0, w1
    1f40:	54000040 	b.eq	1f48 <TEE_SetTAPersistentTime+0x34>  // b.none
/media/home/beste/01_Pro/ld25x/bsp_hu/MYD-LD25X-Uboot-L2022.10-V1.0.0/GEN_FIP/myir-st-optee/lib/libutee/tee_api.c:386
    1f44:	940003c8 	bl	2e64 <TEE_Panic>
/media/home/beste/01_Pro/ld25x/bsp_hu/MYD-LD25X-Uboot-L2022.10-V1.0.0/GEN_FIP/myir-st-optee/lib/libutee/tee_api.c:389
    1f48:	2a1303e0 	mov	w0, w19
    1f4c:	f9400bf3 	ldr	x19, [sp, #16]
    1f50:	a8c27bfd 	ldp	x29, x30, [sp], #32
    1f54:	d65f03c0 	ret

0000000000001f58 <TEE_GetREETime>:
TEE_GetREETime():
/media/home/beste/01_Pro/ld25x/bsp_hu/MYD-LD25X-Uboot-L2022.10-V1.0.0/GEN_FIP/myir-st-optee/lib/libutee/tee_api.c:392
    1f58:	a9bf7bfd 	stp	x29, x30, [sp, #-16]!
/media/home/beste/01_Pro/ld25x/bsp_hu/MYD-LD25X-Uboot-L2022.10-V1.0.0/GEN_FIP/myir-st-optee/lib/libutee/tee_api.c:393
    1f5c:	aa0003e1 	mov	x1, x0
    1f60:	d2800040 	mov	x0, #0x2                   	// #2
/media/home/beste/01_Pro/ld25x/bsp_hu/MYD-LD25X-Uboot-L2022.10-V1.0.0/GEN_FIP/myir-st-optee/lib/libutee/tee_api.c:392
    1f64:	910003fd 	mov	x29, sp
/media/home/beste/01_Pro/ld25x/bsp_hu/MYD-LD25X-Uboot-L2022.10-V1.0.0/GEN_FIP/myir-st-optee/lib/libutee/tee_api.c:393
    1f68:	940004c7 	bl	3284 <_utee_get_time>
/media/home/beste/01_Pro/ld25x/bsp_hu/MYD-LD25X-Uboot-L2022.10-V1.0.0/GEN_FIP/myir-st-optee/lib/libutee/tee_api.c:395
    1f6c:	34000060 	cbz	w0, 1f78 <TEE_GetREETime+0x20>
/media/home/beste/01_Pro/ld25x/bsp_hu/MYD-LD25X-Uboot-L2022.10-V1.0.0/GEN_FIP/myir-st-optee/lib/libutee/tee_api.c:397
    1f70:	a8c17bfd 	ldp	x29, x30, [sp], #16
/media/home/beste/01_Pro/ld25x/bsp_hu/MYD-LD25X-Uboot-L2022.10-V1.0.0/GEN_FIP/myir-st-optee/lib/libutee/tee_api.c:396
    1f74:	140003bc 	b	2e64 <TEE_Panic>
/media/home/beste/01_Pro/ld25x/bsp_hu/MYD-LD25X-Uboot-L2022.10-V1.0.0/GEN_FIP/myir-st-optee/lib/libutee/tee_api.c:397
    1f78:	a8c17bfd 	ldp	x29, x30, [sp], #16
    1f7c:	d65f03c0 	ret

0000000000001f80 <TEE_Malloc>:
TEE_Malloc():
/media/home/beste/01_Pro/ld25x/bsp_hu/MYD-LD25X-Uboot-L2022.10-V1.0.0/GEN_FIP/myir-st-optee/lib/libutee/tee_api.c:401
    1f80:	34000300 	cbz	w0, 1fe0 <TEE_Malloc+0x60>
    1f84:	2a0103e5 	mov	w5, w1
/media/home/beste/01_Pro/ld25x/bsp_hu/MYD-LD25X-Uboot-L2022.10-V1.0.0/GEN_FIP/myir-st-optee/lib/libutee/tee_api.c:404
    1f88:	35000081 	cbnz	w1, 1f98 <TEE_Malloc+0x18>
/media/home/beste/01_Pro/ld25x/bsp_hu/MYD-LD25X-Uboot-L2022.10-V1.0.0/GEN_FIP/myir-st-optee/lib/libutee/tee_api.c:405
    1f8c:	2a0003e1 	mov	w1, w0
    1f90:	d2800020 	mov	x0, #0x1                   	// #1
    1f94:	140026ca 	b	babc <calloc>
/media/home/beste/01_Pro/ld25x/bsp_hu/MYD-LD25X-Uboot-L2022.10-V1.0.0/GEN_FIP/myir-st-optee/lib/libutee/tee_api.c:406
    1f98:	52b00001 	mov	w1, #0x80000000            	// #-2147483648
    1f9c:	6b0100bf 	cmp	w5, w1
    1fa0:	54000061 	b.ne	1fac <TEE_Malloc+0x2c>  // b.any
/media/home/beste/01_Pro/ld25x/bsp_hu/MYD-LD25X-Uboot-L2022.10-V1.0.0/GEN_FIP/myir-st-optee/lib/libutee/tee_api.c:407
    1fa4:	2a0003e0 	mov	w0, w0
    1fa8:	140026be 	b	baa0 <malloc>
/media/home/beste/01_Pro/ld25x/bsp_hu/MYD-LD25X-Uboot-L2022.10-V1.0.0/GEN_FIP/myir-st-optee/lib/libutee/tee_api.c:400
    1fac:	a9bf7bfd 	stp	x29, x30, [sp, #-16]!
/media/home/beste/01_Pro/ld25x/bsp_hu/MYD-LD25X-Uboot-L2022.10-V1.0.0/GEN_FIP/myir-st-optee/lib/libutee/tee_api.c:409
    1fb0:	52800023 	mov	w3, #0x1                   	// #1
    1fb4:	52800022 	mov	w2, #0x1                   	// #1
/media/home/beste/01_Pro/ld25x/bsp_hu/MYD-LD25X-Uboot-L2022.10-V1.0.0/GEN_FIP/myir-st-optee/lib/libutee/tee_api.c:400
    1fb8:	910003fd 	mov	x29, sp
/media/home/beste/01_Pro/ld25x/bsp_hu/MYD-LD25X-Uboot-L2022.10-V1.0.0/GEN_FIP/myir-st-optee/lib/libutee/tee_api.c:409
    1fbc:	52803321 	mov	w1, #0x199                 	// #409
    1fc0:	b0000084 	adrp	x4, 12000 <__compound_literal.2>
    1fc4:	b0000080 	adrp	x0, 12000 <__compound_literal.2>
    1fc8:	91133884 	add	x4, x4, #0x4ce
    1fcc:	91137c00 	add	x0, x0, #0x4df
    1fd0:	97fffa55 	bl	924 <trace_printf>
/media/home/beste/01_Pro/ld25x/bsp_hu/MYD-LD25X-Uboot-L2022.10-V1.0.0/GEN_FIP/myir-st-optee/lib/libutee/tee_api.c:411
    1fd4:	d2800000 	mov	x0, #0x0                   	// #0
/media/home/beste/01_Pro/ld25x/bsp_hu/MYD-LD25X-Uboot-L2022.10-V1.0.0/GEN_FIP/myir-st-optee/lib/libutee/tee_api.c:412
    1fd8:	a8c17bfd 	ldp	x29, x30, [sp], #16
    1fdc:	d65f03c0 	ret
/media/home/beste/01_Pro/ld25x/bsp_hu/MYD-LD25X-Uboot-L2022.10-V1.0.0/GEN_FIP/myir-st-optee/lib/libutee/tee_api.c:402
    1fe0:	d2800020 	mov	x0, #0x1                   	// #1
/media/home/beste/01_Pro/ld25x/bsp_hu/MYD-LD25X-Uboot-L2022.10-V1.0.0/GEN_FIP/myir-st-optee/lib/libutee/tee_api.c:412
    1fe4:	d65f03c0 	ret

0000000000001fe8 <TEE_Free>:
TEE_Free():
/media/home/beste/01_Pro/ld25x/bsp_hu/MYD-LD25X-Uboot-L2022.10-V1.0.0/GEN_FIP/myir-st-optee/lib/libutee/tee_api.c:429
    1fe8:	f100041f 	cmp	x0, #0x1
    1fec:	54000040 	b.eq	1ff4 <TEE_Free+0xc>  // b.none
/media/home/beste/01_Pro/ld25x/bsp_hu/MYD-LD25X-Uboot-L2022.10-V1.0.0/GEN_FIP/myir-st-optee/lib/libutee/tee_api.c:430
    1ff0:	140026d0 	b	bb30 <free>
/media/home/beste/01_Pro/ld25x/bsp_hu/MYD-LD25X-Uboot-L2022.10-V1.0.0/GEN_FIP/myir-st-optee/lib/libutee/tee_api.c:431
    1ff4:	d65f03c0 	ret

0000000000001ff8 <TEE_Realloc>:
TEE_Realloc():
/media/home/beste/01_Pro/ld25x/bsp_hu/MYD-LD25X-Uboot-L2022.10-V1.0.0/GEN_FIP/myir-st-optee/lib/libutee/tee_api.c:416
    1ff8:	340000c1 	cbz	w1, 2010 <TEE_Realloc+0x18>
/media/home/beste/01_Pro/ld25x/bsp_hu/MYD-LD25X-Uboot-L2022.10-V1.0.0/GEN_FIP/myir-st-optee/lib/libutee/tee_api.c:422
    1ffc:	2a0103e1 	mov	w1, w1
/media/home/beste/01_Pro/ld25x/bsp_hu/MYD-LD25X-Uboot-L2022.10-V1.0.0/GEN_FIP/myir-st-optee/lib/libutee/tee_api.c:421
    2000:	f100041f 	cmp	x0, #0x1
    2004:	54000041 	b.ne	200c <TEE_Realloc+0x14>  // b.any
/media/home/beste/01_Pro/ld25x/bsp_hu/MYD-LD25X-Uboot-L2022.10-V1.0.0/GEN_FIP/myir-st-optee/lib/libutee/tee_api.c:422
    2008:	140026ad 	b	babc <calloc>
/media/home/beste/01_Pro/ld25x/bsp_hu/MYD-LD25X-Uboot-L2022.10-V1.0.0/GEN_FIP/myir-st-optee/lib/libutee/tee_api.c:424
    200c:	140026b4 	b	badc <realloc>
/media/home/beste/01_Pro/ld25x/bsp_hu/MYD-LD25X-Uboot-L2022.10-V1.0.0/GEN_FIP/myir-st-optee/lib/libutee/tee_api.c:415
    2010:	a9bf7bfd 	stp	x29, x30, [sp, #-16]!
    2014:	910003fd 	mov	x29, sp
/media/home/beste/01_Pro/ld25x/bsp_hu/MYD-LD25X-Uboot-L2022.10-V1.0.0/GEN_FIP/myir-st-optee/lib/libutee/tee_api.c:417
    2018:	97fffff4 	bl	1fe8 <TEE_Free>
/media/home/beste/01_Pro/ld25x/bsp_hu/MYD-LD25X-Uboot-L2022.10-V1.0.0/GEN_FIP/myir-st-optee/lib/libutee/tee_api.c:425
    201c:	d2800020 	mov	x0, #0x1                   	// #1
    2020:	a8c17bfd 	ldp	x29, x30, [sp], #16
    2024:	d65f03c0 	ret

0000000000002028 <TEE_CacheClean>:
TEE_CacheClean():
/media/home/beste/01_Pro/ld25x/bsp_hu/MYD-LD25X-Uboot-L2022.10-V1.0.0/GEN_FIP/myir-st-optee/lib/libutee/tee_api.c:436
    2028:	d2800002 	mov	x2, #0x0                   	// #0
    202c:	14000514 	b	347c <_utee_cache_operation>

0000000000002030 <TEE_CacheFlush>:
TEE_CacheFlush():
/media/home/beste/01_Pro/ld25x/bsp_hu/MYD-LD25X-Uboot-L2022.10-V1.0.0/GEN_FIP/myir-st-optee/lib/libutee/tee_api.c:440
    2030:	d2800022 	mov	x2, #0x1                   	// #1
    2034:	14000512 	b	347c <_utee_cache_operation>

0000000000002038 <TEE_CacheInvalidate>:
TEE_CacheInvalidate():
/media/home/beste/01_Pro/ld25x/bsp_hu/MYD-LD25X-Uboot-L2022.10-V1.0.0/GEN_FIP/myir-st-optee/lib/libutee/tee_api.c:445
    2038:	d2800042 	mov	x2, #0x2                   	// #2
    203c:	14000510 	b	347c <_utee_cache_operation>

0000000000002040 <__utee_from_attr>:
__utee_from_attr():
/media/home/beste/01_Pro/ld25x/bsp_hu/MYD-LD25X-Uboot-L2022.10-V1.0.0/GEN_FIP/myir-st-optee/lib/libutee/tee_api_objects.c:19
    2040:	2a0203e2 	mov	w2, w2
    2044:	d2800003 	mov	x3, #0x0                   	// #0
/media/home/beste/01_Pro/ld25x/bsp_hu/MYD-LD25X-Uboot-L2022.10-V1.0.0/GEN_FIP/myir-st-optee/lib/libutee/tee_api_objects.c:19 (discriminator 1)
    2048:	eb03005f 	cmp	x2, x3
    204c:	54000048 	b.hi	2054 <__utee_from_attr+0x14>  // b.pmore
/media/home/beste/01_Pro/ld25x/bsp_hu/MYD-LD25X-Uboot-L2022.10-V1.0.0/GEN_FIP/myir-st-optee/lib/libutee/tee_api_objects.c:29
    2050:	d65f03c0 	ret
/media/home/beste/01_Pro/ld25x/bsp_hu/MYD-LD25X-Uboot-L2022.10-V1.0.0/GEN_FIP/myir-st-optee/lib/libutee/tee_api_objects.c:20
    2054:	b9400024 	ldr	w4, [x1]
    2058:	b9001004 	str	w4, [x0, #16]
/media/home/beste/01_Pro/ld25x/bsp_hu/MYD-LD25X-Uboot-L2022.10-V1.0.0/GEN_FIP/myir-st-optee/lib/libutee/tee_api_objects.c:21
    205c:	36e80124 	tbz	w4, #29, 2080 <__utee_from_attr+0x40>
/media/home/beste/01_Pro/ld25x/bsp_hu/MYD-LD25X-Uboot-L2022.10-V1.0.0/GEN_FIP/myir-st-optee/lib/libutee/tee_api_objects.c:22
    2060:	b9400824 	ldr	w4, [x1, #8]
    2064:	f9000004 	str	x4, [x0]
/media/home/beste/01_Pro/ld25x/bsp_hu/MYD-LD25X-Uboot-L2022.10-V1.0.0/GEN_FIP/myir-st-optee/lib/libutee/tee_api_objects.c:23
    2068:	b9400c24 	ldr	w4, [x1, #12]
/media/home/beste/01_Pro/ld25x/bsp_hu/MYD-LD25X-Uboot-L2022.10-V1.0.0/GEN_FIP/myir-st-optee/lib/libutee/tee_api_objects.c:19 (discriminator 2)
    206c:	91000463 	add	x3, x3, #0x1
    2070:	91006021 	add	x1, x1, #0x18
    2074:	91006000 	add	x0, x0, #0x18
/media/home/beste/01_Pro/ld25x/bsp_hu/MYD-LD25X-Uboot-L2022.10-V1.0.0/GEN_FIP/myir-st-optee/lib/libutee/tee_api_objects.c:23 (discriminator 2)
    2078:	f81f0004 	stur	x4, [x0, #-16]
/media/home/beste/01_Pro/ld25x/bsp_hu/MYD-LD25X-Uboot-L2022.10-V1.0.0/GEN_FIP/myir-st-optee/lib/libutee/tee_api_objects.c:19 (discriminator 2)
    207c:	17fffff3 	b	2048 <__utee_from_attr+0x8>
/media/home/beste/01_Pro/ld25x/bsp_hu/MYD-LD25X-Uboot-L2022.10-V1.0.0/GEN_FIP/myir-st-optee/lib/libutee/tee_api_objects.c:25
    2080:	f9400424 	ldr	x4, [x1, #8]
    2084:	f9000004 	str	x4, [x0]
/media/home/beste/01_Pro/ld25x/bsp_hu/MYD-LD25X-Uboot-L2022.10-V1.0.0/GEN_FIP/myir-st-optee/lib/libutee/tee_api_objects.c:26
    2088:	b9401024 	ldr	w4, [x1, #16]
    208c:	17fffff8 	b	206c <__utee_from_attr+0x2c>

0000000000002090 <TEE_GetObjectInfo>:
TEE_GetObjectInfo():
/media/home/beste/01_Pro/ld25x/bsp_hu/MYD-LD25X-Uboot-L2022.10-V1.0.0/GEN_FIP/myir-st-optee/lib/libutee/tee_api_objects.c:39
    2090:	a9be7bfd 	stp	x29, x30, [sp, #-32]!
    2094:	910003fd 	mov	x29, sp
    2098:	f9000bf3 	str	x19, [sp, #16]
    209c:	aa0103f3 	mov	x19, x1
/media/home/beste/01_Pro/ld25x/bsp_hu/MYD-LD25X-Uboot-L2022.10-V1.0.0/GEN_FIP/myir-st-optee/lib/libutee/tee_api_objects.c:42
    20a0:	9400049a 	bl	3308 <_utee_cryp_obj_get_info>
/media/home/beste/01_Pro/ld25x/bsp_hu/MYD-LD25X-Uboot-L2022.10-V1.0.0/GEN_FIP/myir-st-optee/lib/libutee/tee_api_objects.c:44
    20a4:	34000040 	cbz	w0, 20ac <TEE_GetObjectInfo+0x1c>
/media/home/beste/01_Pro/ld25x/bsp_hu/MYD-LD25X-Uboot-L2022.10-V1.0.0/GEN_FIP/myir-st-optee/lib/libutee/tee_api_objects.c:45
    20a8:	9400036f 	bl	2e64 <TEE_Panic>
/media/home/beste/01_Pro/ld25x/bsp_hu/MYD-LD25X-Uboot-L2022.10-V1.0.0/GEN_FIP/myir-st-optee/lib/libutee/tee_api_objects.c:47
    20ac:	b9400261 	ldr	w1, [x19]
    20b0:	528017c0 	mov	w0, #0xbe                  	// #190
    20b4:	72b40000 	movk	w0, #0xa000, lsl #16
    20b8:	6b00003f 	cmp	w1, w0
    20bc:	54000081 	b.ne	20cc <TEE_GetObjectInfo+0x3c>  // b.any
/media/home/beste/01_Pro/ld25x/bsp_hu/MYD-LD25X-Uboot-L2022.10-V1.0.0/GEN_FIP/myir-st-optee/lib/libutee/tee_api_objects.c:49
    20c0:	2900fe7f 	stp	wzr, wzr, [x19, #4]
/media/home/beste/01_Pro/ld25x/bsp_hu/MYD-LD25X-Uboot-L2022.10-V1.0.0/GEN_FIP/myir-st-optee/lib/libutee/tee_api_objects.c:51
    20c4:	2901fe7f 	stp	wzr, wzr, [x19, #12]
/media/home/beste/01_Pro/ld25x/bsp_hu/MYD-LD25X-Uboot-L2022.10-V1.0.0/GEN_FIP/myir-st-optee/lib/libutee/tee_api_objects.c:53
    20c8:	2902fe7f 	stp	wzr, wzr, [x19, #20]
/media/home/beste/01_Pro/ld25x/bsp_hu/MYD-LD25X-Uboot-L2022.10-V1.0.0/GEN_FIP/myir-st-optee/lib/libutee/tee_api_objects.c:55
    20cc:	f9400bf3 	ldr	x19, [sp, #16]
    20d0:	a8c27bfd 	ldp	x29, x30, [sp], #32
    20d4:	d65f03c0 	ret

00000000000020d8 <TEE_GetObjectInfo1>:
TEE_GetObjectInfo1():
/media/home/beste/01_Pro/ld25x/bsp_hu/MYD-LD25X-Uboot-L2022.10-V1.0.0/GEN_FIP/myir-st-optee/lib/libutee/tee_api_objects.c:58
    20d8:	a9be7bfd 	stp	x29, x30, [sp, #-32]!
    20dc:	910003fd 	mov	x29, sp
    20e0:	f9000bf3 	str	x19, [sp, #16]
/media/home/beste/01_Pro/ld25x/bsp_hu/MYD-LD25X-Uboot-L2022.10-V1.0.0/GEN_FIP/myir-st-optee/lib/libutee/tee_api_objects.c:61
    20e4:	94000489 	bl	3308 <_utee_cryp_obj_get_info>
/media/home/beste/01_Pro/ld25x/bsp_hu/MYD-LD25X-Uboot-L2022.10-V1.0.0/GEN_FIP/myir-st-optee/lib/libutee/tee_api_objects.c:63
    20e8:	52800021 	mov	w1, #0x1                   	// #1
/media/home/beste/01_Pro/ld25x/bsp_hu/MYD-LD25X-Uboot-L2022.10-V1.0.0/GEN_FIP/myir-st-optee/lib/libutee/tee_api_objects.c:64
    20ec:	121e7802 	and	w2, w0, #0xfffffffd
/media/home/beste/01_Pro/ld25x/bsp_hu/MYD-LD25X-Uboot-L2022.10-V1.0.0/GEN_FIP/myir-st-optee/lib/libutee/tee_api_objects.c:63
    20f0:	7100001f 	cmp	w0, #0x0
    20f4:	72be0201 	movk	w1, #0xf010, lsl #16
/media/home/beste/01_Pro/ld25x/bsp_hu/MYD-LD25X-Uboot-L2022.10-V1.0.0/GEN_FIP/myir-st-optee/lib/libutee/tee_api_objects.c:61
    20f8:	2a0003f3 	mov	w19, w0
/media/home/beste/01_Pro/ld25x/bsp_hu/MYD-LD25X-Uboot-L2022.10-V1.0.0/GEN_FIP/myir-st-optee/lib/libutee/tee_api_objects.c:63
    20fc:	7a411044 	ccmp	w2, w1, #0x4, ne	// ne = any
    2100:	54000040 	b.eq	2108 <TEE_GetObjectInfo1+0x30>  // b.none
/media/home/beste/01_Pro/ld25x/bsp_hu/MYD-LD25X-Uboot-L2022.10-V1.0.0/GEN_FIP/myir-st-optee/lib/libutee/tee_api_objects.c:66
    2104:	94000358 	bl	2e64 <TEE_Panic>
/media/home/beste/01_Pro/ld25x/bsp_hu/MYD-LD25X-Uboot-L2022.10-V1.0.0/GEN_FIP/myir-st-optee/lib/libutee/tee_api_objects.c:69
    2108:	2a1303e0 	mov	w0, w19
    210c:	f9400bf3 	ldr	x19, [sp, #16]
    2110:	a8c27bfd 	ldp	x29, x30, [sp], #32
    2114:	d65f03c0 	ret

0000000000002118 <TEE_RestrictObjectUsage1>:
TEE_RestrictObjectUsage1():
/media/home/beste/01_Pro/ld25x/bsp_hu/MYD-LD25X-Uboot-L2022.10-V1.0.0/GEN_FIP/myir-st-optee/lib/libutee/tee_api_objects.c:93
    2118:	a9be7bfd 	stp	x29, x30, [sp, #-32]!
/media/home/beste/01_Pro/ld25x/bsp_hu/MYD-LD25X-Uboot-L2022.10-V1.0.0/GEN_FIP/myir-st-optee/lib/libutee/tee_api_objects.c:96
    211c:	2a0103e1 	mov	w1, w1
/media/home/beste/01_Pro/ld25x/bsp_hu/MYD-LD25X-Uboot-L2022.10-V1.0.0/GEN_FIP/myir-st-optee/lib/libutee/tee_api_objects.c:93
    2120:	910003fd 	mov	x29, sp
    2124:	f9000bf3 	str	x19, [sp, #16]
/media/home/beste/01_Pro/ld25x/bsp_hu/MYD-LD25X-Uboot-L2022.10-V1.0.0/GEN_FIP/myir-st-optee/lib/libutee/tee_api_objects.c:96
    2128:	9400047b 	bl	3314 <_utee_cryp_obj_restrict_usage>
/media/home/beste/01_Pro/ld25x/bsp_hu/MYD-LD25X-Uboot-L2022.10-V1.0.0/GEN_FIP/myir-st-optee/lib/libutee/tee_api_objects.c:99
    212c:	52800021 	mov	w1, #0x1                   	// #1
/media/home/beste/01_Pro/ld25x/bsp_hu/MYD-LD25X-Uboot-L2022.10-V1.0.0/GEN_FIP/myir-st-optee/lib/libutee/tee_api_objects.c:100
    2130:	121e7802 	and	w2, w0, #0xfffffffd
/media/home/beste/01_Pro/ld25x/bsp_hu/MYD-LD25X-Uboot-L2022.10-V1.0.0/GEN_FIP/myir-st-optee/lib/libutee/tee_api_objects.c:99
    2134:	7100001f 	cmp	w0, #0x0
    2138:	72be0201 	movk	w1, #0xf010, lsl #16
/media/home/beste/01_Pro/ld25x/bsp_hu/MYD-LD25X-Uboot-L2022.10-V1.0.0/GEN_FIP/myir-st-optee/lib/libutee/tee_api_objects.c:96
    213c:	2a0003f3 	mov	w19, w0
/media/home/beste/01_Pro/ld25x/bsp_hu/MYD-LD25X-Uboot-L2022.10-V1.0.0/GEN_FIP/myir-st-optee/lib/libutee/tee_api_objects.c:99
    2140:	7a411044 	ccmp	w2, w1, #0x4, ne	// ne = any
    2144:	54000040 	b.eq	214c <TEE_RestrictObjectUsage1+0x34>  // b.none
/media/home/beste/01_Pro/ld25x/bsp_hu/MYD-LD25X-Uboot-L2022.10-V1.0.0/GEN_FIP/myir-st-optee/lib/libutee/tee_api_objects.c:102
    2148:	94000347 	bl	2e64 <TEE_Panic>
/media/home/beste/01_Pro/ld25x/bsp_hu/MYD-LD25X-Uboot-L2022.10-V1.0.0/GEN_FIP/myir-st-optee/lib/libutee/tee_api_objects.c:105
    214c:	2a1303e0 	mov	w0, w19
    2150:	f9400bf3 	ldr	x19, [sp, #16]
    2154:	a8c27bfd 	ldp	x29, x30, [sp], #32
    2158:	d65f03c0 	ret

000000000000215c <TEE_RestrictObjectUsage>:
TEE_RestrictObjectUsage():
/media/home/beste/01_Pro/ld25x/bsp_hu/MYD-LD25X-Uboot-L2022.10-V1.0.0/GEN_FIP/myir-st-optee/lib/libutee/tee_api_objects.c:78
    215c:	a9bc7bfd 	stp	x29, x30, [sp, #-64]!
    2160:	910003fd 	mov	x29, sp
    2164:	a90153f3 	stp	x19, x20, [sp, #16]
    2168:	aa0003f3 	mov	x19, x0
    216c:	2a0103f4 	mov	w20, w1
/media/home/beste/01_Pro/ld25x/bsp_hu/MYD-LD25X-Uboot-L2022.10-V1.0.0/GEN_FIP/myir-st-optee/lib/libutee/tee_api_objects.c:82
    2170:	910083e1 	add	x1, sp, #0x20
    2174:	94000465 	bl	3308 <_utee_cryp_obj_get_info>
/media/home/beste/01_Pro/ld25x/bsp_hu/MYD-LD25X-Uboot-L2022.10-V1.0.0/GEN_FIP/myir-st-optee/lib/libutee/tee_api_objects.c:83
    2178:	b94023e1 	ldr	w1, [sp, #32]
    217c:	528017c0 	mov	w0, #0xbe                  	// #190
    2180:	72b40000 	movk	w0, #0xa000, lsl #16
    2184:	6b00003f 	cmp	w1, w0
    2188:	540000c0 	b.eq	21a0 <TEE_RestrictObjectUsage+0x44>  // b.none
/media/home/beste/01_Pro/ld25x/bsp_hu/MYD-LD25X-Uboot-L2022.10-V1.0.0/GEN_FIP/myir-st-optee/lib/libutee/tee_api_objects.c:86
    218c:	2a1403e1 	mov	w1, w20
    2190:	aa1303e0 	mov	x0, x19
    2194:	97ffffe1 	bl	2118 <TEE_RestrictObjectUsage1>
/media/home/beste/01_Pro/ld25x/bsp_hu/MYD-LD25X-Uboot-L2022.10-V1.0.0/GEN_FIP/myir-st-optee/lib/libutee/tee_api_objects.c:88
    2198:	34000040 	cbz	w0, 21a0 <TEE_RestrictObjectUsage+0x44>
/media/home/beste/01_Pro/ld25x/bsp_hu/MYD-LD25X-Uboot-L2022.10-V1.0.0/GEN_FIP/myir-st-optee/lib/libutee/tee_api_objects.c:89
    219c:	94000332 	bl	2e64 <TEE_Panic>
/media/home/beste/01_Pro/ld25x/bsp_hu/MYD-LD25X-Uboot-L2022.10-V1.0.0/GEN_FIP/myir-st-optee/lib/libutee/tee_api_objects.c:90
    21a0:	a94153f3 	ldp	x19, x20, [sp, #16]
    21a4:	a8c47bfd 	ldp	x29, x30, [sp], #64
    21a8:	d65f03c0 	ret

00000000000021ac <TEE_GetObjectBufferAttribute>:
TEE_GetObjectBufferAttribute():
/media/home/beste/01_Pro/ld25x/bsp_hu/MYD-LD25X-Uboot-L2022.10-V1.0.0/GEN_FIP/myir-st-optee/lib/libutee/tee_api_objects.c:110
    21ac:	a9b97bfd 	stp	x29, x30, [sp, #-112]!
    21b0:	910003fd 	mov	x29, sp
    21b4:	a90153f3 	stp	x19, x20, [sp, #16]
    21b8:	aa0303f4 	mov	x20, x3
    21bc:	a9025bf5 	stp	x21, x22, [sp, #32]
    21c0:	aa0003f5 	mov	x21, x0
    21c4:	2a0103f6 	mov	w22, w1
/media/home/beste/01_Pro/ld25x/bsp_hu/MYD-LD25X-Uboot-L2022.10-V1.0.0/GEN_FIP/myir-st-optee/lib/libutee/tee_api_objects.c:115
    21c8:	aa0303e0 	mov	x0, x3
    21cc:	d2800081 	mov	x1, #0x4                   	// #4
/media/home/beste/01_Pro/ld25x/bsp_hu/MYD-LD25X-Uboot-L2022.10-V1.0.0/GEN_FIP/myir-st-optee/lib/libutee/tee_api_objects.c:110
    21d0:	f9001bf7 	str	x23, [sp, #48]
    21d4:	aa0203f7 	mov	x23, x2
/media/home/beste/01_Pro/ld25x/bsp_hu/MYD-LD25X-Uboot-L2022.10-V1.0.0/GEN_FIP/myir-st-optee/lib/libutee/tee_api_objects.c:115
    21d8:	94000366 	bl	2f70 <__utee_check_inout_annotation>
/media/home/beste/01_Pro/ld25x/bsp_hu/MYD-LD25X-Uboot-L2022.10-V1.0.0/GEN_FIP/myir-st-optee/lib/libutee/tee_api_objects.c:117
    21dc:	910143e1 	add	x1, sp, #0x50
    21e0:	aa1503e0 	mov	x0, x21
    21e4:	94000449 	bl	3308 <_utee_cryp_obj_get_info>
/media/home/beste/01_Pro/ld25x/bsp_hu/MYD-LD25X-Uboot-L2022.10-V1.0.0/GEN_FIP/myir-st-optee/lib/libutee/tee_api_objects.c:118
    21e8:	35000420 	cbnz	w0, 226c <TEE_GetObjectBufferAttribute+0xc0>
/media/home/beste/01_Pro/ld25x/bsp_hu/MYD-LD25X-Uboot-L2022.10-V1.0.0/GEN_FIP/myir-st-optee/lib/libutee/tee_api_objects.c:122
    21ec:	37e80456 	tbnz	w22, #29, 2274 <TEE_GetObjectBufferAttribute+0xc8>
/media/home/beste/01_Pro/ld25x/bsp_hu/MYD-LD25X-Uboot-L2022.10-V1.0.0/GEN_FIP/myir-st-optee/lib/libutee/tee_api_objects.c:127
    21f0:	b9400280 	ldr	w0, [x20]
/media/home/beste/01_Pro/ld25x/bsp_hu/MYD-LD25X-Uboot-L2022.10-V1.0.0/GEN_FIP/myir-st-optee/lib/libutee/tee_api_objects.c:128
    21f4:	910123e3 	add	x3, sp, #0x48
    21f8:	aa1703e2 	mov	x2, x23
    21fc:	2a1603e1 	mov	w1, w22
/media/home/beste/01_Pro/ld25x/bsp_hu/MYD-LD25X-Uboot-L2022.10-V1.0.0/GEN_FIP/myir-st-optee/lib/libutee/tee_api_objects.c:127
    2200:	f90027e0 	str	x0, [sp, #72]
/media/home/beste/01_Pro/ld25x/bsp_hu/MYD-LD25X-Uboot-L2022.10-V1.0.0/GEN_FIP/myir-st-optee/lib/libutee/tee_api_objects.c:128
    2204:	aa1503e0 	mov	x0, x21
    2208:	94000446 	bl	3320 <_utee_cryp_obj_get_attr>
    220c:	2a0003f3 	mov	w19, w0
/media/home/beste/01_Pro/ld25x/bsp_hu/MYD-LD25X-Uboot-L2022.10-V1.0.0/GEN_FIP/myir-st-optee/lib/libutee/tee_api_objects.c:130
    2210:	f94027e0 	ldr	x0, [sp, #72]
    2214:	b9000280 	str	w0, [x20]
/media/home/beste/01_Pro/ld25x/bsp_hu/MYD-LD25X-Uboot-L2022.10-V1.0.0/GEN_FIP/myir-st-optee/lib/libutee/tee_api_objects.c:133
    2218:	7100027f 	cmp	w19, #0x0
    221c:	129ffee0 	mov	w0, #0xffff0008            	// #-65528
    2220:	7a401264 	ccmp	w19, w0, #0x4, ne	// ne = any
    2224:	54000180 	b.eq	2254 <TEE_GetObjectBufferAttribute+0xa8>  // b.none
/media/home/beste/01_Pro/ld25x/bsp_hu/MYD-LD25X-Uboot-L2022.10-V1.0.0/GEN_FIP/myir-st-optee/lib/libutee/tee_api_objects.c:135
    2228:	129ffde0 	mov	w0, #0xffff0010            	// #-65520
    222c:	6b00027f 	cmp	w19, w0
    2230:	52800020 	mov	w0, #0x1                   	// #1
    2234:	72be0200 	movk	w0, #0xf010, lsl #16
    2238:	7a401264 	ccmp	w19, w0, #0x4, ne	// ne = any
    223c:	540000c0 	b.eq	2254 <TEE_GetObjectBufferAttribute+0xa8>  // b.none
/media/home/beste/01_Pro/ld25x/bsp_hu/MYD-LD25X-Uboot-L2022.10-V1.0.0/GEN_FIP/myir-st-optee/lib/libutee/tee_api_objects.c:136
    2240:	11000800 	add	w0, w0, #0x2
    2244:	6b00027f 	cmp	w19, w0
    2248:	54000060 	b.eq	2254 <TEE_GetObjectBufferAttribute+0xa8>  // b.none
/media/home/beste/01_Pro/ld25x/bsp_hu/MYD-LD25X-Uboot-L2022.10-V1.0.0/GEN_FIP/myir-st-optee/lib/libutee/tee_api_objects.c:138
    224c:	2a1303e0 	mov	w0, w19
    2250:	94000305 	bl	2e64 <TEE_Panic>
/media/home/beste/01_Pro/ld25x/bsp_hu/MYD-LD25X-Uboot-L2022.10-V1.0.0/GEN_FIP/myir-st-optee/lib/libutee/tee_api_objects.c:141
    2254:	a9425bf5 	ldp	x21, x22, [sp, #32]
    2258:	2a1303e0 	mov	w0, w19
    225c:	a94153f3 	ldp	x19, x20, [sp, #16]
    2260:	f9401bf7 	ldr	x23, [sp, #48]
    2264:	a8c77bfd 	ldp	x29, x30, [sp], #112
    2268:	d65f03c0 	ret
    226c:	2a0003f3 	mov	w19, w0
    2270:	17ffffea 	b	2218 <TEE_GetObjectBufferAttribute+0x6c>
/media/home/beste/01_Pro/ld25x/bsp_hu/MYD-LD25X-Uboot-L2022.10-V1.0.0/GEN_FIP/myir-st-optee/lib/libutee/tee_api_objects.c:123
    2274:	129fff33 	mov	w19, #0xffff0006            	// #-65530
    2278:	17fffff5 	b	224c <TEE_GetObjectBufferAttribute+0xa0>

000000000000227c <TEE_GetObjectValueAttribute>:
TEE_GetObjectValueAttribute():
/media/home/beste/01_Pro/ld25x/bsp_hu/MYD-LD25X-Uboot-L2022.10-V1.0.0/GEN_FIP/myir-st-optee/lib/libutee/tee_api_objects.c:146
    227c:	a9b97bfd 	stp	x29, x30, [sp, #-112]!
    2280:	910003fd 	mov	x29, sp
    2284:	a90153f3 	stp	x19, x20, [sp, #16]
    2288:	aa0303f4 	mov	x20, x3
    228c:	a9025bf5 	stp	x21, x22, [sp, #32]
    2290:	aa0003f6 	mov	x22, x0
/media/home/beste/01_Pro/ld25x/bsp_hu/MYD-LD25X-Uboot-L2022.10-V1.0.0/GEN_FIP/myir-st-optee/lib/libutee/tee_api_objects.c:150
    2294:	d2800100 	mov	x0, #0x8                   	// #8
/media/home/beste/01_Pro/ld25x/bsp_hu/MYD-LD25X-Uboot-L2022.10-V1.0.0/GEN_FIP/myir-st-optee/lib/libutee/tee_api_objects.c:146
    2298:	f9001bf7 	str	x23, [sp, #48]
    229c:	aa0203f5 	mov	x21, x2
/media/home/beste/01_Pro/ld25x/bsp_hu/MYD-LD25X-Uboot-L2022.10-V1.0.0/GEN_FIP/myir-st-optee/lib/libutee/tee_api_objects.c:150
    22a0:	f90027e0 	str	x0, [sp, #72]
/media/home/beste/01_Pro/ld25x/bsp_hu/MYD-LD25X-Uboot-L2022.10-V1.0.0/GEN_FIP/myir-st-optee/lib/libutee/tee_api_objects.c:146
    22a4:	2a0103f7 	mov	w23, w1
/media/home/beste/01_Pro/ld25x/bsp_hu/MYD-LD25X-Uboot-L2022.10-V1.0.0/GEN_FIP/myir-st-optee/lib/libutee/tee_api_objects.c:152
    22a8:	b4000082 	cbz	x2, 22b8 <TEE_GetObjectValueAttribute+0x3c>
/media/home/beste/01_Pro/ld25x/bsp_hu/MYD-LD25X-Uboot-L2022.10-V1.0.0/GEN_FIP/myir-st-optee/lib/libutee/tee_api_objects.c:153
    22ac:	aa0203e0 	mov	x0, x2
    22b0:	d2800081 	mov	x1, #0x4                   	// #4
    22b4:	94000318 	bl	2f14 <__utee_check_out_annotation>
/media/home/beste/01_Pro/ld25x/bsp_hu/MYD-LD25X-Uboot-L2022.10-V1.0.0/GEN_FIP/myir-st-optee/lib/libutee/tee_api_objects.c:154
    22b8:	b4000094 	cbz	x20, 22c8 <TEE_GetObjectValueAttribute+0x4c>
/media/home/beste/01_Pro/ld25x/bsp_hu/MYD-LD25X-Uboot-L2022.10-V1.0.0/GEN_FIP/myir-st-optee/lib/libutee/tee_api_objects.c:155
    22bc:	aa1403e0 	mov	x0, x20
    22c0:	d2800081 	mov	x1, #0x4                   	// #4
    22c4:	94000314 	bl	2f14 <__utee_check_out_annotation>
/media/home/beste/01_Pro/ld25x/bsp_hu/MYD-LD25X-Uboot-L2022.10-V1.0.0/GEN_FIP/myir-st-optee/lib/libutee/tee_api_objects.c:157
    22c8:	910143e1 	add	x1, sp, #0x50
    22cc:	aa1603e0 	mov	x0, x22
    22d0:	9400040e 	bl	3308 <_utee_cryp_obj_get_info>
    22d4:	2a0003f3 	mov	w19, w0
/media/home/beste/01_Pro/ld25x/bsp_hu/MYD-LD25X-Uboot-L2022.10-V1.0.0/GEN_FIP/myir-st-optee/lib/libutee/tee_api_objects.c:158
    22d8:	35000100 	cbnz	w0, 22f8 <TEE_GetObjectValueAttribute+0x7c>
/media/home/beste/01_Pro/ld25x/bsp_hu/MYD-LD25X-Uboot-L2022.10-V1.0.0/GEN_FIP/myir-st-optee/lib/libutee/tee_api_objects.c:162
    22dc:	36e803b7 	tbz	w23, #29, 2350 <TEE_GetObjectValueAttribute+0xd4>
/media/home/beste/01_Pro/ld25x/bsp_hu/MYD-LD25X-Uboot-L2022.10-V1.0.0/GEN_FIP/myir-st-optee/lib/libutee/tee_api_objects.c:167
    22e0:	910123e3 	add	x3, sp, #0x48
    22e4:	910103e2 	add	x2, sp, #0x40
    22e8:	2a1703e1 	mov	w1, w23
    22ec:	aa1603e0 	mov	x0, x22
    22f0:	9400040c 	bl	3320 <_utee_cryp_obj_get_attr>
    22f4:	2a0003f3 	mov	w19, w0
/media/home/beste/01_Pro/ld25x/bsp_hu/MYD-LD25X-Uboot-L2022.10-V1.0.0/GEN_FIP/myir-st-optee/lib/libutee/tee_api_objects.c:171
    22f8:	7100027f 	cmp	w19, #0x0
    22fc:	129ffee0 	mov	w0, #0xffff0008            	// #-65528
    2300:	7a401264 	ccmp	w19, w0, #0x4, ne	// ne = any
    2304:	540002a0 	b.eq	2358 <TEE_GetObjectValueAttribute+0xdc>  // b.none
/media/home/beste/01_Pro/ld25x/bsp_hu/MYD-LD25X-Uboot-L2022.10-V1.0.0/GEN_FIP/myir-st-optee/lib/libutee/tee_api_objects.c:173
    2308:	52800020 	mov	w0, #0x1                   	// #1
    230c:	121e7a61 	and	w1, w19, #0xfffffffd
    2310:	72be0200 	movk	w0, #0xf010, lsl #16
    2314:	6b00003f 	cmp	w1, w0
    2318:	54000060 	b.eq	2324 <TEE_GetObjectValueAttribute+0xa8>  // b.none
/media/home/beste/01_Pro/ld25x/bsp_hu/MYD-LD25X-Uboot-L2022.10-V1.0.0/GEN_FIP/myir-st-optee/lib/libutee/tee_api_objects.c:175
    231c:	2a1303e0 	mov	w0, w19
    2320:	940002d1 	bl	2e64 <TEE_Panic>
/media/home/beste/01_Pro/ld25x/bsp_hu/MYD-LD25X-Uboot-L2022.10-V1.0.0/GEN_FIP/myir-st-optee/lib/libutee/tee_api_objects.c:177
    2324:	f94027e0 	ldr	x0, [sp, #72]
    2328:	f100201f 	cmp	x0, #0x8
    232c:	54000060 	b.eq	2338 <TEE_GetObjectValueAttribute+0xbc>  // b.none
/media/home/beste/01_Pro/ld25x/bsp_hu/MYD-LD25X-Uboot-L2022.10-V1.0.0/GEN_FIP/myir-st-optee/lib/libutee/tee_api_objects.c:178
    2330:	52800000 	mov	w0, #0x0                   	// #0
    2334:	940002cc 	bl	2e64 <TEE_Panic>
/media/home/beste/01_Pro/ld25x/bsp_hu/MYD-LD25X-Uboot-L2022.10-V1.0.0/GEN_FIP/myir-st-optee/lib/libutee/tee_api_objects.c:188
    2338:	a9425bf5 	ldp	x21, x22, [sp, #32]
    233c:	2a1303e0 	mov	w0, w19
    2340:	a94153f3 	ldp	x19, x20, [sp, #16]
    2344:	f9401bf7 	ldr	x23, [sp, #48]
    2348:	a8c77bfd 	ldp	x29, x30, [sp], #112
    234c:	d65f03c0 	ret
/media/home/beste/01_Pro/ld25x/bsp_hu/MYD-LD25X-Uboot-L2022.10-V1.0.0/GEN_FIP/myir-st-optee/lib/libutee/tee_api_objects.c:163
    2350:	129fff33 	mov	w19, #0xffff0006            	// #-65530
    2354:	17fffff2 	b	231c <TEE_GetObjectValueAttribute+0xa0>
/media/home/beste/01_Pro/ld25x/bsp_hu/MYD-LD25X-Uboot-L2022.10-V1.0.0/GEN_FIP/myir-st-optee/lib/libutee/tee_api_objects.c:177
    2358:	f94027e0 	ldr	x0, [sp, #72]
    235c:	f100201f 	cmp	x0, #0x8
    2360:	54000060 	b.eq	236c <TEE_GetObjectValueAttribute+0xf0>  // b.none
/media/home/beste/01_Pro/ld25x/bsp_hu/MYD-LD25X-Uboot-L2022.10-V1.0.0/GEN_FIP/myir-st-optee/lib/libutee/tee_api_objects.c:178
    2364:	52800000 	mov	w0, #0x0                   	// #0
    2368:	940002bf 	bl	2e64 <TEE_Panic>
/media/home/beste/01_Pro/ld25x/bsp_hu/MYD-LD25X-Uboot-L2022.10-V1.0.0/GEN_FIP/myir-st-optee/lib/libutee/tee_api_objects.c:180
    236c:	35000113 	cbnz	w19, 238c <TEE_GetObjectValueAttribute+0x110>
/media/home/beste/01_Pro/ld25x/bsp_hu/MYD-LD25X-Uboot-L2022.10-V1.0.0/GEN_FIP/myir-st-optee/lib/libutee/tee_api_objects.c:181
    2370:	b4000075 	cbz	x21, 237c <TEE_GetObjectValueAttribute+0x100>
/media/home/beste/01_Pro/ld25x/bsp_hu/MYD-LD25X-Uboot-L2022.10-V1.0.0/GEN_FIP/myir-st-optee/lib/libutee/tee_api_objects.c:182
    2374:	b94043e0 	ldr	w0, [sp, #64]
    2378:	b90002a0 	str	w0, [x21]
/media/home/beste/01_Pro/ld25x/bsp_hu/MYD-LD25X-Uboot-L2022.10-V1.0.0/GEN_FIP/myir-st-optee/lib/libutee/tee_api_objects.c:183
    237c:	b4fffdf4 	cbz	x20, 2338 <TEE_GetObjectValueAttribute+0xbc>
/media/home/beste/01_Pro/ld25x/bsp_hu/MYD-LD25X-Uboot-L2022.10-V1.0.0/GEN_FIP/myir-st-optee/lib/libutee/tee_api_objects.c:184
    2380:	b94047e0 	ldr	w0, [sp, #68]
    2384:	b9000280 	str	w0, [x20]
    2388:	17ffffec 	b	2338 <TEE_GetObjectValueAttribute+0xbc>
    238c:	129ffef3 	mov	w19, #0xffff0008            	// #-65528
/media/home/beste/01_Pro/ld25x/bsp_hu/MYD-LD25X-Uboot-L2022.10-V1.0.0/GEN_FIP/myir-st-optee/lib/libutee/tee_api_objects.c:187
    2390:	17ffffea 	b	2338 <TEE_GetObjectValueAttribute+0xbc>

0000000000002394 <TEE_CloseObject>:
TEE_CloseObject():
/media/home/beste/01_Pro/ld25x/bsp_hu/MYD-LD25X-Uboot-L2022.10-V1.0.0/GEN_FIP/myir-st-optee/lib/libutee/tee_api_objects.c:194
    2394:	b4000120 	cbz	x0, 23b8 <TEE_CloseObject+0x24>
/media/home/beste/01_Pro/ld25x/bsp_hu/MYD-LD25X-Uboot-L2022.10-V1.0.0/GEN_FIP/myir-st-optee/lib/libutee/tee_api_objects.c:191
    2398:	a9bf7bfd 	stp	x29, x30, [sp, #-16]!
    239c:	910003fd 	mov	x29, sp
/media/home/beste/01_Pro/ld25x/bsp_hu/MYD-LD25X-Uboot-L2022.10-V1.0.0/GEN_FIP/myir-st-optee/lib/libutee/tee_api_objects.c:197
    23a0:	940003e6 	bl	3338 <_utee_cryp_obj_close>
/media/home/beste/01_Pro/ld25x/bsp_hu/MYD-LD25X-Uboot-L2022.10-V1.0.0/GEN_FIP/myir-st-optee/lib/libutee/tee_api_objects.c:198
    23a4:	34000060 	cbz	w0, 23b0 <TEE_CloseObject+0x1c>
/media/home/beste/01_Pro/ld25x/bsp_hu/MYD-LD25X-Uboot-L2022.10-V1.0.0/GEN_FIP/myir-st-optee/lib/libutee/tee_api_objects.c:200
    23a8:	a8c17bfd 	ldp	x29, x30, [sp], #16
/media/home/beste/01_Pro/ld25x/bsp_hu/MYD-LD25X-Uboot-L2022.10-V1.0.0/GEN_FIP/myir-st-optee/lib/libutee/tee_api_objects.c:199
    23ac:	140002ae 	b	2e64 <TEE_Panic>
/media/home/beste/01_Pro/ld25x/bsp_hu/MYD-LD25X-Uboot-L2022.10-V1.0.0/GEN_FIP/myir-st-optee/lib/libutee/tee_api_objects.c:200
    23b0:	a8c17bfd 	ldp	x29, x30, [sp], #16
    23b4:	d65f03c0 	ret
    23b8:	d65f03c0 	ret

00000000000023bc <TEE_AllocateTransientObject>:
TEE_AllocateTransientObject():
/media/home/beste/01_Pro/ld25x/bsp_hu/MYD-LD25X-Uboot-L2022.10-V1.0.0/GEN_FIP/myir-st-optee/lib/libutee/tee_api_objects.c:207
    23bc:	a9bc7bfd 	stp	x29, x30, [sp, #-64]!
    23c0:	910003fd 	mov	x29, sp
    23c4:	a90153f3 	stp	x19, x20, [sp, #16]
    23c8:	2a0003f3 	mov	w19, w0
    23cc:	aa0203f4 	mov	x20, x2
/media/home/beste/01_Pro/ld25x/bsp_hu/MYD-LD25X-Uboot-L2022.10-V1.0.0/GEN_FIP/myir-st-optee/lib/libutee/tee_api_objects.c:211
    23d0:	aa0203e0 	mov	x0, x2
/media/home/beste/01_Pro/ld25x/bsp_hu/MYD-LD25X-Uboot-L2022.10-V1.0.0/GEN_FIP/myir-st-optee/lib/libutee/tee_api_objects.c:207
    23d4:	f90013f5 	str	x21, [sp, #32]
    23d8:	2a0103f5 	mov	w21, w1
/media/home/beste/01_Pro/ld25x/bsp_hu/MYD-LD25X-Uboot-L2022.10-V1.0.0/GEN_FIP/myir-st-optee/lib/libutee/tee_api_objects.c:211
    23dc:	d2800101 	mov	x1, #0x8                   	// #8
    23e0:	940002cd 	bl	2f14 <__utee_check_out_annotation>
/media/home/beste/01_Pro/ld25x/bsp_hu/MYD-LD25X-Uboot-L2022.10-V1.0.0/GEN_FIP/myir-st-optee/lib/libutee/tee_api_objects.c:213
    23e4:	2a1503e1 	mov	w1, w21
    23e8:	2a1303e0 	mov	w0, w19
    23ec:	9100f3e2 	add	x2, sp, #0x3c
    23f0:	940003cf 	bl	332c <_utee_cryp_obj_alloc>
/media/home/beste/01_Pro/ld25x/bsp_hu/MYD-LD25X-Uboot-L2022.10-V1.0.0/GEN_FIP/myir-st-optee/lib/libutee/tee_api_objects.c:215
    23f4:	7100001f 	cmp	w0, #0x0
    23f8:	129ffe61 	mov	w1, #0xffff000c            	// #-65524
/media/home/beste/01_Pro/ld25x/bsp_hu/MYD-LD25X-Uboot-L2022.10-V1.0.0/GEN_FIP/myir-st-optee/lib/libutee/tee_api_objects.c:213
    23fc:	2a0003f3 	mov	w19, w0
/media/home/beste/01_Pro/ld25x/bsp_hu/MYD-LD25X-Uboot-L2022.10-V1.0.0/GEN_FIP/myir-st-optee/lib/libutee/tee_api_objects.c:215
