
../build/myb-stm32mp257x-2GB-ca35tdcid-ostl/ta/stm32mp_nvmem/1a8342cc-81a5-4512-99fe-9e2b3e37d626.elf:     file format elf64-littleaarch64
../build/myb-stm32mp257x-2GB-ca35tdcid-ostl/ta/stm32mp_nvmem/1a8342cc-81a5-4512-99fe-9e2b3e37d626.elf
architecture: aarch64, flags 0x00000150:
HAS_SYMS, DYNAMIC, D_PAGED
start address 0x00000000000004b8

Program Header:
    LOAD off    0x0000000000001000 vaddr 0x0000000000000000 paddr 0x0000000000000000 align 2**12
         filesz 0x0000000000013360 memsz 0x0000000000013360 flags r-x
    LOAD off    0x0000000000015000 vaddr 0x0000000000014000 paddr 0x0000000000014000 align 2**12
         filesz 0x000000000000057c memsz 0x0000000000007628 flags rw-
 DYNAMIC off    0x0000000000015000 vaddr 0x0000000000014000 paddr 0x0000000000014000 align 2**3
         filesz 0x0000000000000110 memsz 0x0000000000000110 flags rw-
   STACK off    0x0000000000000000 vaddr 0x0000000000000000 paddr 0x0000000000000000 align 2**4
         filesz 0x0000000000000000 memsz 0x0000000000000000 flags rw-

Dynamic Section:
  HASH                 0x0000000000013048
  GNU_HASH             0x0000000000012f58
  STRTAB               0x0000000000013018
  SYMTAB               0x0000000000012f88
  STRSZ                0x000000000000002e
  SYMENT               0x0000000000000018
  DEBUG                0x0000000000000000
  RELA                 0x0000000000013078
  RELASZ               0x0000000000000498
  RELAENT              0x0000000000000018
  FLAGS_1              0x0000000008000000
  RELACOUNT            0x000000000000001f
private flags = 0x0:

Sections:
Idx Name          Size      VMA               LMA               File off  Algn
  0 .ta_head      00000020  0000000000000000  0000000000000000  00001000  2**3
                  CONTENTS, ALLOC, LOAD, READONLY, DATA
  1 .text         0000ecb4  0000000000000020  0000000000000020  00001020  2**4
                  CONTENTS, ALLOC, LOAD, READONLY, CODE
  2 .eh_frame     00002f98  000000000000ecd8  000000000000ecd8  0000fcd8  2**3
                  CONTENTS, ALLOC, LOAD, READONLY, DATA
  3 .rodata       000012e5  0000000000011c70  0000000000011c70  00012c70  2**3
                  CONTENTS, ALLOC, LOAD, READONLY, DATA
  4 .gnu.hash     00000030  0000000000012f58  0000000000012f58  00013f58  2**3
                  CONTENTS, ALLOC, LOAD, READONLY, DATA
  5 .dynsym       00000090  0000000000012f88  0000000000012f88  00013f88  2**3
                  CONTENTS, ALLOC, LOAD, READONLY, DATA
  6 .dynstr       0000002e  0000000000013018  0000000000013018  00014018  2**0
                  CONTENTS, ALLOC, LOAD, READONLY, DATA
  7 .hash         0000002c  0000000000013048  0000000000013048  00014048  2**3
                  CONTENTS, ALLOC, LOAD, READONLY, DATA
  8 .rela.dyn     000002e8  0000000000013078  0000000000013078  00014078  2**3
                  CONTENTS, ALLOC, LOAD, READONLY, DATA
  9 .dynamic      00000110  0000000000014000  0000000000014000  00015000  2**3
                  CONTENTS, ALLOC, LOAD, DATA
 10 .got          000000b0  0000000000014110  0000000000014110  00015110  2**3
                  CONTENTS, ALLOC, LOAD, DATA
 11 .rela.got     000001b0  00000000000141c0  00000000000141c0  000151c0  2**3
                  CONTENTS, ALLOC, LOAD, READONLY, DATA
 12 .data         0000020c  0000000000014370  0000000000014370  00015370  2**3
                  CONTENTS, ALLOC, LOAD, DATA
 13 .bss          000070a8  0000000000014580  0000000000014580  0001557c  2**3
                  ALLOC
 14 .debug_info   0001cd03  0000000000000000  0000000000000000  0001557c  2**0
                  CONTENTS, READONLY, DEBUGGING, OCTETS
 15 .debug_abbrev 00004852  0000000000000000  0000000000000000  0003227f  2**0
                  CONTENTS, READONLY, DEBUGGING, OCTETS
 16 .debug_loclists 00011e8e  0000000000000000  0000000000000000  00036ad1  2**0
                  CONTENTS, READONLY, DEBUGGING, OCTETS
 17 .debug_aranges 00000980  0000000000000000  0000000000000000  00048960  2**4
                  CONTENTS, READONLY, DEBUGGING, OCTETS
 18 .debug_rnglists 000009a2  0000000000000000  0000000000000000  000492e0  2**0
                  CONTENTS, READONLY, DEBUGGING, OCTETS
 19 .debug_macro  000190fd  0000000000000000  0000000000000000  00049c82  2**0
                  CONTENTS, READONLY, DEBUGGING, OCTETS
 20 .debug_line   0000e051  0000000000000000  0000000000000000  00062d7f  2**0
                  CONTENTS, READONLY, DEBUGGING, OCTETS
 21 .debug_str    0001aeb3  0000000000000000  0000000000000000  00070dd0  2**0
                  CONTENTS, READONLY, DEBUGGING, OCTETS
 22 .debug_line_str 00000af0  0000000000000000  0000000000000000  0008bc83  2**0
                  CONTENTS, READONLY, DEBUGGING, OCTETS
 23 .comment      00000012  0000000000000000  0000000000000000  0008c773  2**0
                  CONTENTS, READONLY
SYMBOL TABLE:
0000000000000000 l    d  .ta_head	0000000000000000 .ta_head
0000000000000020 l    d  .text	0000000000000000 .text
000000000000ecd8 l    d  .eh_frame	0000000000000000 .eh_frame
0000000000011c70 l    d  .rodata	0000000000000000 .rodata
0000000000012f58 l    d  .gnu.hash	0000000000000000 .gnu.hash
0000000000012f88 l    d  .dynsym	0000000000000000 .dynsym
0000000000013018 l    d  .dynstr	0000000000000000 .dynstr
0000000000013048 l    d  .hash	0000000000000000 .hash
0000000000013078 l    d  .rela.dyn	0000000000000000 .rela.dyn
0000000000014000 l    d  .dynamic	0000000000000000 .dynamic
0000000000014110 l    d  .got	0000000000000000 .got
00000000000141c0 l    d  .rela.got	0000000000000000 .rela.got
0000000000014370 l    d  .data	0000000000000000 .data
0000000000014580 l    d  .bss	0000000000000000 .bss
0000000000000000 l    d  .debug_info	0000000000000000 .debug_info
0000000000000000 l    d  .debug_abbrev	0000000000000000 .debug_abbrev
0000000000000000 l    d  .debug_loclists	0000000000000000 .debug_loclists
0000000000000000 l    d  .debug_aranges	0000000000000000 .debug_aranges
0000000000000000 l    d  .debug_rnglists	0000000000000000 .debug_rnglists
0000000000000000 l    d  .debug_macro	0000000000000000 .debug_macro
0000000000000000 l    d  .debug_line	0000000000000000 .debug_line
0000000000000000 l    d  .debug_str	0000000000000000 .debug_str
0000000000000000 l    d  .debug_line_str	0000000000000000 .debug_line_str
0000000000000000 l    d  .comment	0000000000000000 .comment
0000000000000000 l    df *ABS*	0000000000000000 user_ta_header.c
0000000000011c78 l     O .rodata	0000000000000004 __compound_literal.4
0000000000011c7c l     O .rodata	0000000000000004 __compound_literal.3
0000000000011c80 l     O .rodata	0000000000000001 __compound_literal.2
0000000000011c81 l     O .rodata	0000000000000001 __compound_literal.1
0000000000011c82 l     O .rodata	0000000000000001 __compound_literal.0
0000000000000000 l    df *ABS*	0000000000000000 memcpy.c
0000000000000000 l    df *ABS*	0000000000000000 ta_stm32mp_nvmem.c
0000000000011c94 l     O .rodata	0000000000000010 uuid.2
0000000000011ca4 l     O .rodata	000000000000001b __func__.1
0000000000014580 l     O .bss	0000000000000008 session_refcount
0000000000014588 l     O .bss	0000000000000008 pta_session
0000000000000000 l    df *ABS*	0000000000000000 trace.c
0000000000012174 l     O .rodata	0000000000000005 lvl_strs.0
0000000000000000 l    df *ABS*	0000000000000000 snprintk.c
00000000000008c0 l     F .text	0000000000000be4 kprintf.constprop.0
0000000000011d62 l     O .rodata	0000000000000011 hexdigits
0000000000011d73 l     O .rodata	0000000000000011 HEXDIGITS
0000000000000000 l    df *ABS*	0000000000000000 memchr.c
0000000000000000 l    df *ABS*	0000000000000000 strlen.c
0000000000000000 l    df *ABS*	0000000000000000 trace_ext.c
0000000000000000 l    df *ABS*	0000000000000000 tee_api.c
00000000000016ac l     F .text	00000000000000a8 update_out_param
0000000000001814 l     F .text	00000000000001c0 copy_param
00000000000121c2 l     O .rodata	000000000000000b __func__.0
0000000000014590 l     O .bss	0000000000000008 tee_api_instance_data
0000000000000000 l    df *ABS*	0000000000000000 tee_api_panic.c
0000000000001e0c l     F .text	000000000000001c check_access
0000000000001e30 l     F .text	0000000000000008 check_res.part.0
0000000000001e38 l     F .text	000000000000005c __utee_check_outbuf_annotation.localalias
0000000000000000 l    df *ABS*	0000000000000000 tee_api_property.c
0000000000001f60 l     F .text	000000000000006c propset_get
0000000000001fcc l     F .text	000000000000002c is_propset_pseudo_handle
0000000000001ff8 l     F .text	0000000000000114 propget_get_ext_prop
000000000000210c l     F .text	0000000000000194 propget_get_property
0000000000011d84 l     O .rodata	0000000000000004 __compound_literal.3
0000000000011d88 l     O .rodata	0000000000000004 __compound_literal.2
0000000000011d8c l     O .rodata	0000000000000004 __compound_literal.1
0000000000011d90 l     O .rodata	0000000000000004 __compound_literal.0
0000000000000000 l    df *ABS*	0000000000000000 tee_system_pta.c
0000000000002a60 l     F .text	0000000000000084 invoke_system_pta
0000000000011d94 l     O .rodata	0000000000000010 uuid.2
0000000000011da4 l     O .rodata	000000000000000a __func__.1
0000000000011dae l     O .rodata	0000000000000017 __func__.0
0000000000014598 l     O .bss	0000000000000008 sess.3
0000000000000000 l    df *ABS*	0000000000000000 utee_syscalls_a64.o
0000000000000000 l    df *ABS*	0000000000000000 user_ta_entry.c
0000000000002f4c l     F .text	00000000000000b0 _get_fn_array
0000000000002ffc l     F .text	000000000000005c _fini_iterate_phdr_cb
0000000000003058 l     F .text	0000000000000028 ta_header_get_session
0000000000003080 l     F .text	0000000000000070 to_utee_params
00000000000030f0 l     F .text	0000000000000060 from_utee_params
0000000000003150 l     F .text	0000000000000094 _init_iterate_phdr_cb
0000000000003314 l     F .text	0000000000000094 ta_header_remove_session
0000000000012308 l     O .rodata	0000000000000016 __func__.0
00000000000145a0 l     O .bss	0000000000000008 _num_mod_init
00000000000145a8 l     O .bss	0000000000000001 init_done
0000000000014490 l     O .data	0000000000000010 ta_sessions
00000000000144a0 l     O .data	0000000000000010 __phdr_info_head
0000000000000000 l    df *ABS*	0000000000000000 abort.c
0000000000000000 l    df *ABS*	0000000000000000 base64.c
0000000000012325 l     O .rodata	0000000000000041 base64_table
0000000000000000 l    df *ABS*	0000000000000000 tee_api_arith_mpi.c
0000000000003858 l     F .text	0000000000000030 api_panic
0000000000003888 l     F .text	0000000000000030 mpi_panic
00000000000038b8 l     F .text	0000000000000098 get_mpi
0000000000003950 l     F .text	0000000000000068 copy_mpi_to_bigint
00000000000039b8 l     F .text	0000000000000120 bigint_binary
0000000000003ad8 l     F .text	0000000000000020 mpi_is_odd
0000000000003af8 l     F .text	0000000000000028 rng_read
0000000000003b20 l     F .text	0000000000000540 mpi_egcd
0000000000014608 l     O .bss	0000000000003000 data.17
00000000000043f8 l     F .text	00000000000001a4 bigint_binary_mod
000000000001241d l     O .rodata	0000000000000008 __func__.14
0000000000012425 l     O .rodata	000000000000000e __func__.10
0000000000012433 l     O .rodata	0000000000000009 __func__.2
000000000001243c l     O .rodata	0000000000000012 __func__.16
000000000001244e l     O .rodata	000000000000000f __func__.15
000000000001245d l     O .rodata	000000000000001f __func__.13
000000000001247c l     O .rodata	0000000000000019 __func__.12
0000000000012495 l     O .rodata	0000000000000012 __func__.6
00000000000124a7 l     O .rodata	0000000000000015 __func__.11
00000000000124bc l     O .rodata	000000000000000e __func__.9
00000000000124ca l     O .rodata	000000000000000e __func__.8
00000000000124d8 l     O .rodata	000000000000000e __func__.7
00000000000124e6 l     O .rodata	0000000000000011 __func__.5
00000000000124f7 l     O .rodata	0000000000000018 __func__.4
000000000001250f l     O .rodata	000000000000001d __func__.3
000000000001252c l     O .rodata	0000000000000019 __func__.1
0000000000012545 l     O .rodata	0000000000000015 __func__.0
0000000000000000 l    df *ABS*	0000000000000000 tcb.c
00000000000125f0 l     O .rodata	0000000000000010 __func__.1
0000000000012600 l     O .rodata	0000000000000010 __func__.0
0000000000017608 l     O .bss	0000000000000008 _tls_size
0000000000017610 l     O .bss	0000000000000008 _tcb
0000000000000000 l    df *ABS*	0000000000000000 assert.c
0000000000000000 l    df *ABS*	0000000000000000 bignum.c
0000000000005560 l     F .text	0000000000000058 mpi_get_digit
00000000000055b8 l     F .text	000000000000040c mpi_mul_hlp
00000000000059c4 l     F .text	0000000000000148 mpi_montmul
0000000000005b0c l     F .text	0000000000000040 mpi_montred
0000000000005b4c l     F .text	0000000000000038 mpi_montg_init.isra.0
0000000000005b84 l     F .text	0000000000000074 mpi_bigendian_to_host.part.0
0000000000005bf8 l     F .text	00000000000000c0 mpi_fill_random_internal
0000000000005e48 l     F .text	000000000000006c mbedtls_mpi_resize_clear
0000000000007988 l     F .text	0000000000000094 mpi_check_small_factors
0000000000008294 l     F .text	0000000000000270 mpi_miller_rabin
0000000000011dc8 l     O .rodata	00000000000002a0 small_prime
0000000000012068 l     O .rodata	0000000000000024 gcd_pairs
0000000000000000 l    df *ABS*	0000000000000000 constant_time.c
000000000000928c l     F .text	0000000000000020 mbedtls_ct_uchar_mask_of_range
0000000000000000 l    df *ABS*	0000000000000000 platform_util.c
00000000000144b0 l     O .data	0000000000000008 memset_func
0000000000000000 l    df *ABS*	0000000000000000 bget_malloc.c
0000000000009a64 l     F .text	0000000000000024 myrand
0000000000009a88 l     F .text	0000000000000010 _assert_trap
0000000000009a98 l     F .text	0000000000000028 bget_buf_size.part.0
000000000000a338 l     F .text	0000000000000058 stats.constprop.0
000000000000a990 l     F .text	00000000000000d4 gen_malloc_add_pool
0000000000012e36 l     O .rodata	000000000000000e __func__.2
0000000000012e44 l     O .rodata	0000000000000005 __func__.9
0000000000012e49 l     O .rodata	0000000000000006 __func__.8
0000000000012e4f l     O .rodata	0000000000000005 __func__.6
0000000000012e54 l     O .rodata	0000000000000006 __func__.7
0000000000012e5a l     O .rodata	0000000000000006 __func__.5
0000000000012e60 l     O .rodata	0000000000000007 __func__.4
0000000000012e67 l     O .rodata	000000000000000f __func__.3
0000000000012e76 l     O .rodata	0000000000000003 CSWTCH.112
0000000000012e79 l     O .rodata	0000000000000014 __func__.1
0000000000012e8d l     O .rodata	0000000000000013 __func__.0
00000000000144b8 l     O .data	0000000000000008 next
0000000000017620 l     O .bss	0000000000000008 bchain
00000000000144c0 l     O .data	0000000000000038 mypoolset
00000000000144f8 l     O .data	0000000000000080 malloc_ctx
0000000000000000 l    df *ABS*	0000000000000000 snprintf.c
0000000000000000 l    df *ABS*	0000000000000000 memmove.c
0000000000000000 l    df *ABS*	0000000000000000 memset.c
0000000000000000 l    df *ABS*	0000000000000000 strcmp.c
0000000000000000 l    df *ABS*	0000000000000000 strlcpy.c
0000000000000000 l    df *ABS*	0000000000000000 mempool.c
0000000000012f29 l     O .rodata	0000000000000013 __func__.2
0000000000012f3c l     O .rodata	000000000000000b __func__.1
0000000000012f47 l     O .rodata	000000000000000e __func__.0
0000000000000000 l    df *ABS*	0000000000000000 consttime_memcmp.c
0000000000000000 l    df *ABS*	0000000000000000 tee_api_operations.c
000000000000b0dc l     F .text	0000000000000068 __tee_alg_get_main_alg
000000000000b144 l     F .text	000000000000021c tee_buffer_update
0000000000000000 l    df *ABS*	0000000000000000 tee_api_objects.c
0000000000000000 l    df *ABS*	0000000000000000 
0000000000014000 l     O *ABS*	0000000000000000 _DYNAMIC
0000000000014128 l     O *ABS*	0000000000000000 _GLOBAL_OFFSET_TABLE_
0000000000001670 g     F .text	000000000000003c putchar
000000000000e370 g     F .text	00000000000000d0 TEE_PopulateTransientObject
0000000000005008 g     F .text	0000000000000004 TEE_BigIntConvertToFMM
0000000000004b68 g     F .text	000000000000000c TEE_BigIntSquareMod
000000000000459c g     F .text	000000000000016c TEE_BigIntShiftRight
000000000000ab50 g     F .text	0000000000000004 raw_malloc_add_pool
0000000000002be8 g     F .text	00000000000000b8 tee_invoke_supp_plugin
0000000000005d5c g     F .text	00000000000000ec mbedtls_mpi_grow
000000000000c588 g     F .text	0000000000000070 TEE_DigestUpdate
0000000000001dc4 g     F .text	0000000000000030 TEE_Realloc
000000000000c28c g     F .text	00000000000001bc TEE_SetOperationKey2
0000000000001f34 g     F .text	000000000000002c __utee_check_inout_annotation
000000000000a77c g     F .text	0000000000000010 raw_free
0000000000001568 g     F .text	00000000000000c8 printf
000000000000e440 g     F .text	0000000000000050 TEE_InitRefAttribute
0000000000002cb8 g     F .text	000000000000000c _utee_log
0000000000001ac8 g     F .text	0000000000000124 TEE_InvokeTACommand
0000000000001e38 g     F .text	000000000000005c __utee_check_outbuf_annotation
0000000000005cc8 g     F .text	0000000000000028 mbedtls_mpi_init_mempool
0000000000002e38 g     F .text	000000000000000c _utee_cryp_random_number_generate
00000000000064ac g     F .text	00000000000000c4 mbedtls_mpi_write_binary
000000000000d0e8 g     F .text	00000000000001bc TEE_AEEncryptFinal
00000000000007f4 g     F .text	0000000000000058 vsnprintk
0000000000006cd4 g     F .text	0000000000000044 mbedtls_mpi_sub_int
000000000000ae10 g     F .text	0000000000000058 memmove
000000000000ad40 g     F .text	0000000000000078 snprintf
00000000000043b0 g     F .text	0000000000000048 TEE_BigIntCmpS32
00000000000097d8 g     F .text	000000000000026c mbedtls_ct_rsaes_pkcs1_v15_unpadding
000000000000e490 g     F .text	000000000000004c TEE_InitValueAttribute
0000000000005eb4 g     F .text	0000000000000118 mbedtls_mpi_shrink
0000000000004794 g     F .text	000000000000000c TEE_BigIntAdd
0000000000002dd8 g     F .text	000000000000000c _utee_cryp_obj_restrict_usage
0000000000011c88 g     O .rodata	0000000000000008 ta_heap_size
000000000000e31c g     F .text	0000000000000054 TEE_ResetTransientObject
0000000000002e80 g     F .text	000000000000000c _utee_asymm_operate
00000000000035f4 g     F .text	0000000000000018 _base64_enc_len
0000000000006f34 g     F .text	00000000000001d8 mbedtls_mpi_read_string
000000000000c6dc g     F .text	00000000000000e0 TEE_CipherInit
00000000000047ac g     F .text	00000000000000b0 TEE_BigIntNeg
0000000000002ed4 g     F .text	000000000000000c _utee_storage_free_enum
0000000000000020 g       .text	0000000000000000 __text_start
00000000000029b4 g     F .text	00000000000000ac TEE_GetNextProperty
000000000000e984 g     F .text	0000000000000050 TEE_StartPersistentObjectEnumerator
0000000000006680 g     F .text	00000000000000c0 mbedtls_mpi_shift_r
000000000000acdc g     F .text	0000000000000064 malloc_buffer_overlaps_heap
0000000000002d84 g     F .text	000000000000000c _utee_hash_init
0000000000004b50 g     F .text	000000000000000c TEE_BigIntSubMod
0000000000008b60 g     F .text	0000000000000310 mbedtls_mpi_gen_prime
0000000000002634 g     F .text	00000000000000b4 TEE_GetPropertyAsBinaryBlock
0000000000006164 g     F .text	000000000000002c mbedtls_mpi_get_bit
0000000000006370 g     F .text	0000000000000084 mbedtls_mpi_read_binary
000000000000ce20 g     F .text	00000000000000d0 TEE_AEInit
00000000000006f0 g     F .text	0000000000000070 trace_printf
0000000000007a24 g     F .text	0000000000000004 mbedtls_mpi_montmul
0000000000002f40 g     F .text	000000000000000c _utee_cache_operation
0000000000000020 g     F .text	00000000000000d8 memcpy
000000000000500c g     F .text	000000000000009c TEE_BigIntConvertFromFMM
0000000000001e28 g     F .text	0000000000000008 TEE_Panic
000000000000c448 g     F .text	0000000000000140 TEE_CopyOperation
0000000000001630 g     F .text	0000000000000040 puts
00000000000050a8 g     F .text	0000000000000114 TEE_BigIntComputeFMM
000000000000a67c g     F .text	000000000000003c malloc_get_stats
0000000000001d24 g     F .text	0000000000000028 TEE_GetREETime
000000000000ab54 g     F .text	000000000000003c raw_malloc_get_stats
000000000000e8d8 g     F .text	000000000000005c TEE_AllocatePersistentObjectEnumerator
0000000000014370 g     O .data	00000000000000a8 ta_props
000000000000d43c g     F .text	0000000000000140 TEE_AsymmetricEncrypt
0000000000001e94 g     F .text	0000000000000040 __utee_check_instring_annotation
000000000000aa64 g     F .text	000000000000001c malloc
00000000000028a4 g     F .text	0000000000000004 TEE_FreePropertyEnumerator
0000000000009304 g     F .text	0000000000000010 mbedtls_ct_mpi_uint_mask
000000000000e5dc g     F .text	00000000000000a0 TEE_GenerateKey
000000000000adb8 g     F .text	0000000000000058 vsnprintf
0000000000014578 g     O .data	0000000000000004 trace_level
0000000000004348 g     F .text	0000000000000068 TEE_BigIntCmp
0000000000011c70 g     O .rodata	0000000000000008 ta_num_props
000000000000a0f8 g     F .text	00000000000000dc bgetr
0000000000002e98 g     F .text	000000000000000c _utee_storage_obj_open
000000000000b058 g     F .text	0000000000000014 mempool_free
000000000000c7bc g     F .text	0000000000000168 TEE_CipherUpdate
0000000000002d90 g     F .text	000000000000000c _utee_hash_update
00000000000041a8 g     F .text	0000000000000094 TEE_BigIntConvertToOctetString
000000000000bf8c g     F .text	0000000000000180 TEE_GetOperationInfoMultiple
000000000000627c g     F .text	0000000000000060 mbedtls_mpi_bitlen
0000000000004708 g     F .text	000000000000004c TEE_BigIntGetBit
0000000000011c90 g     O .rodata	0000000000000003 trace_ext_prefix
0000000000002ef8 g     F .text	000000000000000c _utee_storage_next_enum
000000000000a76c g     F .text	0000000000000010 raw_malloc
0000000000009db8 g     F .text	0000000000000088 bgetz
0000000000009314 g     F .text	0000000000000018 mbedtls_ct_size_bool_eq
0000000000001bf8 g     F .text	000000000000000c TEE_GetInstanceData
0000000000001c44 g     F .text	000000000000003c TEE_Wait
0000000000006d18 g     F .text	0000000000000174 mbedtls_mpi_mul_mpi
0000000000001dfc g     F .text	0000000000000008 TEE_CacheFlush
0000000000000500 g     F .text	00000000000001f0 trace_vprintf
0000000000000100 g     F .text	0000000000000004 TA_DestroyEntryPoint
0000000000005cb8 g     F .text	0000000000000010 mbedtls_mpi_init
0000000000002eb0 g     F .text	000000000000000c _utee_storage_obj_del
000000000000621c g     F .text	0000000000000060 mbedtls_mpi_lsb
0000000000005508 g     F .text	0000000000000044 _assert_log
0000000000002d6c g     F .text	000000000000000c _utee_cryp_state_copy
0000000000005000 g     F .text	0000000000000008 TEE_BigIntFMMContextSizeInU32
0000000000002b5c g     F .text	000000000000008c tee_unmap
000000000000cd4c g     F .text	00000000000000d4 TEE_MACCompareFinal
0000000000009348 g     F .text	0000000000000030 mbedtls_ct_uint_if
000000000000e878 g     F .text	0000000000000060 TEE_RenamePersistentObject
000000000000c5f8 g     F .text	00000000000000e4 TEE_DigestDoFinal
0000000000004060 g     F .text	0000000000000050 _TEE_MathAPI_Init
00000000000051bc g     F .text	0000000000000240 __utee_tcb_init
0000000000006b6c g     F .text	0000000000000090 mbedtls_mpi_add_mpi
00000000000035d4 g     F .text	0000000000000020 abort
0000000000008504 g     F .text	000000000000017c mbedtls_mpi_random
0000000000001ed8 g     F .text	000000000000002c __utee_check_out_annotation
0000000000017628 g     O .bss	0000000000004000 ta_heap
0000000000004b74 g     F .text	000000000000011c TEE_BigIntInvMod
00000000000031e4 g     F .text	0000000000000120 __utee_call_elf_init_fn
00000000000001cc g     F .text	0000000000000024 TA_CloseSessionEntryPoint
0000000000002cf4 g     F .text	000000000000000c _utee_close_ta_session
000000000000d57c g     F .text	0000000000000144 TEE_AsymmetricDecrypt
000000000000e67c g     F .text	00000000000000b0 TEE_OpenPersistentObject
0000000000006bfc g     F .text	0000000000000094 mbedtls_mpi_sub_mpi
000000000000b06c g     F .text	0000000000000070 consttime_memcmp
0000000000002cac g     F .text	000000000000000c _utee_return
0000000000002cc4 g     F .text	000000000000000c __utee_panic
00000000000092ac g     F .text	0000000000000048 mbedtls_ct_memcmp
00000000000053fc g     F .text	000000000000001c __tls_get_addr
00000000000001f0 g     F .text	00000000000002c8 TA_InvokeCommandEntryPoint
0000000000003304 g     F .text	0000000000000010 __utee_call_elf_fini_fn
000000000000ab08 g     F .text	0000000000000014 free_wipe
000000000000afa8 g     F .text	0000000000000064 mempool_alloc
0000000000002ca0 g     F .text	000000000000000c _utee_panic
000000000000ab24 g     F .text	000000000000002c raw_malloc_init_ctx
000000000000b00c g     F .text	000000000000004c mempool_calloc
0000000000002f34 g     F .text	000000000000000c _utee_cryp_obj_generate_key
000000000000e588 g     F .text	0000000000000054 TEE_CopyObjectAttributes
0000000000002f1c g     F .text	000000000000000c _utee_storage_obj_trunc
0000000000014418 g     O .data	0000000000000078 tee_props
0000000000002d24 g     F .text	000000000000000c _utee_unmask_cancellation
0000000000002850 g     F .text	000000000000000c TEE_ResetPropertyEnumerator
000000000000aa80 g     F .text	0000000000000020 calloc
0000000000001d4c g     F .text	0000000000000068 TEE_Malloc
0000000000001800 g     F .text	0000000000000014 TEE_CheckMemoryAccessRights
00000000000026e8 g     F .text	00000000000000b4 TEE_GetPropertyAsUUID
0000000000002cd0 g     F .text	000000000000000c _utee_get_property
00000000000060f8 g     F .text	000000000000006c mbedtls_mpi_lset
000000000000ea98 g     F .text	0000000000000094 TEE_ReadObjectData
000000000000e038 g     F .text	00000000000000d0 TEE_GetObjectBufferAttribute
0000000000000104 g     F .text	00000000000000c8 TA_OpenSessionEntryPoint
000000000000b360 g     F .text	0000000000000044 TEE_FreeOperation
0000000000005418 g     F .text	00000000000000f0 dl_iterate_phdr
000000000001b628 g       .bss	0000000000000000 __ftrace_buf_end
0000000000014600 g     O .bss	0000000000000004 ta_param_types
00000000000075bc g     F .text	0000000000000044 mbedtls_mpi_div_int
000000000000decc g     F .text	0000000000000050 __utee_from_attr
0000000000008aa4 g     F .text	00000000000000ac mbedtls_mpi_is_prime_ext
0000000000004f98 g     F .text	0000000000000050 TEE_BigIntIsProbablePrime
0000000000006e8c g     F .text	00000000000000a8 mbedtls_mpi_mul_int
000000000000e804 g     F .text	0000000000000048 TEE_CloseAndDeletePersistentObject1
0000000000007a2c g     F .text	000000000000065c mbedtls_mpi_exp_mod
0000000000009524 g     F .text	00000000000000bc mbedtls_mpi_safe_cond_assign
00000000000022a0 g     F .text	0000000000000234 TEE_GetPropertyAsString
00000000000096dc g     F .text	00000000000000fc mbedtls_mpi_lt_mpi_ct
000000000000d2a4 g     F .text	0000000000000198 TEE_AEDecryptFinal
00000000000040b0 g     F .text	0000000000000064 TEE_BigIntInit
0000000000001ed4 g     F .text	0000000000000004 __utee_check_outstring_annotation
0000000000001c04 g     F .text	0000000000000008 TEE_MemMove
0000000000009a44 g     F .text	0000000000000020 mbedtls_platform_zeroize
0000000000004114 g     F .text	0000000000000094 TEE_BigIntConvertFromOctetString
0000000000002e74 g     F .text	000000000000000c _utee_authenc_dec_final
0000000000006740 g     F .text	000000000000009c mbedtls_mpi_cmp_abs
0000000000002f04 g     F .text	000000000000000c _utee_storage_obj_read
000000000000cb2c g     F .text	00000000000000a4 TEE_MACInit
000000000000d6c0 g     F .text	0000000000000138 TEE_AsymmetricSignDigest
00000000000014f0 g     F .text	000000000000002c memchr
00000000000017a8 g     F .text	000000000000002c TEE_UnmaskCancellation
000000000000df1c g     F .text	0000000000000048 TEE_GetObjectInfo
0000000000008e70 g     F .text	000000000000041c mbedtls_mpi_self_test
0000000000002f28 g     F .text	000000000000000c _utee_storage_obj_seek
000000000000cf84 g     F .text	0000000000000164 TEE_AEUpdate
000000000000e2c8 g     F .text	0000000000000054 TEE_FreeTransientObject
0000000000002d18 g     F .text	000000000000000c _utee_check_access_rights
00000000000068ac g     F .text	0000000000000044 mbedtls_mpi_cmp_int
0000000000003720 g     F .text	0000000000000138 _base64_dec
0000000000002ee0 g     F .text	000000000000000c _utee_storage_reset_enum
0000000000009468 g     F .text	00000000000000bc mbedtls_ct_base64_dec_value
000000000000a390 g     F .text	00000000000002d4 bget_main_test
000000000000dab8 g     F .text	0000000000000024 rand
0000000000001f04 g     F .text	0000000000000030 __utee_check_attr_in_annotation
0000000000002e5c g     F .text	000000000000000c _utee_authenc_update_payload
000000000000bf38 g     F .text	0000000000000054 TEE_GetOperationInfo
0000000000004ad8 g     F .text	000000000000006c TEE_BigIntMod
00000000000076b4 g     F .text	0000000000000098 mbedtls_mpi_mod_int
00000000000062f8 g     F .text	0000000000000078 mbedtls_mpi_read_binary_le
000000000000494c g     F .text	000000000000018c TEE_BigIntDiv
0000000000002df0 g     F .text	000000000000000c _utee_cryp_obj_alloc
000000000001b628 g       .bss	0000000000000000 __ftrace_buf_start
000000000000aea8 g     F .text	0000000000000038 strlcpy
00000000000093b4 g     F .text	00000000000000b4 mbedtls_ct_base64_enc_char
0000000000005fcc g     F .text	00000000000000cc mbedtls_mpi_copy
000000000000dadc g     F .text	00000000000003f0 TEE_IsAlgorithmSupported
000000000000a664 g     F .text	0000000000000018 malloc_reset_stats
000000000000279c g     F .text	00000000000000b4 TEE_GetPropertyAsIdentity
00000000000014a4 g     F .text	000000000000004c __vsprintf
0000000000002d54 g     F .text	000000000000000c _utee_set_ta_time
0000000000002d00 g     F .text	000000000000000c _utee_invoke_ta_command
000000000000dfa4 g     F .text	0000000000000044 TEE_RestrictObjectUsage1
000000000000aaa0 g     F .text	000000000000001c realloc
0000000000006098 g     F .text	0000000000000060 mbedtls_mpi_swap
000000000000aee0 g     F .text	00000000000000c8 mempool_alloc_pool
000000000000485c g     F .text	00000000000000e8 TEE_BigIntMul
000000000000c10c g     F .text	0000000000000078 TEE_ResetOperation
000000000000ab1c g     F .text	0000000000000008 raw_malloc_get_ctx_size
0000000000006570 g     F .text	0000000000000110 mbedtls_mpi_shift_l
00000000000067dc g     F .text	00000000000000d0 mbedtls_mpi_cmp_mpi
0000000000001c14 g     F .text	0000000000000008 TEE_MemFill
000000000000ab90 g     F .text	0000000000000018 malloc_add_pool
000000000000cbd0 g     F .text	00000000000000a0 TEE_MACUpdate
00000000000004f0 g     F .text	0000000000000010 trace_get_level
00000000000068f0 g     F .text	0000000000000120 mbedtls_mpi_add_abs
000000000000dfe8 g     F .text	0000000000000050 TEE_RestrictObjectUsage
0000000000004ff0 g     F .text	0000000000000010 TEE_BigIntFMMSizeInU32
00000000000024d4 g     F .text	00000000000000ac TEE_GetPropertyAsBool
000000000000a840 g     F .text	0000000000000150 raw_realloc
0000000000004fe8 g     F .text	0000000000000004 TEE_BigIntInitFMM
000000000000e220 g     F .text	0000000000000028 TEE_CloseObject
0000000000002da8 g     F .text	000000000000000c _utee_cipher_init
00000000000033a8 g     F .text	000000000000022c __utee_entry
0000000000002580 g     F .text	00000000000000b4 TEE_GetPropertyAsU32
000000000000ecd4 g       .text	0000000000000000 __text_end
0000000000004c90 g     F .text	00000000000000d4 TEE_BigIntRelativePrime
0000000000007600 g     F .text	00000000000000b4 mbedtls_mpi_mod_mpi
0000000000002dcc g     F .text	000000000000000c _utee_cryp_obj_get_info
000000000000a1d4 g     F .text	00000000000000d0 bpool
000000000000285c g     F .text	0000000000000048 TEE_AllocatePropertyEnumerator
0000000000002d60 g     F .text	000000000000000c _utee_cryp_state_alloc
000000000000177c g     F .text	000000000000002c TEE_GetCancellationFlag
0000000000008088 g     F .text	00000000000001a4 mbedtls_mpi_gcd
0000000000001ce0 g     F .text	0000000000000044 TEE_SetTAPersistentTime
00000000000063f4 g     F .text	00000000000000b8 mbedtls_mpi_write_binary_le
000000000000ae68 g     F .text	000000000000001c memset
000000000000a6b8 g     F .text	00000000000000b4 raw_memalign
0000000000001c80 g     F .text	0000000000000060 TEE_GetTAPersistentTime
0000000000000760 g     F .text	0000000000000004 dhex_dump
000000000000e72c g     F .text	00000000000000d8 TEE_CreatePersistentObject
00000000000017d4 g     F .text	000000000000002c TEE_MaskCancellation
000000000000cef0 g     F .text	0000000000000094 TEE_AEUpdateAAD
000000000000eb9c g     F .text	0000000000000060 TEE_TruncateObjectData
0000000000002de4 g     F .text	000000000000000c _utee_cryp_obj_get_attr
000000000000df64 g     F .text	0000000000000040 TEE_GetObjectInfo1
0000000000002dc0 g     F .text	000000000000000c _utee_cipher_final
00000000000004d4 g     F .text	000000000000001c trace_set_level
000000000000e108 g     F .text	0000000000000118 TEE_GetObjectValueAttribute
000000000000c184 g     F .text	0000000000000108 TEE_SetOperationKey
000000000000932c g     F .text	000000000000001c mbedtls_ct_mpi_uint_lt
0000000000002d78 g     F .text	000000000000000c _utee_cryp_state_free
000000000000ae84 g     F .text	0000000000000024 strcmp
0000000000002ce8 g     F .text	000000000000000c _utee_open_ta_session
00000000000042c0 g     F .text	0000000000000088 TEE_BigIntConvertToS32
00000000000047a0 g     F .text	000000000000000c TEE_BigIntSub
00000000000004cc g     F .text	0000000000000008 tahead_get_trace_level
0000000000002eec g     F .text	000000000000000c _utee_storage_start_enum
000000000000ebfc g     F .text	00000000000000d8 TEE_SeekObjectData
0000000000002ae4 g     F .text	0000000000000078 tee_map_zi
0000000000007a28 g     F .text	0000000000000004 mbedtls_mpi_montred
000000000000aabc g     F .text	0000000000000020 memalign
00000000000092f4 g     F .text	0000000000000010 mbedtls_ct_uint_mask
000000000000c924 g     F .text	0000000000000208 TEE_CipherDoFinal
000000000000423c g     F .text	0000000000000084 TEE_BigIntConvertFromS32
0000000000006c90 g     F .text	0000000000000044 mbedtls_mpi_add_int
0000000000002e68 g     F .text	000000000000000c _utee_authenc_enc_final
000000000000aba8 g     F .text	0000000000000134 malloc_buffer_is_within_alloced
0000000000002dfc g     F .text	000000000000000c _utee_cryp_obj_close
0000000000004fec g     F .text	0000000000000004 TEE_BigIntInitFMMContext
0000000000002d30 g     F .text	000000000000000c _utee_mask_cancellation
0000000000002ebc g     F .text	000000000000000c _utee_storage_obj_rename
000000000000eb2c g     F .text	0000000000000070 TEE_WriteObjectData
000000000000e95c g     F .text	0000000000000028 TEE_ResetPersistentObjectEnumerator
0000000000004944 g     F .text	0000000000000008 TEE_BigIntSquare
0000000000002f10 g     F .text	000000000000000c _utee_storage_obj_write
00000000000000f8 g     F .text	0000000000000008 TA_CreateEntryPoint
00000000000004b8 g     F .text	0000000000000014 __ta_entry
0000000000002e50 g     F .text	000000000000000c _utee_authenc_update_aad
0000000000007a1c g     F .text	0000000000000008 mbedtls_mpi_montg_init
000000000000084c g     F .text	0000000000000074 snprintk
0000000000004754 g     F .text	0000000000000040 TEE_BigIntGetBitCount
0000000000002e20 g     F .text	000000000000000c _utee_cryp_obj_copy
0000000000004b5c g     F .text	000000000000000c TEE_BigIntMulMod
0000000000008680 g     F .text	0000000000000424 mbedtls_mpi_inv_mod
000000000000d91c g     F .text	0000000000000178 TEE_DeriveKey
00000000000145c0 g     O .bss	0000000000000040 ta_params
000000000000710c g     F .text	00000000000004b0 mbedtls_mpi_div_mpi
00000000000062dc g     F .text	000000000000001c mbedtls_mpi_size
0000000000009ac0 g     F .text	00000000000002f8 bget
000000000000e248 g     F .text	0000000000000080 TEE_AllocateTransientObject
00000000000028a8 g     F .text	0000000000000010 TEE_StartPropertyEnumerator
0000000000002d3c g     F .text	000000000000000c _utee_wait
0000000000006190 g     F .text	000000000000008c mbedtls_mpi_set_bit
0000000000001db4 g     F .text	0000000000000010 TEE_Free
0000000000008b50 g     F .text	0000000000000010 mbedtls_mpi_is_prime
0000000000001e04 g     F .text	0000000000000008 TEE_CacheInvalidate
000000000000554c g     F .text	0000000000000014 _assert_break
0000000000004b44 g     F .text	000000000000000c TEE_BigIntAddMod
0000000000009378 g     F .text	000000000000003c mbedtls_ct_mpi_uint_cond_assign
0000000000002d48 g     F .text	000000000000000c _utee_get_time
00000000000028b8 g     F .text	00000000000000fc TEE_GetPropertyName
000000000000b3a4 g     F .text	0000000000000b94 TEE_AllocateOperation
0000000000002e14 g     F .text	000000000000000c _utee_cryp_obj_populate
000000000000da94 g     F .text	0000000000000024 TEE_GenerateRandom
0000000000001c0c g     F .text	0000000000000008 TEE_MemCompare
0000000000002db4 g     F .text	000000000000000c _utee_cipher_update
0000000000000764 g     F .text	0000000000000090 __vsnprintf
00000000000145b0 g     O .bss	0000000000000010 __elf_phdr_info
000000000000e934 g     F .text	0000000000000028 TEE_FreePersistentObjectEnumerator
00000000000019d4 g     F .text	00000000000000f4 TEE_OpenTASession
0000000000001538 g     F .text	0000000000000028 trace_ext_puts
0000000000001560 g     F .text	0000000000000008 trace_ext_get_thread_id
000000000000e84c g     F .text	000000000000002c TEE_CloseAndDeletePersistentObject
0000000000002e2c g     F .text	000000000000000c _utee_cryp_derive_key
0000000000005cf0 g     F .text	000000000000006c mbedtls_mpi_free
0000000000002e08 g     F .text	000000000000000c _utee_cryp_obj_reset
0000000000001df4 g     F .text	0000000000000008 TEE_CacheClean
0000000000002cdc g     F .text	000000000000000c _utee_get_property_name_to_index
000000000000a78c g     F .text	00000000000000b4 raw_calloc
000000000000360c g     F .text	0000000000000114 _base64_enc
00000000000095e0 g     F .text	00000000000000fc mbedtls_mpi_safe_cond_swap
0000000000002e44 g     F .text	000000000000000c _utee_authenc_init
000000000000e4dc g     F .text	00000000000000ac TEE_CopyObjectAttributes1
000000000000151c g     F .text	000000000000001c strlen
0000000000004d64 g     F .text	0000000000000234 TEE_BigIntComputeExtendedGcd
0000000000002ec8 g     F .text	000000000000000c _utee_storage_alloc_enum
0000000000001c1c g     F .text	0000000000000028 TEE_GetSystemTime
0000000000002e8c g     F .text	000000000000000c _utee_asymm_verify
0000000000000000 g     O .ta_head	0000000000000020 ta_head
0000000000009e40 g     F .text	00000000000002b8 brel
0000000000006a10 g     F .text	000000000000015c mbedtls_mpi_sub_abs
000000000000822c g     F .text	0000000000000068 mbedtls_mpi_fill_random
0000000000001bec g     F .text	000000000000000c TEE_SetInstanceData
0000000000002d0c g     F .text	000000000000000c _utee_get_cancellation_flag
000000000000774c g     F .text	000000000000023c mbedtls_mpi_write_string
000000000000aadc g     F .text	0000000000000018 aligned_alloc
000000000000e9d4 g     F .text	00000000000000c4 TEE_GetNextPersistentObject
0000000000001754 g     F .text	0000000000000028 TEE_CloseTASession
000000000000d7f8 g     F .text	0000000000000124 TEE_AsymmetricVerifyDigest
0000000000002ea4 g     F .text	000000000000000c _utee_storage_obj_create
000000000000aaf4 g     F .text	0000000000000014 free
000000000000a2a4 g     F .text	0000000000000094 bstats
000000000000cc70 g     F .text	00000000000000dc TEE_MACComputeFinal
0000000000017618 g     O .bss	0000000000000008 mbedtls_mpi_mempool
0000000000002d9c g     F .text	000000000000000c _utee_hash_final



Disassembly of section .text:

0000000000000020 <memcpy>:
memcpy():
/media/home/beste/01_Pro/ld25x/bsp_hu/MYD-LD25X-Uboot-L2022.10-V1.0.0/GEN_FIP/myir-st-optee/lib/libutils/isoc/newlib/memcpy.c:99
      20:	aa0003e5 	mov	x5, x0
/media/home/beste/01_Pro/ld25x/bsp_hu/MYD-LD25X-Uboot-L2022.10-V1.0.0/GEN_FIP/myir-st-optee/lib/libutils/isoc/newlib/memcpy.c:106
      24:	f1007c5f 	cmp	x2, #0x1f
      28:	540004c9 	b.ls	c0 <memcpy+0xa0>  // b.plast
      2c:	aa010006 	orr	x6, x0, x1
      30:	f24008c6 	ands	x6, x6, #0x7
      34:	540005a1 	b.ne	e8 <memcpy+0xc8>  // b.any
      38:	d1008048 	sub	x8, x2, #0x20
/media/home/beste/01_Pro/ld25x/bsp_hu/MYD-LD25X-Uboot-L2022.10-V1.0.0/GEN_FIP/myir-st-optee/lib/libutils/isoc/newlib/memcpy.c:108
      3c:	aa0103e4 	mov	x4, x1
      40:	927be908 	and	x8, x8, #0xffffffffffffffe0
/media/home/beste/01_Pro/ld25x/bsp_hu/MYD-LD25X-Uboot-L2022.10-V1.0.0/GEN_FIP/myir-st-optee/lib/libutils/isoc/newlib/memcpy.c:107
      44:	aa0003e3 	mov	x3, x0
      48:	91008108 	add	x8, x8, #0x20
      4c:	8b080005 	add	x5, x0, x8
/media/home/beste/01_Pro/ld25x/bsp_hu/MYD-LD25X-Uboot-L2022.10-V1.0.0/GEN_FIP/myir-st-optee/lib/libutils/isoc/newlib/memcpy.c:112
      50:	f9400087 	ldr	x7, [x4]
      54:	f9000067 	str	x7, [x3]
/media/home/beste/01_Pro/ld25x/bsp_hu/MYD-LD25X-Uboot-L2022.10-V1.0.0/GEN_FIP/myir-st-optee/lib/libutils/isoc/newlib/memcpy.c:115
      58:	91008084 	add	x4, x4, #0x20
      5c:	91008063 	add	x3, x3, #0x20
/media/home/beste/01_Pro/ld25x/bsp_hu/MYD-LD25X-Uboot-L2022.10-V1.0.0/GEN_FIP/myir-st-optee/lib/libutils/isoc/newlib/memcpy.c:113
      60:	f85e8087 	ldur	x7, [x4, #-24]
      64:	f81e8067 	stur	x7, [x3, #-24]
/media/home/beste/01_Pro/ld25x/bsp_hu/MYD-LD25X-Uboot-L2022.10-V1.0.0/GEN_FIP/myir-st-optee/lib/libutils/isoc/newlib/memcpy.c:114
      68:	f85f0087 	ldur	x7, [x4, #-16]
      6c:	f81f0067 	stur	x7, [x3, #-16]
/media/home/beste/01_Pro/ld25x/bsp_hu/MYD-LD25X-Uboot-L2022.10-V1.0.0/GEN_FIP/myir-st-optee/lib/libutils/isoc/newlib/memcpy.c:115
      70:	f85f8087 	ldur	x7, [x4, #-8]
      74:	f81f8067 	stur	x7, [x3, #-8]
/media/home/beste/01_Pro/ld25x/bsp_hu/MYD-LD25X-Uboot-L2022.10-V1.0.0/GEN_FIP/myir-st-optee/lib/libutils/isoc/newlib/memcpy.c:111
      78:	eb05007f 	cmp	x3, x5
      7c:	54fffea1 	b.ne	50 <memcpy+0x30>  // b.any
/media/home/beste/01_Pro/ld25x/bsp_hu/MYD-LD25X-Uboot-L2022.10-V1.0.0/GEN_FIP/myir-st-optee/lib/libutils/isoc/newlib/memcpy.c:115
      80:	8b080021 	add	x1, x1, x8
/media/home/beste/01_Pro/ld25x/bsp_hu/MYD-LD25X-Uboot-L2022.10-V1.0.0/GEN_FIP/myir-st-optee/lib/libutils/isoc/newlib/memcpy.c:116
      84:	92401043 	and	x3, x2, #0x1f
/media/home/beste/01_Pro/ld25x/bsp_hu/MYD-LD25X-Uboot-L2022.10-V1.0.0/GEN_FIP/myir-st-optee/lib/libutils/isoc/newlib/memcpy.c:120
      88:	f27d045f 	tst	x2, #0x18
      8c:	54000320 	b.eq	f0 <memcpy+0xd0>  // b.none
/media/home/beste/01_Pro/ld25x/bsp_hu/MYD-LD25X-Uboot-L2022.10-V1.0.0/GEN_FIP/myir-st-optee/lib/libutils/isoc/newlib/memcpy.c:121
      90:	f8666824 	ldr	x4, [x1, x6]
      94:	f82668a4 	str	x4, [x5, x6]
/media/home/beste/01_Pro/ld25x/bsp_hu/MYD-LD25X-Uboot-L2022.10-V1.0.0/GEN_FIP/myir-st-optee/lib/libutils/isoc/newlib/memcpy.c:120
      98:	910020c6 	add	x6, x6, #0x8
      9c:	cb060064 	sub	x4, x3, x6
      a0:	f1001c9f 	cmp	x4, #0x7
      a4:	54ffff68 	b.hi	90 <memcpy+0x70>  // b.pmore
      a8:	d1002063 	sub	x3, x3, #0x8
/media/home/beste/01_Pro/ld25x/bsp_hu/MYD-LD25X-Uboot-L2022.10-V1.0.0/GEN_FIP/myir-st-optee/lib/libutils/isoc/newlib/memcpy.c:122
      ac:	92400842 	and	x2, x2, #0x7
      b0:	927df063 	and	x3, x3, #0xfffffffffffffff8
      b4:	91002063 	add	x3, x3, #0x8
/media/home/beste/01_Pro/ld25x/bsp_hu/MYD-LD25X-Uboot-L2022.10-V1.0.0/GEN_FIP/myir-st-optee/lib/libutils/isoc/newlib/memcpy.c:121
      b8:	8b0300a5 	add	x5, x5, x3
      bc:	8b030021 	add	x1, x1, x3
/media/home/beste/01_Pro/ld25x/bsp_hu/MYD-LD25X-Uboot-L2022.10-V1.0.0/GEN_FIP/myir-st-optee/lib/libutils/isoc/newlib/memcpy.c:130
      c0:	d1000446 	sub	x6, x2, #0x1
      c4:	b4000102 	cbz	x2, e4 <memcpy+0xc4>
/media/home/beste/01_Pro/ld25x/bsp_hu/MYD-LD25X-Uboot-L2022.10-V1.0.0/GEN_FIP/myir-st-optee/lib/libutils/isoc/newlib/memcpy.c:99
      c8:	d2800002 	mov	x2, #0x0                   	// #0
      cc:	d503201f 	nop
/media/home/beste/01_Pro/ld25x/bsp_hu/MYD-LD25X-Uboot-L2022.10-V1.0.0/GEN_FIP/myir-st-optee/lib/libutils/isoc/newlib/memcpy.c:131
      d0:	38626824 	ldrb	w4, [x1, x2]
/media/home/beste/01_Pro/ld25x/bsp_hu/MYD-LD25X-Uboot-L2022.10-V1.0.0/GEN_FIP/myir-st-optee/lib/libutils/isoc/newlib/memcpy.c:130
      d4:	eb0200df 	cmp	x6, x2
/media/home/beste/01_Pro/ld25x/bsp_hu/MYD-LD25X-Uboot-L2022.10-V1.0.0/GEN_FIP/myir-st-optee/lib/libutils/isoc/newlib/memcpy.c:131
      d8:	382268a4 	strb	w4, [x5, x2]
/media/home/beste/01_Pro/ld25x/bsp_hu/MYD-LD25X-Uboot-L2022.10-V1.0.0/GEN_FIP/myir-st-optee/lib/libutils/isoc/newlib/memcpy.c:130
      dc:	91000442 	add	x2, x2, #0x1
      e0:	54ffff81 	b.ne	d0 <memcpy+0xb0>  // b.any
/media/home/beste/01_Pro/ld25x/bsp_hu/MYD-LD25X-Uboot-L2022.10-V1.0.0/GEN_FIP/myir-st-optee/lib/libutils/isoc/newlib/memcpy.c:135
      e4:	d65f03c0 	ret
/media/home/beste/01_Pro/ld25x/bsp_hu/MYD-LD25X-Uboot-L2022.10-V1.0.0/GEN_FIP/myir-st-optee/lib/libutils/isoc/newlib/memcpy.c:130
      e8:	d1000446 	sub	x6, x2, #0x1
      ec:	17fffff7 	b	c8 <memcpy+0xa8>
/media/home/beste/01_Pro/ld25x/bsp_hu/MYD-LD25X-Uboot-L2022.10-V1.0.0/GEN_FIP/myir-st-optee/lib/libutils/isoc/newlib/memcpy.c:116
      f0:	aa0303e2 	mov	x2, x3
      f4:	17fffff3 	b	c0 <memcpy+0xa0>

00000000000000f8 <TA_CreateEntryPoint>:
TA_CreateEntryPoint():
/media/home/beste/01_Pro/ld25x/bsp_hu/MYD-LD25X-Uboot-L2022.10-V1.0.0/GEN_FIP/myir-st-optee/ta/stm32mp_nvmem/ta_stm32mp_nvmem.c:195
      f8:	52800000 	mov	w0, #0x0                   	// #0
      fc:	d65f03c0 	ret

0000000000000100 <TA_DestroyEntryPoint>:
TA_DestroyEntryPoint():
/media/home/beste/01_Pro/ld25x/bsp_hu/MYD-LD25X-Uboot-L2022.10-V1.0.0/GEN_FIP/myir-st-optee/ta/stm32mp_nvmem/ta_stm32mp_nvmem.c:199
     100:	d65f03c0 	ret

0000000000000104 <TA_OpenSessionEntryPoint>:
TA_OpenSessionEntryPoint():
/media/home/beste/01_Pro/ld25x/bsp_hu/MYD-LD25X-Uboot-L2022.10-V1.0.0/GEN_FIP/myir-st-optee/ta/stm32mp_nvmem/ta_stm32mp_nvmem.c:204
     104:	a9bc7bfd 	stp	x29, x30, [sp, #-64]!
     108:	910003fd 	mov	x29, sp
/media/home/beste/01_Pro/ld25x/bsp_hu/MYD-LD25X-Uboot-L2022.10-V1.0.0/GEN_FIP/myir-st-optee/ta/stm32mp_nvmem/ta_stm32mp_nvmem.c:210
     10c:	910083e0 	add	x0, sp, #0x20
/media/home/beste/01_Pro/ld25x/bsp_hu/MYD-LD25X-Uboot-L2022.10-V1.0.0/GEN_FIP/myir-st-optee/ta/stm32mp_nvmem/ta_stm32mp_nvmem.c:204
     110:	a90153f3 	stp	x19, x20, [sp, #16]
/media/home/beste/01_Pro/ld25x/bsp_hu/MYD-LD25X-Uboot-L2022.10-V1.0.0/GEN_FIP/myir-st-optee/ta/stm32mp_nvmem/ta_stm32mp_nvmem.c:208
     114:	a9027fff 	stp	xzr, xzr, [sp, #32]
     118:	f9001bff 	str	xzr, [sp, #48]
     11c:	b9003bff 	str	wzr, [sp, #56]
/media/home/beste/01_Pro/ld25x/bsp_hu/MYD-LD25X-Uboot-L2022.10-V1.0.0/GEN_FIP/myir-st-optee/ta/stm32mp_nvmem/ta_stm32mp_nvmem.c:210
     120:	940009cf 	bl	285c <TEE_AllocatePropertyEnumerator>
     124:	2a0003f3 	mov	w19, w0
/media/home/beste/01_Pro/ld25x/bsp_hu/MYD-LD25X-Uboot-L2022.10-V1.0.0/GEN_FIP/myir-st-optee/ta/stm32mp_nvmem/ta_stm32mp_nvmem.c:211
     128:	350002a0 	cbnz	w0, 17c <TA_OpenSessionEntryPoint+0x78>
/media/home/beste/01_Pro/ld25x/bsp_hu/MYD-LD25X-Uboot-L2022.10-V1.0.0/GEN_FIP/myir-st-optee/ta/stm32mp_nvmem/ta_stm32mp_nvmem.c:214
     12c:	f94013e0 	ldr	x0, [sp, #32]
     130:	b27f7be1 	mov	x1, #0xfffffffe            	// #4294967294
     134:	940009dd 	bl	28a8 <TEE_StartPropertyEnumerator>
/media/home/beste/01_Pro/ld25x/bsp_hu/MYD-LD25X-Uboot-L2022.10-V1.0.0/GEN_FIP/myir-st-optee/ta/stm32mp_nvmem/ta_stm32mp_nvmem.c:216
     138:	f94013e0 	ldr	x0, [sp, #32]
     13c:	9100a3e2 	add	x2, sp, #0x28
     140:	d2800001 	mov	x1, #0x0                   	// #0
     144:	94000996 	bl	279c <TEE_GetPropertyAsIdentity>
     148:	2a0003f3 	mov	w19, w0
/media/home/beste/01_Pro/ld25x/bsp_hu/MYD-LD25X-Uboot-L2022.10-V1.0.0/GEN_FIP/myir-st-optee/ta/stm32mp_nvmem/ta_stm32mp_nvmem.c:217
     14c:	35000180 	cbnz	w0, 17c <TA_OpenSessionEntryPoint+0x78>
/media/home/beste/01_Pro/ld25x/bsp_hu/MYD-LD25X-Uboot-L2022.10-V1.0.0/GEN_FIP/myir-st-optee/ta/stm32mp_nvmem/ta_stm32mp_nvmem.c:220
     150:	b9402be1 	ldr	w1, [sp, #40]
     154:	52b00000 	mov	w0, #0x80000000            	// #-2147483648
     158:	6b00003f 	cmp	w1, w0
     15c:	54000340 	b.eq	1c4 <TA_OpenSessionEntryPoint+0xc0>  // b.none
/media/home/beste/01_Pro/ld25x/bsp_hu/MYD-LD25X-Uboot-L2022.10-V1.0.0/GEN_FIP/myir-st-optee/ta/stm32mp_nvmem/ta_stm32mp_nvmem.c:225
     160:	900000b4 	adrp	x20, 14000 <_DYNAMIC>
     164:	91160284 	add	x4, x20, #0x580
     168:	f942c280 	ldr	x0, [x20, #1408]
     16c:	b4000160 	cbz	x0, 198 <TA_OpenSessionEntryPoint+0x94>
/media/home/beste/01_Pro/ld25x/bsp_hu/MYD-LD25X-Uboot-L2022.10-V1.0.0/GEN_FIP/myir-st-optee/ta/stm32mp_nvmem/ta_stm32mp_nvmem.c:232
     170:	f942c280 	ldr	x0, [x20, #1408]
     174:	91000400 	add	x0, x0, #0x1
     178:	f902c280 	str	x0, [x20, #1408]
/media/home/beste/01_Pro/ld25x/bsp_hu/MYD-LD25X-Uboot-L2022.10-V1.0.0/GEN_FIP/myir-st-optee/ta/stm32mp_nvmem/ta_stm32mp_nvmem.c:235
     17c:	f94013e0 	ldr	x0, [sp, #32]
     180:	b4000040 	cbz	x0, 188 <TA_OpenSessionEntryPoint+0x84>
/media/home/beste/01_Pro/ld25x/bsp_hu/MYD-LD25X-Uboot-L2022.10-V1.0.0/GEN_FIP/myir-st-optee/ta/stm32mp_nvmem/ta_stm32mp_nvmem.c:236
     184:	940009c8 	bl	28a4 <TEE_FreePropertyEnumerator>
/media/home/beste/01_Pro/ld25x/bsp_hu/MYD-LD25X-Uboot-L2022.10-V1.0.0/GEN_FIP/myir-st-optee/ta/stm32mp_nvmem/ta_stm32mp_nvmem.c:239
     188:	2a1303e0 	mov	w0, w19
     18c:	a94153f3 	ldp	x19, x20, [sp, #16]
     190:	a8c47bfd 	ldp	x29, x30, [sp], #64
     194:	d65f03c0 	ret
/media/home/beste/01_Pro/ld25x/bsp_hu/MYD-LD25X-Uboot-L2022.10-V1.0.0/GEN_FIP/myir-st-optee/ta/stm32mp_nvmem/ta_stm32mp_nvmem.c:226
     198:	b0000080 	adrp	x0, 11000 <__text_end+0x232c>
     19c:	91002084 	add	x4, x4, #0x8
     1a0:	91325000 	add	x0, x0, #0xc94
     1a4:	d2800005 	mov	x5, #0x0                   	// #0
     1a8:	d2800003 	mov	x3, #0x0                   	// #0
     1ac:	52800002 	mov	w2, #0x0                   	// #0
     1b0:	12800001 	mov	w1, #0xffffffff            	// #-1
     1b4:	94000608 	bl	19d4 <TEE_OpenTASession>
/media/home/beste/01_Pro/ld25x/bsp_hu/MYD-LD25X-Uboot-L2022.10-V1.0.0/GEN_FIP/myir-st-optee/ta/stm32mp_nvmem/ta_stm32mp_nvmem.c:228
     1b8:	34fffdc0 	cbz	w0, 170 <TA_OpenSessionEntryPoint+0x6c>
     1bc:	2a0003f3 	mov	w19, w0
     1c0:	17ffffef 	b	17c <TA_OpenSessionEntryPoint+0x78>
/media/home/beste/01_Pro/ld25x/bsp_hu/MYD-LD25X-Uboot-L2022.10-V1.0.0/GEN_FIP/myir-st-optee/ta/stm32mp_nvmem/ta_stm32mp_nvmem.c:221
     1c4:	129fffd3 	mov	w19, #0xffff0001            	// #-65535
     1c8:	17ffffed 	b	17c <TA_OpenSessionEntryPoint+0x78>

00000000000001cc <TA_CloseSessionEntryPoint>:
TA_CloseSessionEntryPoint():
/media/home/beste/01_Pro/ld25x/bsp_hu/MYD-LD25X-Uboot-L2022.10-V1.0.0/GEN_FIP/myir-st-optee/ta/stm32mp_nvmem/ta_stm32mp_nvmem.c:243
     1cc:	900000a1 	adrp	x1, 14000 <_DYNAMIC>
     1d0:	91160022 	add	x2, x1, #0x580
     1d4:	f942c020 	ldr	x0, [x1, #1408]
     1d8:	d1000400 	sub	x0, x0, #0x1
     1dc:	f902c020 	str	x0, [x1, #1408]
/media/home/beste/01_Pro/ld25x/bsp_hu/MYD-LD25X-Uboot-L2022.10-V1.0.0/GEN_FIP/myir-st-optee/ta/stm32mp_nvmem/ta_stm32mp_nvmem.c:245
     1e0:	b5000060 	cbnz	x0, 1ec <TA_CloseSessionEntryPoint+0x20>
/media/home/beste/01_Pro/ld25x/bsp_hu/MYD-LD25X-Uboot-L2022.10-V1.0.0/GEN_FIP/myir-st-optee/ta/stm32mp_nvmem/ta_stm32mp_nvmem.c:246
     1e4:	f9400440 	ldr	x0, [x2, #8]
     1e8:	1400055b 	b	1754 <TEE_CloseTASession>
/media/home/beste/01_Pro/ld25x/bsp_hu/MYD-LD25X-Uboot-L2022.10-V1.0.0/GEN_FIP/myir-st-optee/ta/stm32mp_nvmem/ta_stm32mp_nvmem.c:247
     1ec:	d65f03c0 	ret

00000000000001f0 <TA_InvokeCommandEntryPoint>:
TA_InvokeCommandEntryPoint():
/media/home/beste/01_Pro/ld25x/bsp_hu/MYD-LD25X-Uboot-L2022.10-V1.0.0/GEN_FIP/myir-st-optee/ta/stm32mp_nvmem/ta_stm32mp_nvmem.c:252
     1f0:	a9b57bfd 	stp	x29, x30, [sp, #-176]!
     1f4:	910003fd 	mov	x29, sp
     1f8:	a90153f3 	stp	x19, x20, [sp, #16]
     1fc:	a9025bf5 	stp	x21, x22, [sp, #32]
     200:	a90363f7 	stp	x23, x24, [sp, #48]
     204:	a9046bf9 	stp	x25, x26, [sp, #64]
     208:	f9002bfb 	str	x27, [sp, #80]
/media/home/beste/01_Pro/ld25x/bsp_hu/MYD-LD25X-Uboot-L2022.10-V1.0.0/GEN_FIP/myir-st-optee/ta/stm32mp_nvmem/ta_stm32mp_nvmem.c:253
     20c:	34000201 	cbz	w1, 24c <TA_InvokeCommandEntryPoint+0x5c>
     210:	2a0103f7 	mov	w23, w1
     214:	7100043f 	cmp	w1, #0x1
     218:	54000be0 	b.eq	394 <TA_InvokeCommandEntryPoint+0x1a4>  // b.none
/media/home/beste/01_Pro/ld25x/bsp_hu/MYD-LD25X-Uboot-L2022.10-V1.0.0/GEN_FIP/myir-st-optee/ta/stm32mp_nvmem/ta_stm32mp_nvmem.c:259
     21c:	b0000080 	adrp	x0, 11000 <__text_end+0x232c>
     220:	91325000 	add	x0, x0, #0xc94
     224:	2a0103e5 	mov	w5, w1
     228:	91004000 	add	x0, x0, #0x10
     22c:	d0000084 	adrp	x4, 12000 <small_prime+0x238>
     230:	52800023 	mov	w3, #0x1                   	// #1
     234:	91023084 	add	x4, x4, #0x8c
     238:	52800022 	mov	w2, #0x1                   	// #1
     23c:	52802061 	mov	w1, #0x103                 	// #259
/media/home/beste/01_Pro/ld25x/bsp_hu/MYD-LD25X-Uboot-L2022.10-V1.0.0/GEN_FIP/myir-st-optee/ta/stm32mp_nvmem/ta_stm32mp_nvmem.c:260
     240:	129ffeb3 	mov	w19, #0xffff000a            	// #-65526
/media/home/beste/01_Pro/ld25x/bsp_hu/MYD-LD25X-Uboot-L2022.10-V1.0.0/GEN_FIP/myir-st-optee/ta/stm32mp_nvmem/ta_stm32mp_nvmem.c:259
     244:	9400012b 	bl	6f0 <trace_printf>
/media/home/beste/01_Pro/ld25x/bsp_hu/MYD-LD25X-Uboot-L2022.10-V1.0.0/GEN_FIP/myir-st-optee/ta/stm32mp_nvmem/ta_stm32mp_nvmem.c:260
     248:	1400004b 	b	374 <TA_InvokeCommandEntryPoint+0x184>
nvmem_read():
/media/home/beste/01_Pro/ld25x/bsp_hu/MYD-LD25X-Uboot-L2022.10-V1.0.0/GEN_FIP/myir-st-optee/ta/stm32mp_nvmem/ta_stm32mp_nvmem.c:61
     24c:	f9400876 	ldr	x22, [x3, #16]
/media/home/beste/01_Pro/ld25x/bsp_hu/MYD-LD25X-Uboot-L2022.10-V1.0.0/GEN_FIP/myir-st-optee/ta/stm32mp_nvmem/ta_stm32mp_nvmem.c:67
     250:	7101845f 	cmp	w2, #0x61
     254:	fa400ac4 	ccmp	x22, #0x0, #0x4, eq	// eq = none
     258:	540012c0 	b.eq	4b0 <TA_InvokeCommandEntryPoint+0x2c0>  // b.none
/media/home/beste/01_Pro/ld25x/bsp_hu/MYD-LD25X-Uboot-L2022.10-V1.0.0/GEN_FIP/myir-st-optee/ta/stm32mp_nvmem/ta_stm32mp_nvmem.c:62
     25c:	b9401875 	ldr	w21, [x3, #24]
/media/home/beste/01_Pro/ld25x/bsp_hu/MYD-LD25X-Uboot-L2022.10-V1.0.0/GEN_FIP/myir-st-optee/ta/stm32mp_nvmem/ta_stm32mp_nvmem.c:67
     260:	71003ebf 	cmp	w21, #0xf
     264:	54001269 	b.ls	4b0 <TA_InvokeCommandEntryPoint+0x2c0>  // b.plast
/media/home/beste/01_Pro/ld25x/bsp_hu/MYD-LD25X-Uboot-L2022.10-V1.0.0/GEN_FIP/myir-st-optee/ta/stm32mp_nvmem/ta_stm32mp_nvmem.c:71
     268:	b9400061 	ldr	w1, [x3]
     26c:	12000aa0 	and	w0, w21, #0x7
     270:	2a010000 	orr	w0, w0, w1
     274:	350011e0 	cbnz	w0, 4b0 <TA_InvokeCommandEntryPoint+0x2c0>
/media/home/beste/01_Pro/ld25x/bsp_hu/MYD-LD25X-Uboot-L2022.10-V1.0.0/GEN_FIP/myir-st-optee/ta/stm32mp_nvmem/ta_stm32mp_nvmem.c:72
     278:	f24006df 	tst	x22, #0x3
     27c:	540011a1 	b.ne	4b0 <TA_InvokeCommandEntryPoint+0x2c0>  // b.any
nvmem_get_state():
/media/home/beste/01_Pro/ld25x/bsp_hu/MYD-LD25X-Uboot-L2022.10-V1.0.0/GEN_FIP/myir-st-optee/ta/stm32mp_nvmem/ta_stm32mp_nvmem.c:46
     280:	900000b7 	adrp	x23, 14000 <_DYNAMIC>
     284:	911602f7 	add	x23, x23, #0x580
nvmem_read():
/media/home/beste/01_Pro/ld25x/bsp_hu/MYD-LD25X-Uboot-L2022.10-V1.0.0/GEN_FIP/myir-st-optee/ta/stm32mp_nvmem/ta_stm32mp_nvmem.c:77
     288:	52800043 	mov	w3, #0x2                   	// #2
nvmem_get_state():
/media/home/beste/01_Pro/ld25x/bsp_hu/MYD-LD25X-Uboot-L2022.10-V1.0.0/GEN_FIP/myir-st-optee/ta/stm32mp_nvmem/ta_stm32mp_nvmem.c:46
     28c:	9101c3f8 	add	x24, sp, #0x70
     290:	aa1803e4 	mov	x4, x24
     294:	d2800005 	mov	x5, #0x0                   	// #0
     298:	f94006e0 	ldr	x0, [x23, #8]
nvmem_read():
/media/home/beste/01_Pro/ld25x/bsp_hu/MYD-LD25X-Uboot-L2022.10-V1.0.0/GEN_FIP/myir-st-optee/ta/stm32mp_nvmem/ta_stm32mp_nvmem.c:77
     29c:	b90002c3 	str	w3, [x22]
nvmem_get_state():
/media/home/beste/01_Pro/ld25x/bsp_hu/MYD-LD25X-Uboot-L2022.10-V1.0.0/GEN_FIP/myir-st-optee/ta/stm32mp_nvmem/ta_stm32mp_nvmem.c:46
     2a0:	52800062 	mov	w2, #0x3                   	// #3
     2a4:	12800001 	mov	w1, #0xffffffff            	// #-1
/media/home/beste/01_Pro/ld25x/bsp_hu/MYD-LD25X-Uboot-L2022.10-V1.0.0/GEN_FIP/myir-st-optee/ta/stm32mp_nvmem/ta_stm32mp_nvmem.c:38
     2a8:	a9077fff 	stp	xzr, xzr, [sp, #112]
     2ac:	a9087fff 	stp	xzr, xzr, [sp, #128]
     2b0:	a9097fff 	stp	xzr, xzr, [sp, #144]
     2b4:	a90a7fff 	stp	xzr, xzr, [sp, #160]
/media/home/beste/01_Pro/ld25x/bsp_hu/MYD-LD25X-Uboot-L2022.10-V1.0.0/GEN_FIP/myir-st-optee/ta/stm32mp_nvmem/ta_stm32mp_nvmem.c:46
     2b8:	94000604 	bl	1ac8 <TEE_InvokeTACommand>
     2bc:	2a0003f3 	mov	w19, w0
/media/home/beste/01_Pro/ld25x/bsp_hu/MYD-LD25X-Uboot-L2022.10-V1.0.0/GEN_FIP/myir-st-optee/ta/stm32mp_nvmem/ta_stm32mp_nvmem.c:49
     2c0:	350005a0 	cbnz	w0, 374 <TA_InvokeCommandEntryPoint+0x184>
nvmem_read():
/media/home/beste/01_Pro/ld25x/bsp_hu/MYD-LD25X-Uboot-L2022.10-V1.0.0/GEN_FIP/myir-st-optee/ta/stm32mp_nvmem/ta_stm32mp_nvmem.c:84
     2c4:	53027eb5 	lsr	w21, w21, #2
nvmem_get_state():
/media/home/beste/01_Pro/ld25x/bsp_hu/MYD-LD25X-Uboot-L2022.10-V1.0.0/GEN_FIP/myir-st-optee/ta/stm32mp_nvmem/ta_stm32mp_nvmem.c:50
     2c8:	b94073e0 	ldr	w0, [sp, #112]
nvmem_read():
/media/home/beste/01_Pro/ld25x/bsp_hu/MYD-LD25X-Uboot-L2022.10-V1.0.0/GEN_FIP/myir-st-optee/ta/stm32mp_nvmem/ta_stm32mp_nvmem.c:84
     2cc:	d1000ab5 	sub	x21, x21, #0x2
/media/home/beste/01_Pro/ld25x/bsp_hu/MYD-LD25X-Uboot-L2022.10-V1.0.0/GEN_FIP/myir-st-optee/ta/stm32mp_nvmem/ta_stm32mp_nvmem.c:80
     2d0:	910022d4 	add	x20, x22, #0x8
/media/home/beste/01_Pro/ld25x/bsp_hu/MYD-LD25X-Uboot-L2022.10-V1.0.0/GEN_FIP/myir-st-optee/ta/stm32mp_nvmem/ta_stm32mp_nvmem.c:92
     2d4:	52800099 	mov	w25, #0x4                   	// #4
nvmem_get_state():
/media/home/beste/01_Pro/ld25x/bsp_hu/MYD-LD25X-Uboot-L2022.10-V1.0.0/GEN_FIP/myir-st-optee/ta/stm32mp_nvmem/ta_stm32mp_nvmem.c:50
     2d8:	b90006c0 	str	w0, [x22, #4]
nvmem_read():
/media/home/beste/01_Pro/ld25x/bsp_hu/MYD-LD25X-Uboot-L2022.10-V1.0.0/GEN_FIP/myir-st-optee/ta/stm32mp_nvmem/ta_stm32mp_nvmem.c:84
     2dc:	d34182b5 	ubfx	x21, x21, #1, #32
/media/home/beste/01_Pro/ld25x/bsp_hu/MYD-LD25X-Uboot-L2022.10-V1.0.0/GEN_FIP/myir-st-optee/ta/stm32mp_nvmem/ta_stm32mp_nvmem.c:90
     2e0:	52800036 	mov	w22, #0x1                   	// #1
/media/home/beste/01_Pro/ld25x/bsp_hu/MYD-LD25X-Uboot-L2022.10-V1.0.0/GEN_FIP/myir-st-optee/ta/stm32mp_nvmem/ta_stm32mp_nvmem.c:94
     2e4:	f94006e0 	ldr	x0, [x23, #8]
/media/home/beste/01_Pro/ld25x/bsp_hu/MYD-LD25X-Uboot-L2022.10-V1.0.0/GEN_FIP/myir-st-optee/ta/stm32mp_nvmem/ta_stm32mp_nvmem.c:86
     2e8:	f90047ff 	str	xzr, [sp, #136]
     2ec:	531e767a 	lsl	w26, w19, #2
/media/home/beste/01_Pro/ld25x/bsp_hu/MYD-LD25X-Uboot-L2022.10-V1.0.0/GEN_FIP/myir-st-optee/ta/stm32mp_nvmem/ta_stm32mp_nvmem.c:94
     2f0:	aa1803e4 	mov	x4, x24
     2f4:	d2800005 	mov	x5, #0x0                   	// #0
     2f8:	52800c23 	mov	w3, #0x61                  	// #97
     2fc:	52800002 	mov	w2, #0x0                   	// #0
     300:	12800001 	mov	w1, #0xffffffff            	// #-1
/media/home/beste/01_Pro/ld25x/bsp_hu/MYD-LD25X-Uboot-L2022.10-V1.0.0/GEN_FIP/myir-st-optee/ta/stm32mp_nvmem/ta_stm32mp_nvmem.c:90
     304:	290e5bfa 	stp	w26, w22, [sp, #112]
/media/home/beste/01_Pro/ld25x/bsp_hu/MYD-LD25X-Uboot-L2022.10-V1.0.0/GEN_FIP/myir-st-optee/ta/stm32mp_nvmem/ta_stm32mp_nvmem.c:91
     308:	a907d3ff 	stp	xzr, x20, [sp, #120]
/media/home/beste/01_Pro/ld25x/bsp_hu/MYD-LD25X-Uboot-L2022.10-V1.0.0/GEN_FIP/myir-st-optee/ta/stm32mp_nvmem/ta_stm32mp_nvmem.c:92
     30c:	b9008bf9 	str	w25, [sp, #136]
/media/home/beste/01_Pro/ld25x/bsp_hu/MYD-LD25X-Uboot-L2022.10-V1.0.0/GEN_FIP/myir-st-optee/ta/stm32mp_nvmem/ta_stm32mp_nvmem.c:86
     310:	a9097fff 	stp	xzr, xzr, [sp, #144]
     314:	a90a7fff 	stp	xzr, xzr, [sp, #160]
/media/home/beste/01_Pro/ld25x/bsp_hu/MYD-LD25X-Uboot-L2022.10-V1.0.0/GEN_FIP/myir-st-optee/ta/stm32mp_nvmem/ta_stm32mp_nvmem.c:94
     318:	940005ec 	bl	1ac8 <TEE_InvokeTACommand>
/media/home/beste/01_Pro/ld25x/bsp_hu/MYD-LD25X-Uboot-L2022.10-V1.0.0/GEN_FIP/myir-st-optee/ta/stm32mp_nvmem/ta_stm32mp_nvmem.c:97
     31c:	34000080 	cbz	w0, 32c <TA_InvokeCommandEntryPoint+0x13c>
/media/home/beste/01_Pro/ld25x/bsp_hu/MYD-LD25X-Uboot-L2022.10-V1.0.0/GEN_FIP/myir-st-optee/ta/stm32mp_nvmem/ta_stm32mp_nvmem.c:98
     320:	b900029f 	str	wzr, [x20]
/media/home/beste/01_Pro/ld25x/bsp_hu/MYD-LD25X-Uboot-L2022.10-V1.0.0/GEN_FIP/myir-st-optee/ta/stm32mp_nvmem/ta_stm32mp_nvmem.c:114
     324:	b9000696 	str	w22, [x20, #4]
     328:	1400000e 	b	360 <TA_InvokeCommandEntryPoint+0x170>
/media/home/beste/01_Pro/ld25x/bsp_hu/MYD-LD25X-Uboot-L2022.10-V1.0.0/GEN_FIP/myir-st-optee/ta/stm32mp_nvmem/ta_stm32mp_nvmem.c:107
     32c:	52800040 	mov	w0, #0x2                   	// #2
     330:	290e03fa 	stp	w26, w0, [sp, #112]
/media/home/beste/01_Pro/ld25x/bsp_hu/MYD-LD25X-Uboot-L2022.10-V1.0.0/GEN_FIP/myir-st-optee/ta/stm32mp_nvmem/ta_stm32mp_nvmem.c:98
     334:	91001280 	add	x0, x20, #0x4
/media/home/beste/01_Pro/ld25x/bsp_hu/MYD-LD25X-Uboot-L2022.10-V1.0.0/GEN_FIP/myir-st-optee/ta/stm32mp_nvmem/ta_stm32mp_nvmem.c:108
     338:	f90043e0 	str	x0, [sp, #128]
/media/home/beste/01_Pro/ld25x/bsp_hu/MYD-LD25X-Uboot-L2022.10-V1.0.0/GEN_FIP/myir-st-optee/ta/stm32mp_nvmem/ta_stm32mp_nvmem.c:110
     33c:	f94006e0 	ldr	x0, [x23, #8]
     340:	aa1803e4 	mov	x4, x24
     344:	d2800005 	mov	x5, #0x0                   	// #0
     348:	52800c23 	mov	w3, #0x61                  	// #97
     34c:	52800002 	mov	w2, #0x0                   	// #0
     350:	12800001 	mov	w1, #0xffffffff            	// #-1
/media/home/beste/01_Pro/ld25x/bsp_hu/MYD-LD25X-Uboot-L2022.10-V1.0.0/GEN_FIP/myir-st-optee/ta/stm32mp_nvmem/ta_stm32mp_nvmem.c:109
     354:	b9008bf9 	str	w25, [sp, #136]
/media/home/beste/01_Pro/ld25x/bsp_hu/MYD-LD25X-Uboot-L2022.10-V1.0.0/GEN_FIP/myir-st-optee/ta/stm32mp_nvmem/ta_stm32mp_nvmem.c:110
     358:	940005dc 	bl	1ac8 <TEE_InvokeTACommand>
/media/home/beste/01_Pro/ld25x/bsp_hu/MYD-LD25X-Uboot-L2022.10-V1.0.0/GEN_FIP/myir-st-optee/ta/stm32mp_nvmem/ta_stm32mp_nvmem.c:113
     35c:	35fffe40 	cbnz	w0, 324 <TA_InvokeCommandEntryPoint+0x134>
/media/home/beste/01_Pro/ld25x/bsp_hu/MYD-LD25X-Uboot-L2022.10-V1.0.0/GEN_FIP/myir-st-optee/ta/stm32mp_nvmem/ta_stm32mp_nvmem.c:85
     360:	11000673 	add	w19, w19, #0x1
     364:	91002294 	add	x20, x20, #0x8
     368:	6b1302bf 	cmp	w21, w19
     36c:	54fffbc8 	b.hi	2e4 <TA_InvokeCommandEntryPoint+0xf4>  // b.pmore
/media/home/beste/01_Pro/ld25x/bsp_hu/MYD-LD25X-Uboot-L2022.10-V1.0.0/GEN_FIP/myir-st-optee/ta/stm32mp_nvmem/ta_stm32mp_nvmem.c:117
     370:	52800013 	mov	w19, #0x0                   	// #0
TA_InvokeCommandEntryPoint():
/media/home/beste/01_Pro/ld25x/bsp_hu/MYD-LD25X-Uboot-L2022.10-V1.0.0/GEN_FIP/myir-st-optee/ta/stm32mp_nvmem/ta_stm32mp_nvmem.c:262
     374:	a9425bf5 	ldp	x21, x22, [sp, #32]
     378:	2a1303e0 	mov	w0, w19
     37c:	a94153f3 	ldp	x19, x20, [sp, #16]
     380:	a94363f7 	ldp	x23, x24, [sp, #48]
     384:	a9446bf9 	ldp	x25, x26, [sp, #64]
     388:	f9402bfb 	ldr	x27, [sp, #80]
     38c:	a8cb7bfd 	ldp	x29, x30, [sp], #176
     390:	d65f03c0 	ret
nvmem_write():
/media/home/beste/01_Pro/ld25x/bsp_hu/MYD-LD25X-Uboot-L2022.10-V1.0.0/GEN_FIP/myir-st-optee/ta/stm32mp_nvmem/ta_stm32mp_nvmem.c:126
     394:	f9400860 	ldr	x0, [x3, #16]
/media/home/beste/01_Pro/ld25x/bsp_hu/MYD-LD25X-Uboot-L2022.10-V1.0.0/GEN_FIP/myir-st-optee/ta/stm32mp_nvmem/ta_stm32mp_nvmem.c:131
     398:	7101445f 	cmp	w2, #0x51
     39c:	fa400804 	ccmp	x0, #0x0, #0x4, eq	// eq = none
     3a0:	54000880 	b.eq	4b0 <TA_InvokeCommandEntryPoint+0x2c0>  // b.none
/media/home/beste/01_Pro/ld25x/bsp_hu/MYD-LD25X-Uboot-L2022.10-V1.0.0/GEN_FIP/myir-st-optee/ta/stm32mp_nvmem/ta_stm32mp_nvmem.c:127
     3a4:	b9401862 	ldr	w2, [x3, #24]
/media/home/beste/01_Pro/ld25x/bsp_hu/MYD-LD25X-Uboot-L2022.10-V1.0.0/GEN_FIP/myir-st-optee/ta/stm32mp_nvmem/ta_stm32mp_nvmem.c:131
     3a8:	71003c5f 	cmp	w2, #0xf
     3ac:	54000829 	b.ls	4b0 <TA_InvokeCommandEntryPoint+0x2c0>  // b.plast
/media/home/beste/01_Pro/ld25x/bsp_hu/MYD-LD25X-Uboot-L2022.10-V1.0.0/GEN_FIP/myir-st-optee/ta/stm32mp_nvmem/ta_stm32mp_nvmem.c:134
     3b0:	b9400061 	ldr	w1, [x3]
     3b4:	12000844 	and	w4, w2, #0x7
     3b8:	2a01009b 	orr	w27, w4, w1
/media/home/beste/01_Pro/ld25x/bsp_hu/MYD-LD25X-Uboot-L2022.10-V1.0.0/GEN_FIP/myir-st-optee/ta/stm32mp_nvmem/ta_stm32mp_nvmem.c:135
     3bc:	350007bb 	cbnz	w27, 4b0 <TA_InvokeCommandEntryPoint+0x2c0>
/media/home/beste/01_Pro/ld25x/bsp_hu/MYD-LD25X-Uboot-L2022.10-V1.0.0/GEN_FIP/myir-st-optee/ta/stm32mp_nvmem/ta_stm32mp_nvmem.c:136
     3c0:	f240041f 	tst	x0, #0x3
     3c4:	54000761 	b.ne	4b0 <TA_InvokeCommandEntryPoint+0x2c0>  // b.any
/media/home/beste/01_Pro/ld25x/bsp_hu/MYD-LD25X-Uboot-L2022.10-V1.0.0/GEN_FIP/myir-st-optee/ta/stm32mp_nvmem/ta_stm32mp_nvmem.c:141
     3c8:	b9400001 	ldr	w1, [x0]
     3cc:	7100083f 	cmp	w1, #0x2
     3d0:	54000701 	b.ne	4b0 <TA_InvokeCommandEntryPoint+0x2c0>  // b.any
/media/home/beste/01_Pro/ld25x/bsp_hu/MYD-LD25X-Uboot-L2022.10-V1.0.0/GEN_FIP/myir-st-optee/ta/stm32mp_nvmem/ta_stm32mp_nvmem.c:147
     3d4:	53027c42 	lsr	w2, w2, #2
/media/home/beste/01_Pro/ld25x/bsp_hu/MYD-LD25X-Uboot-L2022.10-V1.0.0/GEN_FIP/myir-st-optee/ta/stm32mp_nvmem/ta_stm32mp_nvmem.c:163
     3d8:	900000b8 	adrp	x24, 14000 <_DYNAMIC>
/media/home/beste/01_Pro/ld25x/bsp_hu/MYD-LD25X-Uboot-L2022.10-V1.0.0/GEN_FIP/myir-st-optee/ta/stm32mp_nvmem/ta_stm32mp_nvmem.c:147
     3dc:	d1000842 	sub	x2, x2, #0x2
/media/home/beste/01_Pro/ld25x/bsp_hu/MYD-LD25X-Uboot-L2022.10-V1.0.0/GEN_FIP/myir-st-optee/ta/stm32mp_nvmem/ta_stm32mp_nvmem.c:145
     3e0:	91002014 	add	x20, x0, #0x8
/media/home/beste/01_Pro/ld25x/bsp_hu/MYD-LD25X-Uboot-L2022.10-V1.0.0/GEN_FIP/myir-st-optee/ta/stm32mp_nvmem/ta_stm32mp_nvmem.c:161
     3e4:	9101a3fa 	add	x26, sp, #0x68
/media/home/beste/01_Pro/ld25x/bsp_hu/MYD-LD25X-Uboot-L2022.10-V1.0.0/GEN_FIP/myir-st-optee/ta/stm32mp_nvmem/ta_stm32mp_nvmem.c:163
     3e8:	91160318 	add	x24, x24, #0x580
/media/home/beste/01_Pro/ld25x/bsp_hu/MYD-LD25X-Uboot-L2022.10-V1.0.0/GEN_FIP/myir-st-optee/ta/stm32mp_nvmem/ta_stm32mp_nvmem.c:147
     3ec:	d3418056 	ubfx	x22, x2, #1, #32
/media/home/beste/01_Pro/ld25x/bsp_hu/MYD-LD25X-Uboot-L2022.10-V1.0.0/GEN_FIP/myir-st-optee/ta/stm32mp_nvmem/ta_stm32mp_nvmem.c:162
     3f0:	52800099 	mov	w25, #0x4                   	// #4
/media/home/beste/01_Pro/ld25x/bsp_hu/MYD-LD25X-Uboot-L2022.10-V1.0.0/GEN_FIP/myir-st-optee/ta/stm32mp_nvmem/ta_stm32mp_nvmem.c:149
     3f4:	a9077fff 	stp	xzr, xzr, [sp, #112]
     3f8:	a9087fff 	stp	xzr, xzr, [sp, #128]
     3fc:	a9097fff 	stp	xzr, xzr, [sp, #144]
     400:	a90a7fff 	stp	xzr, xzr, [sp, #160]
/media/home/beste/01_Pro/ld25x/bsp_hu/MYD-LD25X-Uboot-L2022.10-V1.0.0/GEN_FIP/myir-st-optee/ta/stm32mp_nvmem/ta_stm32mp_nvmem.c:150
     404:	b8408680 	ldr	w0, [x20], #8
     408:	b9006be0 	str	w0, [sp, #104]
/media/home/beste/01_Pro/ld25x/bsp_hu/MYD-LD25X-Uboot-L2022.10-V1.0.0/GEN_FIP/myir-st-optee/ta/stm32mp_nvmem/ta_stm32mp_nvmem.c:151
     40c:	b85fc295 	ldur	w21, [x20, #-4]
/media/home/beste/01_Pro/ld25x/bsp_hu/MYD-LD25X-Uboot-L2022.10-V1.0.0/GEN_FIP/myir-st-optee/ta/stm32mp_nvmem/ta_stm32mp_nvmem.c:154
     410:	37f800b5 	tbnz	w21, #31, 424 <TA_InvokeCommandEntryPoint+0x234>
/media/home/beste/01_Pro/ld25x/bsp_hu/MYD-LD25X-Uboot-L2022.10-V1.0.0/GEN_FIP/myir-st-optee/ta/stm32mp_nvmem/ta_stm32mp_nvmem.c:148
     414:	1100077b 	add	w27, w27, #0x1
     418:	6b16037f 	cmp	w27, w22
     41c:	54fffec3 	b.cc	3f4 <TA_InvokeCommandEntryPoint+0x204>  // b.lo, b.ul, b.last
     420:	17ffffd4 	b	370 <TA_InvokeCommandEntryPoint+0x180>
/media/home/beste/01_Pro/ld25x/bsp_hu/MYD-LD25X-Uboot-L2022.10-V1.0.0/GEN_FIP/myir-st-optee/ta/stm32mp_nvmem/ta_stm32mp_nvmem.c:158
     424:	350002a0 	cbnz	w0, 478 <TA_InvokeCommandEntryPoint+0x288>
/media/home/beste/01_Pro/ld25x/bsp_hu/MYD-LD25X-Uboot-L2022.10-V1.0.0/GEN_FIP/myir-st-optee/ta/stm32mp_nvmem/ta_stm32mp_nvmem.c:172
     428:	36f7ff75 	tbz	w21, #30, 414 <TA_InvokeCommandEntryPoint+0x224>
/media/home/beste/01_Pro/ld25x/bsp_hu/MYD-LD25X-Uboot-L2022.10-V1.0.0/GEN_FIP/myir-st-optee/ta/stm32mp_nvmem/ta_stm32mp_nvmem.c:173
     42c:	52a80000 	mov	w0, #0x40000000            	// #1073741824
     430:	b9006fe0 	str	w0, [sp, #108]
/media/home/beste/01_Pro/ld25x/bsp_hu/MYD-LD25X-Uboot-L2022.10-V1.0.0/GEN_FIP/myir-st-optee/ta/stm32mp_nvmem/ta_stm32mp_nvmem.c:176
     434:	531e7760 	lsl	w0, w27, #2
     438:	b90073e0 	str	w0, [sp, #112]
/media/home/beste/01_Pro/ld25x/bsp_hu/MYD-LD25X-Uboot-L2022.10-V1.0.0/GEN_FIP/myir-st-optee/ta/stm32mp_nvmem/ta_stm32mp_nvmem.c:177
     43c:	52800040 	mov	w0, #0x2                   	// #2
     440:	b90077e0 	str	w0, [sp, #116]
/media/home/beste/01_Pro/ld25x/bsp_hu/MYD-LD25X-Uboot-L2022.10-V1.0.0/GEN_FIP/myir-st-optee/ta/stm32mp_nvmem/ta_stm32mp_nvmem.c:178
     444:	9101b3e0 	add	x0, sp, #0x6c
     448:	f90043e0 	str	x0, [sp, #128]
/media/home/beste/01_Pro/ld25x/bsp_hu/MYD-LD25X-Uboot-L2022.10-V1.0.0/GEN_FIP/myir-st-optee/ta/stm32mp_nvmem/ta_stm32mp_nvmem.c:180
     44c:	f9400700 	ldr	x0, [x24, #8]
     450:	9101c3e4 	add	x4, sp, #0x70
     454:	d2800005 	mov	x5, #0x0                   	// #0
     458:	52800a23 	mov	w3, #0x51                  	// #81
     45c:	52800022 	mov	w2, #0x1                   	// #1
     460:	12800001 	mov	w1, #0xffffffff            	// #-1
/media/home/beste/01_Pro/ld25x/bsp_hu/MYD-LD25X-Uboot-L2022.10-V1.0.0/GEN_FIP/myir-st-optee/ta/stm32mp_nvmem/ta_stm32mp_nvmem.c:179
     464:	b9008bf9 	str	w25, [sp, #136]
/media/home/beste/01_Pro/ld25x/bsp_hu/MYD-LD25X-Uboot-L2022.10-V1.0.0/GEN_FIP/myir-st-optee/ta/stm32mp_nvmem/ta_stm32mp_nvmem.c:180
     468:	94000598 	bl	1ac8 <TEE_InvokeTACommand>
     46c:	2a0003f3 	mov	w19, w0
/media/home/beste/01_Pro/ld25x/bsp_hu/MYD-LD25X-Uboot-L2022.10-V1.0.0/GEN_FIP/myir-st-optee/ta/stm32mp_nvmem/ta_stm32mp_nvmem.c:184
     470:	34fffd20 	cbz	w0, 414 <TA_InvokeCommandEntryPoint+0x224>
     474:	17ffffc0 	b	374 <TA_InvokeCommandEntryPoint+0x184>
/media/home/beste/01_Pro/ld25x/bsp_hu/MYD-LD25X-Uboot-L2022.10-V1.0.0/GEN_FIP/myir-st-optee/ta/stm32mp_nvmem/ta_stm32mp_nvmem.c:159
     478:	531e7760 	lsl	w0, w27, #2
/media/home/beste/01_Pro/ld25x/bsp_hu/MYD-LD25X-Uboot-L2022.10-V1.0.0/GEN_FIP/myir-st-optee/ta/stm32mp_nvmem/ta_stm32mp_nvmem.c:160
     47c:	290e5fe0 	stp	w0, w23, [sp, #112]
/media/home/beste/01_Pro/ld25x/bsp_hu/MYD-LD25X-Uboot-L2022.10-V1.0.0/GEN_FIP/myir-st-optee/ta/stm32mp_nvmem/ta_stm32mp_nvmem.c:163
     480:	f9400700 	ldr	x0, [x24, #8]
     484:	9101c3e4 	add	x4, sp, #0x70
     488:	d2800005 	mov	x5, #0x0                   	// #0
     48c:	52800a23 	mov	w3, #0x51                  	// #81
     490:	52800022 	mov	w2, #0x1                   	// #1
     494:	12800001 	mov	w1, #0xffffffff            	// #-1
/media/home/beste/01_Pro/ld25x/bsp_hu/MYD-LD25X-Uboot-L2022.10-V1.0.0/GEN_FIP/myir-st-optee/ta/stm32mp_nvmem/ta_stm32mp_nvmem.c:161
     498:	f90043fa 	str	x26, [sp, #128]
/media/home/beste/01_Pro/ld25x/bsp_hu/MYD-LD25X-Uboot-L2022.10-V1.0.0/GEN_FIP/myir-st-optee/ta/stm32mp_nvmem/ta_stm32mp_nvmem.c:162
     49c:	b9008bf9 	str	w25, [sp, #136]
/media/home/beste/01_Pro/ld25x/bsp_hu/MYD-LD25X-Uboot-L2022.10-V1.0.0/GEN_FIP/myir-st-optee/ta/stm32mp_nvmem/ta_stm32mp_nvmem.c:163
     4a0:	9400058a 	bl	1ac8 <TEE_InvokeTACommand>
     4a4:	2a0003f3 	mov	w19, w0
/media/home/beste/01_Pro/ld25x/bsp_hu/MYD-LD25X-Uboot-L2022.10-V1.0.0/GEN_FIP/myir-st-optee/ta/stm32mp_nvmem/ta_stm32mp_nvmem.c:167
     4a8:	34fffc00 	cbz	w0, 428 <TA_InvokeCommandEntryPoint+0x238>
     4ac:	17ffffb2 	b	374 <TA_InvokeCommandEntryPoint+0x184>
nvmem_read():
/media/home/beste/01_Pro/ld25x/bsp_hu/MYD-LD25X-Uboot-L2022.10-V1.0.0/GEN_FIP/myir-st-optee/ta/stm32mp_nvmem/ta_stm32mp_nvmem.c:68
     4b0:	129fff33 	mov	w19, #0xffff0006            	// #-65530
     4b4:	17ffffb0 	b	374 <TA_InvokeCommandEntryPoint+0x184>

00000000000004b8 <__ta_entry>:
__ta_entry():
/media/home/beste/01_Pro/ld25x/bsp_hu/MYD-LD25X-Uboot-L2022.10-V1.0.0/GEN_FIP/myir-st-optee/../build/myb-stm32mp257x-2GB-ca35tdcid-ostl/export-ta_arm64/src/user_ta_header.c:48
     4b8:	a9bf7bfd 	stp	x29, x30, [sp, #-16]!
     4bc:	910003fd 	mov	x29, sp
/media/home/beste/01_Pro/ld25x/bsp_hu/MYD-LD25X-Uboot-L2022.10-V1.0.0/GEN_FIP/myir-st-optee/../build/myb-stm32mp257x-2GB-ca35tdcid-ostl/export-ta_arm64/src/user_ta_header.c:49
     4c0:	94000bba 	bl	33a8 <__utee_entry>
/media/home/beste/01_Pro/ld25x/bsp_hu/MYD-LD25X-Uboot-L2022.10-V1.0.0/GEN_FIP/myir-st-optee/../build/myb-stm32mp257x-2GB-ca35tdcid-ostl/export-ta_arm64/src/user_ta_header.c:60
     4c4:	2a0003e0 	mov	w0, w0
     4c8:	940009f9 	bl	2cac <_utee_return>

00000000000004cc <tahead_get_trace_level>:
tahead_get_trace_level():
/media/home/beste/01_Pro/ld25x/bsp_hu/MYD-LD25X-Uboot-L2022.10-V1.0.0/GEN_FIP/myir-st-optee/../build/myb-stm32mp257x-2GB-ca35tdcid-ostl/export-ta_arm64/src/user_ta_header.c:154
     4cc:	52800020 	mov	w0, #0x1                   	// #1
     4d0:	d65f03c0 	ret

00000000000004d4 <trace_set_level>:
trace_set_level():
/media/home/beste/01_Pro/ld25x/bsp_hu/MYD-LD25X-Uboot-L2022.10-V1.0.0/GEN_FIP/myir-st-optee/lib/libutils/ext/trace.c:28
     4d4:	7100141f 	cmp	w0, #0x5
     4d8:	52800081 	mov	w1, #0x4                   	// #4
     4dc:	1a813000 	csel	w0, w0, w1, cc	// cc = lo, ul, last
     4e0:	900000a1 	adrp	x1, 14000 <_DYNAMIC>
     4e4:	f940a021 	ldr	x1, [x1, #320]
     4e8:	b9000020 	str	w0, [x1]
/media/home/beste/01_Pro/ld25x/bsp_hu/MYD-LD25X-Uboot-L2022.10-V1.0.0/GEN_FIP/myir-st-optee/lib/libutils/ext/trace.c:29
     4ec:	d65f03c0 	ret

00000000000004f0 <trace_get_level>:
trace_get_level():
/media/home/beste/01_Pro/ld25x/bsp_hu/MYD-LD25X-Uboot-L2022.10-V1.0.0/GEN_FIP/myir-st-optee/lib/libutils/ext/trace.c:33
     4f0:	900000a0 	adrp	x0, 14000 <_DYNAMIC>
/media/home/beste/01_Pro/ld25x/bsp_hu/MYD-LD25X-Uboot-L2022.10-V1.0.0/GEN_FIP/myir-st-optee/lib/libutils/ext/trace.c:34
     4f4:	f940a000 	ldr	x0, [x0, #320]
     4f8:	b9400000 	ldr	w0, [x0]
     4fc:	d65f03c0 	ret

0000000000000500 <trace_vprintf>:
trace_vprintf():
/media/home/beste/01_Pro/ld25x/bsp_hu/MYD-LD25X-Uboot-L2022.10-V1.0.0/GEN_FIP/myir-st-optee/lib/libutils/ext/trace.c:113
     500:	a9a87bfd 	stp	x29, x30, [sp, #-384]!
     504:	910003fd 	mov	x29, sp
     508:	a90153f3 	stp	x19, x20, [sp, #16]
     50c:	2a0203f3 	mov	w19, w2
     510:	a9025bf5 	stp	x21, x22, [sp, #32]
     514:	aa0003f6 	mov	x22, x0
     518:	a90363f7 	stp	x23, x24, [sp, #48]
     51c:	aa0403f7 	mov	x23, x4
     520:	aa0503f8 	mov	x24, x5
     524:	a9046bf9 	stp	x25, x26, [sp, #64]
     528:	2a0103f9 	mov	w25, w1
/media/home/beste/01_Pro/ld25x/bsp_hu/MYD-LD25X-Uboot-L2022.10-V1.0.0/GEN_FIP/myir-st-optee/lib/libutils/ext/trace.c:118
     52c:	72001c7a 	ands	w26, w3, #0xff
/media/home/beste/01_Pro/ld25x/bsp_hu/MYD-LD25X-Uboot-L2022.10-V1.0.0/GEN_FIP/myir-st-optee/lib/libutils/ext/trace.c:113
     530:	f9002bfb 	str	x27, [sp, #80]
/media/home/beste/01_Pro/ld25x/bsp_hu/MYD-LD25X-Uboot-L2022.10-V1.0.0/GEN_FIP/myir-st-optee/lib/libutils/ext/trace.c:118
     534:	54000b60 	b.eq	6a0 <trace_vprintf+0x1a0>  // b.none
/media/home/beste/01_Pro/ld25x/bsp_hu/MYD-LD25X-Uboot-L2022.10-V1.0.0/GEN_FIP/myir-st-optee/lib/libutils/ext/trace.c:118 (discriminator 1)
     538:	900000a3 	adrp	x3, 14000 <_DYNAMIC>
     53c:	f940a063 	ldr	x3, [x3, #320]
     540:	b9400060 	ldr	w0, [x3]
     544:	6b02001f 	cmp	w0, w2
     548:	540009eb 	b.lt	684 <trace_vprintf+0x184>  // b.tstop
trace_level_to_string():
/media/home/beste/01_Pro/ld25x/bsp_hu/MYD-LD25X-Uboot-L2022.10-V1.0.0/GEN_FIP/myir-st-optee/lib/libutils/ext/trace.c:51
     54c:	7100105f 	cmp	w2, #0x4
/media/home/beste/01_Pro/ld25x/bsp_hu/MYD-LD25X-Uboot-L2022.10-V1.0.0/GEN_FIP/myir-st-optee/lib/libutils/ext/trace.c:54
     550:	d0000080 	adrp	x0, 12000 <small_prime+0x238>
/media/home/beste/01_Pro/ld25x/bsp_hu/MYD-LD25X-Uboot-L2022.10-V1.0.0/GEN_FIP/myir-st-optee/lib/libutils/ext/trace.c:51
     554:	1a9f9041 	csel	w1, w2, wzr, ls	// ls = plast
/media/home/beste/01_Pro/ld25x/bsp_hu/MYD-LD25X-Uboot-L2022.10-V1.0.0/GEN_FIP/myir-st-optee/lib/libutils/ext/trace.c:54
     558:	9105d000 	add	x0, x0, #0x174
     55c:	3861c803 	ldrb	w3, [x0, w1, sxtw]
trace_vprintf():
/media/home/beste/01_Pro/ld25x/bsp_hu/MYD-LD25X-Uboot-L2022.10-V1.0.0/GEN_FIP/myir-st-optee/lib/libutils/ext/trace.c:122
     560:	910203f5 	add	x21, sp, #0x80
     564:	d0000082 	adrp	x2, 12000 <small_prime+0x238>
     568:	aa1503e0 	mov	x0, x21
     56c:	91056842 	add	x2, x2, #0x15a
     570:	d2802001 	mov	x1, #0x100                 	// #256
     574:	940000b6 	bl	84c <snprintk>
/media/home/beste/01_Pro/ld25x/bsp_hu/MYD-LD25X-Uboot-L2022.10-V1.0.0/GEN_FIP/myir-st-optee/lib/libutils/ext/trace.c:124
     578:	37f80860 	tbnz	w0, #31, 684 <trace_vprintf+0x184>
/media/home/beste/01_Pro/ld25x/bsp_hu/MYD-LD25X-Uboot-L2022.10-V1.0.0/GEN_FIP/myir-st-optee/lib/libutils/ext/trace.c:129
     57c:	900000a3 	adrp	x3, 14000 <_DYNAMIC>
     580:	d280201b 	mov	x27, #0x100                 	// #256
/media/home/beste/01_Pro/ld25x/bsp_hu/MYD-LD25X-Uboot-L2022.10-V1.0.0/GEN_FIP/myir-st-optee/lib/libutils/ext/trace.c:126
     584:	93407c14 	sxtw	x20, w0
/media/home/beste/01_Pro/ld25x/bsp_hu/MYD-LD25X-Uboot-L2022.10-V1.0.0/GEN_FIP/myir-st-optee/lib/libutils/ext/trace.c:129
     588:	cb20c361 	sub	x1, x27, w0, sxtw
     58c:	f940a863 	ldr	x3, [x3, #336]
     590:	d0000082 	adrp	x2, 12000 <small_prime+0x238>
     594:	8b20c2a0 	add	x0, x21, w0, sxtw
     598:	91057842 	add	x2, x2, #0x15e
     59c:	940000ac 	bl	84c <snprintk>
/media/home/beste/01_Pro/ld25x/bsp_hu/MYD-LD25X-Uboot-L2022.10-V1.0.0/GEN_FIP/myir-st-optee/lib/libutils/ext/trace.c:131
     5a0:	37f80720 	tbnz	w0, #31, 684 <trace_vprintf+0x184>
/media/home/beste/01_Pro/ld25x/bsp_hu/MYD-LD25X-Uboot-L2022.10-V1.0.0/GEN_FIP/myir-st-optee/lib/libutils/ext/trace.c:133
     5a4:	8b20c294 	add	x20, x20, w0, sxtw
/media/home/beste/01_Pro/ld25x/bsp_hu/MYD-LD25X-Uboot-L2022.10-V1.0.0/GEN_FIP/myir-st-optee/lib/libutils/ext/trace.c:135
     5a8:	3400093a 	cbz	w26, 6cc <trace_vprintf+0x1cc>
/media/home/beste/01_Pro/ld25x/bsp_hu/MYD-LD25X-Uboot-L2022.10-V1.0.0/GEN_FIP/myir-st-optee/lib/libutils/ext/trace.c:135 (discriminator 1)
     5ac:	52800340 	mov	w0, #0x1a                  	// #26
     5b0:	1ad32400 	lsr	w0, w0, w19
     5b4:	360008c0 	tbz	w0, #0, 6cc <trace_vprintf+0x1cc>
print_thread_id():
/media/home/beste/01_Pro/ld25x/bsp_hu/MYD-LD25X-Uboot-L2022.10-V1.0.0/GEN_FIP/myir-st-optee/lib/libutils/ext/trace.c:66
     5b8:	940003ea 	bl	1560 <trace_ext_get_thread_id>
trace_vprintf():
/media/home/beste/01_Pro/ld25x/bsp_hu/MYD-LD25X-Uboot-L2022.10-V1.0.0/GEN_FIP/myir-st-optee/lib/libutils/ext/trace.c:137
     5bc:	8b1402ba 	add	x26, x21, x20
     5c0:	cb14037b 	sub	x27, x27, x20
print_thread_id():
/media/home/beste/01_Pro/ld25x/bsp_hu/MYD-LD25X-Uboot-L2022.10-V1.0.0/GEN_FIP/myir-st-optee/lib/libutils/ext/trace.c:66
     5c4:	2a0003e4 	mov	w4, w0
/media/home/beste/01_Pro/ld25x/bsp_hu/MYD-LD25X-Uboot-L2022.10-V1.0.0/GEN_FIP/myir-st-optee/lib/libutils/ext/trace.c:68
     5c8:	37f80700 	tbnz	w0, #31, 6a8 <trace_vprintf+0x1a8>
/media/home/beste/01_Pro/ld25x/bsp_hu/MYD-LD25X-Uboot-L2022.10-V1.0.0/GEN_FIP/myir-st-optee/lib/libutils/ext/trace.c:69
     5cc:	d0000082 	adrp	x2, 12000 <small_prime+0x238>
     5d0:	aa1b03e1 	mov	x1, x27
     5d4:	91058842 	add	x2, x2, #0x162
     5d8:	aa1a03e0 	mov	x0, x26
     5dc:	52800023 	mov	w3, #0x1                   	// #1
     5e0:	9400009b 	bl	84c <snprintk>
trace_vprintf():
/media/home/beste/01_Pro/ld25x/bsp_hu/MYD-LD25X-Uboot-L2022.10-V1.0.0/GEN_FIP/myir-st-optee/lib/libutils/ext/trace.c:144
     5e4:	37f80500 	tbnz	w0, #31, 684 <trace_vprintf+0x184>
/media/home/beste/01_Pro/ld25x/bsp_hu/MYD-LD25X-Uboot-L2022.10-V1.0.0/GEN_FIP/myir-st-optee/lib/libutils/ext/trace.c:146
     5e8:	8b20c293 	add	x19, x20, w0, sxtw
/media/home/beste/01_Pro/ld25x/bsp_hu/MYD-LD25X-Uboot-L2022.10-V1.0.0/GEN_FIP/myir-st-optee/lib/libutils/ext/trace.c:148
     5ec:	b4000176 	cbz	x22, 618 <trace_vprintf+0x118>
/media/home/beste/01_Pro/ld25x/bsp_hu/MYD-LD25X-Uboot-L2022.10-V1.0.0/GEN_FIP/myir-st-optee/lib/libutils/ext/trace.c:149
     5f0:	d0000082 	adrp	x2, 12000 <small_prime+0x238>
     5f4:	d2802001 	mov	x1, #0x100                 	// #256
     5f8:	2a1903e4 	mov	w4, w25
     5fc:	aa1603e3 	mov	x3, x22
     600:	9105b442 	add	x2, x2, #0x16d
     604:	cb130021 	sub	x1, x1, x19
     608:	8b1302a0 	add	x0, x21, x19
     60c:	94000090 	bl	84c <snprintk>
/media/home/beste/01_Pro/ld25x/bsp_hu/MYD-LD25X-Uboot-L2022.10-V1.0.0/GEN_FIP/myir-st-optee/lib/libutils/ext/trace.c:151
     610:	37f803a0 	tbnz	w0, #31, 684 <trace_vprintf+0x184>
/media/home/beste/01_Pro/ld25x/bsp_hu/MYD-LD25X-Uboot-L2022.10-V1.0.0/GEN_FIP/myir-st-optee/lib/libutils/ext/trace.c:153
     614:	8b20c273 	add	x19, x19, w0, sxtw
/media/home/beste/01_Pro/ld25x/bsp_hu/MYD-LD25X-Uboot-L2022.10-V1.0.0/GEN_FIP/myir-st-optee/lib/libutils/ext/trace.c:163
     618:	910183e3 	add	x3, sp, #0x60
     61c:	aa1803e1 	mov	x1, x24
     620:	aa0303e0 	mov	x0, x3
     624:	d2800402 	mov	x2, #0x20                  	// #32
     628:	97fffe7e 	bl	20 <memcpy>
     62c:	aa0003e3 	mov	x3, x0
     630:	d2802001 	mov	x1, #0x100                 	// #256
     634:	aa1703e2 	mov	x2, x23
     638:	cb130021 	sub	x1, x1, x19
     63c:	8b1302a0 	add	x0, x21, x19
     640:	9400006d 	bl	7f4 <vsnprintk>
/media/home/beste/01_Pro/ld25x/bsp_hu/MYD-LD25X-Uboot-L2022.10-V1.0.0/GEN_FIP/myir-st-optee/lib/libutils/ext/trace.c:164
     644:	7100001f 	cmp	w0, #0x0
     648:	5400004d 	b.le	650 <trace_vprintf+0x150>
/media/home/beste/01_Pro/ld25x/bsp_hu/MYD-LD25X-Uboot-L2022.10-V1.0.0/GEN_FIP/myir-st-optee/lib/libutils/ext/trace.c:165
     64c:	8b20c273 	add	x19, x19, w0, sxtw
/media/home/beste/01_Pro/ld25x/bsp_hu/MYD-LD25X-Uboot-L2022.10-V1.0.0/GEN_FIP/myir-st-optee/lib/libutils/ext/trace.c:167
     650:	f103fa7f 	cmp	x19, #0xfe
     654:	d2801fc0 	mov	x0, #0xfe                  	// #254
     658:	9a809273 	csel	x19, x19, x0, ls	// ls = plast
/media/home/beste/01_Pro/ld25x/bsp_hu/MYD-LD25X-Uboot-L2022.10-V1.0.0/GEN_FIP/myir-st-optee/lib/libutils/ext/trace.c:170
     65c:	52800140 	mov	w0, #0xa                   	// #10
     660:	38336aa0 	strb	w0, [x21, x19]
/media/home/beste/01_Pro/ld25x/bsp_hu/MYD-LD25X-Uboot-L2022.10-V1.0.0/GEN_FIP/myir-st-optee/lib/libutils/ext/trace.c:171
     664:	b4000093 	cbz	x19, 674 <trace_vprintf+0x174>
/media/home/beste/01_Pro/ld25x/bsp_hu/MYD-LD25X-Uboot-L2022.10-V1.0.0/GEN_FIP/myir-st-optee/lib/libutils/ext/trace.c:171 (discriminator 1)
     668:	38736aa0 	ldrb	w0, [x21, x19]
     66c:	7100281f 	cmp	w0, #0xa
     670:	540003c0 	b.eq	6e8 <trace_vprintf+0x1e8>  // b.none
/media/home/beste/01_Pro/ld25x/bsp_hu/MYD-LD25X-Uboot-L2022.10-V1.0.0/GEN_FIP/myir-st-optee/lib/libutils/ext/trace.c:174
     674:	91020be0 	add	x0, sp, #0x82
     678:	3833681f 	strb	wzr, [x0, x19]
/media/home/beste/01_Pro/ld25x/bsp_hu/MYD-LD25X-Uboot-L2022.10-V1.0.0/GEN_FIP/myir-st-optee/lib/libutils/ext/trace.c:176
     67c:	aa1503e0 	mov	x0, x21
     680:	940003ae 	bl	1538 <trace_ext_puts>
/media/home/beste/01_Pro/ld25x/bsp_hu/MYD-LD25X-Uboot-L2022.10-V1.0.0/GEN_FIP/myir-st-optee/lib/libutils/ext/trace.c:177
     684:	a94153f3 	ldp	x19, x20, [sp, #16]
     688:	a9425bf5 	ldp	x21, x22, [sp, #32]
     68c:	a94363f7 	ldp	x23, x24, [sp, #48]
     690:	a9446bf9 	ldp	x25, x26, [sp, #64]
     694:	f9402bfb 	ldr	x27, [sp, #80]
     698:	a8d87bfd 	ldp	x29, x30, [sp], #384
     69c:	d65f03c0 	ret
trace_level_to_string():
/media/home/beste/01_Pro/ld25x/bsp_hu/MYD-LD25X-Uboot-L2022.10-V1.0.0/GEN_FIP/myir-st-optee/lib/libutils/ext/trace.c:49
     6a0:	528009a3 	mov	w3, #0x4d                  	// #77
     6a4:	17ffffaf 	b	560 <trace_vprintf+0x60>
print_thread_id():
/media/home/beste/01_Pro/ld25x/bsp_hu/MYD-LD25X-Uboot-L2022.10-V1.0.0/GEN_FIP/myir-st-optee/lib/libutils/ext/trace.c:71
     6a8:	aa1b03e1 	mov	x1, x27
     6ac:	aa1a03e0 	mov	x0, x26
     6b0:	d0000084 	adrp	x4, 12000 <small_prime+0x238>
     6b4:	52800023 	mov	w3, #0x1                   	// #1
     6b8:	912a3084 	add	x4, x4, #0xa8c
     6bc:	d0000082 	adrp	x2, 12000 <small_prime+0x238>
     6c0:	9105a042 	add	x2, x2, #0x168
     6c4:	94000062 	bl	84c <snprintk>
     6c8:	17ffffc7 	b	5e4 <trace_vprintf+0xe4>
trace_vprintf():
/media/home/beste/01_Pro/ld25x/bsp_hu/MYD-LD25X-Uboot-L2022.10-V1.0.0/GEN_FIP/myir-st-optee/lib/libutils/ext/trace.c:157
     6cc:	f103fa9f 	cmp	x20, #0xfe
     6d0:	54fffda8 	b.hi	684 <trace_vprintf+0x184>  // b.pmore
/media/home/beste/01_Pro/ld25x/bsp_hu/MYD-LD25X-Uboot-L2022.10-V1.0.0/GEN_FIP/myir-st-optee/lib/libutils/ext/trace.c:159
     6d4:	91000693 	add	x19, x20, #0x1
     6d8:	52800400 	mov	w0, #0x20                  	// #32
     6dc:	38346aa0 	strb	w0, [x21, x20]
/media/home/beste/01_Pro/ld25x/bsp_hu/MYD-LD25X-Uboot-L2022.10-V1.0.0/GEN_FIP/myir-st-optee/lib/libutils/ext/trace.c:160
     6e0:	38336abf 	strb	wzr, [x21, x19]
     6e4:	17ffffcd 	b	618 <trace_vprintf+0x118>
/media/home/beste/01_Pro/ld25x/bsp_hu/MYD-LD25X-Uboot-L2022.10-V1.0.0/GEN_FIP/myir-st-optee/lib/libutils/ext/trace.c:172
     6e8:	d1000673 	sub	x19, x19, #0x1
     6ec:	17ffffde 	b	664 <trace_vprintf+0x164>

00000000000006f0 <trace_printf>:
trace_printf():
/media/home/beste/01_Pro/ld25x/bsp_hu/MYD-LD25X-Uboot-L2022.10-V1.0.0/GEN_FIP/myir-st-optee/lib/libutils/ext/trace.c:104
     6f0:	a9b17bfd 	stp	x29, x30, [sp, #-240]!
     6f4:	910003fd 	mov	x29, sp
     6f8:	a90d9be5 	stp	x5, x6, [sp, #216]
/media/home/beste/01_Pro/ld25x/bsp_hu/MYD-LD25X-Uboot-L2022.10-V1.0.0/GEN_FIP/myir-st-optee/lib/libutils/ext/trace.c:107
     6fc:	9103c3e5 	add	x5, sp, #0xf0
     700:	a90317e5 	stp	x5, x5, [sp, #48]
     704:	910343e5 	add	x5, sp, #0xd0
     708:	f90023e5 	str	x5, [sp, #64]
     70c:	128002e5 	mov	w5, #0xffffffe8            	// #-24
     710:	b9004be5 	str	w5, [sp, #72]
     714:	12800fe5 	mov	w5, #0xffffff80            	// #-128
     718:	b9004fe5 	str	w5, [sp, #76]
/media/home/beste/01_Pro/ld25x/bsp_hu/MYD-LD25X-Uboot-L2022.10-V1.0.0/GEN_FIP/myir-st-optee/lib/libutils/ext/trace.c:108
     71c:	910043e5 	add	x5, sp, #0x10
/media/home/beste/01_Pro/ld25x/bsp_hu/MYD-LD25X-Uboot-L2022.10-V1.0.0/GEN_FIP/myir-st-optee/lib/libutils/ext/trace.c:104
     720:	f90077e7 	str	x7, [sp, #232]
/media/home/beste/01_Pro/ld25x/bsp_hu/MYD-LD25X-Uboot-L2022.10-V1.0.0/GEN_FIP/myir-st-optee/lib/libutils/ext/trace.c:108
     724:	a9431fe6 	ldp	x6, x7, [sp, #48]
     728:	a9011fe6 	stp	x6, x7, [sp, #16]
     72c:	a9441fe6 	ldp	x6, x7, [sp, #64]
     730:	a9021fe6 	stp	x6, x7, [sp, #32]
/media/home/beste/01_Pro/ld25x/bsp_hu/MYD-LD25X-Uboot-L2022.10-V1.0.0/GEN_FIP/myir-st-optee/lib/libutils/ext/trace.c:104
     734:	3d8017e0 	str	q0, [sp, #80]
     738:	3d801be1 	str	q1, [sp, #96]
     73c:	3d801fe2 	str	q2, [sp, #112]
     740:	3d8023e3 	str	q3, [sp, #128]
     744:	3d8027e4 	str	q4, [sp, #144]
     748:	3d802be5 	str	q5, [sp, #160]
     74c:	3d802fe6 	str	q6, [sp, #176]
     750:	3d8033e7 	str	q7, [sp, #192]
/media/home/beste/01_Pro/ld25x/bsp_hu/MYD-LD25X-Uboot-L2022.10-V1.0.0/GEN_FIP/myir-st-optee/lib/libutils/ext/trace.c:108
     754:	97ffff6b 	bl	500 <trace_vprintf>
/media/home/beste/01_Pro/ld25x/bsp_hu/MYD-LD25X-Uboot-L2022.10-V1.0.0/GEN_FIP/myir-st-optee/lib/libutils/ext/trace.c:110
     758:	a8cf7bfd 	ldp	x29, x30, [sp], #240
     75c:	d65f03c0 	ret

0000000000000760 <dhex_dump>:
dhex_dump():
/media/home/beste/01_Pro/ld25x/bsp_hu/MYD-LD25X-Uboot-L2022.10-V1.0.0/GEN_FIP/myir-st-optee/lib/libutils/ext/trace.c:287
     760:	d65f03c0 	ret

0000000000000764 <__vsnprintf>:
__vsnprintf():
/media/home/beste/01_Pro/ld25x/bsp_hu/MYD-LD25X-Uboot-L2022.10-V1.0.0/GEN_FIP/myir-st-optee/lib/libutils/ext/snprintk.c:138
     764:	a9b97bfd 	stp	x29, x30, [sp, #-112]!
/media/home/beste/01_Pro/ld25x/bsp_hu/MYD-LD25X-Uboot-L2022.10-V1.0.0/GEN_FIP/myir-st-optee/lib/libutils/ext/snprintk.c:143
     768:	910103e5 	add	x5, sp, #0x40
/media/home/beste/01_Pro/ld25x/bsp_hu/MYD-LD25X-Uboot-L2022.10-V1.0.0/GEN_FIP/myir-st-optee/lib/libutils/ext/snprintk.c:138
     76c:	910003fd 	mov	x29, sp
     770:	a90153f3 	stp	x19, x20, [sp, #16]
     774:	aa0103f4 	mov	x20, x1
     778:	aa0003f3 	mov	x19, x0
     77c:	aa0303e1 	mov	x1, x3
     780:	a9025bf5 	stp	x21, x22, [sp, #32]
     784:	aa0203f5 	mov	x21, x2
/media/home/beste/01_Pro/ld25x/bsp_hu/MYD-LD25X-Uboot-L2022.10-V1.0.0/GEN_FIP/myir-st-optee/lib/libutils/ext/snprintk.c:142
     788:	8b140016 	add	x22, x0, x20
/media/home/beste/01_Pro/ld25x/bsp_hu/MYD-LD25X-Uboot-L2022.10-V1.0.0/GEN_FIP/myir-st-optee/lib/libutils/ext/snprintk.c:143
     78c:	d2800402 	mov	x2, #0x20                  	// #32
     790:	aa0503e0 	mov	x0, x5
/media/home/beste/01_Pro/ld25x/bsp_hu/MYD-LD25X-Uboot-L2022.10-V1.0.0/GEN_FIP/myir-st-optee/lib/libutils/ext/snprintk.c:138
     794:	f9001bf7 	str	x23, [sp, #48]
     798:	12001c97 	and	w23, w4, #0xff
/media/home/beste/01_Pro/ld25x/bsp_hu/MYD-LD25X-Uboot-L2022.10-V1.0.0/GEN_FIP/myir-st-optee/lib/libutils/ext/snprintk.c:142
     79c:	f90037f6 	str	x22, [sp, #104]
/media/home/beste/01_Pro/ld25x/bsp_hu/MYD-LD25X-Uboot-L2022.10-V1.0.0/GEN_FIP/myir-st-optee/lib/libutils/ext/snprintk.c:143
     7a0:	97fffe20 	bl	20 <memcpy>
     7a4:	aa0003e3 	mov	x3, x0
     7a8:	2a1703e4 	mov	w4, w23
     7ac:	aa1303e2 	mov	x2, x19
     7b0:	9101a3e1 	add	x1, sp, #0x68
     7b4:	aa1503e0 	mov	x0, x21
     7b8:	94000042 	bl	8c0 <kprintf.constprop.0>
/media/home/beste/01_Pro/ld25x/bsp_hu/MYD-LD25X-Uboot-L2022.10-V1.0.0/GEN_FIP/myir-st-optee/lib/libutils/ext/snprintk.c:144
     7bc:	f100027f 	cmp	x19, #0x0
     7c0:	fa401a84 	ccmp	x20, #0x0, #0x4, ne	// ne = any
     7c4:	540000a0 	b.eq	7d8 <__vsnprintf+0x74>  // b.none
/media/home/beste/01_Pro/ld25x/bsp_hu/MYD-LD25X-Uboot-L2022.10-V1.0.0/GEN_FIP/myir-st-optee/lib/libutils/ext/snprintk.c:146
     7c8:	93407c01 	sxtw	x1, w0
     7cc:	eb20c29f 	cmp	x20, w0, sxtw
     7d0:	540000e8 	b.hi	7ec <__vsnprintf+0x88>  // b.pmore
/media/home/beste/01_Pro/ld25x/bsp_hu/MYD-LD25X-Uboot-L2022.10-V1.0.0/GEN_FIP/myir-st-optee/lib/libutils/ext/snprintk.c:147
     7d4:	381ff2df 	sturb	wzr, [x22, #-1]
/media/home/beste/01_Pro/ld25x/bsp_hu/MYD-LD25X-Uboot-L2022.10-V1.0.0/GEN_FIP/myir-st-optee/lib/libutils/ext/snprintk.c:152
     7d8:	a94153f3 	ldp	x19, x20, [sp, #16]
     7dc:	a9425bf5 	ldp	x21, x22, [sp, #32]
     7e0:	f9401bf7 	ldr	x23, [sp, #48]
     7e4:	a8c77bfd 	ldp	x29, x30, [sp], #112
     7e8:	d65f03c0 	ret
/media/home/beste/01_Pro/ld25x/bsp_hu/MYD-LD25X-Uboot-L2022.10-V1.0.0/GEN_FIP/myir-st-optee/lib/libutils/ext/snprintk.c:149
     7ec:	38216a7f 	strb	wzr, [x19, x1]
/media/home/beste/01_Pro/ld25x/bsp_hu/MYD-LD25X-Uboot-L2022.10-V1.0.0/GEN_FIP/myir-st-optee/lib/libutils/ext/snprintk.c:151
     7f0:	17fffffa 	b	7d8 <__vsnprintf+0x74>

00000000000007f4 <vsnprintk>:
vsnprintk():
/media/home/beste/01_Pro/ld25x/bsp_hu/MYD-LD25X-Uboot-L2022.10-V1.0.0/GEN_FIP/myir-st-optee/lib/libutils/ext/snprintk.c:130
     7f4:	a9bb7bfd 	stp	x29, x30, [sp, #-80]!
/media/home/beste/01_Pro/ld25x/bsp_hu/MYD-LD25X-Uboot-L2022.10-V1.0.0/GEN_FIP/myir-st-optee/lib/libutils/ext/snprintk.c:131
     7f8:	9100c3e4 	add	x4, sp, #0x30
/media/home/beste/01_Pro/ld25x/bsp_hu/MYD-LD25X-Uboot-L2022.10-V1.0.0/GEN_FIP/myir-st-optee/lib/libutils/ext/snprintk.c:130
     7fc:	910003fd 	mov	x29, sp
     800:	a90153f3 	stp	x19, x20, [sp, #16]
     804:	aa0003f3 	mov	x19, x0
     808:	aa0103f4 	mov	x20, x1
/media/home/beste/01_Pro/ld25x/bsp_hu/MYD-LD25X-Uboot-L2022.10-V1.0.0/GEN_FIP/myir-st-optee/lib/libutils/ext/snprintk.c:131
     80c:	aa0403e0 	mov	x0, x4
/media/home/beste/01_Pro/ld25x/bsp_hu/MYD-LD25X-Uboot-L2022.10-V1.0.0/GEN_FIP/myir-st-optee/lib/libutils/ext/snprintk.c:130
     810:	aa0303e1 	mov	x1, x3
     814:	f90013f5 	str	x21, [sp, #32]
     818:	aa0203f5 	mov	x21, x2
/media/home/beste/01_Pro/ld25x/bsp_hu/MYD-LD25X-Uboot-L2022.10-V1.0.0/GEN_FIP/myir-st-optee/lib/libutils/ext/snprintk.c:131
     81c:	d2800402 	mov	x2, #0x20                  	// #32
     820:	97fffe00 	bl	20 <memcpy>
     824:	aa1503e2 	mov	x2, x21
     828:	aa0003e3 	mov	x3, x0
     82c:	aa1403e1 	mov	x1, x20
     830:	aa1303e0 	mov	x0, x19
     834:	52800024 	mov	w4, #0x1                   	// #1
     838:	97ffffcb 	bl	764 <__vsnprintf>
/media/home/beste/01_Pro/ld25x/bsp_hu/MYD-LD25X-Uboot-L2022.10-V1.0.0/GEN_FIP/myir-st-optee/lib/libutils/ext/snprintk.c:132
     83c:	a94153f3 	ldp	x19, x20, [sp, #16]
     840:	f94013f5 	ldr	x21, [sp, #32]
     844:	a8c57bfd 	ldp	x29, x30, [sp], #80
     848:	d65f03c0 	ret

000000000000084c <snprintk>:
snprintk():
/media/home/beste/01_Pro/ld25x/bsp_hu/MYD-LD25X-Uboot-L2022.10-V1.0.0/GEN_FIP/myir-st-optee/lib/libutils/ext/snprintk.c:113
     84c:	a9b07bfd 	stp	x29, x30, [sp, #-256]!
     850:	910003fd 	mov	x29, sp
     854:	a90d93e3 	stp	x3, x4, [sp, #216]
/media/home/beste/01_Pro/ld25x/bsp_hu/MYD-LD25X-Uboot-L2022.10-V1.0.0/GEN_FIP/myir-st-optee/lib/libutils/ext/snprintk.c:117
     858:	910403e3 	add	x3, sp, #0x100
     85c:	a9030fe3 	stp	x3, x3, [sp, #48]
     860:	910343e3 	add	x3, sp, #0xd0
     864:	f90023e3 	str	x3, [sp, #64]
     868:	128004e3 	mov	w3, #0xffffffd8            	// #-40
     86c:	b9004be3 	str	w3, [sp, #72]
     870:	12800fe3 	mov	w3, #0xffffff80            	// #-128
     874:	b9004fe3 	str	w3, [sp, #76]
/media/home/beste/01_Pro/ld25x/bsp_hu/MYD-LD25X-Uboot-L2022.10-V1.0.0/GEN_FIP/myir-st-optee/lib/libutils/ext/snprintk.c:118
     878:	910043e3 	add	x3, sp, #0x10
/media/home/beste/01_Pro/ld25x/bsp_hu/MYD-LD25X-Uboot-L2022.10-V1.0.0/GEN_FIP/myir-st-optee/lib/libutils/ext/snprintk.c:113
     87c:	a90e9be5 	stp	x5, x6, [sp, #232]
/media/home/beste/01_Pro/ld25x/bsp_hu/MYD-LD25X-Uboot-L2022.10-V1.0.0/GEN_FIP/myir-st-optee/lib/libutils/ext/snprintk.c:118
     880:	a94317e4 	ldp	x4, x5, [sp, #48]
     884:	a90117e4 	stp	x4, x5, [sp, #16]
     888:	a94417e4 	ldp	x4, x5, [sp, #64]
     88c:	a90217e4 	stp	x4, x5, [sp, #32]
/media/home/beste/01_Pro/ld25x/bsp_hu/MYD-LD25X-Uboot-L2022.10-V1.0.0/GEN_FIP/myir-st-optee/lib/libutils/ext/snprintk.c:113
     890:	3d8017e0 	str	q0, [sp, #80]
     894:	3d801be1 	str	q1, [sp, #96]
     898:	3d801fe2 	str	q2, [sp, #112]
     89c:	3d8023e3 	str	q3, [sp, #128]
     8a0:	3d8027e4 	str	q4, [sp, #144]
     8a4:	3d802be5 	str	q5, [sp, #160]
     8a8:	3d802fe6 	str	q6, [sp, #176]
     8ac:	3d8033e7 	str	q7, [sp, #192]
     8b0:	f9007fe7 	str	x7, [sp, #248]
/media/home/beste/01_Pro/ld25x/bsp_hu/MYD-LD25X-Uboot-L2022.10-V1.0.0/GEN_FIP/myir-st-optee/lib/libutils/ext/snprintk.c:118
     8b4:	97ffffd0 	bl	7f4 <vsnprintk>
/media/home/beste/01_Pro/ld25x/bsp_hu/MYD-LD25X-Uboot-L2022.10-V1.0.0/GEN_FIP/myir-st-optee/lib/libutils/ext/snprintk.c:122
     8b8:	a8d07bfd 	ldp	x29, x30, [sp], #256
     8bc:	d65f03c0 	ret

00000000000008c0 <kprintf.constprop.0>:
kprintf():
/media/home/beste/01_Pro/ld25x/bsp_hu/MYD-LD25X-Uboot-L2022.10-V1.0.0/GEN_FIP/myir-st-optee/lib/libutils/ext/snprintk.c:242
     8c0:	d103c3ff 	sub	sp, sp, #0xf0
     8c4:	aa0103eb 	mov	x11, x1
     8c8:	a9037bfd 	stp	x29, x30, [sp, #48]
     8cc:	9100c3fd 	add	x29, sp, #0x30
     8d0:	a90453f3 	stp	x19, x20, [sp, #64]
     8d4:	b9401874 	ldr	w20, [x3, #24]
     8d8:	a9055bf5 	stp	x21, x22, [sp, #80]
     8dc:	aa0203f5 	mov	x21, x2
     8e0:	a90663f7 	stp	x23, x24, [sp, #96]
     8e4:	a9076bf9 	stp	x25, x26, [sp, #112]
     8e8:	a90873fb 	stp	x27, x28, [sp, #128]
     8ec:	aa0003fc 	mov	x28, x0
     8f0:	12001c80 	and	w0, w4, #0xff
     8f4:	b900abe0 	str	w0, [sp, #168]
     8f8:	a9406c73 	ldp	x19, x27, [x3]
/media/home/beste/01_Pro/ld25x/bsp_hu/MYD-LD25X-Uboot-L2022.10-V1.0.0/GEN_FIP/myir-st-optee/lib/libutils/ext/snprintk.c:264
     8fc:	b4000421 	cbz	x1, 980 <kprintf.constprop.0+0xc0>
/media/home/beste/01_Pro/ld25x/bsp_hu/MYD-LD25X-Uboot-L2022.10-V1.0.0/GEN_FIP/myir-st-optee/lib/libutils/ext/snprintk.c:265
     900:	f9400039 	ldr	x25, [x1]
/media/home/beste/01_Pro/ld25x/bsp_hu/MYD-LD25X-Uboot-L2022.10-V1.0.0/GEN_FIP/myir-st-optee/lib/libutils/ext/snprintk.c:297
     904:	b0000098 	adrp	x24, 11000 <__text_end+0x232c>
/media/home/beste/01_Pro/ld25x/bsp_hu/MYD-LD25X-Uboot-L2022.10-V1.0.0/GEN_FIP/myir-st-optee/lib/libutils/ext/snprintk.c:275
     908:	d2800017 	mov	x23, #0x0                   	// #0
/media/home/beste/01_Pro/ld25x/bsp_hu/MYD-LD25X-Uboot-L2022.10-V1.0.0/GEN_FIP/myir-st-optee/lib/libutils/ext/snprintk.c:297
     90c:	9133d300 	add	x0, x24, #0xcf4
/media/home/beste/01_Pro/ld25x/bsp_hu/MYD-LD25X-Uboot-L2022.10-V1.0.0/GEN_FIP/myir-st-optee/lib/libutils/ext/snprintk.c:273
     910:	5280001a 	mov	w26, #0x0                   	// #0
/media/home/beste/01_Pro/ld25x/bsp_hu/MYD-LD25X-Uboot-L2022.10-V1.0.0/GEN_FIP/myir-st-optee/lib/libutils/ext/snprintk.c:297
     914:	f9004fe0 	str	x0, [sp, #152]
/media/home/beste/01_Pro/ld25x/bsp_hu/MYD-LD25X-Uboot-L2022.10-V1.0.0/GEN_FIP/myir-st-optee/lib/libutils/ext/snprintk.c:281
     918:	39400380 	ldrb	w0, [x28]
     91c:	7100941f 	cmp	w0, #0x25
     920:	7a401804 	ccmp	w0, #0x0, #0x4, ne	// ne = any
     924:	54000321 	b.ne	988 <kprintf.constprop.0+0xc8>  // b.any
/media/home/beste/01_Pro/ld25x/bsp_hu/MYD-LD25X-Uboot-L2022.10-V1.0.0/GEN_FIP/myir-st-optee/lib/libutils/ext/snprintk.c:285
     928:	34004ec0 	cbz	w0, 1300 <kprintf.constprop.0+0xa40>
/media/home/beste/01_Pro/ld25x/bsp_hu/MYD-LD25X-Uboot-L2022.10-V1.0.0/GEN_FIP/myir-st-optee/lib/libutils/ext/snprintk.c:297
     92c:	b0000082 	adrp	x2, 11000 <__text_end+0x232c>
/media/home/beste/01_Pro/ld25x/bsp_hu/MYD-LD25X-Uboot-L2022.10-V1.0.0/GEN_FIP/myir-st-optee/lib/libutils/ext/snprintk.c:288
     930:	9100079c 	add	x28, x28, #0x1
     934:	2a1403e4 	mov	w4, w20
     938:	aa1303e3 	mov	x3, x19
/media/home/beste/01_Pro/ld25x/bsp_hu/MYD-LD25X-Uboot-L2022.10-V1.0.0/GEN_FIP/myir-st-optee/lib/libutils/ext/snprintk.c:297
     93c:	91330042 	add	x2, x2, #0xcc0
/media/home/beste/01_Pro/ld25x/bsp_hu/MYD-LD25X-Uboot-L2022.10-V1.0.0/GEN_FIP/myir-st-optee/lib/libutils/ext/snprintk.c:294
     940:	52800001 	mov	w1, #0x0                   	// #0
/media/home/beste/01_Pro/ld25x/bsp_hu/MYD-LD25X-Uboot-L2022.10-V1.0.0/GEN_FIP/myir-st-optee/lib/libutils/ext/snprintk.c:293
     944:	12800005 	mov	w5, #0xffffffff            	// #-1
/media/home/beste/01_Pro/ld25x/bsp_hu/MYD-LD25X-Uboot-L2022.10-V1.0.0/GEN_FIP/myir-st-optee/lib/libutils/ext/snprintk.c:292
     948:	5280000a 	mov	w10, #0x0                   	// #0
/media/home/beste/01_Pro/ld25x/bsp_hu/MYD-LD25X-Uboot-L2022.10-V1.0.0/GEN_FIP/myir-st-optee/lib/libutils/ext/snprintk.c:290
     94c:	52800016 	mov	w22, #0x0                   	// #0
/media/home/beste/01_Pro/ld25x/bsp_hu/MYD-LD25X-Uboot-L2022.10-V1.0.0/GEN_FIP/myir-st-optee/lib/libutils/ext/snprintk.c:296
     950:	38401798 	ldrb	w24, [x28], #1
/media/home/beste/01_Pro/ld25x/bsp_hu/MYD-LD25X-Uboot-L2022.10-V1.0.0/GEN_FIP/myir-st-optee/lib/libutils/ext/snprintk.c:297
     954:	7100e71f 	cmp	w24, #0x39
     958:	5400052c 	b.gt	9fc <kprintf.constprop.0+0x13c>
     95c:	71007f1f 	cmp	w24, #0x1f
     960:	54004ced 	b.le	12fc <kprintf.constprop.0+0xa3c>
     964:	51008300 	sub	w0, w24, #0x20
     968:	7100641f 	cmp	w0, #0x19
     96c:	54004c88 	b.hi	12fc <kprintf.constprop.0+0xa3c>  // b.pmore
     970:	78605840 	ldrh	w0, [x2, w0, uxtw #1]
     974:	10000066 	adr	x6, 980 <kprintf.constprop.0+0xc0>
     978:	8b20a8c0 	add	x0, x6, w0, sxth #2
     97c:	d61f0000 	br	x0
/media/home/beste/01_Pro/ld25x/bsp_hu/MYD-LD25X-Uboot-L2022.10-V1.0.0/GEN_FIP/myir-st-optee/lib/libutils/ext/snprintk.c:267
     980:	d2800019 	mov	x25, #0x0                   	// #0
     984:	17ffffe0 	b	904 <kprintf.constprop.0+0x44>
/media/home/beste/01_Pro/ld25x/bsp_hu/MYD-LD25X-Uboot-L2022.10-V1.0.0/GEN_FIP/myir-st-optee/lib/libutils/ext/snprintk.c:282
     988:	1100075a 	add	w26, w26, #0x1
/media/home/beste/01_Pro/ld25x/bsp_hu/MYD-LD25X-Uboot-L2022.10-V1.0.0/GEN_FIP/myir-st-optee/lib/libutils/ext/snprintk.c:283
     98c:	b40000b5 	cbz	x21, 9a0 <kprintf.constprop.0+0xe0>
     990:	f100017f 	cmp	x11, #0x0
     994:	fa5912a0 	ccmp	x21, x25, #0x0, ne	// ne = any
     998:	54000042 	b.cs	9a0 <kprintf.constprop.0+0xe0>  // b.hs, b.nlast
     99c:	380016a0 	strb	w0, [x21], #1
/media/home/beste/01_Pro/ld25x/bsp_hu/MYD-LD25X-Uboot-L2022.10-V1.0.0/GEN_FIP/myir-st-optee/lib/libutils/ext/snprintk.c:281
     9a0:	9100079c 	add	x28, x28, #0x1
     9a4:	17ffffdd 	b	918 <kprintf.constprop.0+0x58>
/media/home/beste/01_Pro/ld25x/bsp_hu/MYD-LD25X-Uboot-L2022.10-V1.0.0/GEN_FIP/myir-st-optee/lib/libutils/ext/snprintk.c:297
     9a8:	52800561 	mov	w1, #0x2b                  	// #43
     9ac:	17ffffe9 	b	950 <kprintf.constprop.0+0x90>
     9b0:	f9404fe6 	ldr	x6, [sp, #152]
     9b4:	786058c0 	ldrh	w0, [x6, w0, uxtw #1]
     9b8:	10000066 	adr	x6, 9c4 <kprintf.constprop.0+0x104>
     9bc:	8b20a8c0 	add	x0, x6, w0, sxth #2
     9c0:	d61f0000 	br	x0
/media/home/beste/01_Pro/ld25x/bsp_hu/MYD-LD25X-Uboot-L2022.10-V1.0.0/GEN_FIP/myir-st-optee/lib/libutils/ext/snprintk.c:480
     9c4:	b0000097 	adrp	x23, 11000 <__text_end+0x232c>
     9c8:	91358af7 	add	x23, x23, #0xd62
/media/home/beste/01_Pro/ld25x/bsp_hu/MYD-LD25X-Uboot-L2022.10-V1.0.0/GEN_FIP/myir-st-optee/lib/libutils/ext/snprintk.c:481
     9cc:	363841f6 	tbz	w22, #7, 1208 <kprintf.constprop.0+0x948>
     9d0:	37f84324 	tbnz	w4, #31, 1234 <kprintf.constprop.0+0x974>
     9d4:	91003c73 	add	x19, x3, #0xf
     9d8:	2a0403f4 	mov	w20, w4
     9dc:	927df273 	and	x19, x19, #0xfffffffffffffff8
     9e0:	f9400062 	ldr	x2, [x3]
/media/home/beste/01_Pro/ld25x/bsp_hu/MYD-LD25X-Uboot-L2022.10-V1.0.0/GEN_FIP/myir-st-optee/lib/libutils/ext/snprintk.c:484
     9e4:	360031f6 	tbz	w22, #0, 1020 <kprintf.constprop.0+0x760>
     9e8:	b40031c2 	cbz	x2, 1020 <kprintf.constprop.0+0x760>
/media/home/beste/01_Pro/ld25x/bsp_hu/MYD-LD25X-Uboot-L2022.10-V1.0.0/GEN_FIP/myir-st-optee/lib/libutils/ext/snprintk.c:485
     9ec:	321f02d6 	orr	w22, w22, #0x2
/media/home/beste/01_Pro/ld25x/bsp_hu/MYD-LD25X-Uboot-L2022.10-V1.0.0/GEN_FIP/myir-st-optee/lib/libutils/ext/snprintk.c:482
     9f0:	52800040 	mov	w0, #0x2                   	// #2
/media/home/beste/01_Pro/ld25x/bsp_hu/MYD-LD25X-Uboot-L2022.10-V1.0.0/GEN_FIP/myir-st-optee/lib/libutils/ext/snprintk.c:488
     9f4:	52800001 	mov	w1, #0x0                   	// #0
     9f8:	1400007b 	b	be4 <kprintf.constprop.0+0x324>
/media/home/beste/01_Pro/ld25x/bsp_hu/MYD-LD25X-Uboot-L2022.10-V1.0.0/GEN_FIP/myir-st-optee/lib/libutils/ext/snprintk.c:297
     9fc:	51011300 	sub	w0, w24, #0x44
     a00:	7100d81f 	cmp	w0, #0x36
     a04:	54fffd69 	b.ls	9b0 <kprintf.constprop.0+0xf0>  // b.plast
/media/home/beste/01_Pro/ld25x/bsp_hu/MYD-LD25X-Uboot-L2022.10-V1.0.0/GEN_FIP/myir-st-optee/lib/libutils/ext/snprintk.c:554
     a08:	2a0403f4 	mov	w20, w4
     a0c:	aa0303f3 	mov	x19, x3
/media/home/beste/01_Pro/ld25x/bsp_hu/MYD-LD25X-Uboot-L2022.10-V1.0.0/GEN_FIP/myir-st-optee/lib/libutils/ext/snprintk.c:551
     a10:	390323f8 	strb	w24, [sp, #200]
/media/home/beste/01_Pro/ld25x/bsp_hu/MYD-LD25X-Uboot-L2022.10-V1.0.0/GEN_FIP/myir-st-optee/lib/libutils/ext/snprintk.c:554
     a14:	1400005b 	b	b80 <kprintf.constprop.0+0x2c0>
/media/home/beste/01_Pro/ld25x/bsp_hu/MYD-LD25X-Uboot-L2022.10-V1.0.0/GEN_FIP/myir-st-optee/lib/libutils/ext/snprintk.c:305
     a18:	7100003f 	cmp	w1, #0x0
     a1c:	52800400 	mov	w0, #0x20                  	// #32
     a20:	1a801021 	csel	w1, w1, w0, ne	// ne = any
     a24:	17ffffcb 	b	950 <kprintf.constprop.0+0x90>
/media/home/beste/01_Pro/ld25x/bsp_hu/MYD-LD25X-Uboot-L2022.10-V1.0.0/GEN_FIP/myir-st-optee/lib/libutils/ext/snprintk.c:308
     a28:	320002d6 	orr	w22, w22, #0x1
/media/home/beste/01_Pro/ld25x/bsp_hu/MYD-LD25X-Uboot-L2022.10-V1.0.0/GEN_FIP/myir-st-optee/lib/libutils/ext/snprintk.c:309
     a2c:	17ffffc9 	b	950 <kprintf.constprop.0+0x90>
/media/home/beste/01_Pro/ld25x/bsp_hu/MYD-LD25X-Uboot-L2022.10-V1.0.0/GEN_FIP/myir-st-optee/lib/libutils/ext/snprintk.c:317
     a30:	37f80124 	tbnz	w4, #31, a54 <kprintf.constprop.0+0x194>
     a34:	91002c66 	add	x6, x3, #0xb
     a38:	aa0303e0 	mov	x0, x3
     a3c:	927df0c3 	and	x3, x6, #0xfffffffffffffff8
     a40:	b940000a 	ldr	w10, [x0]
     a44:	36fff86a 	tbz	w10, #31, 950 <kprintf.constprop.0+0x90>
/media/home/beste/01_Pro/ld25x/bsp_hu/MYD-LD25X-Uboot-L2022.10-V1.0.0/GEN_FIP/myir-st-optee/lib/libutils/ext/snprintk.c:319
     a48:	4b0a03ea 	neg	w10, w10
/media/home/beste/01_Pro/ld25x/bsp_hu/MYD-LD25X-Uboot-L2022.10-V1.0.0/GEN_FIP/myir-st-optee/lib/libutils/ext/snprintk.c:322
     a4c:	321e02d6 	orr	w22, w22, #0x4
/media/home/beste/01_Pro/ld25x/bsp_hu/MYD-LD25X-Uboot-L2022.10-V1.0.0/GEN_FIP/myir-st-optee/lib/libutils/ext/snprintk.c:323
     a50:	17ffffc0 	b	950 <kprintf.constprop.0+0x90>
/media/home/beste/01_Pro/ld25x/bsp_hu/MYD-LD25X-Uboot-L2022.10-V1.0.0/GEN_FIP/myir-st-optee/lib/libutils/ext/snprintk.c:317
     a54:	11002086 	add	w6, w4, #0x8
     a58:	710000df 	cmp	w6, #0x0
     a5c:	540000cd 	b.le	a74 <kprintf.constprop.0+0x1b4>
     a60:	91002c67 	add	x7, x3, #0xb
     a64:	aa0303e0 	mov	x0, x3
     a68:	2a0603e4 	mov	w4, w6
     a6c:	927df0e3 	and	x3, x7, #0xfffffffffffffff8
     a70:	17fffff4 	b	a40 <kprintf.constprop.0+0x180>
     a74:	8b24c360 	add	x0, x27, w4, sxtw
     a78:	2a0603e4 	mov	w4, w6
     a7c:	17fffff1 	b	a40 <kprintf.constprop.0+0x180>
/media/home/beste/01_Pro/ld25x/bsp_hu/MYD-LD25X-Uboot-L2022.10-V1.0.0/GEN_FIP/myir-st-optee/lib/libutils/ext/snprintk.c:328
     a80:	38401798 	ldrb	w24, [x28], #1
     a84:	7100ab1f 	cmp	w24, #0x2a
     a88:	54000341 	b.ne	af0 <kprintf.constprop.0+0x230>  // b.any
/media/home/beste/01_Pro/ld25x/bsp_hu/MYD-LD25X-Uboot-L2022.10-V1.0.0/GEN_FIP/myir-st-optee/lib/libutils/ext/snprintk.c:329
     a8c:	37f80144 	tbnz	w4, #31, ab4 <kprintf.constprop.0+0x1f4>
     a90:	91002c60 	add	x0, x3, #0xb
     a94:	2a0403e6 	mov	w6, w4
     a98:	927df000 	and	x0, x0, #0xfffffffffffffff8
/media/home/beste/01_Pro/ld25x/bsp_hu/MYD-LD25X-Uboot-L2022.10-V1.0.0/GEN_FIP/myir-st-optee/lib/libutils/ext/snprintk.c:330
     a9c:	b9400065 	ldr	w5, [x3]
/media/home/beste/01_Pro/ld25x/bsp_hu/MYD-LD25X-Uboot-L2022.10-V1.0.0/GEN_FIP/myir-st-optee/lib/libutils/ext/snprintk.c:331
     aa0:	2a0603e4 	mov	w4, w6
     aa4:	aa0003e3 	mov	x3, x0
/media/home/beste/01_Pro/ld25x/bsp_hu/MYD-LD25X-Uboot-L2022.10-V1.0.0/GEN_FIP/myir-st-optee/lib/libutils/ext/snprintk.c:330
     aa8:	710000bf 	cmp	w5, #0x0
     aac:	5a9fa0a5 	csinv	w5, w5, wzr, ge	// ge = tcont
/media/home/beste/01_Pro/ld25x/bsp_hu/MYD-LD25X-Uboot-L2022.10-V1.0.0/GEN_FIP/myir-st-optee/lib/libutils/ext/snprintk.c:331
     ab0:	17ffffa8 	b	950 <kprintf.constprop.0+0x90>
/media/home/beste/01_Pro/ld25x/bsp_hu/MYD-LD25X-Uboot-L2022.10-V1.0.0/GEN_FIP/myir-st-optee/lib/libutils/ext/snprintk.c:329
     ab4:	11002086 	add	w6, w4, #0x8
     ab8:	710000df 	cmp	w6, #0x0
     abc:	5400008d 	b.le	acc <kprintf.constprop.0+0x20c>
     ac0:	91002c60 	add	x0, x3, #0xb
     ac4:	927df000 	and	x0, x0, #0xfffffffffffffff8
     ac8:	17fffff5 	b	a9c <kprintf.constprop.0+0x1dc>
     acc:	aa0303e0 	mov	x0, x3
     ad0:	8b24c363 	add	x3, x27, w4, sxtw
     ad4:	17fffff2 	b	a9c <kprintf.constprop.0+0x1dc>
/media/home/beste/01_Pro/ld25x/bsp_hu/MYD-LD25X-Uboot-L2022.10-V1.0.0/GEN_FIP/myir-st-optee/lib/libutils/ext/snprintk.c:335
     ad8:	1b0600a5 	madd	w5, w5, w6, w0
/media/home/beste/01_Pro/ld25x/bsp_hu/MYD-LD25X-Uboot-L2022.10-V1.0.0/GEN_FIP/myir-st-optee/lib/libutils/ext/snprintk.c:336
     adc:	38401798 	ldrb	w24, [x28], #1
/media/home/beste/01_Pro/ld25x/bsp_hu/MYD-LD25X-Uboot-L2022.10-V1.0.0/GEN_FIP/myir-st-optee/lib/libutils/ext/snprintk.c:334
     ae0:	5100c300 	sub	w0, w24, #0x30
     ae4:	7100241f 	cmp	w0, #0x9
     ae8:	54ffff89 	b.ls	ad8 <kprintf.constprop.0+0x218>  // b.plast
     aec:	17ffff9a 	b	954 <kprintf.constprop.0+0x94>
/media/home/beste/01_Pro/ld25x/bsp_hu/MYD-LD25X-Uboot-L2022.10-V1.0.0/GEN_FIP/myir-st-optee/lib/libutils/ext/snprintk.c:333
     af0:	52800005 	mov	w5, #0x0                   	// #0
/media/home/beste/01_Pro/ld25x/bsp_hu/MYD-LD25X-Uboot-L2022.10-V1.0.0/GEN_FIP/myir-st-optee/lib/libutils/ext/snprintk.c:335
     af4:	52800146 	mov	w6, #0xa                   	// #10
     af8:	17fffffa 	b	ae0 <kprintf.constprop.0+0x220>
/media/home/beste/01_Pro/ld25x/bsp_hu/MYD-LD25X-Uboot-L2022.10-V1.0.0/GEN_FIP/myir-st-optee/lib/libutils/ext/snprintk.c:346
     afc:	321602d6 	orr	w22, w22, #0x400
/media/home/beste/01_Pro/ld25x/bsp_hu/MYD-LD25X-Uboot-L2022.10-V1.0.0/GEN_FIP/myir-st-optee/lib/libutils/ext/snprintk.c:347
     b00:	17ffff94 	b	950 <kprintf.constprop.0+0x90>
/media/home/beste/01_Pro/ld25x/bsp_hu/MYD-LD25X-Uboot-L2022.10-V1.0.0/GEN_FIP/myir-st-optee/lib/libutils/ext/snprintk.c:297
     b04:	5280000a 	mov	w10, #0x0                   	// #0
/media/home/beste/01_Pro/ld25x/bsp_hu/MYD-LD25X-Uboot-L2022.10-V1.0.0/GEN_FIP/myir-st-optee/lib/libutils/ext/snprintk.c:352
     b08:	52800146 	mov	w6, #0xa                   	// #10
     b0c:	5100c308 	sub	w8, w24, #0x30
/media/home/beste/01_Pro/ld25x/bsp_hu/MYD-LD25X-Uboot-L2022.10-V1.0.0/GEN_FIP/myir-st-optee/lib/libutils/ext/snprintk.c:353
     b10:	38401798 	ldrb	w24, [x28], #1
/media/home/beste/01_Pro/ld25x/bsp_hu/MYD-LD25X-Uboot-L2022.10-V1.0.0/GEN_FIP/myir-st-optee/lib/libutils/ext/snprintk.c:354
     b14:	5100c300 	sub	w0, w24, #0x30
/media/home/beste/01_Pro/ld25x/bsp_hu/MYD-LD25X-Uboot-L2022.10-V1.0.0/GEN_FIP/myir-st-optee/lib/libutils/ext/snprintk.c:352
     b18:	1b06214a 	madd	w10, w10, w6, w8
/media/home/beste/01_Pro/ld25x/bsp_hu/MYD-LD25X-Uboot-L2022.10-V1.0.0/GEN_FIP/myir-st-optee/lib/libutils/ext/snprintk.c:354
     b1c:	7100241f 	cmp	w0, #0x9
     b20:	54ffff69 	b.ls	b0c <kprintf.constprop.0+0x24c>  // b.plast
     b24:	17ffff8c 	b	954 <kprintf.constprop.0+0x94>
/media/home/beste/01_Pro/ld25x/bsp_hu/MYD-LD25X-Uboot-L2022.10-V1.0.0/GEN_FIP/myir-st-optee/lib/libutils/ext/snprintk.c:358
     b28:	321a02d6 	orr	w22, w22, #0x40
/media/home/beste/01_Pro/ld25x/bsp_hu/MYD-LD25X-Uboot-L2022.10-V1.0.0/GEN_FIP/myir-st-optee/lib/libutils/ext/snprintk.c:359
     b2c:	17ffff89 	b	950 <kprintf.constprop.0+0x90>
/media/home/beste/01_Pro/ld25x/bsp_hu/MYD-LD25X-Uboot-L2022.10-V1.0.0/GEN_FIP/myir-st-optee/lib/libutils/ext/snprintk.c:361
     b30:	321902d6 	orr	w22, w22, #0x80
/media/home/beste/01_Pro/ld25x/bsp_hu/MYD-LD25X-Uboot-L2022.10-V1.0.0/GEN_FIP/myir-st-optee/lib/libutils/ext/snprintk.c:362
     b34:	17ffff87 	b	950 <kprintf.constprop.0+0x90>
/media/home/beste/01_Pro/ld25x/bsp_hu/MYD-LD25X-Uboot-L2022.10-V1.0.0/GEN_FIP/myir-st-optee/lib/libutils/ext/snprintk.c:364
     b38:	39400380 	ldrb	w0, [x28]
     b3c:	7101b01f 	cmp	w0, #0x6c
     b40:	54000081 	b.ne	b50 <kprintf.constprop.0+0x290>  // b.any
/media/home/beste/01_Pro/ld25x/bsp_hu/MYD-LD25X-Uboot-L2022.10-V1.0.0/GEN_FIP/myir-st-optee/lib/libutils/ext/snprintk.c:328
     b44:	9100079c 	add	x28, x28, #0x1
/media/home/beste/01_Pro/ld25x/bsp_hu/MYD-LD25X-Uboot-L2022.10-V1.0.0/GEN_FIP/myir-st-optee/lib/libutils/ext/snprintk.c:372
     b48:	321b02d6 	orr	w22, w22, #0x20
/media/home/beste/01_Pro/ld25x/bsp_hu/MYD-LD25X-Uboot-L2022.10-V1.0.0/GEN_FIP/myir-st-optee/lib/libutils/ext/snprintk.c:373
     b4c:	17ffff81 	b	950 <kprintf.constprop.0+0x90>
/media/home/beste/01_Pro/ld25x/bsp_hu/MYD-LD25X-Uboot-L2022.10-V1.0.0/GEN_FIP/myir-st-optee/lib/libutils/ext/snprintk.c:368
     b50:	321c02d6 	orr	w22, w22, #0x10
     b54:	17ffff7f 	b	950 <kprintf.constprop.0+0x90>
/media/home/beste/01_Pro/ld25x/bsp_hu/MYD-LD25X-Uboot-L2022.10-V1.0.0/GEN_FIP/myir-st-optee/lib/libutils/ext/snprintk.c:375
     b58:	321802d6 	orr	w22, w22, #0x100
/media/home/beste/01_Pro/ld25x/bsp_hu/MYD-LD25X-Uboot-L2022.10-V1.0.0/GEN_FIP/myir-st-optee/lib/libutils/ext/snprintk.c:376
     b5c:	17ffff7d 	b	950 <kprintf.constprop.0+0x90>
/media/home/beste/01_Pro/ld25x/bsp_hu/MYD-LD25X-Uboot-L2022.10-V1.0.0/GEN_FIP/myir-st-optee/lib/libutils/ext/snprintk.c:378
     b60:	321702d6 	orr	w22, w22, #0x200
/media/home/beste/01_Pro/ld25x/bsp_hu/MYD-LD25X-Uboot-L2022.10-V1.0.0/GEN_FIP/myir-st-optee/lib/libutils/ext/snprintk.c:379
     b64:	17ffff7b 	b	950 <kprintf.constprop.0+0x90>
/media/home/beste/01_Pro/ld25x/bsp_hu/MYD-LD25X-Uboot-L2022.10-V1.0.0/GEN_FIP/myir-st-optee/lib/libutils/ext/snprintk.c:381
     b68:	37f80164 	tbnz	w4, #31, b94 <kprintf.constprop.0+0x2d4>
     b6c:	91002c73 	add	x19, x3, #0xb
     b70:	2a0403f4 	mov	w20, w4
     b74:	927df273 	and	x19, x19, #0xfffffffffffffff8
     b78:	b9400060 	ldr	w0, [x3]
     b7c:	390323e0 	strb	w0, [sp, #200]
/media/home/beste/01_Pro/ld25x/bsp_hu/MYD-LD25X-Uboot-L2022.10-V1.0.0/GEN_FIP/myir-st-optee/lib/libutils/ext/snprintk.c:550
     b80:	910323ed 	add	x13, sp, #0xc8
/media/home/beste/01_Pro/ld25x/bsp_hu/MYD-LD25X-Uboot-L2022.10-V1.0.0/GEN_FIP/myir-st-optee/lib/libutils/ext/snprintk.c:552
     b84:	52800025 	mov	w5, #0x1                   	// #1
/media/home/beste/01_Pro/ld25x/bsp_hu/MYD-LD25X-Uboot-L2022.10-V1.0.0/GEN_FIP/myir-st-optee/lib/libutils/ext/snprintk.c:291
     b88:	52800002 	mov	w2, #0x0                   	// #0
/media/home/beste/01_Pro/ld25x/bsp_hu/MYD-LD25X-Uboot-L2022.10-V1.0.0/GEN_FIP/myir-st-optee/lib/libutils/ext/snprintk.c:553
     b8c:	52800001 	mov	w1, #0x0                   	// #0
/media/home/beste/01_Pro/ld25x/bsp_hu/MYD-LD25X-Uboot-L2022.10-V1.0.0/GEN_FIP/myir-st-optee/lib/libutils/ext/snprintk.c:554
     b90:	140000fa 	b	f78 <kprintf.constprop.0+0x6b8>
/media/home/beste/01_Pro/ld25x/bsp_hu/MYD-LD25X-Uboot-L2022.10-V1.0.0/GEN_FIP/myir-st-optee/lib/libutils/ext/snprintk.c:381
     b94:	11002094 	add	w20, w4, #0x8
     b98:	7100029f 	cmp	w20, #0x0
     b9c:	5400008d 	b.le	bac <kprintf.constprop.0+0x2ec>
     ba0:	91002c73 	add	x19, x3, #0xb
     ba4:	927df273 	and	x19, x19, #0xfffffffffffffff8
     ba8:	17fffff4 	b	b78 <kprintf.constprop.0+0x2b8>
     bac:	aa0303f3 	mov	x19, x3
     bb0:	8b24c363 	add	x3, x27, w4, sxtw
     bb4:	17fffff1 	b	b78 <kprintf.constprop.0+0x2b8>
/media/home/beste/01_Pro/ld25x/bsp_hu/MYD-LD25X-Uboot-L2022.10-V1.0.0/GEN_FIP/myir-st-optee/lib/libutils/ext/snprintk.c:386
     bb8:	321c02d6 	orr	w22, w22, #0x10
/media/home/beste/01_Pro/ld25x/bsp_hu/MYD-LD25X-Uboot-L2022.10-V1.0.0/GEN_FIP/myir-st-optee/lib/libutils/ext/snprintk.c:390
     bbc:	363802f6 	tbz	w22, #7, c18 <kprintf.constprop.0+0x358>
     bc0:	37f80424 	tbnz	w4, #31, c44 <kprintf.constprop.0+0x384>
     bc4:	91003c73 	add	x19, x3, #0xf
     bc8:	2a0403f4 	mov	w20, w4
     bcc:	927df273 	and	x19, x19, #0xfffffffffffffff8
     bd0:	f9400062 	ldr	x2, [x3]
/media/home/beste/01_Pro/ld25x/bsp_hu/MYD-LD25X-Uboot-L2022.10-V1.0.0/GEN_FIP/myir-st-optee/lib/libutils/ext/snprintk.c:391
     bd4:	b6f82a62 	tbz	x2, #63, 1120 <kprintf.constprop.0+0x860>
/media/home/beste/01_Pro/ld25x/bsp_hu/MYD-LD25X-Uboot-L2022.10-V1.0.0/GEN_FIP/myir-st-optee/lib/libutils/ext/snprintk.c:392
     bd8:	cb0203e2 	neg	x2, x2
/media/home/beste/01_Pro/ld25x/bsp_hu/MYD-LD25X-Uboot-L2022.10-V1.0.0/GEN_FIP/myir-st-optee/lib/libutils/ext/snprintk.c:395
     bdc:	52800020 	mov	w0, #0x1                   	// #1
/media/home/beste/01_Pro/ld25x/bsp_hu/MYD-LD25X-Uboot-L2022.10-V1.0.0/GEN_FIP/myir-st-optee/lib/libutils/ext/snprintk.c:393
     be0:	528005a1 	mov	w1, #0x2d                  	// #45
/media/home/beste/01_Pro/ld25x/bsp_hu/MYD-LD25X-Uboot-L2022.10-V1.0.0/GEN_FIP/myir-st-optee/lib/libutils/ext/snprintk.c:494
     be4:	310004bf 	cmn	w5, #0x1
     be8:	540036a1 	b.ne	12bc <kprintf.constprop.0+0x9fc>  // b.any
/media/home/beste/01_Pro/ld25x/bsp_hu/MYD-LD25X-Uboot-L2022.10-V1.0.0/GEN_FIP/myir-st-optee/lib/libutils/ext/snprintk.c:509
     bec:	7100041f 	cmp	w0, #0x1
     bf0:	540029c0 	b.eq	1128 <kprintf.constprop.0+0x868>  // b.none
     bf4:	7100081f 	cmp	w0, #0x2
     bf8:	54000ea1 	b.ne	dcc <kprintf.constprop.0+0x50c>  // b.any
/media/home/beste/01_Pro/ld25x/bsp_hu/MYD-LD25X-Uboot-L2022.10-V1.0.0/GEN_FIP/myir-st-optee/lib/libutils/ext/snprintk.c:502
     bfc:	9103b7ed 	add	x13, sp, #0xed
/media/home/beste/01_Pro/ld25x/bsp_hu/MYD-LD25X-Uboot-L2022.10-V1.0.0/GEN_FIP/myir-st-optee/lib/libutils/ext/snprintk.c:531
     c00:	92400c40 	and	x0, x2, #0xf
/media/home/beste/01_Pro/ld25x/bsp_hu/MYD-LD25X-Uboot-L2022.10-V1.0.0/GEN_FIP/myir-st-optee/lib/libutils/ext/snprintk.c:532
     c04:	d344fc42 	lsr	x2, x2, #4
/media/home/beste/01_Pro/ld25x/bsp_hu/MYD-LD25X-Uboot-L2022.10-V1.0.0/GEN_FIP/myir-st-optee/lib/libutils/ext/snprintk.c:531
     c08:	38606ae0 	ldrb	w0, [x23, x0]
     c0c:	381ffda0 	strb	w0, [x13, #-1]!
/media/home/beste/01_Pro/ld25x/bsp_hu/MYD-LD25X-Uboot-L2022.10-V1.0.0/GEN_FIP/myir-st-optee/lib/libutils/ext/snprintk.c:533
     c10:	b5ffff82 	cbnz	x2, c00 <kprintf.constprop.0+0x340>
     c14:	1400007b 	b	e00 <kprintf.constprop.0+0x540>
/media/home/beste/01_Pro/ld25x/bsp_hu/MYD-LD25X-Uboot-L2022.10-V1.0.0/GEN_FIP/myir-st-optee/lib/libutils/ext/snprintk.c:390
     c18:	3747fd56 	tbnz	w22, #8, bc0 <kprintf.constprop.0+0x300>
     c1c:	374ffd36 	tbnz	w22, #9, bc0 <kprintf.constprop.0+0x300>
     c20:	372ffd16 	tbnz	w22, #5, bc0 <kprintf.constprop.0+0x300>
     c24:	3727fcf6 	tbnz	w22, #4, bc0 <kprintf.constprop.0+0x300>
     c28:	36300336 	tbz	w22, #6, c8c <kprintf.constprop.0+0x3cc>
     c2c:	37f801e4 	tbnz	w4, #31, c68 <kprintf.constprop.0+0x3a8>
     c30:	91002c73 	add	x19, x3, #0xb
     c34:	2a0403f4 	mov	w20, w4
     c38:	927df273 	and	x19, x19, #0xfffffffffffffff8
     c3c:	79800062 	ldrsh	x2, [x3]
     c40:	17ffffe5 	b	bd4 <kprintf.constprop.0+0x314>
     c44:	11002094 	add	w20, w4, #0x8
     c48:	7100029f 	cmp	w20, #0x0
     c4c:	5400008d 	b.le	c5c <kprintf.constprop.0+0x39c>
     c50:	91003c73 	add	x19, x3, #0xf
     c54:	927df273 	and	x19, x19, #0xfffffffffffffff8
     c58:	17ffffde 	b	bd0 <kprintf.constprop.0+0x310>
     c5c:	aa0303f3 	mov	x19, x3
     c60:	8b24c363 	add	x3, x27, w4, sxtw
     c64:	17ffffdb 	b	bd0 <kprintf.constprop.0+0x310>
     c68:	11002094 	add	w20, w4, #0x8
     c6c:	7100029f 	cmp	w20, #0x0
     c70:	5400008d 	b.le	c80 <kprintf.constprop.0+0x3c0>
     c74:	91002c73 	add	x19, x3, #0xb
     c78:	927df273 	and	x19, x19, #0xfffffffffffffff8
     c7c:	17fffff0 	b	c3c <kprintf.constprop.0+0x37c>
     c80:	aa0303f3 	mov	x19, x3
     c84:	8b24c363 	add	x3, x27, w4, sxtw
     c88:	17ffffed 	b	c3c <kprintf.constprop.0+0x37c>
     c8c:	37f800c4 	tbnz	w4, #31, ca4 <kprintf.constprop.0+0x3e4>
     c90:	91002c73 	add	x19, x3, #0xb
     c94:	2a0403f4 	mov	w20, w4
     c98:	927df273 	and	x19, x19, #0xfffffffffffffff8
     c9c:	b9800062 	ldrsw	x2, [x3]
     ca0:	17ffffcd 	b	bd4 <kprintf.constprop.0+0x314>
     ca4:	11002094 	add	w20, w4, #0x8
     ca8:	7100029f 	cmp	w20, #0x0
     cac:	5400008d 	b.le	cbc <kprintf.constprop.0+0x3fc>
     cb0:	91002c73 	add	x19, x3, #0xb
     cb4:	927df273 	and	x19, x19, #0xfffffffffffffff8
     cb8:	17fffff9 	b	c9c <kprintf.constprop.0+0x3dc>
     cbc:	aa0303f3 	mov	x19, x3
     cc0:	8b24c363 	add	x3, x27, w4, sxtw
     cc4:	17fffff6 	b	c9c <kprintf.constprop.0+0x3dc>
/media/home/beste/01_Pro/ld25x/bsp_hu/MYD-LD25X-Uboot-L2022.10-V1.0.0/GEN_FIP/myir-st-optee/lib/libutils/ext/snprintk.c:398
     cc8:	36380136 	tbz	w22, #7, cec <kprintf.constprop.0+0x42c>
/media/home/beste/01_Pro/ld25x/bsp_hu/MYD-LD25X-Uboot-L2022.10-V1.0.0/GEN_FIP/myir-st-optee/lib/libutils/ext/snprintk.c:407
     ccc:	37f80284 	tbnz	w4, #31, d1c <kprintf.constprop.0+0x45c>
     cd0:	91003c73 	add	x19, x3, #0xf
     cd4:	2a0403f4 	mov	w20, w4
     cd8:	927df273 	and	x19, x19, #0xfffffffffffffff8
     cdc:	f9400060 	ldr	x0, [x3]
     ce0:	93407f41 	sxtw	x1, w26
     ce4:	f9000001 	str	x1, [x0]
     ce8:	17ffff0c 	b	918 <kprintf.constprop.0+0x58>
/media/home/beste/01_Pro/ld25x/bsp_hu/MYD-LD25X-Uboot-L2022.10-V1.0.0/GEN_FIP/myir-st-optee/lib/libutils/ext/snprintk.c:400
     cec:	3747ff16 	tbnz	w22, #8, ccc <kprintf.constprop.0+0x40c>
/media/home/beste/01_Pro/ld25x/bsp_hu/MYD-LD25X-Uboot-L2022.10-V1.0.0/GEN_FIP/myir-st-optee/lib/libutils/ext/snprintk.c:402
     cf0:	374ffef6 	tbnz	w22, #9, ccc <kprintf.constprop.0+0x40c>
/media/home/beste/01_Pro/ld25x/bsp_hu/MYD-LD25X-Uboot-L2022.10-V1.0.0/GEN_FIP/myir-st-optee/lib/libutils/ext/snprintk.c:404
     cf4:	372ffed6 	tbnz	w22, #5, ccc <kprintf.constprop.0+0x40c>
/media/home/beste/01_Pro/ld25x/bsp_hu/MYD-LD25X-Uboot-L2022.10-V1.0.0/GEN_FIP/myir-st-optee/lib/libutils/ext/snprintk.c:406
     cf8:	3727feb6 	tbnz	w22, #4, ccc <kprintf.constprop.0+0x40c>
/media/home/beste/01_Pro/ld25x/bsp_hu/MYD-LD25X-Uboot-L2022.10-V1.0.0/GEN_FIP/myir-st-optee/lib/libutils/ext/snprintk.c:408
     cfc:	36300356 	tbz	w22, #6, d64 <kprintf.constprop.0+0x4a4>
/media/home/beste/01_Pro/ld25x/bsp_hu/MYD-LD25X-Uboot-L2022.10-V1.0.0/GEN_FIP/myir-st-optee/lib/libutils/ext/snprintk.c:409
     d00:	37f80204 	tbnz	w4, #31, d40 <kprintf.constprop.0+0x480>
     d04:	91003c73 	add	x19, x3, #0xf
     d08:	2a0403f4 	mov	w20, w4
     d0c:	927df273 	and	x19, x19, #0xfffffffffffffff8
     d10:	f9400060 	ldr	x0, [x3]
     d14:	7900001a 	strh	w26, [x0]
     d18:	17ffff00 	b	918 <kprintf.constprop.0+0x58>
/media/home/beste/01_Pro/ld25x/bsp_hu/MYD-LD25X-Uboot-L2022.10-V1.0.0/GEN_FIP/myir-st-optee/lib/libutils/ext/snprintk.c:407
     d1c:	11002094 	add	w20, w4, #0x8
     d20:	7100029f 	cmp	w20, #0x0
     d24:	5400008d 	b.le	d34 <kprintf.constprop.0+0x474>
     d28:	91003c73 	add	x19, x3, #0xf
     d2c:	927df273 	and	x19, x19, #0xfffffffffffffff8
     d30:	17ffffeb 	b	cdc <kprintf.constprop.0+0x41c>
     d34:	aa0303f3 	mov	x19, x3
     d38:	8b24c363 	add	x3, x27, w4, sxtw
     d3c:	17ffffe8 	b	cdc <kprintf.constprop.0+0x41c>
/media/home/beste/01_Pro/ld25x/bsp_hu/MYD-LD25X-Uboot-L2022.10-V1.0.0/GEN_FIP/myir-st-optee/lib/libutils/ext/snprintk.c:409
     d40:	11002094 	add	w20, w4, #0x8
     d44:	7100029f 	cmp	w20, #0x0
     d48:	5400008d 	b.le	d58 <kprintf.constprop.0+0x498>
     d4c:	91003c73 	add	x19, x3, #0xf
     d50:	927df273 	and	x19, x19, #0xfffffffffffffff8
     d54:	17ffffef 	b	d10 <kprintf.constprop.0+0x450>
     d58:	aa0303f3 	mov	x19, x3
     d5c:	8b24c363 	add	x3, x27, w4, sxtw
     d60:	17ffffec 	b	d10 <kprintf.constprop.0+0x450>
/media/home/beste/01_Pro/ld25x/bsp_hu/MYD-LD25X-Uboot-L2022.10-V1.0.0/GEN_FIP/myir-st-optee/lib/libutils/ext/snprintk.c:411
     d64:	37f800e4 	tbnz	w4, #31, d80 <kprintf.constprop.0+0x4c0>
     d68:	91003c73 	add	x19, x3, #0xf
     d6c:	2a0403f4 	mov	w20, w4
     d70:	927df273 	and	x19, x19, #0xfffffffffffffff8
     d74:	f9400060 	ldr	x0, [x3]
     d78:	b900001a 	str	w26, [x0]
     d7c:	17fffee7 	b	918 <kprintf.constprop.0+0x58>
     d80:	11002094 	add	w20, w4, #0x8
     d84:	7100029f 	cmp	w20, #0x0
     d88:	5400008d 	b.le	d98 <kprintf.constprop.0+0x4d8>
     d8c:	91003c73 	add	x19, x3, #0xf
     d90:	927df273 	and	x19, x19, #0xfffffffffffffff8
     d94:	17fffff8 	b	d74 <kprintf.constprop.0+0x4b4>
     d98:	aa0303f3 	mov	x19, x3
     d9c:	8b24c363 	add	x3, x27, w4, sxtw
     da0:	17fffff5 	b	d74 <kprintf.constprop.0+0x4b4>
/media/home/beste/01_Pro/ld25x/bsp_hu/MYD-LD25X-Uboot-L2022.10-V1.0.0/GEN_FIP/myir-st-optee/lib/libutils/ext/snprintk.c:414
     da4:	321c02d6 	orr	w22, w22, #0x10
/media/home/beste/01_Pro/ld25x/bsp_hu/MYD-LD25X-Uboot-L2022.10-V1.0.0/GEN_FIP/myir-st-optee/lib/libutils/ext/snprintk.c:417
     da8:	36380356 	tbz	w22, #7, e10 <kprintf.constprop.0+0x550>
     dac:	37f80484 	tbnz	w4, #31, e3c <kprintf.constprop.0+0x57c>
     db0:	91003c73 	add	x19, x3, #0xf
     db4:	2a0403f4 	mov	w20, w4
     db8:	927df273 	and	x19, x19, #0xfffffffffffffff8
     dbc:	f9400062 	ldr	x2, [x3]
/media/home/beste/01_Pro/ld25x/bsp_hu/MYD-LD25X-Uboot-L2022.10-V1.0.0/GEN_FIP/myir-st-optee/lib/libutils/ext/snprintk.c:494
     dc0:	52800001 	mov	w1, #0x0                   	// #0
     dc4:	310004bf 	cmn	w5, #0x1
     dc8:	54002781 	b.ne	12b8 <kprintf.constprop.0+0x9f8>  // b.any
/media/home/beste/01_Pro/ld25x/bsp_hu/MYD-LD25X-Uboot-L2022.10-V1.0.0/GEN_FIP/myir-st-optee/lib/libutils/ext/snprintk.c:502
     dcc:	9103b7ed 	add	x13, sp, #0xed
/media/home/beste/01_Pro/ld25x/bsp_hu/MYD-LD25X-Uboot-L2022.10-V1.0.0/GEN_FIP/myir-st-optee/lib/libutils/ext/snprintk.c:512
     dd0:	12000840 	and	w0, w2, #0x7
     dd4:	aa0d03e4 	mov	x4, x13
     dd8:	1100c000 	add	w0, w0, #0x30
     ddc:	381ffda0 	strb	w0, [x13, #-1]!
/media/home/beste/01_Pro/ld25x/bsp_hu/MYD-LD25X-Uboot-L2022.10-V1.0.0/GEN_FIP/myir-st-optee/lib/libutils/ext/snprintk.c:513
     de0:	d343fc42 	lsr	x2, x2, #3
/media/home/beste/01_Pro/ld25x/bsp_hu/MYD-LD25X-Uboot-L2022.10-V1.0.0/GEN_FIP/myir-st-optee/lib/libutils/ext/snprintk.c:514
     de4:	b5ffff62 	cbnz	x2, dd0 <kprintf.constprop.0+0x510>
/media/home/beste/01_Pro/ld25x/bsp_hu/MYD-LD25X-Uboot-L2022.10-V1.0.0/GEN_FIP/myir-st-optee/lib/libutils/ext/snprintk.c:516
     de8:	360000d6 	tbz	w22, #0, e00 <kprintf.constprop.0+0x540>
     dec:	7100c01f 	cmp	w0, #0x30
     df0:	54000080 	b.eq	e00 <kprintf.constprop.0+0x540>  // b.none
/media/home/beste/01_Pro/ld25x/bsp_hu/MYD-LD25X-Uboot-L2022.10-V1.0.0/GEN_FIP/myir-st-optee/lib/libutils/ext/snprintk.c:517
     df4:	52800600 	mov	w0, #0x30                  	// #48
     df8:	381ff1a0 	sturb	w0, [x13, #-1]
     dfc:	d100088d 	sub	x13, x4, #0x2
/media/home/beste/01_Pro/ld25x/bsp_hu/MYD-LD25X-Uboot-L2022.10-V1.0.0/GEN_FIP/myir-st-optee/lib/libutils/ext/snprintk.c:543
     e00:	2a0503e2 	mov	w2, w5
     e04:	9103b7e5 	add	x5, sp, #0xed
     e08:	4b0d00a5 	sub	w5, w5, w13
     e0c:	1400005b 	b	f78 <kprintf.constprop.0+0x6b8>
/media/home/beste/01_Pro/ld25x/bsp_hu/MYD-LD25X-Uboot-L2022.10-V1.0.0/GEN_FIP/myir-st-optee/lib/libutils/ext/snprintk.c:417
     e10:	3747fcf6 	tbnz	w22, #8, dac <kprintf.constprop.0+0x4ec>
     e14:	374ffcd6 	tbnz	w22, #9, dac <kprintf.constprop.0+0x4ec>
     e18:	372ffcb6 	tbnz	w22, #5, dac <kprintf.constprop.0+0x4ec>
     e1c:	3727fc96 	tbnz	w22, #4, dac <kprintf.constprop.0+0x4ec>
     e20:	36300336 	tbz	w22, #6, e84 <kprintf.constprop.0+0x5c4>
     e24:	37f801e4 	tbnz	w4, #31, e60 <kprintf.constprop.0+0x5a0>
     e28:	91002c73 	add	x19, x3, #0xb
     e2c:	2a0403f4 	mov	w20, w4
     e30:	927df273 	and	x19, x19, #0xfffffffffffffff8
     e34:	79400062 	ldrh	w2, [x3]
     e38:	17ffffe2 	b	dc0 <kprintf.constprop.0+0x500>
     e3c:	11002094 	add	w20, w4, #0x8
     e40:	7100029f 	cmp	w20, #0x0
     e44:	5400008d 	b.le	e54 <kprintf.constprop.0+0x594>
     e48:	91003c73 	add	x19, x3, #0xf
     e4c:	927df273 	and	x19, x19, #0xfffffffffffffff8
     e50:	17ffffdb 	b	dbc <kprintf.constprop.0+0x4fc>
     e54:	aa0303f3 	mov	x19, x3
     e58:	8b24c363 	add	x3, x27, w4, sxtw
     e5c:	17ffffd8 	b	dbc <kprintf.constprop.0+0x4fc>
     e60:	11002094 	add	w20, w4, #0x8
     e64:	7100029f 	cmp	w20, #0x0
     e68:	5400008d 	b.le	e78 <kprintf.constprop.0+0x5b8>
     e6c:	91002c73 	add	x19, x3, #0xb
     e70:	927df273 	and	x19, x19, #0xfffffffffffffff8
     e74:	17fffff0 	b	e34 <kprintf.constprop.0+0x574>
     e78:	aa0303f3 	mov	x19, x3
     e7c:	8b24c363 	add	x3, x27, w4, sxtw
     e80:	17ffffed 	b	e34 <kprintf.constprop.0+0x574>
     e84:	37f800c4 	tbnz	w4, #31, e9c <kprintf.constprop.0+0x5dc>
     e88:	91002c73 	add	x19, x3, #0xb
     e8c:	2a0403f4 	mov	w20, w4
     e90:	927df273 	and	x19, x19, #0xfffffffffffffff8
     e94:	b9400062 	ldr	w2, [x3]
     e98:	17ffffca 	b	dc0 <kprintf.constprop.0+0x500>
     e9c:	11002094 	add	w20, w4, #0x8
     ea0:	7100029f 	cmp	w20, #0x0
     ea4:	5400008d 	b.le	eb4 <kprintf.constprop.0+0x5f4>
     ea8:	91002c73 	add	x19, x3, #0xb
     eac:	927df273 	and	x19, x19, #0xfffffffffffffff8
     eb0:	17fffff9 	b	e94 <kprintf.constprop.0+0x5d4>
     eb4:	aa0303f3 	mov	x19, x3
     eb8:	8b24c363 	add	x3, x27, w4, sxtw
     ebc:	17fffff6 	b	e94 <kprintf.constprop.0+0x5d4>
/media/home/beste/01_Pro/ld25x/bsp_hu/MYD-LD25X-Uboot-L2022.10-V1.0.0/GEN_FIP/myir-st-optee/lib/libutils/ext/snprintk.c:421
     ec0:	b940abe0 	ldr	w0, [sp, #168]
     ec4:	340009c0 	cbz	w0, ffc <kprintf.constprop.0+0x73c>
     ec8:	39400380 	ldrb	w0, [x28]
     ecc:	7101541f 	cmp	w0, #0x55
     ed0:	54000961 	b.ne	ffc <kprintf.constprop.0+0x73c>  // b.any
     ed4:	39400780 	ldrb	w0, [x28, #1]
     ed8:	7101b01f 	cmp	w0, #0x6c
     edc:	54000901 	b.ne	ffc <kprintf.constprop.0+0x73c>  // b.any
/media/home/beste/01_Pro/ld25x/bsp_hu/MYD-LD25X-Uboot-L2022.10-V1.0.0/GEN_FIP/myir-st-optee/lib/libutils/ext/snprintk.c:426
     ee0:	91000b9c 	add	x28, x28, #0x2
/media/home/beste/01_Pro/ld25x/bsp_hu/MYD-LD25X-Uboot-L2022.10-V1.0.0/GEN_FIP/myir-st-optee/lib/libutils/ext/snprintk.c:427
     ee4:	37f807a4 	tbnz	w4, #31, fd8 <kprintf.constprop.0+0x718>
     ee8:	91003c73 	add	x19, x3, #0xf
     eec:	2a0403f4 	mov	w20, w4
     ef0:	927df273 	and	x19, x19, #0xfffffffffffffff8
     ef4:	f9400061 	ldr	x1, [x3]
uuid2str():
/media/home/beste/01_Pro/ld25x/bsp_hu/MYD-LD25X-Uboot-L2022.10-V1.0.0/GEN_FIP/myir-st-optee/lib/libutils/ext/snprintk.c:229
     ef8:	910323ed 	add	x13, sp, #0xc8
     efc:	d0000082 	adrp	x2, 12000 <small_prime+0x238>
     f00:	91060042 	add	x2, x2, #0x180
     f04:	f90053ed 	str	x13, [sp, #160]
     f08:	39403c20 	ldrb	w0, [x1, #15]
     f0c:	39402427 	ldrb	w7, [x1, #9]
     f10:	39402026 	ldrb	w6, [x1, #8]
     f14:	79400c25 	ldrh	w5, [x1, #6]
     f18:	79400824 	ldrh	w4, [x1, #4]
     f1c:	b9002be0 	str	w0, [sp, #40]
     f20:	b900afea 	str	w10, [sp, #172]
     f24:	39403820 	ldrb	w0, [x1, #14]
     f28:	b90023e0 	str	w0, [sp, #32]
     f2c:	f9005beb 	str	x11, [sp, #176]
     f30:	39403420 	ldrb	w0, [x1, #13]
     f34:	b9001be0 	str	w0, [sp, #24]
     f38:	39403020 	ldrb	w0, [x1, #12]
     f3c:	b90013e0 	str	w0, [sp, #16]
     f40:	39402c20 	ldrb	w0, [x1, #11]
     f44:	b9000be0 	str	w0, [sp, #8]
     f48:	39402820 	ldrb	w0, [x1, #10]
     f4c:	b90003e0 	str	w0, [sp]
     f50:	aa0d03e0 	mov	x0, x13
     f54:	b9400023 	ldr	w3, [x1]
     f58:	d28004a1 	mov	x1, #0x25                  	// #37
     f5c:	97fffe3c 	bl	84c <snprintk>
     f60:	f94053ed 	ldr	x13, [sp, #160]
kprintf():
/media/home/beste/01_Pro/ld25x/bsp_hu/MYD-LD25X-Uboot-L2022.10-V1.0.0/GEN_FIP/myir-st-optee/lib/libutils/ext/snprintk.c:466
     f64:	2a0003e5 	mov	w5, w0
     f68:	f9405beb 	ldr	x11, [sp, #176]
/media/home/beste/01_Pro/ld25x/bsp_hu/MYD-LD25X-Uboot-L2022.10-V1.0.0/GEN_FIP/myir-st-optee/lib/libutils/ext/snprintk.c:291
     f6c:	52800002 	mov	w2, #0x0                   	// #0
     f70:	b940afea 	ldr	w10, [sp, #172]
/media/home/beste/01_Pro/ld25x/bsp_hu/MYD-LD25X-Uboot-L2022.10-V1.0.0/GEN_FIP/myir-st-optee/lib/libutils/ext/snprintk.c:467
     f74:	52800001 	mov	w1, #0x0                   	// #0
/media/home/beste/01_Pro/ld25x/bsp_hu/MYD-LD25X-Uboot-L2022.10-V1.0.0/GEN_FIP/myir-st-optee/lib/libutils/ext/snprintk.c:571
     f78:	6b05005f 	cmp	w2, w5
/media/home/beste/01_Pro/ld25x/bsp_hu/MYD-LD25X-Uboot-L2022.10-V1.0.0/GEN_FIP/myir-st-optee/lib/libutils/ext/snprintk.c:581
     f7c:	52808084 	mov	w4, #0x404                 	// #1028
/media/home/beste/01_Pro/ld25x/bsp_hu/MYD-LD25X-Uboot-L2022.10-V1.0.0/GEN_FIP/myir-st-optee/lib/libutils/ext/snprintk.c:571
     f80:	1a85a040 	csel	w0, w2, w5, ge	// ge = tcont
/media/home/beste/01_Pro/ld25x/bsp_hu/MYD-LD25X-Uboot-L2022.10-V1.0.0/GEN_FIP/myir-st-optee/lib/libutils/ext/snprintk.c:581
     f84:	0a0402c4 	and	w4, w22, w4
/media/home/beste/01_Pro/ld25x/bsp_hu/MYD-LD25X-Uboot-L2022.10-V1.0.0/GEN_FIP/myir-st-optee/lib/libutils/ext/snprintk.c:572
     f88:	34001d21 	cbz	w1, 132c <kprintf.constprop.0+0xa6c>
/media/home/beste/01_Pro/ld25x/bsp_hu/MYD-LD25X-Uboot-L2022.10-V1.0.0/GEN_FIP/myir-st-optee/lib/libutils/ext/snprintk.c:573
     f8c:	11000400 	add	w0, w0, #0x1
/media/home/beste/01_Pro/ld25x/bsp_hu/MYD-LD25X-Uboot-L2022.10-V1.0.0/GEN_FIP/myir-st-optee/lib/libutils/ext/snprintk.c:578
     f90:	6b0a001f 	cmp	w0, w10
     f94:	1a8aa006 	csel	w6, w0, w10, ge	// ge = tcont
     f98:	0b06035a 	add	w26, w26, w6
/media/home/beste/01_Pro/ld25x/bsp_hu/MYD-LD25X-Uboot-L2022.10-V1.0.0/GEN_FIP/myir-st-optee/lib/libutils/ext/snprintk.c:581
     f9c:	35001f84 	cbnz	w4, 138c <kprintf.constprop.0+0xacc>
/media/home/beste/01_Pro/ld25x/bsp_hu/MYD-LD25X-Uboot-L2022.10-V1.0.0/GEN_FIP/myir-st-optee/lib/libutils/ext/snprintk.c:582
     fa0:	4b000144 	sub	w4, w10, w0
/media/home/beste/01_Pro/ld25x/bsp_hu/MYD-LD25X-Uboot-L2022.10-V1.0.0/GEN_FIP/myir-st-optee/lib/libutils/ext/snprintk.c:583
     fa4:	7100009f 	cmp	w4, #0x0
     fa8:	5400012d 	b.le	fcc <kprintf.constprop.0+0x70c>
/media/home/beste/01_Pro/ld25x/bsp_hu/MYD-LD25X-Uboot-L2022.10-V1.0.0/GEN_FIP/myir-st-optee/lib/libutils/ext/snprintk.c:584
     fac:	b4001ed5 	cbz	x21, 1384 <kprintf.constprop.0+0xac4>
     fb0:	f100017f 	cmp	x11, #0x0
     fb4:	fa551322 	ccmp	x25, x21, #0x2, ne	// ne = any
     fb8:	54001e69 	b.ls	1384 <kprintf.constprop.0+0xac4>  // b.plast
     fbc:	52800403 	mov	w3, #0x20                  	// #32
     fc0:	380016a3 	strb	w3, [x21], #1
/media/home/beste/01_Pro/ld25x/bsp_hu/MYD-LD25X-Uboot-L2022.10-V1.0.0/GEN_FIP/myir-st-optee/lib/libutils/ext/snprintk.c:583
     fc4:	71000484 	subs	w4, w4, #0x1
     fc8:	54ffff41 	b.ne	fb0 <kprintf.constprop.0+0x6f0>  // b.any
/media/home/beste/01_Pro/ld25x/bsp_hu/MYD-LD25X-Uboot-L2022.10-V1.0.0/GEN_FIP/myir-st-optee/lib/libutils/ext/snprintk.c:588
     fcc:	350025e1 	cbnz	w1, 1488 <kprintf.constprop.0+0xbc8>
     fd0:	52800004 	mov	w4, #0x0                   	// #0
     fd4:	140000dc 	b	1344 <kprintf.constprop.0+0xa84>
/media/home/beste/01_Pro/ld25x/bsp_hu/MYD-LD25X-Uboot-L2022.10-V1.0.0/GEN_FIP/myir-st-optee/lib/libutils/ext/snprintk.c:427
     fd8:	11002094 	add	w20, w4, #0x8
     fdc:	7100029f 	cmp	w20, #0x0
     fe0:	5400008d 	b.le	ff0 <kprintf.constprop.0+0x730>
     fe4:	91003c73 	add	x19, x3, #0xf
     fe8:	927df273 	and	x19, x19, #0xfffffffffffffff8
     fec:	17ffffc2 	b	ef4 <kprintf.constprop.0+0x634>
     ff0:	aa0303f3 	mov	x19, x3
     ff4:	8b24c363 	add	x3, x27, w4, sxtw
     ff8:	17ffffbf 	b	ef4 <kprintf.constprop.0+0x634>
/media/home/beste/01_Pro/ld25x/bsp_hu/MYD-LD25X-Uboot-L2022.10-V1.0.0/GEN_FIP/myir-st-optee/lib/libutils/ext/snprintk.c:441
     ffc:	37f801c4 	tbnz	w4, #31, 1034 <kprintf.constprop.0+0x774>
    1000:	91003c73 	add	x19, x3, #0xf
    1004:	2a0403f4 	mov	w20, w4
    1008:	927df273 	and	x19, x19, #0xfffffffffffffff8
    100c:	f9400062 	ldr	x2, [x3]
/media/home/beste/01_Pro/ld25x/bsp_hu/MYD-LD25X-Uboot-L2022.10-V1.0.0/GEN_FIP/myir-st-optee/lib/libutils/ext/snprintk.c:443
    1010:	90000097 	adrp	x23, 11000 <__text_end+0x232c>
/media/home/beste/01_Pro/ld25x/bsp_hu/MYD-LD25X-Uboot-L2022.10-V1.0.0/GEN_FIP/myir-st-optee/lib/libutils/ext/snprintk.c:444
    1014:	321f02d6 	orr	w22, w22, #0x2
/media/home/beste/01_Pro/ld25x/bsp_hu/MYD-LD25X-Uboot-L2022.10-V1.0.0/GEN_FIP/myir-st-optee/lib/libutils/ext/snprintk.c:443
    1018:	91358af7 	add	x23, x23, #0xd62
/media/home/beste/01_Pro/ld25x/bsp_hu/MYD-LD25X-Uboot-L2022.10-V1.0.0/GEN_FIP/myir-st-optee/lib/libutils/ext/snprintk.c:445
    101c:	52800f18 	mov	w24, #0x78                  	// #120
/media/home/beste/01_Pro/ld25x/bsp_hu/MYD-LD25X-Uboot-L2022.10-V1.0.0/GEN_FIP/myir-st-optee/lib/libutils/ext/snprintk.c:494
    1020:	52800001 	mov	w1, #0x0                   	// #0
    1024:	310004bf 	cmn	w5, #0x1
    1028:	54ffdea0 	b.eq	bfc <kprintf.constprop.0+0x33c>  // b.none
    102c:	52800040 	mov	w0, #0x2                   	// #2
    1030:	140000a3 	b	12bc <kprintf.constprop.0+0x9fc>
/media/home/beste/01_Pro/ld25x/bsp_hu/MYD-LD25X-Uboot-L2022.10-V1.0.0/GEN_FIP/myir-st-optee/lib/libutils/ext/snprintk.c:441
    1034:	11002094 	add	w20, w4, #0x8
    1038:	7100029f 	cmp	w20, #0x0
    103c:	5400008d 	b.le	104c <kprintf.constprop.0+0x78c>
    1040:	91003c73 	add	x19, x3, #0xf
    1044:	927df273 	and	x19, x19, #0xfffffffffffffff8
    1048:	17fffff1 	b	100c <kprintf.constprop.0+0x74c>
    104c:	aa0303f3 	mov	x19, x3
    1050:	8b24c363 	add	x3, x27, w4, sxtw
    1054:	17ffffee 	b	100c <kprintf.constprop.0+0x74c>
/media/home/beste/01_Pro/ld25x/bsp_hu/MYD-LD25X-Uboot-L2022.10-V1.0.0/GEN_FIP/myir-st-optee/lib/libutils/ext/snprintk.c:448
    1058:	37f80364 	tbnz	w4, #31, 10c4 <kprintf.constprop.0+0x804>
    105c:	91003c73 	add	x19, x3, #0xf
    1060:	2a0403f4 	mov	w20, w4
    1064:	927df273 	and	x19, x19, #0xfffffffffffffff8
    1068:	f940006d 	ldr	x13, [x3]
    106c:	b500006d 	cbnz	x13, 1078 <kprintf.constprop.0+0x7b8>
/media/home/beste/01_Pro/ld25x/bsp_hu/MYD-LD25X-Uboot-L2022.10-V1.0.0/GEN_FIP/myir-st-optee/lib/libutils/ext/snprintk.c:450
    1070:	b0000083 	adrp	x3, 12000 <small_prime+0x238>
    1074:	9105e46d 	add	x13, x3, #0x179
/media/home/beste/01_Pro/ld25x/bsp_hu/MYD-LD25X-Uboot-L2022.10-V1.0.0/GEN_FIP/myir-st-optee/lib/libutils/ext/snprintk.c:451
    1078:	310004bf 	cmn	w5, #0x1
    107c:	54000360 	b.eq	10e8 <kprintf.constprop.0+0x828>  // b.none
/media/home/beste/01_Pro/ld25x/bsp_hu/MYD-LD25X-Uboot-L2022.10-V1.0.0/GEN_FIP/myir-st-optee/lib/libutils/ext/snprintk.c:457
    1080:	93407ca2 	sxtw	x2, w5
    1084:	aa0d03e0 	mov	x0, x13
    1088:	52800001 	mov	w1, #0x0                   	// #0
    108c:	f90053ed 	str	x13, [sp, #160]
    1090:	2915abe5 	stp	w5, w10, [sp, #172]
    1094:	f9005feb 	str	x11, [sp, #184]
    1098:	94000116 	bl	14f0 <memchr>
/media/home/beste/01_Pro/ld25x/bsp_hu/MYD-LD25X-Uboot-L2022.10-V1.0.0/GEN_FIP/myir-st-optee/lib/libutils/ext/snprintk.c:459
    109c:	f94053ed 	ldr	x13, [sp, #160]
    10a0:	f9405feb 	ldr	x11, [sp, #184]
    10a4:	2955abe5 	ldp	w5, w10, [sp, #172]
    10a8:	b4000080 	cbz	x0, 10b8 <kprintf.constprop.0+0x7f8>
/media/home/beste/01_Pro/ld25x/bsp_hu/MYD-LD25X-Uboot-L2022.10-V1.0.0/GEN_FIP/myir-st-optee/lib/libutils/ext/snprintk.c:460
    10ac:	cb0d0000 	sub	x0, x0, x13
    10b0:	6b0000bf 	cmp	w5, w0
    10b4:	1a80d0a5 	csel	w5, w5, w0, le
/media/home/beste/01_Pro/ld25x/bsp_hu/MYD-LD25X-Uboot-L2022.10-V1.0.0/GEN_FIP/myir-st-optee/lib/libutils/ext/snprintk.c:291
    10b8:	52800002 	mov	w2, #0x0                   	// #0
/media/home/beste/01_Pro/ld25x/bsp_hu/MYD-LD25X-Uboot-L2022.10-V1.0.0/GEN_FIP/myir-st-optee/lib/libutils/ext/snprintk.c:467
    10bc:	52800001 	mov	w1, #0x0                   	// #0
    10c0:	17ffffae 	b	f78 <kprintf.constprop.0+0x6b8>
/media/home/beste/01_Pro/ld25x/bsp_hu/MYD-LD25X-Uboot-L2022.10-V1.0.0/GEN_FIP/myir-st-optee/lib/libutils/ext/snprintk.c:448
    10c4:	11002094 	add	w20, w4, #0x8
    10c8:	7100029f 	cmp	w20, #0x0
    10cc:	5400008d 	b.le	10dc <kprintf.constprop.0+0x81c>
    10d0:	91003c73 	add	x19, x3, #0xf
    10d4:	927df273 	and	x19, x19, #0xfffffffffffffff8
    10d8:	17ffffe4 	b	1068 <kprintf.constprop.0+0x7a8>
    10dc:	aa0303f3 	mov	x19, x3
    10e0:	8b24c363 	add	x3, x27, w4, sxtw
    10e4:	17ffffe1 	b	1068 <kprintf.constprop.0+0x7a8>
/media/home/beste/01_Pro/ld25x/bsp_hu/MYD-LD25X-Uboot-L2022.10-V1.0.0/GEN_FIP/myir-st-optee/lib/libutils/ext/snprintk.c:466
    10e8:	aa0d03e0 	mov	x0, x13
    10ec:	f90053ed 	str	x13, [sp, #160]
    10f0:	b900afea 	str	w10, [sp, #172]
    10f4:	f9005beb 	str	x11, [sp, #176]
    10f8:	94000109 	bl	151c <strlen>
    10fc:	17ffff99 	b	f60 <kprintf.constprop.0+0x6a0>
/media/home/beste/01_Pro/ld25x/bsp_hu/MYD-LD25X-Uboot-L2022.10-V1.0.0/GEN_FIP/myir-st-optee/lib/libutils/ext/snprintk.c:470
    1100:	321c02d6 	orr	w22, w22, #0x10
/media/home/beste/01_Pro/ld25x/bsp_hu/MYD-LD25X-Uboot-L2022.10-V1.0.0/GEN_FIP/myir-st-optee/lib/libutils/ext/snprintk.c:473
    1104:	36380236 	tbz	w22, #7, 1148 <kprintf.constprop.0+0x888>
    1108:	37f80364 	tbnz	w4, #31, 1174 <kprintf.constprop.0+0x8b4>
    110c:	91003c73 	add	x19, x3, #0xf
    1110:	2a0403f4 	mov	w20, w4
    1114:	927df273 	and	x19, x19, #0xfffffffffffffff8
    1118:	f9400062 	ldr	x2, [x3]
/media/home/beste/01_Pro/ld25x/bsp_hu/MYD-LD25X-Uboot-L2022.10-V1.0.0/GEN_FIP/myir-st-optee/lib/libutils/ext/snprintk.c:488
    111c:	52800001 	mov	w1, #0x0                   	// #0
/media/home/beste/01_Pro/ld25x/bsp_hu/MYD-LD25X-Uboot-L2022.10-V1.0.0/GEN_FIP/myir-st-optee/lib/libutils/ext/snprintk.c:494
    1120:	310004bf 	cmn	w5, #0x1
    1124:	54000da1 	b.ne	12d8 <kprintf.constprop.0+0xa18>  // b.any
/media/home/beste/01_Pro/ld25x/bsp_hu/MYD-LD25X-Uboot-L2022.10-V1.0.0/GEN_FIP/myir-st-optee/lib/libutils/ext/snprintk.c:502
    1128:	9103b7e0 	add	x0, sp, #0xed
/media/home/beste/01_Pro/ld25x/bsp_hu/MYD-LD25X-Uboot-L2022.10-V1.0.0/GEN_FIP/myir-st-optee/lib/libutils/ext/snprintk.c:523
    112c:	d2800144 	mov	x4, #0xa                   	// #10
    1130:	d100040d 	sub	x13, x0, #0x1
/media/home/beste/01_Pro/ld25x/bsp_hu/MYD-LD25X-Uboot-L2022.10-V1.0.0/GEN_FIP/myir-st-optee/lib/libutils/ext/snprintk.c:522
    1134:	f100245f 	cmp	x2, #0x9
    1138:	54000d48 	b.hi	12e0 <kprintf.constprop.0+0xa20>  // b.pmore
/media/home/beste/01_Pro/ld25x/bsp_hu/MYD-LD25X-Uboot-L2022.10-V1.0.0/GEN_FIP/myir-st-optee/lib/libutils/ext/snprintk.c:526
    113c:	1100c042 	add	w2, w2, #0x30
    1140:	381ff002 	sturb	w2, [x0, #-1]
/media/home/beste/01_Pro/ld25x/bsp_hu/MYD-LD25X-Uboot-L2022.10-V1.0.0/GEN_FIP/myir-st-optee/lib/libutils/ext/snprintk.c:527
    1144:	17ffff2f 	b	e00 <kprintf.constprop.0+0x540>
/media/home/beste/01_Pro/ld25x/bsp_hu/MYD-LD25X-Uboot-L2022.10-V1.0.0/GEN_FIP/myir-st-optee/lib/libutils/ext/snprintk.c:473
    1148:	3747fe16 	tbnz	w22, #8, 1108 <kprintf.constprop.0+0x848>
    114c:	374ffdf6 	tbnz	w22, #9, 1108 <kprintf.constprop.0+0x848>
    1150:	372ffdd6 	tbnz	w22, #5, 1108 <kprintf.constprop.0+0x848>
    1154:	3727fdb6 	tbnz	w22, #4, 1108 <kprintf.constprop.0+0x848>
    1158:	36300336 	tbz	w22, #6, 11bc <kprintf.constprop.0+0x8fc>
    115c:	37f801e4 	tbnz	w4, #31, 1198 <kprintf.constprop.0+0x8d8>
    1160:	91002c73 	add	x19, x3, #0xb
    1164:	2a0403f4 	mov	w20, w4
    1168:	927df273 	and	x19, x19, #0xfffffffffffffff8
    116c:	79400062 	ldrh	w2, [x3]
    1170:	17ffffeb 	b	111c <kprintf.constprop.0+0x85c>
    1174:	11002094 	add	w20, w4, #0x8
    1178:	7100029f 	cmp	w20, #0x0
    117c:	5400008d 	b.le	118c <kprintf.constprop.0+0x8cc>
    1180:	91003c73 	add	x19, x3, #0xf
    1184:	927df273 	and	x19, x19, #0xfffffffffffffff8
    1188:	17ffffe4 	b	1118 <kprintf.constprop.0+0x858>
    118c:	aa0303f3 	mov	x19, x3
    1190:	8b24c363 	add	x3, x27, w4, sxtw
    1194:	17ffffe1 	b	1118 <kprintf.constprop.0+0x858>
    1198:	11002094 	add	w20, w4, #0x8
    119c:	7100029f 	cmp	w20, #0x0
    11a0:	5400008d 	b.le	11b0 <kprintf.constprop.0+0x8f0>
    11a4:	91002c73 	add	x19, x3, #0xb
    11a8:	927df273 	and	x19, x19, #0xfffffffffffffff8
    11ac:	17fffff0 	b	116c <kprintf.constprop.0+0x8ac>
    11b0:	aa0303f3 	mov	x19, x3
    11b4:	8b24c363 	add	x3, x27, w4, sxtw
    11b8:	17ffffed 	b	116c <kprintf.constprop.0+0x8ac>
    11bc:	37f800c4 	tbnz	w4, #31, 11d4 <kprintf.constprop.0+0x914>
    11c0:	91002c73 	add	x19, x3, #0xb
    11c4:	2a0403f4 	mov	w20, w4
    11c8:	927df273 	and	x19, x19, #0xfffffffffffffff8
    11cc:	b9400062 	ldr	w2, [x3]
    11d0:	17ffffd3 	b	111c <kprintf.constprop.0+0x85c>
    11d4:	11002094 	add	w20, w4, #0x8
    11d8:	7100029f 	cmp	w20, #0x0
    11dc:	5400008d 	b.le	11ec <kprintf.constprop.0+0x92c>
    11e0:	91002c73 	add	x19, x3, #0xb
    11e4:	927df273 	and	x19, x19, #0xfffffffffffffff8
    11e8:	17fffff9 	b	11cc <kprintf.constprop.0+0x90c>
    11ec:	aa0303f3 	mov	x19, x3
    11f0:	8b24c363 	add	x3, x27, w4, sxtw
    11f4:	17fffff6 	b	11cc <kprintf.constprop.0+0x90c>
/media/home/beste/01_Pro/ld25x/bsp_hu/MYD-LD25X-Uboot-L2022.10-V1.0.0/GEN_FIP/myir-st-optee/lib/libutils/ext/snprintk.c:297
    11f8:	90000097 	adrp	x23, 11000 <__text_end+0x232c>
    11fc:	91358af7 	add	x23, x23, #0xd62
    1200:	910046f7 	add	x23, x23, #0x11
    1204:	17fffdf2 	b	9cc <kprintf.constprop.0+0x10c>
/media/home/beste/01_Pro/ld25x/bsp_hu/MYD-LD25X-Uboot-L2022.10-V1.0.0/GEN_FIP/myir-st-optee/lib/libutils/ext/snprintk.c:481
    1208:	3747be56 	tbnz	w22, #8, 9d0 <kprintf.constprop.0+0x110>
    120c:	374fbe36 	tbnz	w22, #9, 9d0 <kprintf.constprop.0+0x110>
    1210:	372fbe16 	tbnz	w22, #5, 9d0 <kprintf.constprop.0+0x110>
    1214:	3727bdf6 	tbnz	w22, #4, 9d0 <kprintf.constprop.0+0x110>
    1218:	36300336 	tbz	w22, #6, 127c <kprintf.constprop.0+0x9bc>
    121c:	37f801e4 	tbnz	w4, #31, 1258 <kprintf.constprop.0+0x998>
    1220:	91002c73 	add	x19, x3, #0xb
    1224:	2a0403f4 	mov	w20, w4
    1228:	927df273 	and	x19, x19, #0xfffffffffffffff8
    122c:	79400062 	ldrh	w2, [x3]
    1230:	17fffded 	b	9e4 <kprintf.constprop.0+0x124>
    1234:	11002094 	add	w20, w4, #0x8
    1238:	7100029f 	cmp	w20, #0x0
    123c:	5400008d 	b.le	124c <kprintf.constprop.0+0x98c>
    1240:	91003c73 	add	x19, x3, #0xf
    1244:	927df273 	and	x19, x19, #0xfffffffffffffff8
    1248:	17fffde6 	b	9e0 <kprintf.constprop.0+0x120>
    124c:	aa0303f3 	mov	x19, x3
    1250:	8b24c363 	add	x3, x27, w4, sxtw
    1254:	17fffde3 	b	9e0 <kprintf.constprop.0+0x120>
    1258:	11002094 	add	w20, w4, #0x8
    125c:	7100029f 	cmp	w20, #0x0
    1260:	5400008d 	b.le	1270 <kprintf.constprop.0+0x9b0>
    1264:	91002c73 	add	x19, x3, #0xb
    1268:	927df273 	and	x19, x19, #0xfffffffffffffff8
    126c:	17fffff0 	b	122c <kprintf.constprop.0+0x96c>
    1270:	aa0303f3 	mov	x19, x3
    1274:	8b24c363 	add	x3, x27, w4, sxtw
    1278:	17ffffed 	b	122c <kprintf.constprop.0+0x96c>
    127c:	37f800c4 	tbnz	w4, #31, 1294 <kprintf.constprop.0+0x9d4>
    1280:	91002c73 	add	x19, x3, #0xb
    1284:	2a0403f4 	mov	w20, w4
    1288:	927df273 	and	x19, x19, #0xfffffffffffffff8
    128c:	b9400062 	ldr	w2, [x3]
    1290:	17fffdd5 	b	9e4 <kprintf.constprop.0+0x124>
    1294:	11002094 	add	w20, w4, #0x8
    1298:	7100029f 	cmp	w20, #0x0
    129c:	5400008d 	b.le	12ac <kprintf.constprop.0+0x9ec>
    12a0:	91002c73 	add	x19, x3, #0xb
    12a4:	927df273 	and	x19, x19, #0xfffffffffffffff8
    12a8:	17fffff9 	b	128c <kprintf.constprop.0+0x9cc>
    12ac:	aa0303f3 	mov	x19, x3
    12b0:	8b24c363 	add	x3, x27, w4, sxtw
    12b4:	17fffff6 	b	128c <kprintf.constprop.0+0x9cc>
/media/home/beste/01_Pro/ld25x/bsp_hu/MYD-LD25X-Uboot-L2022.10-V1.0.0/GEN_FIP/myir-st-optee/lib/libutils/ext/snprintk.c:494
    12b8:	52800000 	mov	w0, #0x0                   	// #0
/media/home/beste/01_Pro/ld25x/bsp_hu/MYD-LD25X-Uboot-L2022.10-V1.0.0/GEN_FIP/myir-st-optee/lib/libutils/ext/snprintk.c:503
    12bc:	f100005f 	cmp	x2, #0x0
/media/home/beste/01_Pro/ld25x/bsp_hu/MYD-LD25X-Uboot-L2022.10-V1.0.0/GEN_FIP/myir-st-optee/lib/libutils/ext/snprintk.c:495
    12c0:	12157ad6 	and	w22, w22, #0xfffffbff
/media/home/beste/01_Pro/ld25x/bsp_hu/MYD-LD25X-Uboot-L2022.10-V1.0.0/GEN_FIP/myir-st-optee/lib/libutils/ext/snprintk.c:503
    12c4:	7a4008a0 	ccmp	w5, #0x0, #0x0, eq	// eq = none
    12c8:	54ffc921 	b.ne	bec <kprintf.constprop.0+0x32c>  // b.any
/media/home/beste/01_Pro/ld25x/bsp_hu/MYD-LD25X-Uboot-L2022.10-V1.0.0/GEN_FIP/myir-st-optee/lib/libutils/ext/snprintk.c:502
    12cc:	9103b7ed 	add	x13, sp, #0xed
    12d0:	52800005 	mov	w5, #0x0                   	// #0
    12d4:	17fffecb 	b	e00 <kprintf.constprop.0+0x540>
/media/home/beste/01_Pro/ld25x/bsp_hu/MYD-LD25X-Uboot-L2022.10-V1.0.0/GEN_FIP/myir-st-optee/lib/libutils/ext/snprintk.c:494
    12d8:	52800020 	mov	w0, #0x1                   	// #1
    12dc:	17fffff8 	b	12bc <kprintf.constprop.0+0x9fc>
/media/home/beste/01_Pro/ld25x/bsp_hu/MYD-LD25X-Uboot-L2022.10-V1.0.0/GEN_FIP/myir-st-optee/lib/libutils/ext/snprintk.c:523
    12e0:	9ac40846 	udiv	x6, x2, x4
    12e4:	9b0488c2 	msub	x2, x6, x4, x2
    12e8:	1100c042 	add	w2, w2, #0x30
    12ec:	381ff002 	sturb	w2, [x0, #-1]
/media/home/beste/01_Pro/ld25x/bsp_hu/MYD-LD25X-Uboot-L2022.10-V1.0.0/GEN_FIP/myir-st-optee/lib/libutils/ext/snprintk.c:524
    12f0:	aa0603e2 	mov	x2, x6
/media/home/beste/01_Pro/ld25x/bsp_hu/MYD-LD25X-Uboot-L2022.10-V1.0.0/GEN_FIP/myir-st-optee/lib/libutils/ext/snprintk.c:523
    12f4:	aa0d03e0 	mov	x0, x13
    12f8:	17ffff8e 	b	1130 <kprintf.constprop.0+0x870>
/media/home/beste/01_Pro/ld25x/bsp_hu/MYD-LD25X-Uboot-L2022.10-V1.0.0/GEN_FIP/myir-st-optee/lib/libutils/ext/snprintk.c:547
    12fc:	35ffb878 	cbnz	w24, a08 <kprintf.constprop.0+0x148>
/media/home/beste/01_Pro/ld25x/bsp_hu/MYD-LD25X-Uboot-L2022.10-V1.0.0/GEN_FIP/myir-st-optee/lib/libutils/ext/snprintk.c:619
    1300:	b400004b 	cbz	x11, 1308 <kprintf.constprop.0+0xa48>
/media/home/beste/01_Pro/ld25x/bsp_hu/MYD-LD25X-Uboot-L2022.10-V1.0.0/GEN_FIP/myir-st-optee/lib/libutils/ext/snprintk.c:620
    1304:	f9000175 	str	x21, [x11]
/media/home/beste/01_Pro/ld25x/bsp_hu/MYD-LD25X-Uboot-L2022.10-V1.0.0/GEN_FIP/myir-st-optee/lib/libutils/ext/snprintk.c:622
    1308:	a9437bfd 	ldp	x29, x30, [sp, #48]
    130c:	2a1a03e0 	mov	w0, w26
    1310:	a94453f3 	ldp	x19, x20, [sp, #64]
    1314:	a9455bf5 	ldp	x21, x22, [sp, #80]
    1318:	a94663f7 	ldp	x23, x24, [sp, #96]
    131c:	a9476bf9 	ldp	x25, x26, [sp, #112]
    1320:	a94873fb 	ldp	x27, x28, [sp, #128]
    1324:	9103c3ff 	add	sp, sp, #0xf0
    1328:	d65f03c0 	ret
/media/home/beste/01_Pro/ld25x/bsp_hu/MYD-LD25X-Uboot-L2022.10-V1.0.0/GEN_FIP/myir-st-optee/lib/libutils/ext/snprintk.c:574
    132c:	36080056 	tbz	w22, #1, 1334 <kprintf.constprop.0+0xa74>
/media/home/beste/01_Pro/ld25x/bsp_hu/MYD-LD25X-Uboot-L2022.10-V1.0.0/GEN_FIP/myir-st-optee/lib/libutils/ext/snprintk.c:575
    1330:	11000800 	add	w0, w0, #0x2
/media/home/beste/01_Pro/ld25x/bsp_hu/MYD-LD25X-Uboot-L2022.10-V1.0.0/GEN_FIP/myir-st-optee/lib/libutils/ext/snprintk.c:578
    1334:	6b0a001f 	cmp	w0, w10
    1338:	1a8aa006 	csel	w6, w0, w10, ge	// ge = tcont
    133c:	0b06035a 	add	w26, w26, w6
/media/home/beste/01_Pro/ld25x/bsp_hu/MYD-LD25X-Uboot-L2022.10-V1.0.0/GEN_FIP/myir-st-optee/lib/libutils/ext/snprintk.c:581
    1340:	34ffe304 	cbz	w4, fa0 <kprintf.constprop.0+0x6e0>
/media/home/beste/01_Pro/ld25x/bsp_hu/MYD-LD25X-Uboot-L2022.10-V1.0.0/GEN_FIP/myir-st-optee/lib/libutils/ext/snprintk.c:590
    1344:	36080276 	tbz	w22, #1, 1390 <kprintf.constprop.0+0xad0>
/media/home/beste/01_Pro/ld25x/bsp_hu/MYD-LD25X-Uboot-L2022.10-V1.0.0/GEN_FIP/myir-st-optee/lib/libutils/ext/snprintk.c:591
    1348:	b4000255 	cbz	x21, 1390 <kprintf.constprop.0+0xad0>
    134c:	f100017f 	cmp	x11, #0x0
    1350:	1a9f17e6 	cset	w6, eq	// eq = none
    1354:	710000df 	cmp	w6, #0x0
    1358:	fa550322 	ccmp	x25, x21, #0x2, eq	// eq = none
    135c:	540001a9 	b.ls	1390 <kprintf.constprop.0+0xad0>  // b.plast
    1360:	aa1503e1 	mov	x1, x21
    1364:	52800607 	mov	w7, #0x30                  	// #48
/media/home/beste/01_Pro/ld25x/bsp_hu/MYD-LD25X-Uboot-L2022.10-V1.0.0/GEN_FIP/myir-st-optee/lib/libutils/ext/snprintk.c:592
    1368:	710000df 	cmp	w6, #0x0
/media/home/beste/01_Pro/ld25x/bsp_hu/MYD-LD25X-Uboot-L2022.10-V1.0.0/GEN_FIP/myir-st-optee/lib/libutils/ext/snprintk.c:591
    136c:	38001427 	strb	w7, [x1], #1
/media/home/beste/01_Pro/ld25x/bsp_hu/MYD-LD25X-Uboot-L2022.10-V1.0.0/GEN_FIP/myir-st-optee/lib/libutils/ext/snprintk.c:592
    1370:	fa410322 	ccmp	x25, x1, #0x2, eq	// eq = none
    1374:	54000769 	b.ls	1460 <kprintf.constprop.0+0xba0>  // b.plast
    1378:	91000ab5 	add	x21, x21, #0x2
    137c:	381ff2b8 	sturb	w24, [x21, #-1]
    1380:	14000004 	b	1390 <kprintf.constprop.0+0xad0>
    1384:	51000484 	sub	w4, w4, #0x1
    1388:	17ffff07 	b	fa4 <kprintf.constprop.0+0x6e4>
/media/home/beste/01_Pro/ld25x/bsp_hu/MYD-LD25X-Uboot-L2022.10-V1.0.0/GEN_FIP/myir-st-optee/lib/libutils/ext/snprintk.c:589
    138c:	b5000835 	cbnz	x21, 1490 <kprintf.constprop.0+0xbd0>
/media/home/beste/01_Pro/ld25x/bsp_hu/MYD-LD25X-Uboot-L2022.10-V1.0.0/GEN_FIP/myir-st-optee/lib/libutils/ext/snprintk.c:596
    1390:	7110009f 	cmp	w4, #0x400
    1394:	54000181 	b.ne	13c4 <kprintf.constprop.0+0xb04>  // b.any
/media/home/beste/01_Pro/ld25x/bsp_hu/MYD-LD25X-Uboot-L2022.10-V1.0.0/GEN_FIP/myir-st-optee/lib/libutils/ext/snprintk.c:597
    1398:	4b000141 	sub	w1, w10, w0
/media/home/beste/01_Pro/ld25x/bsp_hu/MYD-LD25X-Uboot-L2022.10-V1.0.0/GEN_FIP/myir-st-optee/lib/libutils/ext/snprintk.c:599
    139c:	52800604 	mov	w4, #0x30                  	// #48
/media/home/beste/01_Pro/ld25x/bsp_hu/MYD-LD25X-Uboot-L2022.10-V1.0.0/GEN_FIP/myir-st-optee/lib/libutils/ext/snprintk.c:598
    13a0:	7100003f 	cmp	w1, #0x0
    13a4:	5400010d 	b.le	13c4 <kprintf.constprop.0+0xb04>
/media/home/beste/01_Pro/ld25x/bsp_hu/MYD-LD25X-Uboot-L2022.10-V1.0.0/GEN_FIP/myir-st-optee/lib/libutils/ext/snprintk.c:599
    13a8:	b4000615 	cbz	x21, 1468 <kprintf.constprop.0+0xba8>
    13ac:	f100017f 	cmp	x11, #0x0
    13b0:	fa551322 	ccmp	x25, x21, #0x2, ne	// ne = any
    13b4:	540005a9 	b.ls	1468 <kprintf.constprop.0+0xba8>  // b.plast
    13b8:	380016a4 	strb	w4, [x21], #1
/media/home/beste/01_Pro/ld25x/bsp_hu/MYD-LD25X-Uboot-L2022.10-V1.0.0/GEN_FIP/myir-st-optee/lib/libutils/ext/snprintk.c:598
    13bc:	71000421 	subs	w1, w1, #0x1
    13c0:	54ffff61 	b.ne	13ac <kprintf.constprop.0+0xaec>  // b.any
/media/home/beste/01_Pro/ld25x/bsp_hu/MYD-LD25X-Uboot-L2022.10-V1.0.0/GEN_FIP/myir-st-optee/lib/libutils/ext/snprintk.c:603
    13c4:	4b050042 	sub	w2, w2, w5
/media/home/beste/01_Pro/ld25x/bsp_hu/MYD-LD25X-Uboot-L2022.10-V1.0.0/GEN_FIP/myir-st-optee/lib/libutils/ext/snprintk.c:605
    13c8:	52800601 	mov	w1, #0x30                  	// #48
/media/home/beste/01_Pro/ld25x/bsp_hu/MYD-LD25X-Uboot-L2022.10-V1.0.0/GEN_FIP/myir-st-optee/lib/libutils/ext/snprintk.c:604
    13cc:	7100005f 	cmp	w2, #0x0
    13d0:	5400010d 	b.le	13f0 <kprintf.constprop.0+0xb30>
/media/home/beste/01_Pro/ld25x/bsp_hu/MYD-LD25X-Uboot-L2022.10-V1.0.0/GEN_FIP/myir-st-optee/lib/libutils/ext/snprintk.c:605
    13d4:	b40004f5 	cbz	x21, 1470 <kprintf.constprop.0+0xbb0>
    13d8:	f100017f 	cmp	x11, #0x0
    13dc:	fa551322 	ccmp	x25, x21, #0x2, ne	// ne = any
    13e0:	54000489 	b.ls	1470 <kprintf.constprop.0+0xbb0>  // b.plast
    13e4:	380016a1 	strb	w1, [x21], #1
/media/home/beste/01_Pro/ld25x/bsp_hu/MYD-LD25X-Uboot-L2022.10-V1.0.0/GEN_FIP/myir-st-optee/lib/libutils/ext/snprintk.c:604
    13e8:	71000442 	subs	w2, w2, #0x1
    13ec:	54ffff61 	b.ne	13d8 <kprintf.constprop.0+0xb18>  // b.any
    13f0:	2a0503e5 	mov	w5, w5
/media/home/beste/01_Pro/ld25x/bsp_hu/MYD-LD25X-Uboot-L2022.10-V1.0.0/GEN_FIP/myir-st-optee/lib/libutils/ext/snprintk.c:609
    13f4:	d2800001 	mov	x1, #0x0                   	// #0
/media/home/beste/01_Pro/ld25x/bsp_hu/MYD-LD25X-Uboot-L2022.10-V1.0.0/GEN_FIP/myir-st-optee/lib/libutils/ext/snprintk.c:608
    13f8:	eb0100bf 	cmp	x5, x1
    13fc:	54000140 	b.eq	1424 <kprintf.constprop.0+0xb64>  // b.none
/media/home/beste/01_Pro/ld25x/bsp_hu/MYD-LD25X-Uboot-L2022.10-V1.0.0/GEN_FIP/myir-st-optee/lib/libutils/ext/snprintk.c:609
    1400:	b40003d5 	cbz	x21, 1478 <kprintf.constprop.0+0xbb8>
    1404:	f100017f 	cmp	x11, #0x0
    1408:	fa551322 	ccmp	x25, x21, #0x2, ne	// ne = any
    140c:	54000369 	b.ls	1478 <kprintf.constprop.0+0xbb8>  // b.plast
    1410:	386169a2 	ldrb	w2, [x13, x1]
    1414:	91000421 	add	x1, x1, #0x1
    1418:	380016a2 	strb	w2, [x21], #1
/media/home/beste/01_Pro/ld25x/bsp_hu/MYD-LD25X-Uboot-L2022.10-V1.0.0/GEN_FIP/myir-st-optee/lib/libutils/ext/snprintk.c:608
    141c:	eb0100bf 	cmp	x5, x1
    1420:	54ffff21 	b.ne	1404 <kprintf.constprop.0+0xb44>  // b.any
/media/home/beste/01_Pro/ld25x/bsp_hu/MYD-LD25X-Uboot-L2022.10-V1.0.0/GEN_FIP/myir-st-optee/lib/libutils/ext/snprintk.c:611
    1424:	3617a7b6 	tbz	w22, #2, 918 <kprintf.constprop.0+0x58>
/media/home/beste/01_Pro/ld25x/bsp_hu/MYD-LD25X-Uboot-L2022.10-V1.0.0/GEN_FIP/myir-st-optee/lib/libutils/ext/snprintk.c:612
    1428:	4b000140 	sub	w0, w10, w0
/media/home/beste/01_Pro/ld25x/bsp_hu/MYD-LD25X-Uboot-L2022.10-V1.0.0/GEN_FIP/myir-st-optee/lib/libutils/ext/snprintk.c:613
    142c:	7100001f 	cmp	w0, #0x0
    1430:	54ffa74d 	b.le	918 <kprintf.constprop.0+0x58>
/media/home/beste/01_Pro/ld25x/bsp_hu/MYD-LD25X-Uboot-L2022.10-V1.0.0/GEN_FIP/myir-st-optee/lib/libutils/ext/snprintk.c:614
    1434:	b4000275 	cbz	x21, 1480 <kprintf.constprop.0+0xbc0>
    1438:	f100017f 	cmp	x11, #0x0
    143c:	aa1503e1 	mov	x1, x21
    1440:	fa551322 	ccmp	x25, x21, #0x2, ne	// ne = any
    1444:	540001e9 	b.ls	1480 <kprintf.constprop.0+0xbc0>  // b.plast
    1448:	52800402 	mov	w2, #0x20                  	// #32
    144c:	39000022 	strb	w2, [x1]
    1450:	910006b5 	add	x21, x21, #0x1
/media/home/beste/01_Pro/ld25x/bsp_hu/MYD-LD25X-Uboot-L2022.10-V1.0.0/GEN_FIP/myir-st-optee/lib/libutils/ext/snprintk.c:613
    1454:	71000400 	subs	w0, w0, #0x1
    1458:	54ffff01 	b.ne	1438 <kprintf.constprop.0+0xb78>  // b.any
    145c:	17fffd2f 	b	918 <kprintf.constprop.0+0x58>
/media/home/beste/01_Pro/ld25x/bsp_hu/MYD-LD25X-Uboot-L2022.10-V1.0.0/GEN_FIP/myir-st-optee/lib/libutils/ext/snprintk.c:591
    1460:	aa0103f5 	mov	x21, x1
    1464:	17ffffcb 	b	1390 <kprintf.constprop.0+0xad0>
    1468:	51000421 	sub	w1, w1, #0x1
    146c:	17ffffcd 	b	13a0 <kprintf.constprop.0+0xae0>
    1470:	51000442 	sub	w2, w2, #0x1
    1474:	17ffffd6 	b	13cc <kprintf.constprop.0+0xb0c>
/media/home/beste/01_Pro/ld25x/bsp_hu/MYD-LD25X-Uboot-L2022.10-V1.0.0/GEN_FIP/myir-st-optee/lib/libutils/ext/snprintk.c:608
    1478:	91000421 	add	x1, x1, #0x1
    147c:	17ffffdf 	b	13f8 <kprintf.constprop.0+0xb38>
    1480:	51000400 	sub	w0, w0, #0x1
    1484:	17ffffea 	b	142c <kprintf.constprop.0+0xb6c>
/media/home/beste/01_Pro/ld25x/bsp_hu/MYD-LD25X-Uboot-L2022.10-V1.0.0/GEN_FIP/myir-st-optee/lib/libutils/ext/snprintk.c:589
    1488:	b4fff9f5 	cbz	x21, 13c4 <kprintf.constprop.0+0xb04>
    148c:	52800004 	mov	w4, #0x0                   	// #0
    1490:	f100017f 	cmp	x11, #0x0
    1494:	fa551322 	ccmp	x25, x21, #0x2, ne	// ne = any
    1498:	54fff7c9 	b.ls	1390 <kprintf.constprop.0+0xad0>  // b.plast
    149c:	380016a1 	strb	w1, [x21], #1
    14a0:	17ffffbc 	b	1390 <kprintf.constprop.0+0xad0>

00000000000014a4 <__vsprintf>:
__vsprintf():
/media/home/beste/01_Pro/ld25x/bsp_hu/MYD-LD25X-Uboot-L2022.10-V1.0.0/GEN_FIP/myir-st-optee/lib/libutils/ext/snprintk.c:155
    14a4:	a9bc7bfd 	stp	x29, x30, [sp, #-64]!
/media/home/beste/01_Pro/ld25x/bsp_hu/MYD-LD25X-Uboot-L2022.10-V1.0.0/GEN_FIP/myir-st-optee/lib/libutils/ext/snprintk.c:156
    14a8:	910083e3 	add	x3, sp, #0x20
/media/home/beste/01_Pro/ld25x/bsp_hu/MYD-LD25X-Uboot-L2022.10-V1.0.0/GEN_FIP/myir-st-optee/lib/libutils/ext/snprintk.c:155
    14ac:	910003fd 	mov	x29, sp
    14b0:	a90153f3 	stp	x19, x20, [sp, #16]
    14b4:	aa0003f4 	mov	x20, x0
    14b8:	aa0103f3 	mov	x19, x1
/media/home/beste/01_Pro/ld25x/bsp_hu/MYD-LD25X-Uboot-L2022.10-V1.0.0/GEN_FIP/myir-st-optee/lib/libutils/ext/snprintk.c:156
    14bc:	aa0303e0 	mov	x0, x3
/media/home/beste/01_Pro/ld25x/bsp_hu/MYD-LD25X-Uboot-L2022.10-V1.0.0/GEN_FIP/myir-st-optee/lib/libutils/ext/snprintk.c:155
    14c0:	aa0203e1 	mov	x1, x2
/media/home/beste/01_Pro/ld25x/bsp_hu/MYD-LD25X-Uboot-L2022.10-V1.0.0/GEN_FIP/myir-st-optee/lib/libutils/ext/snprintk.c:156
    14c4:	d2800402 	mov	x2, #0x20                  	// #32
    14c8:	97fffad6 	bl	20 <memcpy>
    14cc:	aa1403e2 	mov	x2, x20
    14d0:	aa0003e3 	mov	x3, x0
    14d4:	52800004 	mov	w4, #0x0                   	// #0
    14d8:	aa1303e0 	mov	x0, x19
    14dc:	d2800001 	mov	x1, #0x0                   	// #0
    14e0:	97fffcf8 	bl	8c0 <kprintf.constprop.0>
/media/home/beste/01_Pro/ld25x/bsp_hu/MYD-LD25X-Uboot-L2022.10-V1.0.0/GEN_FIP/myir-st-optee/lib/libutils/ext/snprintk.c:157
    14e4:	a94153f3 	ldp	x19, x20, [sp, #16]
    14e8:	a8c47bfd 	ldp	x29, x30, [sp], #64
    14ec:	d65f03c0 	ret

00000000000014f0 <memchr>:
memchr():
/media/home/beste/01_Pro/ld25x/bsp_hu/MYD-LD25X-Uboot-L2022.10-V1.0.0/GEN_FIP/myir-st-optee/lib/libutils/isoc/newlib/memchr.c:109
    14f0:	12001c21 	and	w1, w1, #0xff
/media/home/beste/01_Pro/ld25x/bsp_hu/MYD-LD25X-Uboot-L2022.10-V1.0.0/GEN_FIP/myir-st-optee/lib/libutils/isoc/newlib/memchr.c:153
    14f4:	8b020002 	add	x2, x0, x2
    14f8:	eb02001f 	cmp	x0, x2
    14fc:	54000061 	b.ne	1508 <memchr+0x18>  // b.any
/media/home/beste/01_Pro/ld25x/bsp_hu/MYD-LD25X-Uboot-L2022.10-V1.0.0/GEN_FIP/myir-st-optee/lib/libutils/isoc/newlib/memchr.c:159
    1500:	d2800000 	mov	x0, #0x0                   	// #0
/media/home/beste/01_Pro/ld25x/bsp_hu/MYD-LD25X-Uboot-L2022.10-V1.0.0/GEN_FIP/myir-st-optee/lib/libutils/isoc/newlib/memchr.c:160
    1504:	d65f03c0 	ret
/media/home/beste/01_Pro/ld25x/bsp_hu/MYD-LD25X-Uboot-L2022.10-V1.0.0/GEN_FIP/myir-st-optee/lib/libutils/isoc/newlib/memchr.c:154
    1508:	39400003 	ldrb	w3, [x0]
    150c:	6b01007f 	cmp	w3, w1
    1510:	54ffffa0 	b.eq	1504 <memchr+0x14>  // b.none
/media/home/beste/01_Pro/ld25x/bsp_hu/MYD-LD25X-Uboot-L2022.10-V1.0.0/GEN_FIP/myir-st-optee/lib/libutils/isoc/newlib/memchr.c:156
    1514:	91000400 	add	x0, x0, #0x1
    1518:	17fffff8 	b	14f8 <memchr+0x8>

000000000000151c <strlen>:
strlen():
/media/home/beste/01_Pro/ld25x/bsp_hu/MYD-LD25X-Uboot-L2022.10-V1.0.0/GEN_FIP/myir-st-optee/lib/libutils/isoc/newlib/strlen.c:117
    151c:	aa0003e1 	mov	x1, x0
    1520:	39400022 	ldrb	w2, [x1]
    1524:	35000062 	cbnz	w2, 1530 <strlen+0x14>
/media/home/beste/01_Pro/ld25x/bsp_hu/MYD-LD25X-Uboot-L2022.10-V1.0.0/GEN_FIP/myir-st-optee/lib/libutils/isoc/newlib/strlen.c:120
    1528:	cb000020 	sub	x0, x1, x0
    152c:	d65f03c0 	ret
/media/home/beste/01_Pro/ld25x/bsp_hu/MYD-LD25X-Uboot-L2022.10-V1.0.0/GEN_FIP/myir-st-optee/lib/libutils/isoc/newlib/strlen.c:118
    1530:	91000421 	add	x1, x1, #0x1
    1534:	17fffffb 	b	1520 <strlen+0x4>

0000000000001538 <trace_ext_puts>:
trace_ext_puts():
/media/home/beste/01_Pro/ld25x/bsp_hu/MYD-LD25X-Uboot-L2022.10-V1.0.0/GEN_FIP/myir-st-optee/lib/libutee/trace_ext.c:22
    1538:	a9be7bfd 	stp	x29, x30, [sp, #-32]!
    153c:	910003fd 	mov	x29, sp
    1540:	f9000bf3 	str	x19, [sp, #16]
    1544:	aa0003f3 	mov	x19, x0
/media/home/beste/01_Pro/ld25x/bsp_hu/MYD-LD25X-Uboot-L2022.10-V1.0.0/GEN_FIP/myir-st-optee/lib/libutee/trace_ext.c:26
    1548:	97fffff5 	bl	151c <strlen>
    154c:	aa0003e1 	mov	x1, x0
    1550:	aa1303e0 	mov	x0, x19
/media/home/beste/01_Pro/ld25x/bsp_hu/MYD-LD25X-Uboot-L2022.10-V1.0.0/GEN_FIP/myir-st-optee/lib/libutee/trace_ext.c:28
    1554:	f9400bf3 	ldr	x19, [sp, #16]
    1558:	a8c27bfd 	ldp	x29, x30, [sp], #32
/media/home/beste/01_Pro/ld25x/bsp_hu/MYD-LD25X-Uboot-L2022.10-V1.0.0/GEN_FIP/myir-st-optee/lib/libutee/trace_ext.c:26
    155c:	140005d7 	b	2cb8 <_utee_log>

0000000000001560 <trace_ext_get_thread_id>:
trace_ext_get_thread_id():
/media/home/beste/01_Pro/ld25x/bsp_hu/MYD-LD25X-Uboot-L2022.10-V1.0.0/GEN_FIP/myir-st-optee/lib/libutee/trace_ext.c:33
    1560:	12800000 	mov	w0, #0xffffffff            	// #-1
    1564:	d65f03c0 	ret

0000000000001568 <printf>:
printf():
/media/home/beste/01_Pro/ld25x/bsp_hu/MYD-LD25X-Uboot-L2022.10-V1.0.0/GEN_FIP/myir-st-optee/lib/libutee/trace_ext.c:41
    1568:	d10883ff 	sub	sp, sp, #0x220
    156c:	a9007bfd 	stp	x29, x30, [sp]
    1570:	910003fd 	mov	x29, sp
    1574:	a90153f3 	stp	x19, x20, [sp, #16]
    1578:	aa0003f3 	mov	x19, x0
    157c:	3d805be0 	str	q0, [sp, #352]
    1580:	3d805fe1 	str	q1, [sp, #368]
    1584:	3d8063e2 	str	q2, [sp, #384]
    1588:	3d8067e3 	str	q3, [sp, #400]
    158c:	3d806be4 	str	q4, [sp, #416]
    1590:	3d806fe5 	str	q5, [sp, #432]
    1594:	3d8073e6 	str	q6, [sp, #448]
    1598:	3d8077e7 	str	q7, [sp, #464]
    159c:	a91e8be1 	stp	x1, x2, [sp, #488]
    15a0:	a91f93e3 	stp	x3, x4, [sp, #504]
    15a4:	f90107e5 	str	x5, [sp, #520]
    15a8:	f9010be6 	str	x6, [sp, #528]
    15ac:	f9010fe7 	str	x7, [sp, #536]
/media/home/beste/01_Pro/ld25x/bsp_hu/MYD-LD25X-Uboot-L2022.10-V1.0.0/GEN_FIP/myir-st-optee/lib/libutee/trace_ext.c:46
    15b0:	97fffbd0 	bl	4f0 <trace_get_level>
    15b4:	7100001f 	cmp	w0, #0x0
    15b8:	5400038d 	b.le	1628 <printf+0xc0>
/media/home/beste/01_Pro/ld25x/bsp_hu/MYD-LD25X-Uboot-L2022.10-V1.0.0/GEN_FIP/myir-st-optee/lib/libutee/trace_ext.c:49
    15bc:	910883e0 	add	x0, sp, #0x220
    15c0:	a90403e0 	stp	x0, x0, [sp, #64]
    15c4:	910783e0 	add	x0, sp, #0x1e0
    15c8:	f9002be0 	str	x0, [sp, #80]
    15cc:	128006e0 	mov	w0, #0xffffffc8            	// #-56
    15d0:	b9005be0 	str	w0, [sp, #88]
    15d4:	12800fe0 	mov	w0, #0xffffff80            	// #-128
    15d8:	b9005fe0 	str	w0, [sp, #92]
/media/home/beste/01_Pro/ld25x/bsp_hu/MYD-LD25X-Uboot-L2022.10-V1.0.0/GEN_FIP/myir-st-optee/lib/libutee/trace_ext.c:50
    15dc:	910183f4 	add	x20, sp, #0x60
    15e0:	a94407e0 	ldp	x0, x1, [sp, #64]
    15e4:	a90207e0 	stp	x0, x1, [sp, #32]
    15e8:	aa1303e2 	mov	x2, x19
    15ec:	a94507e0 	ldp	x0, x1, [sp, #80]
    15f0:	910083e3 	add	x3, sp, #0x20
    15f4:	a90307e0 	stp	x0, x1, [sp, #48]
    15f8:	aa1403e0 	mov	x0, x20
    15fc:	d2802001 	mov	x1, #0x100                 	// #256
    1600:	940025ee 	bl	adb8 <vsnprintf>
    1604:	2a0003f3 	mov	w19, w0
/media/home/beste/01_Pro/ld25x/bsp_hu/MYD-LD25X-Uboot-L2022.10-V1.0.0/GEN_FIP/myir-st-optee/lib/libutee/trace_ext.c:53
    1608:	37f80060 	tbnz	w0, #31, 1614 <printf+0xac>
/media/home/beste/01_Pro/ld25x/bsp_hu/MYD-LD25X-Uboot-L2022.10-V1.0.0/GEN_FIP/myir-st-optee/lib/libutee/trace_ext.c:56
    160c:	aa1403e0 	mov	x0, x20
    1610:	97ffffca 	bl	1538 <trace_ext_puts>
/media/home/beste/01_Pro/ld25x/bsp_hu/MYD-LD25X-Uboot-L2022.10-V1.0.0/GEN_FIP/myir-st-optee/lib/libutee/trace_ext.c:59
    1614:	a9407bfd 	ldp	x29, x30, [sp]
    1618:	2a1303e0 	mov	w0, w19
    161c:	a94153f3 	ldp	x19, x20, [sp, #16]
    1620:	910883ff 	add	sp, sp, #0x220
    1624:	d65f03c0 	ret
/media/home/beste/01_Pro/ld25x/bsp_hu/MYD-LD25X-Uboot-L2022.10-V1.0.0/GEN_FIP/myir-st-optee/lib/libutee/trace_ext.c:47
    1628:	52800013 	mov	w19, #0x0                   	// #0
    162c:	17fffffa 	b	1614 <printf+0xac>

0000000000001630 <puts>:
puts():
/media/home/beste/01_Pro/ld25x/bsp_hu/MYD-LD25X-Uboot-L2022.10-V1.0.0/GEN_FIP/myir-st-optee/lib/libutee/trace_ext.c:62
    1630:	a9be7bfd 	stp	x29, x30, [sp, #-32]!
    1634:	910003fd 	mov	x29, sp
    1638:	f9000bf3 	str	x19, [sp, #16]
    163c:	aa0003f3 	mov	x19, x0
/media/home/beste/01_Pro/ld25x/bsp_hu/MYD-LD25X-Uboot-L2022.10-V1.0.0/GEN_FIP/myir-st-optee/lib/libutee/trace_ext.c:63
    1640:	97fffbac 	bl	4f0 <trace_get_level>
    1644:	7100001f 	cmp	w0, #0x0
    1648:	540000cd 	b.le	1660 <puts+0x30>
/media/home/beste/01_Pro/ld25x/bsp_hu/MYD-LD25X-Uboot-L2022.10-V1.0.0/GEN_FIP/myir-st-optee/lib/libutee/trace_ext.c:64
    164c:	aa1303e0 	mov	x0, x19
    1650:	97ffffba 	bl	1538 <trace_ext_puts>
/media/home/beste/01_Pro/ld25x/bsp_hu/MYD-LD25X-Uboot-L2022.10-V1.0.0/GEN_FIP/myir-st-optee/lib/libutee/trace_ext.c:65
    1654:	b0000080 	adrp	x0, 12000 <small_prime+0x238>
    1658:	912a2c00 	add	x0, x0, #0xa8b
    165c:	97ffffb7 	bl	1538 <trace_ext_puts>
/media/home/beste/01_Pro/ld25x/bsp_hu/MYD-LD25X-Uboot-L2022.10-V1.0.0/GEN_FIP/myir-st-optee/lib/libutee/trace_ext.c:68
    1660:	f9400bf3 	ldr	x19, [sp, #16]
    1664:	52800020 	mov	w0, #0x1                   	// #1
    1668:	a8c27bfd 	ldp	x29, x30, [sp], #32
    166c:	d65f03c0 	ret

0000000000001670 <putchar>:
putchar():
/media/home/beste/01_Pro/ld25x/bsp_hu/MYD-LD25X-Uboot-L2022.10-V1.0.0/GEN_FIP/myir-st-optee/lib/libutee/trace_ext.c:71
    1670:	a9bd7bfd 	stp	x29, x30, [sp, #-48]!
    1674:	910003fd 	mov	x29, sp
    1678:	f9000bf3 	str	x19, [sp, #16]
    167c:	2a0003f3 	mov	w19, w0
/media/home/beste/01_Pro/ld25x/bsp_hu/MYD-LD25X-Uboot-L2022.10-V1.0.0/GEN_FIP/myir-st-optee/lib/libutee/trace_ext.c:72
    1680:	3900a3e0 	strb	w0, [sp, #40]
    1684:	3900a7ff 	strb	wzr, [sp, #41]
/media/home/beste/01_Pro/ld25x/bsp_hu/MYD-LD25X-Uboot-L2022.10-V1.0.0/GEN_FIP/myir-st-optee/lib/libutee/trace_ext.c:74
    1688:	97fffb9a 	bl	4f0 <trace_get_level>
    168c:	7100001f 	cmp	w0, #0x0
    1690:	5400006d 	b.le	169c <putchar+0x2c>
/media/home/beste/01_Pro/ld25x/bsp_hu/MYD-LD25X-Uboot-L2022.10-V1.0.0/GEN_FIP/myir-st-optee/lib/libutee/trace_ext.c:75
    1694:	9100a3e0 	add	x0, sp, #0x28
    1698:	97ffffa8 	bl	1538 <trace_ext_puts>
/media/home/beste/01_Pro/ld25x/bsp_hu/MYD-LD25X-Uboot-L2022.10-V1.0.0/GEN_FIP/myir-st-optee/lib/libutee/trace_ext.c:82
    169c:	12001e60 	and	w0, w19, #0xff
    16a0:	f9400bf3 	ldr	x19, [sp, #16]
    16a4:	a8c37bfd 	ldp	x29, x30, [sp], #48
    16a8:	d65f03c0 	ret

00000000000016ac <update_out_param>:
update_out_param():
/media/home/beste/01_Pro/ld25x/bsp_hu/MYD-LD25X-Uboot-L2022.10-V1.0.0/GEN_FIP/myir-st-optee/lib/libutee/tee_api.c:121
    16ac:	a9bc7bfd 	stp	x29, x30, [sp, #-64]!
    16b0:	910003fd 	mov	x29, sp
    16b4:	a90153f3 	stp	x19, x20, [sp, #16]
/media/home/beste/01_Pro/ld25x/bsp_hu/MYD-LD25X-Uboot-L2022.10-V1.0.0/GEN_FIP/myir-st-optee/lib/libutee/tee_api.c:123
    16b8:	aa0203f4 	mov	x20, x2
    16bc:	aa0003f3 	mov	x19, x0
/media/home/beste/01_Pro/ld25x/bsp_hu/MYD-LD25X-Uboot-L2022.10-V1.0.0/GEN_FIP/myir-st-optee/lib/libutee/tee_api.c:121
    16c0:	a90363f7 	stp	x23, x24, [sp, #48]
    16c4:	aa0103f8 	mov	x24, x1
/media/home/beste/01_Pro/ld25x/bsp_hu/MYD-LD25X-Uboot-L2022.10-V1.0.0/GEN_FIP/myir-st-optee/lib/libutee/tee_api.c:123
    16c8:	f8408697 	ldr	x23, [x20], #8
/media/home/beste/01_Pro/ld25x/bsp_hu/MYD-LD25X-Uboot-L2022.10-V1.0.0/GEN_FIP/myir-st-optee/lib/libutee/tee_api.c:121
    16cc:	a9025bf5 	stp	x21, x22, [sp, #32]
/media/home/beste/01_Pro/ld25x/bsp_hu/MYD-LD25X-Uboot-L2022.10-V1.0.0/GEN_FIP/myir-st-optee/lib/libutee/tee_api.c:125
    16d0:	d2800015 	mov	x21, #0x0                   	// #0
/media/home/beste/01_Pro/ld25x/bsp_hu/MYD-LD25X-Uboot-L2022.10-V1.0.0/GEN_FIP/myir-st-optee/lib/libutee/tee_api.c:129
    16d4:	531e76a0 	lsl	w0, w21, #2
/media/home/beste/01_Pro/ld25x/bsp_hu/MYD-LD25X-Uboot-L2022.10-V1.0.0/GEN_FIP/myir-st-optee/lib/libutee/tee_api.c:127
    16d8:	a9405a82 	ldp	x2, x22, [x20]
/media/home/beste/01_Pro/ld25x/bsp_hu/MYD-LD25X-Uboot-L2022.10-V1.0.0/GEN_FIP/myir-st-optee/lib/libutee/tee_api.c:129
    16dc:	1ac026e0 	lsr	w0, w23, w0
    16e0:	12000c01 	and	w1, w0, #0xf
    16e4:	721e041f 	tst	w0, #0xc
    16e8:	540000a1 	b.ne	16fc <update_out_param+0x50>  // b.any
    16ec:	721f081f 	tst	w0, #0xe
    16f0:	540000c0 	b.eq	1708 <update_out_param+0x5c>  // b.none
/media/home/beste/01_Pro/ld25x/bsp_hu/MYD-LD25X-Uboot-L2022.10-V1.0.0/GEN_FIP/myir-st-optee/lib/libutee/tee_api.c:133
    16f4:	29005a62 	stp	w2, w22, [x19]
/media/home/beste/01_Pro/ld25x/bsp_hu/MYD-LD25X-Uboot-L2022.10-V1.0.0/GEN_FIP/myir-st-optee/lib/libutee/tee_api.c:134
    16f8:	14000004 	b	1708 <update_out_param+0x5c>
/media/home/beste/01_Pro/ld25x/bsp_hu/MYD-LD25X-Uboot-L2022.10-V1.0.0/GEN_FIP/myir-st-optee/lib/libutee/tee_api.c:129
    16fc:	51001820 	sub	w0, w1, #0x6
    1700:	7100041f 	cmp	w0, #0x1
    1704:	54000169 	b.ls	1730 <update_out_param+0x84>  // b.plast
/media/home/beste/01_Pro/ld25x/bsp_hu/MYD-LD25X-Uboot-L2022.10-V1.0.0/GEN_FIP/myir-st-optee/lib/libutee/tee_api.c:125 (discriminator 2)
    1708:	910006b5 	add	x21, x21, #0x1
    170c:	91004294 	add	x20, x20, #0x10
    1710:	91004273 	add	x19, x19, #0x10
    1714:	f10012bf 	cmp	x21, #0x4
    1718:	54fffde1 	b.ne	16d4 <update_out_param+0x28>  // b.any
/media/home/beste/01_Pro/ld25x/bsp_hu/MYD-LD25X-Uboot-L2022.10-V1.0.0/GEN_FIP/myir-st-optee/lib/libutee/tee_api.c:146
    171c:	a94153f3 	ldp	x19, x20, [sp, #16]
    1720:	a9425bf5 	ldp	x21, x22, [sp, #32]
    1724:	a94363f7 	ldp	x23, x24, [sp, #48]
    1728:	a8c47bfd 	ldp	x29, x30, [sp], #64
    172c:	d65f03c0 	ret
/media/home/beste/01_Pro/ld25x/bsp_hu/MYD-LD25X-Uboot-L2022.10-V1.0.0/GEN_FIP/myir-st-optee/lib/libutee/tee_api.c:137
    1730:	f8757b01 	ldr	x1, [x24, x21, lsl #3]
    1734:	b40000c1 	cbz	x1, 174c <update_out_param+0xa0>
/media/home/beste/01_Pro/ld25x/bsp_hu/MYD-LD25X-Uboot-L2022.10-V1.0.0/GEN_FIP/myir-st-optee/lib/libutee/tee_api.c:139
    1738:	b9400a62 	ldr	w2, [x19, #8]
/media/home/beste/01_Pro/ld25x/bsp_hu/MYD-LD25X-Uboot-L2022.10-V1.0.0/GEN_FIP/myir-st-optee/lib/libutee/tee_api.c:138
    173c:	f9400260 	ldr	x0, [x19]
/media/home/beste/01_Pro/ld25x/bsp_hu/MYD-LD25X-Uboot-L2022.10-V1.0.0/GEN_FIP/myir-st-optee/lib/libutee/tee_api.c:139
    1740:	eb16005f 	cmp	x2, x22
/media/home/beste/01_Pro/ld25x/bsp_hu/MYD-LD25X-Uboot-L2022.10-V1.0.0/GEN_FIP/myir-st-optee/lib/libutee/tee_api.c:138
    1744:	9a969042 	csel	x2, x2, x22, ls	// ls = plast
    1748:	97fffa36 	bl	20 <memcpy>
/media/home/beste/01_Pro/ld25x/bsp_hu/MYD-LD25X-Uboot-L2022.10-V1.0.0/GEN_FIP/myir-st-optee/lib/libutee/tee_api.c:140
    174c:	b9000a76 	str	w22, [x19, #8]
/media/home/beste/01_Pro/ld25x/bsp_hu/MYD-LD25X-Uboot-L2022.10-V1.0.0/GEN_FIP/myir-st-optee/lib/libutee/tee_api.c:141
    1750:	17ffffee 	b	1708 <update_out_param+0x5c>

0000000000001754 <TEE_CloseTASession>:
TEE_CloseTASession():
/media/home/beste/01_Pro/ld25x/bsp_hu/MYD-LD25X-Uboot-L2022.10-V1.0.0/GEN_FIP/myir-st-optee/lib/libutee/tee_api.c:196
    1754:	b4000120 	cbz	x0, 1778 <TEE_CloseTASession+0x24>
/media/home/beste/01_Pro/ld25x/bsp_hu/MYD-LD25X-Uboot-L2022.10-V1.0.0/GEN_FIP/myir-st-optee/lib/libutee/tee_api.c:195
    1758:	a9bf7bfd 	stp	x29, x30, [sp, #-16]!
    175c:	910003fd 	mov	x29, sp
/media/home/beste/01_Pro/ld25x/bsp_hu/MYD-LD25X-Uboot-L2022.10-V1.0.0/GEN_FIP/myir-st-optee/lib/libutee/tee_api.c:197
    1760:	94000565 	bl	2cf4 <_utee_close_ta_session>
/media/home/beste/01_Pro/ld25x/bsp_hu/MYD-LD25X-Uboot-L2022.10-V1.0.0/GEN_FIP/myir-st-optee/lib/libutee/tee_api.c:199
    1764:	34000060 	cbz	w0, 1770 <TEE_CloseTASession+0x1c>
/media/home/beste/01_Pro/ld25x/bsp_hu/MYD-LD25X-Uboot-L2022.10-V1.0.0/GEN_FIP/myir-st-optee/lib/libutee/tee_api.c:202
    1768:	a8c17bfd 	ldp	x29, x30, [sp], #16
/media/home/beste/01_Pro/ld25x/bsp_hu/MYD-LD25X-Uboot-L2022.10-V1.0.0/GEN_FIP/myir-st-optee/lib/libutee/tee_api.c:200
    176c:	140001af 	b	1e28 <TEE_Panic>
/media/home/beste/01_Pro/ld25x/bsp_hu/MYD-LD25X-Uboot-L2022.10-V1.0.0/GEN_FIP/myir-st-optee/lib/libutee/tee_api.c:202
    1770:	a8c17bfd 	ldp	x29, x30, [sp], #16
    1774:	d65f03c0 	ret
    1778:	d65f03c0 	ret

000000000000177c <TEE_GetCancellationFlag>:
TEE_GetCancellationFlag():
/media/home/beste/01_Pro/ld25x/bsp_hu/MYD-LD25X-Uboot-L2022.10-V1.0.0/GEN_FIP/myir-st-optee/lib/libutee/tee_api.c:257
    177c:	a9be7bfd 	stp	x29, x30, [sp, #-32]!
    1780:	910003fd 	mov	x29, sp
/media/home/beste/01_Pro/ld25x/bsp_hu/MYD-LD25X-Uboot-L2022.10-V1.0.0/GEN_FIP/myir-st-optee/lib/libutee/tee_api.c:259
    1784:	910073e0 	add	x0, sp, #0x1c
    1788:	94000561 	bl	2d0c <_utee_get_cancellation_flag>
/media/home/beste/01_Pro/ld25x/bsp_hu/MYD-LD25X-Uboot-L2022.10-V1.0.0/GEN_FIP/myir-st-optee/lib/libutee/tee_api.c:261
    178c:	34000040 	cbz	w0, 1794 <TEE_GetCancellationFlag+0x18>
/media/home/beste/01_Pro/ld25x/bsp_hu/MYD-LD25X-Uboot-L2022.10-V1.0.0/GEN_FIP/myir-st-optee/lib/libutee/tee_api.c:262
    1790:	b9001fff 	str	wzr, [sp, #28]
/media/home/beste/01_Pro/ld25x/bsp_hu/MYD-LD25X-Uboot-L2022.10-V1.0.0/GEN_FIP/myir-st-optee/lib/libutee/tee_api.c:263
    1794:	b9401fe0 	ldr	w0, [sp, #28]
/media/home/beste/01_Pro/ld25x/bsp_hu/MYD-LD25X-Uboot-L2022.10-V1.0.0/GEN_FIP/myir-st-optee/lib/libutee/tee_api.c:264
    1798:	a8c27bfd 	ldp	x29, x30, [sp], #32
/media/home/beste/01_Pro/ld25x/bsp_hu/MYD-LD25X-Uboot-L2022.10-V1.0.0/GEN_FIP/myir-st-optee/lib/libutee/tee_api.c:263
    179c:	7100001f 	cmp	w0, #0x0
/media/home/beste/01_Pro/ld25x/bsp_hu/MYD-LD25X-Uboot-L2022.10-V1.0.0/GEN_FIP/myir-st-optee/lib/libutee/tee_api.c:264
    17a0:	1a9f07e0 	cset	w0, ne	// ne = any
    17a4:	d65f03c0 	ret

00000000000017a8 <TEE_UnmaskCancellation>:
TEE_UnmaskCancellation():
/media/home/beste/01_Pro/ld25x/bsp_hu/MYD-LD25X-Uboot-L2022.10-V1.0.0/GEN_FIP/myir-st-optee/lib/libutee/tee_api.c:267
    17a8:	a9be7bfd 	stp	x29, x30, [sp, #-32]!
    17ac:	910003fd 	mov	x29, sp
/media/home/beste/01_Pro/ld25x/bsp_hu/MYD-LD25X-Uboot-L2022.10-V1.0.0/GEN_FIP/myir-st-optee/lib/libutee/tee_api.c:269
    17b0:	910073e0 	add	x0, sp, #0x1c
    17b4:	9400055c 	bl	2d24 <_utee_unmask_cancellation>
/media/home/beste/01_Pro/ld25x/bsp_hu/MYD-LD25X-Uboot-L2022.10-V1.0.0/GEN_FIP/myir-st-optee/lib/libutee/tee_api.c:271
    17b8:	34000040 	cbz	w0, 17c0 <TEE_UnmaskCancellation+0x18>
/media/home/beste/01_Pro/ld25x/bsp_hu/MYD-LD25X-Uboot-L2022.10-V1.0.0/GEN_FIP/myir-st-optee/lib/libutee/tee_api.c:272
    17bc:	9400019b 	bl	1e28 <TEE_Panic>
/media/home/beste/01_Pro/ld25x/bsp_hu/MYD-LD25X-Uboot-L2022.10-V1.0.0/GEN_FIP/myir-st-optee/lib/libutee/tee_api.c:273
    17c0:	b9401fe0 	ldr	w0, [sp, #28]
/media/home/beste/01_Pro/ld25x/bsp_hu/MYD-LD25X-Uboot-L2022.10-V1.0.0/GEN_FIP/myir-st-optee/lib/libutee/tee_api.c:274
    17c4:	a8c27bfd 	ldp	x29, x30, [sp], #32
/media/home/beste/01_Pro/ld25x/bsp_hu/MYD-LD25X-Uboot-L2022.10-V1.0.0/GEN_FIP/myir-st-optee/lib/libutee/tee_api.c:273
    17c8:	7100001f 	cmp	w0, #0x0
/media/home/beste/01_Pro/ld25x/bsp_hu/MYD-LD25X-Uboot-L2022.10-V1.0.0/GEN_FIP/myir-st-optee/lib/libutee/tee_api.c:274
    17cc:	1a9f07e0 	cset	w0, ne	// ne = any
    17d0:	d65f03c0 	ret

00000000000017d4 <TEE_MaskCancellation>:
TEE_MaskCancellation():
/media/home/beste/01_Pro/ld25x/bsp_hu/MYD-LD25X-Uboot-L2022.10-V1.0.0/GEN_FIP/myir-st-optee/lib/libutee/tee_api.c:277
    17d4:	a9be7bfd 	stp	x29, x30, [sp, #-32]!
    17d8:	910003fd 	mov	x29, sp
/media/home/beste/01_Pro/ld25x/bsp_hu/MYD-LD25X-Uboot-L2022.10-V1.0.0/GEN_FIP/myir-st-optee/lib/libutee/tee_api.c:279
    17dc:	910073e0 	add	x0, sp, #0x1c
    17e0:	94000554 	bl	2d30 <_utee_mask_cancellation>
/media/home/beste/01_Pro/ld25x/bsp_hu/MYD-LD25X-Uboot-L2022.10-V1.0.0/GEN_FIP/myir-st-optee/lib/libutee/tee_api.c:281
    17e4:	34000040 	cbz	w0, 17ec <TEE_MaskCancellation+0x18>
/media/home/beste/01_Pro/ld25x/bsp_hu/MYD-LD25X-Uboot-L2022.10-V1.0.0/GEN_FIP/myir-st-optee/lib/libutee/tee_api.c:282
    17e8:	94000190 	bl	1e28 <TEE_Panic>
/media/home/beste/01_Pro/ld25x/bsp_hu/MYD-LD25X-Uboot-L2022.10-V1.0.0/GEN_FIP/myir-st-optee/lib/libutee/tee_api.c:283
    17ec:	b9401fe0 	ldr	w0, [sp, #28]
/media/home/beste/01_Pro/ld25x/bsp_hu/MYD-LD25X-Uboot-L2022.10-V1.0.0/GEN_FIP/myir-st-optee/lib/libutee/tee_api.c:284
    17f0:	a8c27bfd 	ldp	x29, x30, [sp], #32
/media/home/beste/01_Pro/ld25x/bsp_hu/MYD-LD25X-Uboot-L2022.10-V1.0.0/GEN_FIP/myir-st-optee/lib/libutee/tee_api.c:283
    17f4:	7100001f 	cmp	w0, #0x0
/media/home/beste/01_Pro/ld25x/bsp_hu/MYD-LD25X-Uboot-L2022.10-V1.0.0/GEN_FIP/myir-st-optee/lib/libutee/tee_api.c:284
    17f8:	1a9f07e0 	cset	w0, ne	// ne = any
    17fc:	d65f03c0 	ret

0000000000001800 <TEE_CheckMemoryAccessRights>:
TEE_CheckMemoryAccessRights():
/media/home/beste/01_Pro/ld25x/bsp_hu/MYD-LD25X-Uboot-L2022.10-V1.0.0/GEN_FIP/myir-st-optee/lib/libutee/tee_api.c:293
    1800:	34000062 	cbz	w2, 180c <TEE_CheckMemoryAccessRights+0xc>
/media/home/beste/01_Pro/ld25x/bsp_hu/MYD-LD25X-Uboot-L2022.10-V1.0.0/GEN_FIP/myir-st-optee/lib/libutee/tee_api.c:297
    1804:	2a0203e2 	mov	w2, w2
    1808:	14000544 	b	2d18 <_utee_check_access_rights>
/media/home/beste/01_Pro/ld25x/bsp_hu/MYD-LD25X-Uboot-L2022.10-V1.0.0/GEN_FIP/myir-st-optee/lib/libutee/tee_api.c:309
    180c:	52800000 	mov	w0, #0x0                   	// #0
    1810:	d65f03c0 	ret

0000000000001814 <copy_param>:
copy_param():
/media/home/beste/01_Pro/ld25x/bsp_hu/MYD-LD25X-Uboot-L2022.10-V1.0.0/GEN_FIP/myir-st-optee/lib/libutee/tee_api.c:29
    1814:	a9b97bfd 	stp	x29, x30, [sp, #-112]!
    1818:	910003fd 	mov	x29, sp
/media/home/beste/01_Pro/ld25x/bsp_hu/MYD-LD25X-Uboot-L2022.10-V1.0.0/GEN_FIP/myir-st-optee/lib/libutee/tee_api.c:45
    181c:	f900007f 	str	xzr, [x3]
/media/home/beste/01_Pro/ld25x/bsp_hu/MYD-LD25X-Uboot-L2022.10-V1.0.0/GEN_FIP/myir-st-optee/lib/libutee/tee_api.c:29
    1820:	a90153f3 	stp	x19, x20, [sp, #16]
    1824:	aa0003f4 	mov	x20, x0
    1828:	aa0203f3 	mov	x19, x2
    182c:	a9025bf5 	stp	x21, x22, [sp, #32]
    1830:	2a0103f6 	mov	w22, w1
/media/home/beste/01_Pro/ld25x/bsp_hu/MYD-LD25X-Uboot-L2022.10-V1.0.0/GEN_FIP/myir-st-optee/lib/libutee/tee_api.c:47
    1834:	d2800015 	mov	x21, #0x0                   	// #0
/media/home/beste/01_Pro/ld25x/bsp_hu/MYD-LD25X-Uboot-L2022.10-V1.0.0/GEN_FIP/myir-st-optee/lib/libutee/tee_api.c:29
    1838:	a90363f7 	stp	x23, x24, [sp, #48]
    183c:	aa0403f8 	mov	x24, x4
    1840:	aa0503f7 	mov	x23, x5
    1844:	a9046bf9 	stp	x25, x26, [sp, #64]
    1848:	aa0303f9 	mov	x25, x3
    184c:	a90573fb 	stp	x27, x28, [sp, #80]
/media/home/beste/01_Pro/ld25x/bsp_hu/MYD-LD25X-Uboot-L2022.10-V1.0.0/GEN_FIP/myir-st-optee/lib/libutee/tee_api.c:46
    1850:	aa0203fc 	mov	x28, x2
/media/home/beste/01_Pro/ld25x/bsp_hu/MYD-LD25X-Uboot-L2022.10-V1.0.0/GEN_FIP/myir-st-optee/lib/libutee/tee_api.c:32
    1854:	d280001b 	mov	x27, #0x0                   	// #0
/media/home/beste/01_Pro/ld25x/bsp_hu/MYD-LD25X-Uboot-L2022.10-V1.0.0/GEN_FIP/myir-st-optee/lib/libutee/tee_api.c:46
    1858:	f900009f 	str	xzr, [x4]
/media/home/beste/01_Pro/ld25x/bsp_hu/MYD-LD25X-Uboot-L2022.10-V1.0.0/GEN_FIP/myir-st-optee/lib/libutee/tee_api.c:34
    185c:	b9006bff 	str	wzr, [sp, #104]
/media/home/beste/01_Pro/ld25x/bsp_hu/MYD-LD25X-Uboot-L2022.10-V1.0.0/GEN_FIP/myir-st-optee/lib/libutee/tee_api.c:49
    1860:	531e76a0 	lsl	w0, w21, #2
/media/home/beste/01_Pro/ld25x/bsp_hu/MYD-LD25X-Uboot-L2022.10-V1.0.0/GEN_FIP/myir-st-optee/lib/libutee/tee_api.c:48
    1864:	f8357aff 	str	xzr, [x23, x21, lsl #3]
/media/home/beste/01_Pro/ld25x/bsp_hu/MYD-LD25X-Uboot-L2022.10-V1.0.0/GEN_FIP/myir-st-optee/lib/libutee/tee_api.c:49
    1868:	1ac026c0 	lsr	w0, w22, w0
    186c:	12000c00 	and	w0, w0, #0xf
    1870:	51001400 	sub	w0, w0, #0x5
    1874:	7100081f 	cmp	w0, #0x2
    1878:	54000208 	b.hi	18b8 <copy_param+0xa4>  // b.pmore
/media/home/beste/01_Pro/ld25x/bsp_hu/MYD-LD25X-Uboot-L2022.10-V1.0.0/GEN_FIP/myir-st-optee/lib/libutee/tee_api.c:53
    187c:	f9400381 	ldr	x1, [x28]
/media/home/beste/01_Pro/ld25x/bsp_hu/MYD-LD25X-Uboot-L2022.10-V1.0.0/GEN_FIP/myir-st-optee/lib/libutee/tee_api.c:54
    1880:	b9400b82 	ldr	w2, [x28, #8]
/media/home/beste/01_Pro/ld25x/bsp_hu/MYD-LD25X-Uboot-L2022.10-V1.0.0/GEN_FIP/myir-st-optee/lib/libutee/tee_api.c:64
    1884:	f100003f 	cmp	x1, #0x0
/media/home/beste/01_Pro/ld25x/bsp_hu/MYD-LD25X-Uboot-L2022.10-V1.0.0/GEN_FIP/myir-st-optee/lib/libutee/tee_api.c:54
    1888:	2a0203fa 	mov	w26, w2
/media/home/beste/01_Pro/ld25x/bsp_hu/MYD-LD25X-Uboot-L2022.10-V1.0.0/GEN_FIP/myir-st-optee/lib/libutee/tee_api.c:64
    188c:	fa401b44 	ccmp	x26, #0x0, #0x4, ne	// ne = any
    1890:	54000140 	b.eq	18b8 <copy_param+0xa4>  // b.none
/media/home/beste/01_Pro/ld25x/bsp_hu/MYD-LD25X-Uboot-L2022.10-V1.0.0/GEN_FIP/myir-st-optee/lib/libutee/tee_api.c:65 (discriminator 1)
    1894:	52800020 	mov	w0, #0x1                   	// #1
    1898:	97ffffda 	bl	1800 <TEE_CheckMemoryAccessRights>
/media/home/beste/01_Pro/ld25x/bsp_hu/MYD-LD25X-Uboot-L2022.10-V1.0.0/GEN_FIP/myir-st-optee/lib/libutee/tee_api.c:64 (discriminator 1)
    189c:	350000e0 	cbnz	w0, 18b8 <copy_param+0xa4>
/media/home/beste/01_Pro/ld25x/bsp_hu/MYD-LD25X-Uboot-L2022.10-V1.0.0/GEN_FIP/myir-st-optee/lib/libutee/tee_api.c:66
    18a0:	9101a3e0 	add	x0, sp, #0x68
/media/home/beste/01_Pro/ld25x/bsp_hu/MYD-LD25X-Uboot-L2022.10-V1.0.0/GEN_FIP/myir-st-optee/lib/libutee/tee_api.c:67
    18a4:	91003f5a 	add	x26, x26, #0xf
    18a8:	927cef5a 	and	x26, x26, #0xfffffffffffffff0
/media/home/beste/01_Pro/ld25x/bsp_hu/MYD-LD25X-Uboot-L2022.10-V1.0.0/GEN_FIP/myir-st-optee/lib/libutee/tee_api.c:66
    18ac:	52800021 	mov	w1, #0x1                   	// #1
/media/home/beste/01_Pro/ld25x/bsp_hu/MYD-LD25X-Uboot-L2022.10-V1.0.0/GEN_FIP/myir-st-optee/lib/libutee/tee_api.c:67
    18b0:	8b1a037b 	add	x27, x27, x26
/media/home/beste/01_Pro/ld25x/bsp_hu/MYD-LD25X-Uboot-L2022.10-V1.0.0/GEN_FIP/myir-st-optee/lib/libutee/tee_api.c:66
    18b4:	38206aa1 	strb	w1, [x21, x0]
/media/home/beste/01_Pro/ld25x/bsp_hu/MYD-LD25X-Uboot-L2022.10-V1.0.0/GEN_FIP/myir-st-optee/lib/libutee/tee_api.c:47 (discriminator 2)
    18b8:	910006b5 	add	x21, x21, #0x1
    18bc:	9100439c 	add	x28, x28, #0x10
    18c0:	f10012bf 	cmp	x21, #0x4
    18c4:	54fffce1 	b.ne	1860 <copy_param+0x4c>  // b.any
/media/home/beste/01_Pro/ld25x/bsp_hu/MYD-LD25X-Uboot-L2022.10-V1.0.0/GEN_FIP/myir-st-optee/lib/libutee/tee_api.c:75
    18c8:	b400031b 	cbz	x27, 1928 <copy_param+0x114>
/media/home/beste/01_Pro/ld25x/bsp_hu/MYD-LD25X-Uboot-L2022.10-V1.0.0/GEN_FIP/myir-st-optee/lib/libutee/tee_api.c:76
    18cc:	2a1503e1 	mov	w1, w21
    18d0:	aa1b03e0 	mov	x0, x27
    18d4:	94000484 	bl	2ae4 <tee_map_zi>
    18d8:	aa0003e6 	mov	x6, x0
/media/home/beste/01_Pro/ld25x/bsp_hu/MYD-LD25X-Uboot-L2022.10-V1.0.0/GEN_FIP/myir-st-optee/lib/libutee/tee_api.c:77
    18dc:	b4000780 	cbz	x0, 19cc <copy_param+0x1b8>
/media/home/beste/01_Pro/ld25x/bsp_hu/MYD-LD25X-Uboot-L2022.10-V1.0.0/GEN_FIP/myir-st-optee/lib/libutee/tee_api.c:79
    18e0:	f9000320 	str	x0, [x25]
/media/home/beste/01_Pro/ld25x/bsp_hu/MYD-LD25X-Uboot-L2022.10-V1.0.0/GEN_FIP/myir-st-optee/lib/libutee/tee_api.c:80
    18e4:	f900031b 	str	x27, [x24]
/media/home/beste/01_Pro/ld25x/bsp_hu/MYD-LD25X-Uboot-L2022.10-V1.0.0/GEN_FIP/myir-st-optee/lib/libutee/tee_api.c:95
    18e8:	9101a3f9 	add	x25, sp, #0x68
/media/home/beste/01_Pro/ld25x/bsp_hu/MYD-LD25X-Uboot-L2022.10-V1.0.0/GEN_FIP/myir-st-optee/lib/libutee/tee_api.c:83
    18ec:	2a1603e0 	mov	w0, w22
/media/home/beste/01_Pro/ld25x/bsp_hu/MYD-LD25X-Uboot-L2022.10-V1.0.0/GEN_FIP/myir-st-optee/lib/libutee/tee_api.c:84
    18f0:	d2800015 	mov	x21, #0x0                   	// #0
/media/home/beste/01_Pro/ld25x/bsp_hu/MYD-LD25X-Uboot-L2022.10-V1.0.0/GEN_FIP/myir-st-optee/lib/libutee/tee_api.c:83
    18f4:	f8008680 	str	x0, [x20], #8
/media/home/beste/01_Pro/ld25x/bsp_hu/MYD-LD25X-Uboot-L2022.10-V1.0.0/GEN_FIP/myir-st-optee/lib/libutee/tee_api.c:85
    18f8:	531e76a1 	lsl	w1, w21, #2
    18fc:	1ac126c1 	lsr	w1, w22, w1
    1900:	12000c20 	and	w0, w1, #0xf
    1904:	71000c1f 	cmp	w0, #0x3
    1908:	54000320 	b.eq	196c <copy_param+0x158>  // b.none
    190c:	721e043f 	tst	w1, #0xc
    1910:	54000101 	b.ne	1930 <copy_param+0x11c>  // b.any
    1914:	7100041f 	cmp	w0, #0x1
    1918:	540002a0 	b.eq	196c <copy_param+0x158>  // b.none
/media/home/beste/01_Pro/ld25x/bsp_hu/MYD-LD25X-Uboot-L2022.10-V1.0.0/GEN_FIP/myir-st-optee/lib/libutee/tee_api.c:111
    191c:	d2800018 	mov	x24, #0x0                   	// #0
/media/home/beste/01_Pro/ld25x/bsp_hu/MYD-LD25X-Uboot-L2022.10-V1.0.0/GEN_FIP/myir-st-optee/lib/libutee/tee_api.c:109
    1920:	f900029f 	str	xzr, [x20]
/media/home/beste/01_Pro/ld25x/bsp_hu/MYD-LD25X-Uboot-L2022.10-V1.0.0/GEN_FIP/myir-st-optee/lib/libutee/tee_api.c:111
    1924:	14000014 	b	1974 <copy_param+0x160>
/media/home/beste/01_Pro/ld25x/bsp_hu/MYD-LD25X-Uboot-L2022.10-V1.0.0/GEN_FIP/myir-st-optee/lib/libutee/tee_api.c:31
    1928:	d2800006 	mov	x6, #0x0                   	// #0
    192c:	17ffffef 	b	18e8 <copy_param+0xd4>
/media/home/beste/01_Pro/ld25x/bsp_hu/MYD-LD25X-Uboot-L2022.10-V1.0.0/GEN_FIP/myir-st-optee/lib/libutee/tee_api.c:85
    1930:	51001401 	sub	w1, w0, #0x5
    1934:	7100083f 	cmp	w1, #0x2
    1938:	54ffff28 	b.hi	191c <copy_param+0x108>  // b.pmore
/media/home/beste/01_Pro/ld25x/bsp_hu/MYD-LD25X-Uboot-L2022.10-V1.0.0/GEN_FIP/myir-st-optee/lib/libutee/tee_api.c:95
    193c:	38796aa1 	ldrb	w1, [x21, x25]
/media/home/beste/01_Pro/ld25x/bsp_hu/MYD-LD25X-Uboot-L2022.10-V1.0.0/GEN_FIP/myir-st-optee/lib/libutee/tee_api.c:94
    1940:	b9400a78 	ldr	w24, [x19, #8]
/media/home/beste/01_Pro/ld25x/bsp_hu/MYD-LD25X-Uboot-L2022.10-V1.0.0/GEN_FIP/myir-st-optee/lib/libutee/tee_api.c:95
    1944:	34000401 	cbz	w1, 19c4 <copy_param+0x1b0>
/media/home/beste/01_Pro/ld25x/bsp_hu/MYD-LD25X-Uboot-L2022.10-V1.0.0/GEN_FIP/myir-st-optee/lib/libutee/tee_api.c:97
    1948:	f8357ae6 	str	x6, [x23, x21, lsl #3]
/media/home/beste/01_Pro/ld25x/bsp_hu/MYD-LD25X-Uboot-L2022.10-V1.0.0/GEN_FIP/myir-st-optee/lib/libutee/tee_api.c:99
    194c:	7100181f 	cmp	w0, #0x6
    1950:	540002e1 	b.ne	19ac <copy_param+0x198>  // b.any
/media/home/beste/01_Pro/ld25x/bsp_hu/MYD-LD25X-Uboot-L2022.10-V1.0.0/GEN_FIP/myir-st-optee/lib/libutee/tee_api.c:98
    1954:	91003f00 	add	x0, x24, #0xf
    1958:	aa0603e1 	mov	x1, x6
    195c:	927cec00 	and	x0, x0, #0xfffffffffffffff0
    1960:	8b0000c6 	add	x6, x6, x0
/media/home/beste/01_Pro/ld25x/bsp_hu/MYD-LD25X-Uboot-L2022.10-V1.0.0/GEN_FIP/myir-st-optee/lib/libutee/tee_api.c:105
    1964:	f9000281 	str	x1, [x20]
/media/home/beste/01_Pro/ld25x/bsp_hu/MYD-LD25X-Uboot-L2022.10-V1.0.0/GEN_FIP/myir-st-optee/lib/libutee/tee_api.c:107
    1968:	14000003 	b	1974 <copy_param+0x160>
/media/home/beste/01_Pro/ld25x/bsp_hu/MYD-LD25X-Uboot-L2022.10-V1.0.0/GEN_FIP/myir-st-optee/lib/libutee/tee_api.c:89
    196c:	29406260 	ldp	w0, w24, [x19]
/media/home/beste/01_Pro/ld25x/bsp_hu/MYD-LD25X-Uboot-L2022.10-V1.0.0/GEN_FIP/myir-st-optee/lib/libutee/tee_api.c:88
    1970:	f9000280 	str	x0, [x20]
/media/home/beste/01_Pro/ld25x/bsp_hu/MYD-LD25X-Uboot-L2022.10-V1.0.0/GEN_FIP/myir-st-optee/lib/libutee/tee_api.c:84 (discriminator 2)
    1974:	910006b5 	add	x21, x21, #0x1
/media/home/beste/01_Pro/ld25x/bsp_hu/MYD-LD25X-Uboot-L2022.10-V1.0.0/GEN_FIP/myir-st-optee/lib/libutee/tee_api.c:110 (discriminator 2)
    1978:	f9000698 	str	x24, [x20, #8]
/media/home/beste/01_Pro/ld25x/bsp_hu/MYD-LD25X-Uboot-L2022.10-V1.0.0/GEN_FIP/myir-st-optee/lib/libutee/tee_api.c:84 (discriminator 2)
    197c:	91004273 	add	x19, x19, #0x10
    1980:	91004294 	add	x20, x20, #0x10
    1984:	f10012bf 	cmp	x21, #0x4
    1988:	54fffb81 	b.ne	18f8 <copy_param+0xe4>  // b.any
/media/home/beste/01_Pro/ld25x/bsp_hu/MYD-LD25X-Uboot-L2022.10-V1.0.0/GEN_FIP/myir-st-optee/lib/libutee/tee_api.c:115
    198c:	52800000 	mov	w0, #0x0                   	// #0
/media/home/beste/01_Pro/ld25x/bsp_hu/MYD-LD25X-Uboot-L2022.10-V1.0.0/GEN_FIP/myir-st-optee/lib/libutee/tee_api.c:116
    1990:	a94153f3 	ldp	x19, x20, [sp, #16]
    1994:	a9425bf5 	ldp	x21, x22, [sp, #32]
    1998:	a94363f7 	ldp	x23, x24, [sp, #48]
    199c:	a9446bf9 	ldp	x25, x26, [sp, #64]
    19a0:	a94573fb 	ldp	x27, x28, [sp, #80]
    19a4:	a8c77bfd 	ldp	x29, x30, [sp], #112
    19a8:	d65f03c0 	ret
/media/home/beste/01_Pro/ld25x/bsp_hu/MYD-LD25X-Uboot-L2022.10-V1.0.0/GEN_FIP/myir-st-optee/lib/libutee/tee_api.c:101
    19ac:	f9400261 	ldr	x1, [x19]
    19b0:	aa0603e0 	mov	x0, x6
    19b4:	aa1803e2 	mov	x2, x24
    19b8:	97fff99a 	bl	20 <memcpy>
    19bc:	aa0003e6 	mov	x6, x0
    19c0:	17ffffe5 	b	1954 <copy_param+0x140>
/media/home/beste/01_Pro/ld25x/bsp_hu/MYD-LD25X-Uboot-L2022.10-V1.0.0/GEN_FIP/myir-st-optee/lib/libutee/tee_api.c:103
    19c4:	f9400261 	ldr	x1, [x19]
    19c8:	17ffffe7 	b	1964 <copy_param+0x150>
/media/home/beste/01_Pro/ld25x/bsp_hu/MYD-LD25X-Uboot-L2022.10-V1.0.0/GEN_FIP/myir-st-optee/lib/libutee/tee_api.c:78
    19cc:	129ffe60 	mov	w0, #0xffff000c            	// #-65524
    19d0:	17fffff0 	b	1990 <copy_param+0x17c>

00000000000019d4 <TEE_OpenTASession>:
TEE_OpenTASession():
/media/home/beste/01_Pro/ld25x/bsp_hu/MYD-LD25X-Uboot-L2022.10-V1.0.0/GEN_FIP/myir-st-optee/lib/libutee/tee_api.c:154
    19d4:	a9b37bfd 	stp	x29, x30, [sp, #-208]!
    19d8:	910003fd 	mov	x29, sp
    19dc:	a90153f3 	stp	x19, x20, [sp, #16]
    19e0:	2a0203f3 	mov	w19, w2
    19e4:	aa0303f4 	mov	x20, x3
    19e8:	a9025bf5 	stp	x21, x22, [sp, #32]
    19ec:	aa0403f5 	mov	x21, x4
    19f0:	a90363f7 	stp	x23, x24, [sp, #48]
    19f4:	aa0003f7 	mov	x23, x0
    19f8:	2a0103f8 	mov	w24, w1
    19fc:	a9046bf9 	stp	x25, x26, [sp, #64]
    1a00:	aa0503f9 	mov	x25, x5
/media/home/beste/01_Pro/ld25x/bsp_hu/MYD-LD25X-Uboot-L2022.10-V1.0.0/GEN_FIP/myir-st-optee/lib/libutee/tee_api.c:157
    1a04:	b90057ff 	str	wzr, [sp, #84]
/media/home/beste/01_Pro/ld25x/bsp_hu/MYD-LD25X-Uboot-L2022.10-V1.0.0/GEN_FIP/myir-st-optee/lib/libutee/tee_api.c:160
    1a08:	a906ffff 	stp	xzr, xzr, [sp, #104]
    1a0c:	a907ffff 	stp	xzr, xzr, [sp, #120]
/media/home/beste/01_Pro/ld25x/bsp_hu/MYD-LD25X-Uboot-L2022.10-V1.0.0/GEN_FIP/myir-st-optee/lib/libutee/tee_api.c:162
    1a10:	34000082 	cbz	w2, 1a20 <TEE_OpenTASession+0x4c>
/media/home/beste/01_Pro/ld25x/bsp_hu/MYD-LD25X-Uboot-L2022.10-V1.0.0/GEN_FIP/myir-st-optee/lib/libutee/tee_api.c:163
    1a14:	aa0303e0 	mov	x0, x3
    1a18:	d2800801 	mov	x1, #0x40                  	// #64
    1a1c:	94000146 	bl	1f34 <__utee_check_inout_annotation>
/media/home/beste/01_Pro/ld25x/bsp_hu/MYD-LD25X-Uboot-L2022.10-V1.0.0/GEN_FIP/myir-st-optee/lib/libutee/tee_api.c:166
    1a20:	aa1503e0 	mov	x0, x21
    1a24:	d2800101 	mov	x1, #0x8                   	// #8
/media/home/beste/01_Pro/ld25x/bsp_hu/MYD-LD25X-Uboot-L2022.10-V1.0.0/GEN_FIP/myir-st-optee/lib/libutee/tee_api.c:168
    1a28:	9101a3fa 	add	x26, sp, #0x68
/media/home/beste/01_Pro/ld25x/bsp_hu/MYD-LD25X-Uboot-L2022.10-V1.0.0/GEN_FIP/myir-st-optee/lib/libutee/tee_api.c:166
    1a2c:	9400012b 	bl	1ed8 <__utee_check_out_annotation>
/media/home/beste/01_Pro/ld25x/bsp_hu/MYD-LD25X-Uboot-L2022.10-V1.0.0/GEN_FIP/myir-st-optee/lib/libutee/tee_api.c:168
    1a30:	910223f6 	add	x22, sp, #0x88
    1a34:	2a1303e1 	mov	w1, w19
    1a38:	aa1a03e5 	mov	x5, x26
    1a3c:	910183e4 	add	x4, sp, #0x60
    1a40:	910163e3 	add	x3, sp, #0x58
    1a44:	aa1403e2 	mov	x2, x20
    1a48:	aa1603e0 	mov	x0, x22
    1a4c:	97ffff72 	bl	1814 <copy_param>
    1a50:	2a0003f3 	mov	w19, w0
/media/home/beste/01_Pro/ld25x/bsp_hu/MYD-LD25X-Uboot-L2022.10-V1.0.0/GEN_FIP/myir-st-optee/lib/libutee/tee_api.c:169
    1a54:	35000260 	cbnz	w0, 1aa0 <TEE_OpenTASession+0xcc>
/media/home/beste/01_Pro/ld25x/bsp_hu/MYD-LD25X-Uboot-L2022.10-V1.0.0/GEN_FIP/myir-st-optee/lib/libutee/tee_api.c:171
    1a58:	aa1903e4 	mov	x4, x25
    1a5c:	910153e3 	add	x3, sp, #0x54
    1a60:	aa1603e2 	mov	x2, x22
    1a64:	2a1803e1 	mov	w1, w24
    1a68:	aa1703e0 	mov	x0, x23
    1a6c:	9400049f 	bl	2ce8 <_utee_open_ta_session>
/media/home/beste/01_Pro/ld25x/bsp_hu/MYD-LD25X-Uboot-L2022.10-V1.0.0/GEN_FIP/myir-st-optee/lib/libutee/tee_api.c:173
    1a70:	aa1603e2 	mov	x2, x22
/media/home/beste/01_Pro/ld25x/bsp_hu/MYD-LD25X-Uboot-L2022.10-V1.0.0/GEN_FIP/myir-st-optee/lib/libutee/tee_api.c:171
    1a74:	2a0003f3 	mov	w19, w0
/media/home/beste/01_Pro/ld25x/bsp_hu/MYD-LD25X-Uboot-L2022.10-V1.0.0/GEN_FIP/myir-st-optee/lib/libutee/tee_api.c:173
    1a78:	aa1a03e1 	mov	x1, x26
    1a7c:	aa1403e0 	mov	x0, x20
    1a80:	97ffff0b 	bl	16ac <update_out_param>
/media/home/beste/01_Pro/ld25x/bsp_hu/MYD-LD25X-Uboot-L2022.10-V1.0.0/GEN_FIP/myir-st-optee/lib/libutee/tee_api.c:174
    1a84:	f9402fe0 	ldr	x0, [sp, #88]
    1a88:	b40000a0 	cbz	x0, 1a9c <TEE_OpenTASession+0xc8>
/media/home/beste/01_Pro/ld25x/bsp_hu/MYD-LD25X-Uboot-L2022.10-V1.0.0/GEN_FIP/myir-st-optee/lib/libutee/tee_api.c:175
    1a8c:	f94033e1 	ldr	x1, [sp, #96]
    1a90:	94000433 	bl	2b5c <tee_unmap>
/media/home/beste/01_Pro/ld25x/bsp_hu/MYD-LD25X-Uboot-L2022.10-V1.0.0/GEN_FIP/myir-st-optee/lib/libutee/tee_api.c:177
    1a94:	34000040 	cbz	w0, 1a9c <TEE_OpenTASession+0xc8>
/media/home/beste/01_Pro/ld25x/bsp_hu/MYD-LD25X-Uboot-L2022.10-V1.0.0/GEN_FIP/myir-st-optee/lib/libutee/tee_api.c:178
    1a98:	940000e4 	bl	1e28 <TEE_Panic>
/media/home/beste/01_Pro/ld25x/bsp_hu/MYD-LD25X-Uboot-L2022.10-V1.0.0/GEN_FIP/myir-st-optee/lib/libutee/tee_api.c:187
    1a9c:	34000053 	cbz	w19, 1aa4 <TEE_OpenTASession+0xd0>
/media/home/beste/01_Pro/ld25x/bsp_hu/MYD-LD25X-Uboot-L2022.10-V1.0.0/GEN_FIP/myir-st-optee/lib/libutee/tee_api.c:188
    1aa0:	b90057ff 	str	wzr, [sp, #84]
/media/home/beste/01_Pro/ld25x/bsp_hu/MYD-LD25X-Uboot-L2022.10-V1.0.0/GEN_FIP/myir-st-optee/lib/libutee/tee_api.c:190
    1aa4:	b94057e0 	ldr	w0, [sp, #84]
/media/home/beste/01_Pro/ld25x/bsp_hu/MYD-LD25X-Uboot-L2022.10-V1.0.0/GEN_FIP/myir-st-optee/lib/libutee/tee_api.c:192
    1aa8:	a94363f7 	ldp	x23, x24, [sp, #48]
    1aac:	a9446bf9 	ldp	x25, x26, [sp, #64]
/media/home/beste/01_Pro/ld25x/bsp_hu/MYD-LD25X-Uboot-L2022.10-V1.0.0/GEN_FIP/myir-st-optee/lib/libutee/tee_api.c:190
    1ab0:	f90002a0 	str	x0, [x21]
/media/home/beste/01_Pro/ld25x/bsp_hu/MYD-LD25X-Uboot-L2022.10-V1.0.0/GEN_FIP/myir-st-optee/lib/libutee/tee_api.c:192
    1ab4:	a9425bf5 	ldp	x21, x22, [sp, #32]
    1ab8:	2a1303e0 	mov	w0, w19
    1abc:	a94153f3 	ldp	x19, x20, [sp, #16]
    1ac0:	a8cd7bfd 	ldp	x29, x30, [sp], #208
    1ac4:	d65f03c0 	ret

0000000000001ac8 <TEE_InvokeTACommand>:
TEE_InvokeTACommand():
/media/home/beste/01_Pro/ld25x/bsp_hu/MYD-LD25X-Uboot-L2022.10-V1.0.0/GEN_FIP/myir-st-optee/lib/libutee/tee_api.c:209
    1ac8:	a9b37bfd 	stp	x29, x30, [sp, #-208]!
    1acc:	910003fd 	mov	x29, sp
    1ad0:	a90153f3 	stp	x19, x20, [sp, #16]
    1ad4:	2a0303f3 	mov	w19, w3
    1ad8:	aa0503f4 	mov	x20, x5
    1adc:	a9025bf5 	stp	x21, x22, [sp, #32]
    1ae0:	aa0403f5 	mov	x21, x4
    1ae4:	a90363f7 	stp	x23, x24, [sp, #48]
    1ae8:	aa0003f7 	mov	x23, x0
/media/home/beste/01_Pro/ld25x/bsp_hu/MYD-LD25X-Uboot-L2022.10-V1.0.0/GEN_FIP/myir-st-optee/lib/libutee/tee_api.c:211
    1aec:	52800060 	mov	w0, #0x3                   	// #3
/media/home/beste/01_Pro/ld25x/bsp_hu/MYD-LD25X-Uboot-L2022.10-V1.0.0/GEN_FIP/myir-st-optee/lib/libutee/tee_api.c:209
    1af0:	a9046bf9 	stp	x25, x26, [sp, #64]
    1af4:	2a0103f8 	mov	w24, w1
    1af8:	2a0203f9 	mov	w25, w2
/media/home/beste/01_Pro/ld25x/bsp_hu/MYD-LD25X-Uboot-L2022.10-V1.0.0/GEN_FIP/myir-st-optee/lib/libutee/tee_api.c:211
    1afc:	b90057e0 	str	w0, [sp, #84]
/media/home/beste/01_Pro/ld25x/bsp_hu/MYD-LD25X-Uboot-L2022.10-V1.0.0/GEN_FIP/myir-st-optee/lib/libutee/tee_api.c:215
    1b00:	a906ffff 	stp	xzr, xzr, [sp, #104]
    1b04:	a907ffff 	stp	xzr, xzr, [sp, #120]
/media/home/beste/01_Pro/ld25x/bsp_hu/MYD-LD25X-Uboot-L2022.10-V1.0.0/GEN_FIP/myir-st-optee/lib/libutee/tee_api.c:217
    1b08:	34000083 	cbz	w3, 1b18 <TEE_InvokeTACommand+0x50>
/media/home/beste/01_Pro/ld25x/bsp_hu/MYD-LD25X-Uboot-L2022.10-V1.0.0/GEN_FIP/myir-st-optee/lib/libutee/tee_api.c:218
    1b0c:	aa0403e0 	mov	x0, x4
    1b10:	d2800801 	mov	x1, #0x40                  	// #64
    1b14:	94000108 	bl	1f34 <__utee_check_inout_annotation>
/media/home/beste/01_Pro/ld25x/bsp_hu/MYD-LD25X-Uboot-L2022.10-V1.0.0/GEN_FIP/myir-st-optee/lib/libutee/tee_api.c:221
    1b18:	b4000094 	cbz	x20, 1b28 <TEE_InvokeTACommand+0x60>
/media/home/beste/01_Pro/ld25x/bsp_hu/MYD-LD25X-Uboot-L2022.10-V1.0.0/GEN_FIP/myir-st-optee/lib/libutee/tee_api.c:222
    1b1c:	aa1403e0 	mov	x0, x20
    1b20:	d2800081 	mov	x1, #0x4                   	// #4
    1b24:	940000ed 	bl	1ed8 <__utee_check_out_annotation>
/media/home/beste/01_Pro/ld25x/bsp_hu/MYD-LD25X-Uboot-L2022.10-V1.0.0/GEN_FIP/myir-st-optee/lib/libutee/tee_api.c:225
    1b28:	9101a3fa 	add	x26, sp, #0x68
    1b2c:	910223f6 	add	x22, sp, #0x88
    1b30:	2a1303e1 	mov	w1, w19
    1b34:	aa1a03e5 	mov	x5, x26
    1b38:	910183e4 	add	x4, sp, #0x60
    1b3c:	910163e3 	add	x3, sp, #0x58
    1b40:	aa1503e2 	mov	x2, x21
    1b44:	aa1603e0 	mov	x0, x22
    1b48:	97ffff33 	bl	1814 <copy_param>
    1b4c:	2a0003f3 	mov	w19, w0
/media/home/beste/01_Pro/ld25x/bsp_hu/MYD-LD25X-Uboot-L2022.10-V1.0.0/GEN_FIP/myir-st-optee/lib/libutee/tee_api.c:226
    1b50:	35000240 	cbnz	w0, 1b98 <TEE_InvokeTACommand+0xd0>
/media/home/beste/01_Pro/ld25x/bsp_hu/MYD-LD25X-Uboot-L2022.10-V1.0.0/GEN_FIP/myir-st-optee/lib/libutee/tee_api.c:228
    1b54:	910153e4 	add	x4, sp, #0x54
    1b58:	aa1603e3 	mov	x3, x22
    1b5c:	2a1903e2 	mov	w2, w25
    1b60:	2a1803e1 	mov	w1, w24
    1b64:	aa1703e0 	mov	x0, x23
    1b68:	94000466 	bl	2d00 <_utee_invoke_ta_command>
/media/home/beste/01_Pro/ld25x/bsp_hu/MYD-LD25X-Uboot-L2022.10-V1.0.0/GEN_FIP/myir-st-optee/lib/libutee/tee_api.c:231
    1b6c:	aa1603e2 	mov	x2, x22
/media/home/beste/01_Pro/ld25x/bsp_hu/MYD-LD25X-Uboot-L2022.10-V1.0.0/GEN_FIP/myir-st-optee/lib/libutee/tee_api.c:228
    1b70:	2a0003f3 	mov	w19, w0
/media/home/beste/01_Pro/ld25x/bsp_hu/MYD-LD25X-Uboot-L2022.10-V1.0.0/GEN_FIP/myir-st-optee/lib/libutee/tee_api.c:231
    1b74:	aa1a03e1 	mov	x1, x26
    1b78:	aa1503e0 	mov	x0, x21
    1b7c:	97fffecc 	bl	16ac <update_out_param>
/media/home/beste/01_Pro/ld25x/bsp_hu/MYD-LD25X-Uboot-L2022.10-V1.0.0/GEN_FIP/myir-st-optee/lib/libutee/tee_api.c:232
    1b80:	f9402fe0 	ldr	x0, [sp, #88]
    1b84:	b40000a0 	cbz	x0, 1b98 <TEE_InvokeTACommand+0xd0>
/media/home/beste/01_Pro/ld25x/bsp_hu/MYD-LD25X-Uboot-L2022.10-V1.0.0/GEN_FIP/myir-st-optee/lib/libutee/tee_api.c:233
    1b88:	f94033e1 	ldr	x1, [sp, #96]
    1b8c:	940003f4 	bl	2b5c <tee_unmap>
/media/home/beste/01_Pro/ld25x/bsp_hu/MYD-LD25X-Uboot-L2022.10-V1.0.0/GEN_FIP/myir-st-optee/lib/libutee/tee_api.c:235
    1b90:	34000040 	cbz	w0, 1b98 <TEE_InvokeTACommand+0xd0>
/media/home/beste/01_Pro/ld25x/bsp_hu/MYD-LD25X-Uboot-L2022.10-V1.0.0/GEN_FIP/myir-st-optee/lib/libutee/tee_api.c:236
    1b94:	940000a5 	bl	1e28 <TEE_Panic>
/media/home/beste/01_Pro/ld25x/bsp_hu/MYD-LD25X-Uboot-L2022.10-V1.0.0/GEN_FIP/myir-st-optee/lib/libutee/tee_api.c:241
    1b98:	b94057e0 	ldr	w0, [sp, #84]
/media/home/beste/01_Pro/ld25x/bsp_hu/MYD-LD25X-Uboot-L2022.10-V1.0.0/GEN_FIP/myir-st-optee/lib/libutee/tee_api.c:240
    1b9c:	b4000054 	cbz	x20, 1ba4 <TEE_InvokeTACommand+0xdc>
/media/home/beste/01_Pro/ld25x/bsp_hu/MYD-LD25X-Uboot-L2022.10-V1.0.0/GEN_FIP/myir-st-optee/lib/libutee/tee_api.c:241
    1ba0:	b9000280 	str	w0, [x20]
/media/home/beste/01_Pro/ld25x/bsp_hu/MYD-LD25X-Uboot-L2022.10-V1.0.0/GEN_FIP/myir-st-optee/lib/libutee/tee_api.c:243
    1ba4:	7100101f 	cmp	w0, #0x4
    1ba8:	54000140 	b.eq	1bd0 <TEE_InvokeTACommand+0x108>  // b.none
/media/home/beste/01_Pro/ld25x/bsp_hu/MYD-LD25X-Uboot-L2022.10-V1.0.0/GEN_FIP/myir-st-optee/lib/libutee/tee_api.c:246
    1bac:	7100027f 	cmp	w19, #0x0
    1bb0:	129ffe60 	mov	w0, #0xffff000c            	// #-65524
    1bb4:	7a401264 	ccmp	w19, w0, #0x4, ne	// ne = any
    1bb8:	540000c0 	b.eq	1bd0 <TEE_InvokeTACommand+0x108>  // b.none
/media/home/beste/01_Pro/ld25x/bsp_hu/MYD-LD25X-Uboot-L2022.10-V1.0.0/GEN_FIP/myir-st-optee/lib/libutee/tee_api.c:247
    1bbc:	1299fb60 	mov	w0, #0xffff3024            	// #-53212
    1bc0:	6b00027f 	cmp	w19, w0
    1bc4:	54000060 	b.eq	1bd0 <TEE_InvokeTACommand+0x108>  // b.none
/media/home/beste/01_Pro/ld25x/bsp_hu/MYD-LD25X-Uboot-L2022.10-V1.0.0/GEN_FIP/myir-st-optee/lib/libutee/tee_api.c:249
    1bc8:	2a1303e0 	mov	w0, w19
    1bcc:	94000097 	bl	1e28 <TEE_Panic>
/media/home/beste/01_Pro/ld25x/bsp_hu/MYD-LD25X-Uboot-L2022.10-V1.0.0/GEN_FIP/myir-st-optee/lib/libutee/tee_api.c:252
    1bd0:	a9425bf5 	ldp	x21, x22, [sp, #32]
    1bd4:	2a1303e0 	mov	w0, w19
    1bd8:	a94153f3 	ldp	x19, x20, [sp, #16]
    1bdc:	a94363f7 	ldp	x23, x24, [sp, #48]
    1be0:	a9446bf9 	ldp	x25, x26, [sp, #64]
    1be4:	a8cd7bfd 	ldp	x29, x30, [sp], #208
    1be8:	d65f03c0 	ret

0000000000001bec <TEE_SetInstanceData>:
TEE_SetInstanceData():
/media/home/beste/01_Pro/ld25x/bsp_hu/MYD-LD25X-Uboot-L2022.10-V1.0.0/GEN_FIP/myir-st-optee/lib/libutee/tee_api.c:313
    1bec:	f0000081 	adrp	x1, 14000 <_DYNAMIC>
    1bf0:	f902c820 	str	x0, [x1, #1424]
/media/home/beste/01_Pro/ld25x/bsp_hu/MYD-LD25X-Uboot-L2022.10-V1.0.0/GEN_FIP/myir-st-optee/lib/libutee/tee_api.c:314
    1bf4:	d65f03c0 	ret

0000000000001bf8 <TEE_GetInstanceData>:
TEE_GetInstanceData():
/media/home/beste/01_Pro/ld25x/bsp_hu/MYD-LD25X-Uboot-L2022.10-V1.0.0/GEN_FIP/myir-st-optee/lib/libutee/tee_api.c:319
    1bf8:	f0000080 	adrp	x0, 14000 <_DYNAMIC>
    1bfc:	f942c800 	ldr	x0, [x0, #1424]
    1c00:	d65f03c0 	ret

0000000000001c04 <TEE_MemMove>:
TEE_MemMove():
/media/home/beste/01_Pro/ld25x/bsp_hu/MYD-LD25X-Uboot-L2022.10-V1.0.0/GEN_FIP/myir-st-optee/lib/libutee/tee_api.c:323
    1c04:	2a0203e2 	mov	w2, w2
    1c08:	14002482 	b	ae10 <memmove>

0000000000001c0c <TEE_MemCompare>:
TEE_MemCompare():
/media/home/beste/01_Pro/ld25x/bsp_hu/MYD-LD25X-Uboot-L2022.10-V1.0.0/GEN_FIP/myir-st-optee/lib/libutee/tee_api.c:328
    1c0c:	2a0203e2 	mov	w2, w2
    1c10:	14002517 	b	b06c <consttime_memcmp>

0000000000001c14 <TEE_MemFill>:
TEE_MemFill():
/media/home/beste/01_Pro/ld25x/bsp_hu/MYD-LD25X-Uboot-L2022.10-V1.0.0/GEN_FIP/myir-st-optee/lib/libutee/tee_api.c:333
    1c14:	2a0203e2 	mov	w2, w2
    1c18:	14002494 	b	ae68 <memset>

0000000000001c1c <TEE_GetSystemTime>:
TEE_GetSystemTime():
/media/home/beste/01_Pro/ld25x/bsp_hu/MYD-LD25X-Uboot-L2022.10-V1.0.0/GEN_FIP/myir-st-optee/lib/libutee/tee_api.c:339
    1c1c:	a9bf7bfd 	stp	x29, x30, [sp, #-16]!
/media/home/beste/01_Pro/ld25x/bsp_hu/MYD-LD25X-Uboot-L2022.10-V1.0.0/GEN_FIP/myir-st-optee/lib/libutee/tee_api.c:340
    1c20:	aa0003e1 	mov	x1, x0
    1c24:	d2800000 	mov	x0, #0x0                   	// #0
/media/home/beste/01_Pro/ld25x/bsp_hu/MYD-LD25X-Uboot-L2022.10-V1.0.0/GEN_FIP/myir-st-optee/lib/libutee/tee_api.c:339
    1c28:	910003fd 	mov	x29, sp
/media/home/beste/01_Pro/ld25x/bsp_hu/MYD-LD25X-Uboot-L2022.10-V1.0.0/GEN_FIP/myir-st-optee/lib/libutee/tee_api.c:340
    1c2c:	94000447 	bl	2d48 <_utee_get_time>
/media/home/beste/01_Pro/ld25x/bsp_hu/MYD-LD25X-Uboot-L2022.10-V1.0.0/GEN_FIP/myir-st-optee/lib/libutee/tee_api.c:342
    1c30:	34000060 	cbz	w0, 1c3c <TEE_GetSystemTime+0x20>
/media/home/beste/01_Pro/ld25x/bsp_hu/MYD-LD25X-Uboot-L2022.10-V1.0.0/GEN_FIP/myir-st-optee/lib/libutee/tee_api.c:344
    1c34:	a8c17bfd 	ldp	x29, x30, [sp], #16
/media/home/beste/01_Pro/ld25x/bsp_hu/MYD-LD25X-Uboot-L2022.10-V1.0.0/GEN_FIP/myir-st-optee/lib/libutee/tee_api.c:343
    1c38:	1400007c 	b	1e28 <TEE_Panic>
/media/home/beste/01_Pro/ld25x/bsp_hu/MYD-LD25X-Uboot-L2022.10-V1.0.0/GEN_FIP/myir-st-optee/lib/libutee/tee_api.c:344
    1c3c:	a8c17bfd 	ldp	x29, x30, [sp], #16
    1c40:	d65f03c0 	ret

0000000000001c44 <TEE_Wait>:
TEE_Wait():
/media/home/beste/01_Pro/ld25x/bsp_hu/MYD-LD25X-Uboot-L2022.10-V1.0.0/GEN_FIP/myir-st-optee/lib/libutee/tee_api.c:347
    1c44:	a9be7bfd 	stp	x29, x30, [sp, #-32]!
/media/home/beste/01_Pro/ld25x/bsp_hu/MYD-LD25X-Uboot-L2022.10-V1.0.0/GEN_FIP/myir-st-optee/lib/libutee/tee_api.c:348
    1c48:	2a0003e0 	mov	w0, w0
/media/home/beste/01_Pro/ld25x/bsp_hu/MYD-LD25X-Uboot-L2022.10-V1.0.0/GEN_FIP/myir-st-optee/lib/libutee/tee_api.c:347
    1c4c:	910003fd 	mov	x29, sp
    1c50:	f9000bf3 	str	x19, [sp, #16]
/media/home/beste/01_Pro/ld25x/bsp_hu/MYD-LD25X-Uboot-L2022.10-V1.0.0/GEN_FIP/myir-st-optee/lib/libutee/tee_api.c:348
    1c54:	9400043a 	bl	2d3c <_utee_wait>
/media/home/beste/01_Pro/ld25x/bsp_hu/MYD-LD25X-Uboot-L2022.10-V1.0.0/GEN_FIP/myir-st-optee/lib/libutee/tee_api.c:350
    1c58:	7100001f 	cmp	w0, #0x0
    1c5c:	129fffa1 	mov	w1, #0xffff0002            	// #-65534
/media/home/beste/01_Pro/ld25x/bsp_hu/MYD-LD25X-Uboot-L2022.10-V1.0.0/GEN_FIP/myir-st-optee/lib/libutee/tee_api.c:348
    1c60:	2a0003f3 	mov	w19, w0
/media/home/beste/01_Pro/ld25x/bsp_hu/MYD-LD25X-Uboot-L2022.10-V1.0.0/GEN_FIP/myir-st-optee/lib/libutee/tee_api.c:350
    1c64:	7a411004 	ccmp	w0, w1, #0x4, ne	// ne = any
    1c68:	54000040 	b.eq	1c70 <TEE_Wait+0x2c>  // b.none
/media/home/beste/01_Pro/ld25x/bsp_hu/MYD-LD25X-Uboot-L2022.10-V1.0.0/GEN_FIP/myir-st-optee/lib/libutee/tee_api.c:351
    1c6c:	9400006f 	bl	1e28 <TEE_Panic>
/media/home/beste/01_Pro/ld25x/bsp_hu/MYD-LD25X-Uboot-L2022.10-V1.0.0/GEN_FIP/myir-st-optee/lib/libutee/tee_api.c:354
    1c70:	2a1303e0 	mov	w0, w19
    1c74:	f9400bf3 	ldr	x19, [sp, #16]
    1c78:	a8c27bfd 	ldp	x29, x30, [sp], #32
    1c7c:	d65f03c0 	ret

0000000000001c80 <TEE_GetTAPersistentTime>:
TEE_GetTAPersistentTime():
/media/home/beste/01_Pro/ld25x/bsp_hu/MYD-LD25X-Uboot-L2022.10-V1.0.0/GEN_FIP/myir-st-optee/lib/libutee/tee_api.c:357
    1c80:	a9be7bfd 	stp	x29, x30, [sp, #-32]!
/media/home/beste/01_Pro/ld25x/bsp_hu/MYD-LD25X-Uboot-L2022.10-V1.0.0/GEN_FIP/myir-st-optee/lib/libutee/tee_api.c:360
    1c84:	aa0003e1 	mov	x1, x0
/media/home/beste/01_Pro/ld25x/bsp_hu/MYD-LD25X-Uboot-L2022.10-V1.0.0/GEN_FIP/myir-st-optee/lib/libutee/tee_api.c:357
    1c88:	910003fd 	mov	x29, sp
    1c8c:	a90153f3 	stp	x19, x20, [sp, #16]
    1c90:	aa0003f4 	mov	x20, x0
/media/home/beste/01_Pro/ld25x/bsp_hu/MYD-LD25X-Uboot-L2022.10-V1.0.0/GEN_FIP/myir-st-optee/lib/libutee/tee_api.c:360
    1c94:	d2800020 	mov	x0, #0x1                   	// #1
    1c98:	9400042c 	bl	2d48 <_utee_get_time>
/media/home/beste/01_Pro/ld25x/bsp_hu/MYD-LD25X-Uboot-L2022.10-V1.0.0/GEN_FIP/myir-st-optee/lib/libutee/tee_api.c:362
    1c9c:	7100001f 	cmp	w0, #0x0
    1ca0:	1299fe01 	mov	w1, #0xffff300f            	// #-53233
/media/home/beste/01_Pro/ld25x/bsp_hu/MYD-LD25X-Uboot-L2022.10-V1.0.0/GEN_FIP/myir-st-optee/lib/libutee/tee_api.c:360
    1ca4:	2a0003f3 	mov	w19, w0
/media/home/beste/01_Pro/ld25x/bsp_hu/MYD-LD25X-Uboot-L2022.10-V1.0.0/GEN_FIP/myir-st-optee/lib/libutee/tee_api.c:362
    1ca8:	7a411004 	ccmp	w0, w1, #0x4, ne	// ne = any
    1cac:	54000120 	b.eq	1cd0 <TEE_GetTAPersistentTime+0x50>  // b.none
/media/home/beste/01_Pro/ld25x/bsp_hu/MYD-LD25X-Uboot-L2022.10-V1.0.0/GEN_FIP/myir-st-optee/lib/libutee/tee_api.c:368
    1cb0:	11402c01 	add	w1, w0, #0xb, lsl #12
/media/home/beste/01_Pro/ld25x/bsp_hu/MYD-LD25X-Uboot-L2022.10-V1.0.0/GEN_FIP/myir-st-optee/lib/libutee/tee_api.c:364
    1cb4:	29007e9f 	stp	wzr, wzr, [x20]
/media/home/beste/01_Pro/ld25x/bsp_hu/MYD-LD25X-Uboot-L2022.10-V1.0.0/GEN_FIP/myir-st-optee/lib/libutee/tee_api.c:367
    1cb8:	7100043f 	cmp	w1, #0x1
    1cbc:	540000a9 	b.ls	1cd0 <TEE_GetTAPersistentTime+0x50>  // b.plast
/media/home/beste/01_Pro/ld25x/bsp_hu/MYD-LD25X-Uboot-L2022.10-V1.0.0/GEN_FIP/myir-st-optee/lib/libutee/tee_api.c:370
    1cc0:	129ffe61 	mov	w1, #0xffff000c            	// #-65524
    1cc4:	6b01001f 	cmp	w0, w1
    1cc8:	54000040 	b.eq	1cd0 <TEE_GetTAPersistentTime+0x50>  // b.none
/media/home/beste/01_Pro/ld25x/bsp_hu/MYD-LD25X-Uboot-L2022.10-V1.0.0/GEN_FIP/myir-st-optee/lib/libutee/tee_api.c:372
    1ccc:	94000057 	bl	1e28 <TEE_Panic>
/media/home/beste/01_Pro/ld25x/bsp_hu/MYD-LD25X-Uboot-L2022.10-V1.0.0/GEN_FIP/myir-st-optee/lib/libutee/tee_api.c:375
    1cd0:	2a1303e0 	mov	w0, w19
    1cd4:	a94153f3 	ldp	x19, x20, [sp, #16]
    1cd8:	a8c27bfd 	ldp	x29, x30, [sp], #32
    1cdc:	d65f03c0 	ret

0000000000001ce0 <TEE_SetTAPersistentTime>:
TEE_SetTAPersistentTime():
/media/home/beste/01_Pro/ld25x/bsp_hu/MYD-LD25X-Uboot-L2022.10-V1.0.0/GEN_FIP/myir-st-optee/lib/libutee/tee_api.c:378
    1ce0:	a9be7bfd 	stp	x29, x30, [sp, #-32]!
    1ce4:	910003fd 	mov	x29, sp
    1ce8:	f9000bf3 	str	x19, [sp, #16]
/media/home/beste/01_Pro/ld25x/bsp_hu/MYD-LD25X-Uboot-L2022.10-V1.0.0/GEN_FIP/myir-st-optee/lib/libutee/tee_api.c:381
    1cec:	9400041a 	bl	2d54 <_utee_set_ta_time>
/media/home/beste/01_Pro/ld25x/bsp_hu/MYD-LD25X-Uboot-L2022.10-V1.0.0/GEN_FIP/myir-st-optee/lib/libutee/tee_api.c:383
    1cf0:	7100001f 	cmp	w0, #0x0
    1cf4:	129ffe61 	mov	w1, #0xffff000c            	// #-65524
/media/home/beste/01_Pro/ld25x/bsp_hu/MYD-LD25X-Uboot-L2022.10-V1.0.0/GEN_FIP/myir-st-optee/lib/libutee/tee_api.c:381
    1cf8:	2a0003f3 	mov	w19, w0
/media/home/beste/01_Pro/ld25x/bsp_hu/MYD-LD25X-Uboot-L2022.10-V1.0.0/GEN_FIP/myir-st-optee/lib/libutee/tee_api.c:383
    1cfc:	7a411004 	ccmp	w0, w1, #0x4, ne	// ne = any
    1d00:	540000a0 	b.eq	1d14 <TEE_SetTAPersistentTime+0x34>  // b.none
/media/home/beste/01_Pro/ld25x/bsp_hu/MYD-LD25X-Uboot-L2022.10-V1.0.0/GEN_FIP/myir-st-optee/lib/libutee/tee_api.c:384
    1d04:	1299f7c1 	mov	w1, #0xffff3041            	// #-53183
    1d08:	6b01001f 	cmp	w0, w1
    1d0c:	54000040 	b.eq	1d14 <TEE_SetTAPersistentTime+0x34>  // b.none
/media/home/beste/01_Pro/ld25x/bsp_hu/MYD-LD25X-Uboot-L2022.10-V1.0.0/GEN_FIP/myir-st-optee/lib/libutee/tee_api.c:386
    1d10:	94000046 	bl	1e28 <TEE_Panic>
/media/home/beste/01_Pro/ld25x/bsp_hu/MYD-LD25X-Uboot-L2022.10-V1.0.0/GEN_FIP/myir-st-optee/lib/libutee/tee_api.c:389
    1d14:	2a1303e0 	mov	w0, w19
    1d18:	f9400bf3 	ldr	x19, [sp, #16]
    1d1c:	a8c27bfd 	ldp	x29, x30, [sp], #32
    1d20:	d65f03c0 	ret

0000000000001d24 <TEE_GetREETime>:
TEE_GetREETime():
/media/home/beste/01_Pro/ld25x/bsp_hu/MYD-LD25X-Uboot-L2022.10-V1.0.0/GEN_FIP/myir-st-optee/lib/libutee/tee_api.c:392
    1d24:	a9bf7bfd 	stp	x29, x30, [sp, #-16]!
/media/home/beste/01_Pro/ld25x/bsp_hu/MYD-LD25X-Uboot-L2022.10-V1.0.0/GEN_FIP/myir-st-optee/lib/libutee/tee_api.c:393
    1d28:	aa0003e1 	mov	x1, x0
    1d2c:	d2800040 	mov	x0, #0x2                   	// #2
/media/home/beste/01_Pro/ld25x/bsp_hu/MYD-LD25X-Uboot-L2022.10-V1.0.0/GEN_FIP/myir-st-optee/lib/libutee/tee_api.c:392
    1d30:	910003fd 	mov	x29, sp
/media/home/beste/01_Pro/ld25x/bsp_hu/MYD-LD25X-Uboot-L2022.10-V1.0.0/GEN_FIP/myir-st-optee/lib/libutee/tee_api.c:393
    1d34:	94000405 	bl	2d48 <_utee_get_time>
/media/home/beste/01_Pro/ld25x/bsp_hu/MYD-LD25X-Uboot-L2022.10-V1.0.0/GEN_FIP/myir-st-optee/lib/libutee/tee_api.c:395
    1d38:	34000060 	cbz	w0, 1d44 <TEE_GetREETime+0x20>
/media/home/beste/01_Pro/ld25x/bsp_hu/MYD-LD25X-Uboot-L2022.10-V1.0.0/GEN_FIP/myir-st-optee/lib/libutee/tee_api.c:397
    1d3c:	a8c17bfd 	ldp	x29, x30, [sp], #16
/media/home/beste/01_Pro/ld25x/bsp_hu/MYD-LD25X-Uboot-L2022.10-V1.0.0/GEN_FIP/myir-st-optee/lib/libutee/tee_api.c:396
    1d40:	1400003a 	b	1e28 <TEE_Panic>
/media/home/beste/01_Pro/ld25x/bsp_hu/MYD-LD25X-Uboot-L2022.10-V1.0.0/GEN_FIP/myir-st-optee/lib/libutee/tee_api.c:397
    1d44:	a8c17bfd 	ldp	x29, x30, [sp], #16
    1d48:	d65f03c0 	ret

0000000000001d4c <TEE_Malloc>:
TEE_Malloc():
/media/home/beste/01_Pro/ld25x/bsp_hu/MYD-LD25X-Uboot-L2022.10-V1.0.0/GEN_FIP/myir-st-optee/lib/libutee/tee_api.c:401
    1d4c:	34000300 	cbz	w0, 1dac <TEE_Malloc+0x60>
    1d50:	2a0103e5 	mov	w5, w1
/media/home/beste/01_Pro/ld25x/bsp_hu/MYD-LD25X-Uboot-L2022.10-V1.0.0/GEN_FIP/myir-st-optee/lib/libutee/tee_api.c:404
    1d54:	35000081 	cbnz	w1, 1d64 <TEE_Malloc+0x18>
/media/home/beste/01_Pro/ld25x/bsp_hu/MYD-LD25X-Uboot-L2022.10-V1.0.0/GEN_FIP/myir-st-optee/lib/libutee/tee_api.c:405
    1d58:	2a0003e1 	mov	w1, w0
    1d5c:	d2800020 	mov	x0, #0x1                   	// #1
    1d60:	14002348 	b	aa80 <calloc>
/media/home/beste/01_Pro/ld25x/bsp_hu/MYD-LD25X-Uboot-L2022.10-V1.0.0/GEN_FIP/myir-st-optee/lib/libutee/tee_api.c:406
    1d64:	52b00001 	mov	w1, #0x80000000            	// #-2147483648
    1d68:	6b0100bf 	cmp	w5, w1
    1d6c:	54000061 	b.ne	1d78 <TEE_Malloc+0x2c>  // b.any
/media/home/beste/01_Pro/ld25x/bsp_hu/MYD-LD25X-Uboot-L2022.10-V1.0.0/GEN_FIP/myir-st-optee/lib/libutee/tee_api.c:407
    1d70:	2a0003e0 	mov	w0, w0
    1d74:	1400233c 	b	aa64 <malloc>
/media/home/beste/01_Pro/ld25x/bsp_hu/MYD-LD25X-Uboot-L2022.10-V1.0.0/GEN_FIP/myir-st-optee/lib/libutee/tee_api.c:400
    1d78:	a9bf7bfd 	stp	x29, x30, [sp, #-16]!
/media/home/beste/01_Pro/ld25x/bsp_hu/MYD-LD25X-Uboot-L2022.10-V1.0.0/GEN_FIP/myir-st-optee/lib/libutee/tee_api.c:409
    1d7c:	52800023 	mov	w3, #0x1                   	// #1
    1d80:	52800022 	mov	w2, #0x1                   	// #1
/media/home/beste/01_Pro/ld25x/bsp_hu/MYD-LD25X-Uboot-L2022.10-V1.0.0/GEN_FIP/myir-st-optee/lib/libutee/tee_api.c:400
    1d84:	910003fd 	mov	x29, sp
/media/home/beste/01_Pro/ld25x/bsp_hu/MYD-LD25X-Uboot-L2022.10-V1.0.0/GEN_FIP/myir-st-optee/lib/libutee/tee_api.c:409
    1d88:	52803321 	mov	w1, #0x199                 	// #409
    1d8c:	b0000084 	adrp	x4, 12000 <small_prime+0x238>
    1d90:	b0000080 	adrp	x0, 12000 <small_prime+0x238>
    1d94:	9106c484 	add	x4, x4, #0x1b1
    1d98:	91070800 	add	x0, x0, #0x1c2
    1d9c:	97fffa55 	bl	6f0 <trace_printf>
/media/home/beste/01_Pro/ld25x/bsp_hu/MYD-LD25X-Uboot-L2022.10-V1.0.0/GEN_FIP/myir-st-optee/lib/libutee/tee_api.c:411
    1da0:	d2800000 	mov	x0, #0x0                   	// #0
/media/home/beste/01_Pro/ld25x/bsp_hu/MYD-LD25X-Uboot-L2022.10-V1.0.0/GEN_FIP/myir-st-optee/lib/libutee/tee_api.c:412
    1da4:	a8c17bfd 	ldp	x29, x30, [sp], #16
    1da8:	d65f03c0 	ret
/media/home/beste/01_Pro/ld25x/bsp_hu/MYD-LD25X-Uboot-L2022.10-V1.0.0/GEN_FIP/myir-st-optee/lib/libutee/tee_api.c:402
    1dac:	d2800020 	mov	x0, #0x1                   	// #1
/media/home/beste/01_Pro/ld25x/bsp_hu/MYD-LD25X-Uboot-L2022.10-V1.0.0/GEN_FIP/myir-st-optee/lib/libutee/tee_api.c:412
    1db0:	d65f03c0 	ret

0000000000001db4 <TEE_Free>:
TEE_Free():
/media/home/beste/01_Pro/ld25x/bsp_hu/MYD-LD25X-Uboot-L2022.10-V1.0.0/GEN_FIP/myir-st-optee/lib/libutee/tee_api.c:429
    1db4:	f100041f 	cmp	x0, #0x1
    1db8:	54000040 	b.eq	1dc0 <TEE_Free+0xc>  // b.none
/media/home/beste/01_Pro/ld25x/bsp_hu/MYD-LD25X-Uboot-L2022.10-V1.0.0/GEN_FIP/myir-st-optee/lib/libutee/tee_api.c:430
    1dbc:	1400234e 	b	aaf4 <free>
/media/home/beste/01_Pro/ld25x/bsp_hu/MYD-LD25X-Uboot-L2022.10-V1.0.0/GEN_FIP/myir-st-optee/lib/libutee/tee_api.c:431
    1dc0:	d65f03c0 	ret

0000000000001dc4 <TEE_Realloc>:
TEE_Realloc():
/media/home/beste/01_Pro/ld25x/bsp_hu/MYD-LD25X-Uboot-L2022.10-V1.0.0/GEN_FIP/myir-st-optee/lib/libutee/tee_api.c:416
    1dc4:	340000c1 	cbz	w1, 1ddc <TEE_Realloc+0x18>
/media/home/beste/01_Pro/ld25x/bsp_hu/MYD-LD25X-Uboot-L2022.10-V1.0.0/GEN_FIP/myir-st-optee/lib/libutee/tee_api.c:422
    1dc8:	2a0103e1 	mov	w1, w1
/media/home/beste/01_Pro/ld25x/bsp_hu/MYD-LD25X-Uboot-L2022.10-V1.0.0/GEN_FIP/myir-st-optee/lib/libutee/tee_api.c:421
    1dcc:	f100041f 	cmp	x0, #0x1
    1dd0:	54000041 	b.ne	1dd8 <TEE_Realloc+0x14>  // b.any
/media/home/beste/01_Pro/ld25x/bsp_hu/MYD-LD25X-Uboot-L2022.10-V1.0.0/GEN_FIP/myir-st-optee/lib/libutee/tee_api.c:422
    1dd4:	1400232b 	b	aa80 <calloc>
/media/home/beste/01_Pro/ld25x/bsp_hu/MYD-LD25X-Uboot-L2022.10-V1.0.0/GEN_FIP/myir-st-optee/lib/libutee/tee_api.c:424
    1dd8:	14002332 	b	aaa0 <realloc>
/media/home/beste/01_Pro/ld25x/bsp_hu/MYD-LD25X-Uboot-L2022.10-V1.0.0/GEN_FIP/myir-st-optee/lib/libutee/tee_api.c:415
    1ddc:	a9bf7bfd 	stp	x29, x30, [sp, #-16]!
    1de0:	910003fd 	mov	x29, sp
/media/home/beste/01_Pro/ld25x/bsp_hu/MYD-LD25X-Uboot-L2022.10-V1.0.0/GEN_FIP/myir-st-optee/lib/libutee/tee_api.c:417
    1de4:	97fffff4 	bl	1db4 <TEE_Free>
/media/home/beste/01_Pro/ld25x/bsp_hu/MYD-LD25X-Uboot-L2022.10-V1.0.0/GEN_FIP/myir-st-optee/lib/libutee/tee_api.c:425
    1de8:	d2800020 	mov	x0, #0x1                   	// #1
    1dec:	a8c17bfd 	ldp	x29, x30, [sp], #16
    1df0:	d65f03c0 	ret

0000000000001df4 <TEE_CacheClean>:
TEE_CacheClean():
/media/home/beste/01_Pro/ld25x/bsp_hu/MYD-LD25X-Uboot-L2022.10-V1.0.0/GEN_FIP/myir-st-optee/lib/libutee/tee_api.c:436
    1df4:	d2800002 	mov	x2, #0x0                   	// #0
    1df8:	14000452 	b	2f40 <_utee_cache_operation>

0000000000001dfc <TEE_CacheFlush>:
TEE_CacheFlush():
/media/home/beste/01_Pro/ld25x/bsp_hu/MYD-LD25X-Uboot-L2022.10-V1.0.0/GEN_FIP/myir-st-optee/lib/libutee/tee_api.c:440
    1dfc:	d2800022 	mov	x2, #0x1                   	// #1
    1e00:	14000450 	b	2f40 <_utee_cache_operation>

0000000000001e04 <TEE_CacheInvalidate>:
TEE_CacheInvalidate():
/media/home/beste/01_Pro/ld25x/bsp_hu/MYD-LD25X-Uboot-L2022.10-V1.0.0/GEN_FIP/myir-st-optee/lib/libutee/tee_api.c:445
    1e04:	d2800042 	mov	x2, #0x2                   	// #2
    1e08:	1400044e 	b	2f40 <_utee_cache_operation>

0000000000001e0c <check_access>:
check_access():
/media/home/beste/01_Pro/ld25x/bsp_hu/MYD-LD25X-Uboot-L2022.10-V1.0.0/GEN_FIP/myir-st-optee/lib/libutee/tee_api_panic.c:40
    1e0c:	b4000062 	cbz	x2, 1e18 <check_access+0xc>
/media/home/beste/01_Pro/ld25x/bsp_hu/MYD-LD25X-Uboot-L2022.10-V1.0.0/GEN_FIP/myir-st-optee/lib/libutee/tee_api_panic.c:43
    1e10:	b4000081 	cbz	x1, 1e20 <check_access+0x14>
/media/home/beste/01_Pro/ld25x/bsp_hu/MYD-LD25X-Uboot-L2022.10-V1.0.0/GEN_FIP/myir-st-optee/lib/libutee/tee_api_panic.c:47
    1e14:	17fffe7b 	b	1800 <TEE_CheckMemoryAccessRights>
/media/home/beste/01_Pro/ld25x/bsp_hu/MYD-LD25X-Uboot-L2022.10-V1.0.0/GEN_FIP/myir-st-optee/lib/libutee/tee_api_panic.c:41
    1e18:	52800000 	mov	w0, #0x0                   	// #0
/media/home/beste/01_Pro/ld25x/bsp_hu/MYD-LD25X-Uboot-L2022.10-V1.0.0/GEN_FIP/myir-st-optee/lib/libutee/tee_api_panic.c:50
    1e1c:	d65f03c0 	ret
/media/home/beste/01_Pro/ld25x/bsp_hu/MYD-LD25X-Uboot-L2022.10-V1.0.0/GEN_FIP/myir-st-optee/lib/libutee/tee_api_panic.c:44
    1e20:	129ffe00 	mov	w0, #0xffff000f            	// #-65521
    1e24:	17fffffe 	b	1e1c <check_access+0x10>

0000000000001e28 <TEE_Panic>:
TEE_Panic():
/media/home/beste/01_Pro/ld25x/bsp_hu/MYD-LD25X-Uboot-L2022.10-V1.0.0/GEN_FIP/myir-st-optee/lib/libutee/tee_api_panic.c:24
    1e28:	2a0003e0 	mov	w0, w0
    1e2c:	1400039d 	b	2ca0 <_utee_panic>

0000000000001e30 <check_res.part.0>:
check_res():
/media/home/beste/01_Pro/ld25x/bsp_hu/MYD-LD25X-Uboot-L2022.10-V1.0.0/GEN_FIP/myir-st-optee/lib/libutee/tee_api_panic.c:34
    1e30:	52800000 	mov	w0, #0x0                   	// #0
    1e34:	17fffffd 	b	1e28 <TEE_Panic>

0000000000001e38 <__utee_check_outbuf_annotation>:
__utee_check_outbuf_annotation():
/media/home/beste/01_Pro/ld25x/bsp_hu/MYD-LD25X-Uboot-L2022.10-V1.0.0/GEN_FIP/myir-st-optee/lib/libutee/tee_api_panic.c:53
    1e38:	a9be7bfd 	stp	x29, x30, [sp, #-32]!
    1e3c:	910003fd 	mov	x29, sp
    1e40:	a90153f3 	stp	x19, x20, [sp, #16]
    1e44:	aa0003f4 	mov	x20, x0
    1e48:	aa0103f3 	mov	x19, x1
check_access():
/media/home/beste/01_Pro/ld25x/bsp_hu/MYD-LD25X-Uboot-L2022.10-V1.0.0/GEN_FIP/myir-st-optee/lib/libutee/tee_api_panic.c:43
    1e4c:	b5000141 	cbnz	x1, 1e74 <__utee_check_outbuf_annotation+0x3c>
check_res():
/media/home/beste/01_Pro/ld25x/bsp_hu/MYD-LD25X-Uboot-L2022.10-V1.0.0/GEN_FIP/myir-st-optee/lib/libutee/tee_api_panic.c:43
    1e50:	97fffff8 	bl	1e30 <check_res.part.0>
__utee_check_outbuf_annotation():
/media/home/beste/01_Pro/ld25x/bsp_hu/MYD-LD25X-Uboot-L2022.10-V1.0.0/GEN_FIP/myir-st-optee/lib/libutee/tee_api_panic.c:56
    1e54:	b9400262 	ldr	w2, [x19]
    1e58:	aa1403e1 	mov	x1, x20
    1e5c:	528000c0 	mov	w0, #0x6                   	// #6
    1e60:	97ffffeb 	bl	1e0c <check_access>
check_res():
/media/home/beste/01_Pro/ld25x/bsp_hu/MYD-LD25X-Uboot-L2022.10-V1.0.0/GEN_FIP/myir-st-optee/lib/libutee/tee_api_panic.c:32
    1e64:	34000120 	cbz	w0, 1e88 <__utee_check_outbuf_annotation+0x50>
__utee_check_outbuf_annotation():
/media/home/beste/01_Pro/ld25x/bsp_hu/MYD-LD25X-Uboot-L2022.10-V1.0.0/GEN_FIP/myir-st-optee/lib/libutee/tee_api_panic.c:58
    1e68:	a94153f3 	ldp	x19, x20, [sp, #16]
    1e6c:	a8c27bfd 	ldp	x29, x30, [sp], #32
check_res():
/media/home/beste/01_Pro/ld25x/bsp_hu/MYD-LD25X-Uboot-L2022.10-V1.0.0/GEN_FIP/myir-st-optee/lib/libutee/tee_api_panic.c:58
    1e70:	17fffff0 	b	1e30 <check_res.part.0>
check_access():
/media/home/beste/01_Pro/ld25x/bsp_hu/MYD-LD25X-Uboot-L2022.10-V1.0.0/GEN_FIP/myir-st-optee/lib/libutee/tee_api_panic.c:47
    1e74:	52800082 	mov	w2, #0x4                   	// #4
    1e78:	52800060 	mov	w0, #0x3                   	// #3
    1e7c:	97fffe61 	bl	1800 <TEE_CheckMemoryAccessRights>
check_res():
/media/home/beste/01_Pro/ld25x/bsp_hu/MYD-LD25X-Uboot-L2022.10-V1.0.0/GEN_FIP/myir-st-optee/lib/libutee/tee_api_panic.c:32
    1e80:	34fffea0 	cbz	w0, 1e54 <__utee_check_outbuf_annotation+0x1c>
    1e84:	17fffff3 	b	1e50 <__utee_check_outbuf_annotation+0x18>
__utee_check_outbuf_annotation():
/media/home/beste/01_Pro/ld25x/bsp_hu/MYD-LD25X-Uboot-L2022.10-V1.0.0/GEN_FIP/myir-st-optee/lib/libutee/tee_api_panic.c:58
    1e88:	a94153f3 	ldp	x19, x20, [sp, #16]
    1e8c:	a8c27bfd 	ldp	x29, x30, [sp], #32
    1e90:	d65f03c0 	ret

0000000000001e94 <__utee_check_instring_annotation>:
__utee_check_instring_annotation():
/media/home/beste/01_Pro/ld25x/bsp_hu/MYD-LD25X-Uboot-L2022.10-V1.0.0/GEN_FIP/myir-st-optee/lib/libutee/tee_api_panic.c:61
    1e94:	a9be7bfd 	stp	x29, x30, [sp, #-32]!
    1e98:	910003fd 	mov	x29, sp
    1e9c:	f9000bf3 	str	x19, [sp, #16]
    1ea0:	aa0003f3 	mov	x19, x0
/media/home/beste/01_Pro/ld25x/bsp_hu/MYD-LD25X-Uboot-L2022.10-V1.0.0/GEN_FIP/myir-st-optee/lib/libutee/tee_api_panic.c:63
    1ea4:	97fffd9e 	bl	151c <strlen>
/media/home/beste/01_Pro/ld25x/bsp_hu/MYD-LD25X-Uboot-L2022.10-V1.0.0/GEN_FIP/myir-st-optee/lib/libutee/tee_api_panic.c:62
    1ea8:	91000402 	add	x2, x0, #0x1
    1eac:	aa1303e1 	mov	x1, x19
    1eb0:	52800020 	mov	w0, #0x1                   	// #1
    1eb4:	97ffffd6 	bl	1e0c <check_access>
check_res():
/media/home/beste/01_Pro/ld25x/bsp_hu/MYD-LD25X-Uboot-L2022.10-V1.0.0/GEN_FIP/myir-st-optee/lib/libutee/tee_api_panic.c:32
    1eb8:	34000080 	cbz	w0, 1ec8 <__utee_check_instring_annotation+0x34>
__utee_check_instring_annotation():
/media/home/beste/01_Pro/ld25x/bsp_hu/MYD-LD25X-Uboot-L2022.10-V1.0.0/GEN_FIP/myir-st-optee/lib/libutee/tee_api_panic.c:64
    1ebc:	f9400bf3 	ldr	x19, [sp, #16]
    1ec0:	a8c27bfd 	ldp	x29, x30, [sp], #32
check_res():
/media/home/beste/01_Pro/ld25x/bsp_hu/MYD-LD25X-Uboot-L2022.10-V1.0.0/GEN_FIP/myir-st-optee/lib/libutee/tee_api_panic.c:64
    1ec4:	17ffffdb 	b	1e30 <check_res.part.0>
__utee_check_instring_annotation():
/media/home/beste/01_Pro/ld25x/bsp_hu/MYD-LD25X-Uboot-L2022.10-V1.0.0/GEN_FIP/myir-st-optee/lib/libutee/tee_api_panic.c:64
    1ec8:	f9400bf3 	ldr	x19, [sp, #16]
    1ecc:	a8c27bfd 	ldp	x29, x30, [sp], #32
    1ed0:	d65f03c0 	ret

0000000000001ed4 <__utee_check_outstring_annotation>:
__utee_check_outstring_annotation():
/media/home/beste/01_Pro/ld25x/bsp_hu/MYD-LD25X-Uboot-L2022.10-V1.0.0/GEN_FIP/myir-st-optee/lib/libutee/tee_api_panic.c:66
    1ed4:	17ffffd9 	b	1e38 <__utee_check_outbuf_annotation>

0000000000001ed8 <__utee_check_out_annotation>:
__utee_check_out_annotation():
/media/home/beste/01_Pro/ld25x/bsp_hu/MYD-LD25X-Uboot-L2022.10-V1.0.0/GEN_FIP/myir-st-optee/lib/libutee/tee_api_panic.c:75
    1ed8:	a9bf7bfd 	stp	x29, x30, [sp, #-16]!
/media/home/beste/01_Pro/ld25x/bsp_hu/MYD-LD25X-Uboot-L2022.10-V1.0.0/GEN_FIP/myir-st-optee/lib/libutee/tee_api_panic.c:76
    1edc:	aa0103e2 	mov	x2, x1
    1ee0:	aa0003e1 	mov	x1, x0
/media/home/beste/01_Pro/ld25x/bsp_hu/MYD-LD25X-Uboot-L2022.10-V1.0.0/GEN_FIP/myir-st-optee/lib/libutee/tee_api_panic.c:75
    1ee4:	910003fd 	mov	x29, sp
/media/home/beste/01_Pro/ld25x/bsp_hu/MYD-LD25X-Uboot-L2022.10-V1.0.0/GEN_FIP/myir-st-optee/lib/libutee/tee_api_panic.c:76
    1ee8:	52800040 	mov	w0, #0x2                   	// #2
    1eec:	97ffffc8 	bl	1e0c <check_access>
check_res():
/media/home/beste/01_Pro/ld25x/bsp_hu/MYD-LD25X-Uboot-L2022.10-V1.0.0/GEN_FIP/myir-st-optee/lib/libutee/tee_api_panic.c:32
    1ef0:	34000060 	cbz	w0, 1efc <__utee_check_out_annotation+0x24>
__utee_check_out_annotation():
/media/home/beste/01_Pro/ld25x/bsp_hu/MYD-LD25X-Uboot-L2022.10-V1.0.0/GEN_FIP/myir-st-optee/lib/libutee/tee_api_panic.c:78
    1ef4:	a8c17bfd 	ldp	x29, x30, [sp], #16
check_res():
/media/home/beste/01_Pro/ld25x/bsp_hu/MYD-LD25X-Uboot-L2022.10-V1.0.0/GEN_FIP/myir-st-optee/lib/libutee/tee_api_panic.c:78
    1ef8:	17ffffce 	b	1e30 <check_res.part.0>
__utee_check_out_annotation():
/media/home/beste/01_Pro/ld25x/bsp_hu/MYD-LD25X-Uboot-L2022.10-V1.0.0/GEN_FIP/myir-st-optee/lib/libutee/tee_api_panic.c:78
    1efc:	a8c17bfd 	ldp	x29, x30, [sp], #16
    1f00:	d65f03c0 	ret

0000000000001f04 <__utee_check_attr_in_annotation>:
__utee_check_attr_in_annotation():
/media/home/beste/01_Pro/ld25x/bsp_hu/MYD-LD25X-Uboot-L2022.10-V1.0.0/GEN_FIP/myir-st-optee/lib/libutee/tee_api_panic.c:82
    1f04:	d2800302 	mov	x2, #0x18                  	// #24
/media/home/beste/01_Pro/ld25x/bsp_hu/MYD-LD25X-Uboot-L2022.10-V1.0.0/GEN_FIP/myir-st-optee/lib/libutee/tee_api_panic.c:81
    1f08:	a9bf7bfd 	stp	x29, x30, [sp, #-16]!
/media/home/beste/01_Pro/ld25x/bsp_hu/MYD-LD25X-Uboot-L2022.10-V1.0.0/GEN_FIP/myir-st-optee/lib/libutee/tee_api_panic.c:82
    1f0c:	9b027c22 	mul	x2, x1, x2
/media/home/beste/01_Pro/ld25x/bsp_hu/MYD-LD25X-Uboot-L2022.10-V1.0.0/GEN_FIP/myir-st-optee/lib/libutee/tee_api_panic.c:81
    1f10:	910003fd 	mov	x29, sp
/media/home/beste/01_Pro/ld25x/bsp_hu/MYD-LD25X-Uboot-L2022.10-V1.0.0/GEN_FIP/myir-st-optee/lib/libutee/tee_api_panic.c:82
    1f14:	aa0003e1 	mov	x1, x0
    1f18:	52800020 	mov	w0, #0x1                   	// #1
    1f1c:	97ffffbc 	bl	1e0c <check_access>
check_res():
/media/home/beste/01_Pro/ld25x/bsp_hu/MYD-LD25X-Uboot-L2022.10-V1.0.0/GEN_FIP/myir-st-optee/lib/libutee/tee_api_panic.c:32
    1f20:	34000060 	cbz	w0, 1f2c <__utee_check_attr_in_annotation+0x28>
__utee_check_attr_in_annotation():
/media/home/beste/01_Pro/ld25x/bsp_hu/MYD-LD25X-Uboot-L2022.10-V1.0.0/GEN_FIP/myir-st-optee/lib/libutee/tee_api_panic.c:84
    1f24:	a8c17bfd 	ldp	x29, x30, [sp], #16
check_res():
/media/home/beste/01_Pro/ld25x/bsp_hu/MYD-LD25X-Uboot-L2022.10-V1.0.0/GEN_FIP/myir-st-optee/lib/libutee/tee_api_panic.c:84
    1f28:	17ffffc2 	b	1e30 <check_res.part.0>
__utee_check_attr_in_annotation():
/media/home/beste/01_Pro/ld25x/bsp_hu/MYD-LD25X-Uboot-L2022.10-V1.0.0/GEN_FIP/myir-st-optee/lib/libutee/tee_api_panic.c:84
    1f2c:	a8c17bfd 	ldp	x29, x30, [sp], #16
    1f30:	d65f03c0 	ret

0000000000001f34 <__utee_check_inout_annotation>:
__utee_check_inout_annotation():
/media/home/beste/01_Pro/ld25x/bsp_hu/MYD-LD25X-Uboot-L2022.10-V1.0.0/GEN_FIP/myir-st-optee/lib/libutee/tee_api_panic.c:87
    1f34:	a9bf7bfd 	stp	x29, x30, [sp, #-16]!
/media/home/beste/01_Pro/ld25x/bsp_hu/MYD-LD25X-Uboot-L2022.10-V1.0.0/GEN_FIP/myir-st-optee/lib/libutee/tee_api_panic.c:88
    1f38:	aa0103e2 	mov	x2, x1
    1f3c:	aa0003e1 	mov	x1, x0
/media/home/beste/01_Pro/ld25x/bsp_hu/MYD-LD25X-Uboot-L2022.10-V1.0.0/GEN_FIP/myir-st-optee/lib/libutee/tee_api_panic.c:87
    1f40:	910003fd 	mov	x29, sp
/media/home/beste/01_Pro/ld25x/bsp_hu/MYD-LD25X-Uboot-L2022.10-V1.0.0/GEN_FIP/myir-st-optee/lib/libutee/tee_api_panic.c:88
    1f44:	52800060 	mov	w0, #0x3                   	// #3
    1f48:	97ffffb1 	bl	1e0c <check_access>
check_res():
/media/home/beste/01_Pro/ld25x/bsp_hu/MYD-LD25X-Uboot-L2022.10-V1.0.0/GEN_FIP/myir-st-optee/lib/libutee/tee_api_panic.c:32
    1f4c:	34000060 	cbz	w0, 1f58 <__utee_check_inout_annotation+0x24>
__utee_check_inout_annotation():
/media/home/beste/01_Pro/ld25x/bsp_hu/MYD-LD25X-Uboot-L2022.10-V1.0.0/GEN_FIP/myir-st-optee/lib/libutee/tee_api_panic.c:90
    1f50:	a8c17bfd 	ldp	x29, x30, [sp], #16
check_res():
/media/home/beste/01_Pro/ld25x/bsp_hu/MYD-LD25X-Uboot-L2022.10-V1.0.0/GEN_FIP/myir-st-optee/lib/libutee/tee_api_panic.c:90
    1f54:	17ffffb7 	b	1e30 <check_res.part.0>
__utee_check_inout_annotation():
/media/home/beste/01_Pro/ld25x/bsp_hu/MYD-LD25X-Uboot-L2022.10-V1.0.0/GEN_FIP/myir-st-optee/lib/libutee/tee_api_panic.c:90
    1f58:	a8c17bfd 	ldp	x29, x30, [sp], #16
    1f5c:	d65f03c0 	ret

0000000000001f60 <propset_get>:
propset_get():
/media/home/beste/01_Pro/ld25x/bsp_hu/MYD-LD25X-Uboot-L2022.10-V1.0.0/GEN_FIP/myir-st-optee/lib/libutee/tee_api_property.c:66
    1f60:	b2407fe3 	mov	x3, #0xffffffff            	// #4294967295
    1f64:	eb03001f 	cmp	x0, x3
    1f68:	54000121 	b.ne	1f8c <propset_get+0x2c>  // b.any
/media/home/beste/01_Pro/ld25x/bsp_hu/MYD-LD25X-Uboot-L2022.10-V1.0.0/GEN_FIP/myir-st-optee/lib/libutee/tee_api_property.c:67
    1f6c:	f0000080 	adrp	x0, 14000 <_DYNAMIC>
    1f70:	f9409c03 	ldr	x3, [x0, #312]
    1f74:	f9000023 	str	x3, [x1]
/media/home/beste/01_Pro/ld25x/bsp_hu/MYD-LD25X-Uboot-L2022.10-V1.0.0/GEN_FIP/myir-st-optee/lib/libutee/tee_api_property.c:68
    1f78:	f940a400 	ldr	x0, [x0, #328]
    1f7c:	f9400000 	ldr	x0, [x0]
    1f80:	f9000040 	str	x0, [x2]
/media/home/beste/01_Pro/ld25x/bsp_hu/MYD-LD25X-Uboot-L2022.10-V1.0.0/GEN_FIP/myir-st-optee/lib/libutee/tee_api_property.c:79
    1f84:	52800000 	mov	w0, #0x0                   	// #0
/media/home/beste/01_Pro/ld25x/bsp_hu/MYD-LD25X-Uboot-L2022.10-V1.0.0/GEN_FIP/myir-st-optee/lib/libutee/tee_api_property.c:80
    1f88:	d65f03c0 	ret
/media/home/beste/01_Pro/ld25x/bsp_hu/MYD-LD25X-Uboot-L2022.10-V1.0.0/GEN_FIP/myir-st-optee/lib/libutee/tee_api_property.c:69
    1f8c:	b27f7be3 	mov	x3, #0xfffffffe            	// #4294967294
    1f90:	eb03001f 	cmp	x0, x3
    1f94:	54000081 	b.ne	1fa4 <propset_get+0x44>  // b.any
/media/home/beste/01_Pro/ld25x/bsp_hu/MYD-LD25X-Uboot-L2022.10-V1.0.0/GEN_FIP/myir-st-optee/lib/libutee/tee_api_property.c:70
    1f98:	d2800000 	mov	x0, #0x0                   	// #0
    1f9c:	f900003f 	str	xzr, [x1]
/media/home/beste/01_Pro/ld25x/bsp_hu/MYD-LD25X-Uboot-L2022.10-V1.0.0/GEN_FIP/myir-st-optee/lib/libutee/tee_api_property.c:71
    1fa0:	17fffff8 	b	1f80 <propset_get+0x20>
/media/home/beste/01_Pro/ld25x/bsp_hu/MYD-LD25X-Uboot-L2022.10-V1.0.0/GEN_FIP/myir-st-optee/lib/libutee/tee_api_property.c:72
    1fa4:	12800043 	mov	w3, #0xfffffffd            	// #-3
    1fa8:	eb03001f 	cmp	x0, x3
    1fac:	540000c1 	b.ne	1fc4 <propset_get+0x64>  // b.any
/media/home/beste/01_Pro/ld25x/bsp_hu/MYD-LD25X-Uboot-L2022.10-V1.0.0/GEN_FIP/myir-st-optee/lib/libutee/tee_api_property.c:73
    1fb0:	f0000080 	adrp	x0, 14000 <_DYNAMIC>
    1fb4:	f940bc00 	ldr	x0, [x0, #376]
    1fb8:	f9000020 	str	x0, [x1]
/media/home/beste/01_Pro/ld25x/bsp_hu/MYD-LD25X-Uboot-L2022.10-V1.0.0/GEN_FIP/myir-st-optee/lib/libutee/tee_api_property.c:74
    1fbc:	d28000a0 	mov	x0, #0x5                   	// #5
    1fc0:	17fffff0 	b	1f80 <propset_get+0x20>
/media/home/beste/01_Pro/ld25x/bsp_hu/MYD-LD25X-Uboot-L2022.10-V1.0.0/GEN_FIP/myir-st-optee/lib/libutee/tee_api_property.c:76
    1fc4:	129ffee0 	mov	w0, #0xffff0008            	// #-65528
    1fc8:	17fffff0 	b	1f88 <propset_get+0x28>

0000000000001fcc <is_propset_pseudo_handle>:
is_propset_pseudo_handle():
/media/home/beste/01_Pro/ld25x/bsp_hu/MYD-LD25X-Uboot-L2022.10-V1.0.0/GEN_FIP/myir-st-optee/lib/libutee/tee_api_property.c:140
    1fcc:	929fffa1 	mov	x1, #0xffffffffffff0002    	// #-65534
    1fd0:	f2a00001 	movk	x1, #0x0, lsl #16
    1fd4:	8b010001 	add	x1, x0, x1
/media/home/beste/01_Pro/ld25x/bsp_hu/MYD-LD25X-Uboot-L2022.10-V1.0.0/GEN_FIP/myir-st-optee/lib/libutee/tee_api_property.c:141
    1fd8:	f100043f 	cmp	x1, #0x1
    1fdc:	540000a9 	b.ls	1ff0 <is_propset_pseudo_handle+0x24>  // b.plast
/media/home/beste/01_Pro/ld25x/bsp_hu/MYD-LD25X-Uboot-L2022.10-V1.0.0/GEN_FIP/myir-st-optee/lib/libutee/tee_api_property.c:141 (discriminator 2)
    1fe0:	12800041 	mov	w1, #0xfffffffd            	// #-3
    1fe4:	eb01001f 	cmp	x0, x1
    1fe8:	1a9f17e0 	cset	w0, eq	// eq = none
/media/home/beste/01_Pro/ld25x/bsp_hu/MYD-LD25X-Uboot-L2022.10-V1.0.0/GEN_FIP/myir-st-optee/lib/libutee/tee_api_property.c:143 (discriminator 6)
    1fec:	d65f03c0 	ret
/media/home/beste/01_Pro/ld25x/bsp_hu/MYD-LD25X-Uboot-L2022.10-V1.0.0/GEN_FIP/myir-st-optee/lib/libutee/tee_api_property.c:141
    1ff0:	52800020 	mov	w0, #0x1                   	// #1
    1ff4:	17fffffe 	b	1fec <is_propset_pseudo_handle+0x20>

0000000000001ff8 <propget_get_ext_prop>:
propget_get_ext_prop():
/media/home/beste/01_Pro/ld25x/bsp_hu/MYD-LD25X-Uboot-L2022.10-V1.0.0/GEN_FIP/myir-st-optee/lib/libutee/tee_api_property.c:85
    1ff8:	a9bc7bfd 	stp	x29, x30, [sp, #-64]!
    1ffc:	910003fd 	mov	x29, sp
    2000:	a90153f3 	stp	x19, x20, [sp, #16]
    2004:	aa0303f3 	mov	x19, x3
/media/home/beste/01_Pro/ld25x/bsp_hu/MYD-LD25X-Uboot-L2022.10-V1.0.0/GEN_FIP/myir-st-optee/lib/libutee/tee_api_property.c:88
    2008:	b9400803 	ldr	w3, [x0, #8]
/media/home/beste/01_Pro/ld25x/bsp_hu/MYD-LD25X-Uboot-L2022.10-V1.0.0/GEN_FIP/myir-st-optee/lib/libutee/tee_api_property.c:85
    200c:	f90013f5 	str	x21, [sp, #32]
    2010:	aa0003f4 	mov	x20, x0
/media/home/beste/01_Pro/ld25x/bsp_hu/MYD-LD25X-Uboot-L2022.10-V1.0.0/GEN_FIP/myir-st-optee/lib/libutee/tee_api_property.c:88
    2014:	b9000023 	str	w3, [x1]
/media/home/beste/01_Pro/ld25x/bsp_hu/MYD-LD25X-Uboot-L2022.10-V1.0.0/GEN_FIP/myir-st-optee/lib/libutee/tee_api_property.c:85
    2018:	aa0203f5 	mov	x21, x2
/media/home/beste/01_Pro/ld25x/bsp_hu/MYD-LD25X-Uboot-L2022.10-V1.0.0/GEN_FIP/myir-st-optee/lib/libutee/tee_api_property.c:89
    201c:	71000c7f 	cmp	w3, #0x3
    2020:	54000640 	b.eq	20e8 <propget_get_ext_prop+0xf0>  // b.none
    2024:	540001c8 	b.hi	205c <propget_get_ext_prop+0x64>  // b.pmore
    2028:	7100047f 	cmp	w3, #0x1
    202c:	54000620 	b.eq	20f0 <propget_get_ext_prop+0xf8>  // b.none
    2030:	7100087f 	cmp	w3, #0x2
    2034:	d2800201 	mov	x1, #0x10                  	// #16
    2038:	9a9f0422 	csinc	x2, x1, xzr, eq	// eq = none
/media/home/beste/01_Pro/ld25x/bsp_hu/MYD-LD25X-Uboot-L2022.10-V1.0.0/GEN_FIP/myir-st-optee/lib/libutee/tee_api_property.c:128
    203c:	b9400260 	ldr	w0, [x19]
/media/home/beste/01_Pro/ld25x/bsp_hu/MYD-LD25X-Uboot-L2022.10-V1.0.0/GEN_FIP/myir-st-optee/lib/libutee/tee_api_property.c:129
    2040:	2a0203e1 	mov	w1, w2
/media/home/beste/01_Pro/ld25x/bsp_hu/MYD-LD25X-Uboot-L2022.10-V1.0.0/GEN_FIP/myir-st-optee/lib/libutee/tee_api_property.c:91
    2044:	f9001fe2 	str	x2, [sp, #56]
/media/home/beste/01_Pro/ld25x/bsp_hu/MYD-LD25X-Uboot-L2022.10-V1.0.0/GEN_FIP/myir-st-optee/lib/libutee/tee_api_property.c:128
    2048:	eb00005f 	cmp	x2, x0
    204c:	54000569 	b.ls	20f8 <propget_get_ext_prop+0x100>  // b.plast
/media/home/beste/01_Pro/ld25x/bsp_hu/MYD-LD25X-Uboot-L2022.10-V1.0.0/GEN_FIP/myir-st-optee/lib/libutee/tee_api_property.c:119
    2050:	129ffde0 	mov	w0, #0xffff0010            	// #-65520
/media/home/beste/01_Pro/ld25x/bsp_hu/MYD-LD25X-Uboot-L2022.10-V1.0.0/GEN_FIP/myir-st-optee/lib/libutee/tee_api_property.c:129
    2054:	b9000261 	str	w1, [x19]
    2058:	14000006 	b	2070 <propget_get_ext_prop+0x78>
/media/home/beste/01_Pro/ld25x/bsp_hu/MYD-LD25X-Uboot-L2022.10-V1.0.0/GEN_FIP/myir-st-optee/lib/libutee/tee_api_property.c:89
    205c:	7100107f 	cmp	w3, #0x4
    2060:	54000100 	b.eq	2080 <propget_get_ext_prop+0x88>  // b.none
    2064:	7100147f 	cmp	w3, #0x5
    2068:	54000140 	b.eq	2090 <propget_get_ext_prop+0x98>  // b.none
    206c:	52bfffe0 	mov	w0, #0xffff0000            	// #-65536
/media/home/beste/01_Pro/ld25x/bsp_hu/MYD-LD25X-Uboot-L2022.10-V1.0.0/GEN_FIP/myir-st-optee/lib/libutee/tee_api_property.c:136
    2070:	a94153f3 	ldp	x19, x20, [sp, #16]
    2074:	f94013f5 	ldr	x21, [sp, #32]
    2078:	a8c47bfd 	ldp	x29, x30, [sp], #64
    207c:	d65f03c0 	ret
/media/home/beste/01_Pro/ld25x/bsp_hu/MYD-LD25X-Uboot-L2022.10-V1.0.0/GEN_FIP/myir-st-optee/lib/libutee/tee_api_property.c:104
    2080:	f9400800 	ldr	x0, [x0, #16]
    2084:	97fffd26 	bl	151c <strlen>
    2088:	91000402 	add	x2, x0, #0x1
/media/home/beste/01_Pro/ld25x/bsp_hu/MYD-LD25X-Uboot-L2022.10-V1.0.0/GEN_FIP/myir-st-optee/lib/libutee/tee_api_property.c:105
    208c:	17ffffec 	b	203c <propget_get_ext_prop+0x44>
/media/home/beste/01_Pro/ld25x/bsp_hu/MYD-LD25X-Uboot-L2022.10-V1.0.0/GEN_FIP/myir-st-optee/lib/libutee/tee_api_property.c:114
    2090:	f9400a94 	ldr	x20, [x20, #16]
/media/home/beste/01_Pro/ld25x/bsp_hu/MYD-LD25X-Uboot-L2022.10-V1.0.0/GEN_FIP/myir-st-optee/lib/libutee/tee_api_property.c:113
    2094:	b9400260 	ldr	w0, [x19]
    2098:	f9001fe0 	str	x0, [sp, #56]
/media/home/beste/01_Pro/ld25x/bsp_hu/MYD-LD25X-Uboot-L2022.10-V1.0.0/GEN_FIP/myir-st-optee/lib/libutee/tee_api_property.c:114
    209c:	aa1403e0 	mov	x0, x20
    20a0:	97fffd1f 	bl	151c <strlen>
    20a4:	aa0003e1 	mov	x1, x0
    20a8:	aa1503e2 	mov	x2, x21
    20ac:	9100e3e3 	add	x3, sp, #0x38
    20b0:	aa1403e0 	mov	x0, x20
    20b4:	9400059b 	bl	3720 <_base64_dec>
    20b8:	b9400262 	ldr	w2, [x19]
    20bc:	72001c1f 	tst	w0, #0xff
    20c0:	f9401fe0 	ldr	x0, [sp, #56]
    20c4:	54000061 	b.ne	20d0 <propget_get_ext_prop+0xd8>  // b.any
/media/home/beste/01_Pro/ld25x/bsp_hu/MYD-LD25X-Uboot-L2022.10-V1.0.0/GEN_FIP/myir-st-optee/lib/libutee/tee_api_property.c:114 (discriminator 1)
    20c8:	eb00005f 	cmp	x2, x0
    20cc:	54fffd02 	b.cs	206c <propget_get_ext_prop+0x74>  // b.hs, b.nlast
/media/home/beste/01_Pro/ld25x/bsp_hu/MYD-LD25X-Uboot-L2022.10-V1.0.0/GEN_FIP/myir-st-optee/lib/libutee/tee_api_property.c:118
    20d0:	2a0003e1 	mov	w1, w0
/media/home/beste/01_Pro/ld25x/bsp_hu/MYD-LD25X-Uboot-L2022.10-V1.0.0/GEN_FIP/myir-st-optee/lib/libutee/tee_api_property.c:117
    20d4:	eb00005f 	cmp	x2, x0
    20d8:	54fffbc3 	b.cc	2050 <propget_get_ext_prop+0x58>  // b.lo, b.ul, b.last
/media/home/beste/01_Pro/ld25x/bsp_hu/MYD-LD25X-Uboot-L2022.10-V1.0.0/GEN_FIP/myir-st-optee/lib/libutee/tee_api_property.c:122
    20dc:	b9000260 	str	w0, [x19]
/media/home/beste/01_Pro/ld25x/bsp_hu/MYD-LD25X-Uboot-L2022.10-V1.0.0/GEN_FIP/myir-st-optee/lib/libutee/tee_api_property.c:123
    20e0:	52800000 	mov	w0, #0x0                   	// #0
    20e4:	17ffffe3 	b	2070 <propget_get_ext_prop+0x78>
/media/home/beste/01_Pro/ld25x/bsp_hu/MYD-LD25X-Uboot-L2022.10-V1.0.0/GEN_FIP/myir-st-optee/lib/libutee/tee_api_property.c:89
    20e8:	d2800282 	mov	x2, #0x14                  	// #20
    20ec:	17ffffd4 	b	203c <propget_get_ext_prop+0x44>
    20f0:	d2800082 	mov	x2, #0x4                   	// #4
    20f4:	17ffffd2 	b	203c <propget_get_ext_prop+0x44>
/media/home/beste/01_Pro/ld25x/bsp_hu/MYD-LD25X-Uboot-L2022.10-V1.0.0/GEN_FIP/myir-st-optee/lib/libutee/tee_api_property.c:134
    20f8:	f9400a81 	ldr	x1, [x20, #16]
/media/home/beste/01_Pro/ld25x/bsp_hu/MYD-LD25X-Uboot-L2022.10-V1.0.0/GEN_FIP/myir-st-optee/lib/libutee/tee_api_property.c:133
    20fc:	b9000262 	str	w2, [x19]
/media/home/beste/01_Pro/ld25x/bsp_hu/MYD-LD25X-Uboot-L2022.10-V1.0.0/GEN_FIP/myir-st-optee/lib/libutee/tee_api_property.c:134
    2100:	aa1503e0 	mov	x0, x21
    2104:	97fff7c7 	bl	20 <memcpy>
/media/home/beste/01_Pro/ld25x/bsp_hu/MYD-LD25X-Uboot-L2022.10-V1.0.0/GEN_FIP/myir-st-optee/lib/libutee/tee_api_property.c:135
    2108:	17fffff6 	b	20e0 <propget_get_ext_prop+0xe8>

000000000000210c <propget_get_property>:
propget_get_property():
/media/home/beste/01_Pro/ld25x/bsp_hu/MYD-LD25X-Uboot-L2022.10-V1.0.0/GEN_FIP/myir-st-optee/lib/libutee/tee_api_property.c:148
    210c:	a9b87bfd 	stp	x29, x30, [sp, #-128]!
    2110:	910003fd 	mov	x29, sp
    2114:	a90153f3 	stp	x19, x20, [sp, #16]
    2118:	aa0003f3 	mov	x19, x0
    211c:	aa0303f4 	mov	x20, x3
    2120:	a9025bf5 	stp	x21, x22, [sp, #32]
    2124:	aa0203f6 	mov	x22, x2
    2128:	aa0403f5 	mov	x21, x4
    212c:	a90363f7 	stp	x23, x24, [sp, #48]
    2130:	aa0103f7 	mov	x23, x1
    2134:	a9046bf9 	stp	x25, x26, [sp, #64]
    2138:	f9002bfb 	str	x27, [sp, #80]
/media/home/beste/01_Pro/ld25x/bsp_hu/MYD-LD25X-Uboot-L2022.10-V1.0.0/GEN_FIP/myir-st-optee/lib/libutee/tee_api_property.c:155
    213c:	97ffffa4 	bl	1fcc <is_propset_pseudo_handle>
    2140:	72001c1f 	tst	w0, #0xff
    2144:	540006a0 	b.eq	2218 <propget_get_property+0x10c>  // b.none
/media/home/beste/01_Pro/ld25x/bsp_hu/MYD-LD25X-Uboot-L2022.10-V1.0.0/GEN_FIP/myir-st-optee/lib/libutee/tee_api_property.c:158
    2148:	9101e3e2 	add	x2, sp, #0x78
    214c:	9101c3e1 	add	x1, sp, #0x70
    2150:	aa1303e0 	mov	x0, x19
    2154:	97ffff83 	bl	1f60 <propset_get>
/media/home/beste/01_Pro/ld25x/bsp_hu/MYD-LD25X-Uboot-L2022.10-V1.0.0/GEN_FIP/myir-st-optee/lib/libutee/tee_api_property.c:159
    2158:	350002e0 	cbnz	w0, 21b4 <propget_get_property+0xa8>
/media/home/beste/01_Pro/ld25x/bsp_hu/MYD-LD25X-Uboot-L2022.10-V1.0.0/GEN_FIP/myir-st-optee/lib/libutee/tee_api_property.c:162
    215c:	a9476bf9 	ldp	x25, x26, [sp, #112]
    2160:	d2800018 	mov	x24, #0x0                   	// #0
/media/home/beste/01_Pro/ld25x/bsp_hu/MYD-LD25X-Uboot-L2022.10-V1.0.0/GEN_FIP/myir-st-optee/lib/libutee/tee_api_property.c:162 (discriminator 1)
    2164:	eb18035f 	cmp	x26, x24
    2168:	54000341 	b.ne	21d0 <propget_get_property+0xc4>  // b.any
/media/home/beste/01_Pro/ld25x/bsp_hu/MYD-LD25X-Uboot-L2022.10-V1.0.0/GEN_FIP/myir-st-optee/lib/libutee/tee_api_property.c:170
    216c:	aa1703e0 	mov	x0, x23
    2170:	97fffceb 	bl	151c <strlen>
/media/home/beste/01_Pro/ld25x/bsp_hu/MYD-LD25X-Uboot-L2022.10-V1.0.0/GEN_FIP/myir-st-optee/lib/libutee/tee_api_property.c:169
    2174:	9101b3e3 	add	x3, sp, #0x6c
    2178:	91000402 	add	x2, x0, #0x1
    217c:	aa1703e1 	mov	x1, x23
    2180:	aa1303e0 	mov	x0, x19
    2184:	940002d6 	bl	2cdc <_utee_get_property_name_to_index>
/media/home/beste/01_Pro/ld25x/bsp_hu/MYD-LD25X-Uboot-L2022.10-V1.0.0/GEN_FIP/myir-st-optee/lib/libutee/tee_api_property.c:172
    2188:	35000160 	cbnz	w0, 21b4 <propget_get_property+0xa8>
/media/home/beste/01_Pro/ld25x/bsp_hu/MYD-LD25X-Uboot-L2022.10-V1.0.0/GEN_FIP/myir-st-optee/lib/libutee/tee_api_property.c:174
    218c:	b9406fe1 	ldr	w1, [sp, #108]
    2190:	9101a3e6 	add	x6, sp, #0x68
    2194:	aa1503e5 	mov	x5, x21
    2198:	aa1403e4 	mov	x4, x20
    219c:	aa1303e0 	mov	x0, x19
    21a0:	d2800003 	mov	x3, #0x0                   	// #0
    21a4:	d2800002 	mov	x2, #0x0                   	// #0
    21a8:	940002ca 	bl	2cd0 <_utee_get_property>
/media/home/beste/01_Pro/ld25x/bsp_hu/MYD-LD25X-Uboot-L2022.10-V1.0.0/GEN_FIP/myir-st-optee/lib/libutee/tee_api_property.c:197
    21ac:	b9406be1 	ldr	w1, [sp, #104]
    21b0:	b90002c1 	str	w1, [x22]
/media/home/beste/01_Pro/ld25x/bsp_hu/MYD-LD25X-Uboot-L2022.10-V1.0.0/GEN_FIP/myir-st-optee/lib/libutee/tee_api_property.c:199
    21b4:	a94153f3 	ldp	x19, x20, [sp, #16]
    21b8:	a9425bf5 	ldp	x21, x22, [sp, #32]
    21bc:	a94363f7 	ldp	x23, x24, [sp, #48]
    21c0:	a9446bf9 	ldp	x25, x26, [sp, #64]
    21c4:	f9402bfb 	ldr	x27, [sp, #80]
    21c8:	a8c87bfd 	ldp	x29, x30, [sp], #128
    21cc:	d65f03c0 	ret
/media/home/beste/01_Pro/ld25x/bsp_hu/MYD-LD25X-Uboot-L2022.10-V1.0.0/GEN_FIP/myir-st-optee/lib/libutee/tee_api_property.c:163
    21d0:	aa1903fb 	mov	x27, x25
    21d4:	aa1703e0 	mov	x0, x23
    21d8:	f8418721 	ldr	x1, [x25], #24
    21dc:	9400232a 	bl	ae84 <strcmp>
    21e0:	35000180 	cbnz	w0, 2210 <propget_get_property+0x104>
/media/home/beste/01_Pro/ld25x/bsp_hu/MYD-LD25X-Uboot-L2022.10-V1.0.0/GEN_FIP/myir-st-optee/lib/libutee/tee_api_property.c:164
    21e4:	aa1503e3 	mov	x3, x21
    21e8:	aa1403e2 	mov	x2, x20
    21ec:	aa1603e1 	mov	x1, x22
    21f0:	aa1b03e0 	mov	x0, x27
/media/home/beste/01_Pro/ld25x/bsp_hu/MYD-LD25X-Uboot-L2022.10-V1.0.0/GEN_FIP/myir-st-optee/lib/libutee/tee_api_property.c:199
    21f4:	a94153f3 	ldp	x19, x20, [sp, #16]
    21f8:	a9425bf5 	ldp	x21, x22, [sp, #32]
    21fc:	a94363f7 	ldp	x23, x24, [sp, #48]
    2200:	a9446bf9 	ldp	x25, x26, [sp, #64]
    2204:	f9402bfb 	ldr	x27, [sp, #80]
    2208:	a8c87bfd 	ldp	x29, x30, [sp], #128
/media/home/beste/01_Pro/ld25x/bsp_hu/MYD-LD25X-Uboot-L2022.10-V1.0.0/GEN_FIP/myir-st-optee/lib/libutee/tee_api_property.c:188
    220c:	17ffff7b 	b	1ff8 <propget_get_ext_prop>
/media/home/beste/01_Pro/ld25x/bsp_hu/MYD-LD25X-Uboot-L2022.10-V1.0.0/GEN_FIP/myir-st-optee/lib/libutee/tee_api_property.c:162 (discriminator 2)
    2210:	91000718 	add	x24, x24, #0x1
    2214:	17ffffd4 	b	2164 <propget_get_property+0x58>
/media/home/beste/01_Pro/ld25x/bsp_hu/MYD-LD25X-Uboot-L2022.10-V1.0.0/GEN_FIP/myir-st-optee/lib/libutee/tee_api_property.c:178
    2218:	b9400267 	ldr	w7, [x19]
/media/home/beste/01_Pro/ld25x/bsp_hu/MYD-LD25X-Uboot-L2022.10-V1.0.0/GEN_FIP/myir-st-optee/lib/libutee/tee_api_property.c:180
    221c:	310004ff 	cmn	w7, #0x1
    2220:	540003c0 	b.eq	2298 <propget_get_property+0x18c>  // b.none
/media/home/beste/01_Pro/ld25x/bsp_hu/MYD-LD25X-Uboot-L2022.10-V1.0.0/GEN_FIP/myir-st-optee/lib/libutee/tee_api_property.c:183
    2224:	f9400668 	ldr	x8, [x19, #8]
    2228:	9101e3e2 	add	x2, sp, #0x78
    222c:	9101c3e1 	add	x1, sp, #0x70
    2230:	aa0803e0 	mov	x0, x8
    2234:	97ffff4b 	bl	1f60 <propset_get>
/media/home/beste/01_Pro/ld25x/bsp_hu/MYD-LD25X-Uboot-L2022.10-V1.0.0/GEN_FIP/myir-st-optee/lib/libutee/tee_api_property.c:184
    2238:	35fffbe0 	cbnz	w0, 21b4 <propget_get_property+0xa8>
/media/home/beste/01_Pro/ld25x/bsp_hu/MYD-LD25X-Uboot-L2022.10-V1.0.0/GEN_FIP/myir-st-optee/lib/libutee/tee_api_property.c:187
    223c:	f9403fe1 	ldr	x1, [sp, #120]
    2240:	eb27403f 	cmp	x1, w7, uxtw
    2244:	54000109 	b.ls	2264 <propget_get_property+0x158>  // b.plast
/media/home/beste/01_Pro/ld25x/bsp_hu/MYD-LD25X-Uboot-L2022.10-V1.0.0/GEN_FIP/myir-st-optee/lib/libutee/tee_api_property.c:188
    2248:	f9403be0 	ldr	x0, [sp, #112]
    224c:	aa0403e3 	mov	x3, x4
    2250:	52800304 	mov	w4, #0x18                  	// #24
    2254:	aa1403e2 	mov	x2, x20
    2258:	aa1603e1 	mov	x1, x22
    225c:	9ba400e0 	umaddl	x0, w7, w4, x0
    2260:	17ffffe5 	b	21f4 <propget_get_property+0xe8>
/media/home/beste/01_Pro/ld25x/bsp_hu/MYD-LD25X-Uboot-L2022.10-V1.0.0/GEN_FIP/myir-st-optee/lib/libutee/tee_api_property.c:191
    2264:	aa0403e5 	mov	x5, x4
    2268:	4b0100e1 	sub	w1, w7, w1
    226c:	9101a3e6 	add	x6, sp, #0x68
    2270:	aa1403e4 	mov	x4, x20
    2274:	aa0803e0 	mov	x0, x8
    2278:	d2800003 	mov	x3, #0x0                   	// #0
    227c:	d2800002 	mov	x2, #0x0                   	// #0
    2280:	94000294 	bl	2cd0 <_utee_get_property>
/media/home/beste/01_Pro/ld25x/bsp_hu/MYD-LD25X-Uboot-L2022.10-V1.0.0/GEN_FIP/myir-st-optee/lib/libutee/tee_api_property.c:194
    2284:	129ffee1 	mov	w1, #0xffff0008            	// #-65528
    2288:	6b01001f 	cmp	w0, w1
    228c:	129fff21 	mov	w1, #0xffff0006            	// #-65530
    2290:	1a811000 	csel	w0, w0, w1, ne	// ne = any
    2294:	17ffffc6 	b	21ac <propget_get_property+0xa0>
/media/home/beste/01_Pro/ld25x/bsp_hu/MYD-LD25X-Uboot-L2022.10-V1.0.0/GEN_FIP/myir-st-optee/lib/libutee/tee_api_property.c:181
    2298:	129ffee0 	mov	w0, #0xffff0008            	// #-65528
    229c:	17ffffc6 	b	21b4 <propget_get_property+0xa8>

00000000000022a0 <TEE_GetPropertyAsString>:
TEE_GetPropertyAsString():
/media/home/beste/01_Pro/ld25x/bsp_hu/MYD-LD25X-Uboot-L2022.10-V1.0.0/GEN_FIP/myir-st-optee/lib/libutee/tee_api_property.c:204
    22a0:	a9bb7bfd 	stp	x29, x30, [sp, #-80]!
    22a4:	910003fd 	mov	x29, sp
    22a8:	a90153f3 	stp	x19, x20, [sp, #16]
    22ac:	aa0303f4 	mov	x20, x3
    22b0:	a9025bf5 	stp	x21, x22, [sp, #32]
    22b4:	aa0103f5 	mov	x21, x1
    22b8:	aa0203f6 	mov	x22, x2
    22bc:	f9001bf7 	str	x23, [sp, #48]
    22c0:	aa0003f7 	mov	x23, x0
/media/home/beste/01_Pro/ld25x/bsp_hu/MYD-LD25X-Uboot-L2022.10-V1.0.0/GEN_FIP/myir-st-optee/lib/libutee/tee_api_property.c:214
    22c4:	97ffff42 	bl	1fcc <is_propset_pseudo_handle>
    22c8:	72001c1f 	tst	w0, #0xff
    22cc:	54000060 	b.eq	22d8 <TEE_GetPropertyAsString+0x38>  // b.none
/media/home/beste/01_Pro/ld25x/bsp_hu/MYD-LD25X-Uboot-L2022.10-V1.0.0/GEN_FIP/myir-st-optee/lib/libutee/tee_api_property.c:215
    22d0:	aa1503e0 	mov	x0, x21
    22d4:	97fffef0 	bl	1e94 <__utee_check_instring_annotation>
/media/home/beste/01_Pro/ld25x/bsp_hu/MYD-LD25X-Uboot-L2022.10-V1.0.0/GEN_FIP/myir-st-optee/lib/libutee/tee_api_property.c:216
    22d8:	aa1403e1 	mov	x1, x20
    22dc:	aa1603e0 	mov	x0, x22
    22e0:	97fffefd 	bl	1ed4 <__utee_check_outstring_annotation>
/media/home/beste/01_Pro/ld25x/bsp_hu/MYD-LD25X-Uboot-L2022.10-V1.0.0/GEN_FIP/myir-st-optee/lib/libutee/tee_api_property.c:219
    22e4:	b9400282 	ldr	w2, [x20]
    22e8:	52800280 	mov	w0, #0x14                  	// #20
/media/home/beste/01_Pro/ld25x/bsp_hu/MYD-LD25X-Uboot-L2022.10-V1.0.0/GEN_FIP/myir-st-optee/lib/libutee/tee_api_property.c:221
    22ec:	52b00001 	mov	w1, #0x80000000            	// #-2147483648
/media/home/beste/01_Pro/ld25x/bsp_hu/MYD-LD25X-Uboot-L2022.10-V1.0.0/GEN_FIP/myir-st-optee/lib/libutee/tee_api_property.c:219
    22f0:	7100505f 	cmp	w2, #0x14
    22f4:	1a802040 	csel	w0, w2, w0, cs	// cs = hs, nlast
/media/home/beste/01_Pro/ld25x/bsp_hu/MYD-LD25X-Uboot-L2022.10-V1.0.0/GEN_FIP/myir-st-optee/lib/libutee/tee_api_property.c:218
    22f8:	b90047e0 	str	w0, [sp, #68]
/media/home/beste/01_Pro/ld25x/bsp_hu/MYD-LD25X-Uboot-L2022.10-V1.0.0/GEN_FIP/myir-st-optee/lib/libutee/tee_api_property.c:221
    22fc:	97fffe94 	bl	1d4c <TEE_Malloc>
    2300:	aa0003f3 	mov	x19, x0
/media/home/beste/01_Pro/ld25x/bsp_hu/MYD-LD25X-Uboot-L2022.10-V1.0.0/GEN_FIP/myir-st-optee/lib/libutee/tee_api_property.c:222
    2304:	b4000e40 	cbz	x0, 24cc <TEE_GetPropertyAsString+0x22c>
/media/home/beste/01_Pro/ld25x/bsp_hu/MYD-LD25X-Uboot-L2022.10-V1.0.0/GEN_FIP/myir-st-optee/lib/libutee/tee_api_property.c:227
    2308:	aa0003e3 	mov	x3, x0
    230c:	aa1503e1 	mov	x1, x21
    2310:	910113e4 	add	x4, sp, #0x44
    2314:	910103e2 	add	x2, sp, #0x40
    2318:	aa1703e0 	mov	x0, x23
    231c:	97ffff7c 	bl	210c <propget_get_property>
    2320:	2a0003f5 	mov	w21, w0
